ARM GAS  C:\Users\310295~1\AppData\Local\Temp\ccR0d7KE.s 			page 1


   1              		.cpu cortex-m0
   2              		.fpu softvfp
   3              		.eabi_attribute 20, 1
   4              		.eabi_attribute 21, 1
   5              		.eabi_attribute 23, 3
   6              		.eabi_attribute 24, 1
   7              		.eabi_attribute 25, 1
   8              		.eabi_attribute 26, 1
   9              		.eabi_attribute 30, 4
  10              		.eabi_attribute 34, 0
  11              		.eabi_attribute 18, 4
  12              		.code	16
  13              		.file	"cyfitter_cfg.c"
  14              		.text
  15              	.Ltext0:
  16              		.cfi_sections	.debug_frame
  17              		.section	.psocinit,"ax",%progbits
  18              		.align	1
  19              		.global	cyfitter_cfg
  20              		.code	16
  21              		.thumb_func
  22              		.type	cyfitter_cfg, %function
  23              	cyfitter_cfg:
  24              	.LFB8:
  25              		.file 1 ".\\Generated_Source\\PSoC4\\cyfitter_cfg.c"
   1:.\Generated_Source\PSoC4/cyfitter_cfg.c **** /*******************************************************************************
   2:.\Generated_Source\PSoC4/cyfitter_cfg.c **** * File Name: cyfitter_cfg.c
   3:.\Generated_Source\PSoC4/cyfitter_cfg.c **** * 
   4:.\Generated_Source\PSoC4/cyfitter_cfg.c **** * PSoC Creator  3.3 CP3
   5:.\Generated_Source\PSoC4/cyfitter_cfg.c **** *
   6:.\Generated_Source\PSoC4/cyfitter_cfg.c **** * Description:
   7:.\Generated_Source\PSoC4/cyfitter_cfg.c **** * This file contains device initialization code.
   8:.\Generated_Source\PSoC4/cyfitter_cfg.c **** * Except for the user defined sections in CyClockStartupError(), this file should not be modified.
   9:.\Generated_Source\PSoC4/cyfitter_cfg.c **** * This file is automatically generated by PSoC Creator.
  10:.\Generated_Source\PSoC4/cyfitter_cfg.c **** *
  11:.\Generated_Source\PSoC4/cyfitter_cfg.c **** ********************************************************************************
  12:.\Generated_Source\PSoC4/cyfitter_cfg.c **** * Copyright (c) 2007-2016 Cypress Semiconductor.  All rights reserved.
  13:.\Generated_Source\PSoC4/cyfitter_cfg.c **** * You may use this file only in accordance with the license, terms, conditions, 
  14:.\Generated_Source\PSoC4/cyfitter_cfg.c **** * disclaimers, and limitations in the end user license agreement accompanying 
  15:.\Generated_Source\PSoC4/cyfitter_cfg.c **** * the software package with which this file was provided.
  16:.\Generated_Source\PSoC4/cyfitter_cfg.c **** ********************************************************************************/
  17:.\Generated_Source\PSoC4/cyfitter_cfg.c **** 
  18:.\Generated_Source\PSoC4/cyfitter_cfg.c **** #include <string.h>
  19:.\Generated_Source\PSoC4/cyfitter_cfg.c **** #include "cytypes.h"
  20:.\Generated_Source\PSoC4/cyfitter_cfg.c **** #include "cydevice_trm.h"
  21:.\Generated_Source\PSoC4/cyfitter_cfg.c **** #include "cyfitter.h"
  22:.\Generated_Source\PSoC4/cyfitter_cfg.c **** #include "CyLib.h"
  23:.\Generated_Source\PSoC4/cyfitter_cfg.c **** #include "CyLFClk.h"
  24:.\Generated_Source\PSoC4/cyfitter_cfg.c **** #include "cyfitter_cfg.h"
  25:.\Generated_Source\PSoC4/cyfitter_cfg.c **** 
  26:.\Generated_Source\PSoC4/cyfitter_cfg.c **** 
  27:.\Generated_Source\PSoC4/cyfitter_cfg.c **** #if defined(__GNUC__) || defined(__ARMCC_VERSION)
  28:.\Generated_Source\PSoC4/cyfitter_cfg.c ****     #define CYPACKED 
  29:.\Generated_Source\PSoC4/cyfitter_cfg.c ****     #define CYPACKED_ATTR __attribute__ ((packed))
  30:.\Generated_Source\PSoC4/cyfitter_cfg.c ****     #define CYALIGNED __attribute__ ((aligned))
  31:.\Generated_Source\PSoC4/cyfitter_cfg.c ****     #define CY_CFG_UNUSED __attribute__ ((unused))
  32:.\Generated_Source\PSoC4/cyfitter_cfg.c ****     #ifndef CY_CFG_SECTION
ARM GAS  C:\Users\310295~1\AppData\Local\Temp\ccR0d7KE.s 			page 2


  33:.\Generated_Source\PSoC4/cyfitter_cfg.c ****         #define CY_CFG_SECTION __attribute__ ((section(".psocinit")))
  34:.\Generated_Source\PSoC4/cyfitter_cfg.c ****     #endif
  35:.\Generated_Source\PSoC4/cyfitter_cfg.c ****     
  36:.\Generated_Source\PSoC4/cyfitter_cfg.c ****     #if defined(__ARMCC_VERSION)
  37:.\Generated_Source\PSoC4/cyfitter_cfg.c ****         #define CY_CFG_MEMORY_BARRIER() __memory_changed()
  38:.\Generated_Source\PSoC4/cyfitter_cfg.c ****     #else
  39:.\Generated_Source\PSoC4/cyfitter_cfg.c ****         #define CY_CFG_MEMORY_BARRIER() __sync_synchronize()
  40:.\Generated_Source\PSoC4/cyfitter_cfg.c ****     #endif
  41:.\Generated_Source\PSoC4/cyfitter_cfg.c ****     
  42:.\Generated_Source\PSoC4/cyfitter_cfg.c **** #elif defined(__ICCARM__)
  43:.\Generated_Source\PSoC4/cyfitter_cfg.c ****     #include <intrinsics.h>
  44:.\Generated_Source\PSoC4/cyfitter_cfg.c **** 
  45:.\Generated_Source\PSoC4/cyfitter_cfg.c ****     #define CYPACKED __packed
  46:.\Generated_Source\PSoC4/cyfitter_cfg.c ****     #define CYPACKED_ATTR 
  47:.\Generated_Source\PSoC4/cyfitter_cfg.c ****     #define CYALIGNED _Pragma("data_alignment=4")
  48:.\Generated_Source\PSoC4/cyfitter_cfg.c ****     #define CY_CFG_UNUSED _Pragma("diag_suppress=Pe177")
  49:.\Generated_Source\PSoC4/cyfitter_cfg.c ****     #define CY_CFG_SECTION _Pragma("location=\".psocinit\"")
  50:.\Generated_Source\PSoC4/cyfitter_cfg.c ****     
  51:.\Generated_Source\PSoC4/cyfitter_cfg.c ****     #define CY_CFG_MEMORY_BARRIER() __DMB()
  52:.\Generated_Source\PSoC4/cyfitter_cfg.c ****     
  53:.\Generated_Source\PSoC4/cyfitter_cfg.c **** #else
  54:.\Generated_Source\PSoC4/cyfitter_cfg.c ****     #error Unsupported toolchain
  55:.\Generated_Source\PSoC4/cyfitter_cfg.c **** #endif
  56:.\Generated_Source\PSoC4/cyfitter_cfg.c **** 
  57:.\Generated_Source\PSoC4/cyfitter_cfg.c **** 
  58:.\Generated_Source\PSoC4/cyfitter_cfg.c **** CY_CFG_UNUSED
  59:.\Generated_Source\PSoC4/cyfitter_cfg.c **** static void CYMEMZERO(void *s, size_t n);
  60:.\Generated_Source\PSoC4/cyfitter_cfg.c **** CY_CFG_UNUSED
  61:.\Generated_Source\PSoC4/cyfitter_cfg.c **** static void CYMEMZERO(void *s, size_t n)
  62:.\Generated_Source\PSoC4/cyfitter_cfg.c **** {
  63:.\Generated_Source\PSoC4/cyfitter_cfg.c **** 	(void)memset(s, 0, n);
  64:.\Generated_Source\PSoC4/cyfitter_cfg.c **** }
  65:.\Generated_Source\PSoC4/cyfitter_cfg.c **** CY_CFG_UNUSED
  66:.\Generated_Source\PSoC4/cyfitter_cfg.c **** static void CYCONFIGCPY(void *dest, const void *src, size_t n);
  67:.\Generated_Source\PSoC4/cyfitter_cfg.c **** CY_CFG_UNUSED
  68:.\Generated_Source\PSoC4/cyfitter_cfg.c **** static void CYCONFIGCPY(void *dest, const void *src, size_t n)
  69:.\Generated_Source\PSoC4/cyfitter_cfg.c **** {
  70:.\Generated_Source\PSoC4/cyfitter_cfg.c **** 	(void)memcpy(dest, src, n);
  71:.\Generated_Source\PSoC4/cyfitter_cfg.c **** }
  72:.\Generated_Source\PSoC4/cyfitter_cfg.c **** CY_CFG_UNUSED
  73:.\Generated_Source\PSoC4/cyfitter_cfg.c **** static void CYCONFIGCPYCODE(void *dest, const void *src, size_t n);
  74:.\Generated_Source\PSoC4/cyfitter_cfg.c **** CY_CFG_UNUSED
  75:.\Generated_Source\PSoC4/cyfitter_cfg.c **** static void CYCONFIGCPYCODE(void *dest, const void *src, size_t n)
  76:.\Generated_Source\PSoC4/cyfitter_cfg.c **** {
  77:.\Generated_Source\PSoC4/cyfitter_cfg.c **** 	(void)memcpy(dest, src, n);
  78:.\Generated_Source\PSoC4/cyfitter_cfg.c **** }
  79:.\Generated_Source\PSoC4/cyfitter_cfg.c **** 
  80:.\Generated_Source\PSoC4/cyfitter_cfg.c **** 
  81:.\Generated_Source\PSoC4/cyfitter_cfg.c **** 
  82:.\Generated_Source\PSoC4/cyfitter_cfg.c **** /* Clock startup error codes                                                   */
  83:.\Generated_Source\PSoC4/cyfitter_cfg.c **** #define CYCLOCKSTART_NO_ERROR    0u
  84:.\Generated_Source\PSoC4/cyfitter_cfg.c **** #define CYCLOCKSTART_XTAL_ERROR  1u
  85:.\Generated_Source\PSoC4/cyfitter_cfg.c **** #define CYCLOCKSTART_32KHZ_ERROR 2u
  86:.\Generated_Source\PSoC4/cyfitter_cfg.c **** #define CYCLOCKSTART_PLL_ERROR   3u
  87:.\Generated_Source\PSoC4/cyfitter_cfg.c **** 
  88:.\Generated_Source\PSoC4/cyfitter_cfg.c **** #ifdef CY_NEED_CYCLOCKSTARTUPERROR
  89:.\Generated_Source\PSoC4/cyfitter_cfg.c **** /*******************************************************************************
ARM GAS  C:\Users\310295~1\AppData\Local\Temp\ccR0d7KE.s 			page 3


  90:.\Generated_Source\PSoC4/cyfitter_cfg.c **** * Function Name: CyClockStartupError
  91:.\Generated_Source\PSoC4/cyfitter_cfg.c **** ********************************************************************************
  92:.\Generated_Source\PSoC4/cyfitter_cfg.c **** * Summary:
  93:.\Generated_Source\PSoC4/cyfitter_cfg.c **** *  If an error is encountered during clock configuration (crystal startup error,
  94:.\Generated_Source\PSoC4/cyfitter_cfg.c **** *  PLL lock error, etc.), the system will end up here.  Unless reimplemented by
  95:.\Generated_Source\PSoC4/cyfitter_cfg.c **** *  the customer, this function will stop in an infinite loop.
  96:.\Generated_Source\PSoC4/cyfitter_cfg.c **** *
  97:.\Generated_Source\PSoC4/cyfitter_cfg.c **** * Parameters:
  98:.\Generated_Source\PSoC4/cyfitter_cfg.c **** *   void
  99:.\Generated_Source\PSoC4/cyfitter_cfg.c **** *
 100:.\Generated_Source\PSoC4/cyfitter_cfg.c **** * Return:
 101:.\Generated_Source\PSoC4/cyfitter_cfg.c **** *   void
 102:.\Generated_Source\PSoC4/cyfitter_cfg.c **** *
 103:.\Generated_Source\PSoC4/cyfitter_cfg.c **** *******************************************************************************/
 104:.\Generated_Source\PSoC4/cyfitter_cfg.c **** CY_CFG_UNUSED
 105:.\Generated_Source\PSoC4/cyfitter_cfg.c **** static void CyClockStartupError(uint8 errorCode);
 106:.\Generated_Source\PSoC4/cyfitter_cfg.c **** CY_CFG_UNUSED
 107:.\Generated_Source\PSoC4/cyfitter_cfg.c **** static void CyClockStartupError(uint8 errorCode)
 108:.\Generated_Source\PSoC4/cyfitter_cfg.c **** {
 109:.\Generated_Source\PSoC4/cyfitter_cfg.c ****     /* To remove the compiler warning if errorCode not used.                */
 110:.\Generated_Source\PSoC4/cyfitter_cfg.c ****     errorCode = errorCode;
 111:.\Generated_Source\PSoC4/cyfitter_cfg.c **** 
 112:.\Generated_Source\PSoC4/cyfitter_cfg.c ****     /* `#START CyClockStartupError` */
 113:.\Generated_Source\PSoC4/cyfitter_cfg.c **** 
 114:.\Generated_Source\PSoC4/cyfitter_cfg.c ****     /* If we have a clock startup error (bad MHz crystal, PLL lock, etc.),  */
 115:.\Generated_Source\PSoC4/cyfitter_cfg.c ****     /* we will end up here to allow the customer to implement something to  */
 116:.\Generated_Source\PSoC4/cyfitter_cfg.c ****     /* deal with the clock condition.                                       */
 117:.\Generated_Source\PSoC4/cyfitter_cfg.c **** 
 118:.\Generated_Source\PSoC4/cyfitter_cfg.c ****     /* `#END` */
 119:.\Generated_Source\PSoC4/cyfitter_cfg.c **** 
 120:.\Generated_Source\PSoC4/cyfitter_cfg.c ****     /* If nothing else, stop here since the clocks have not started         */
 121:.\Generated_Source\PSoC4/cyfitter_cfg.c ****     /* correctly.                                                           */
 122:.\Generated_Source\PSoC4/cyfitter_cfg.c ****     while(1) {}
 123:.\Generated_Source\PSoC4/cyfitter_cfg.c **** }
 124:.\Generated_Source\PSoC4/cyfitter_cfg.c **** #endif
 125:.\Generated_Source\PSoC4/cyfitter_cfg.c **** 
 126:.\Generated_Source\PSoC4/cyfitter_cfg.c **** #define CY_CFG_BASE_ADDR_COUNT 1u
 127:.\Generated_Source\PSoC4/cyfitter_cfg.c **** CYPACKED typedef struct
 128:.\Generated_Source\PSoC4/cyfitter_cfg.c **** {
 129:.\Generated_Source\PSoC4/cyfitter_cfg.c **** 	uint8 offset;
 130:.\Generated_Source\PSoC4/cyfitter_cfg.c **** 	uint8 value;
 131:.\Generated_Source\PSoC4/cyfitter_cfg.c **** } CYPACKED_ATTR cy_cfg_addrvalue_t;
 132:.\Generated_Source\PSoC4/cyfitter_cfg.c **** 
 133:.\Generated_Source\PSoC4/cyfitter_cfg.c **** 
 134:.\Generated_Source\PSoC4/cyfitter_cfg.c **** 
 135:.\Generated_Source\PSoC4/cyfitter_cfg.c **** /*******************************************************************************
 136:.\Generated_Source\PSoC4/cyfitter_cfg.c **** * Function Name: cfg_write_bytes32
 137:.\Generated_Source\PSoC4/cyfitter_cfg.c **** ********************************************************************************
 138:.\Generated_Source\PSoC4/cyfitter_cfg.c **** * Summary:
 139:.\Generated_Source\PSoC4/cyfitter_cfg.c **** *  This function is used for setting up the chip configuration areas that
 140:.\Generated_Source\PSoC4/cyfitter_cfg.c **** *  contain relatively sparse data.
 141:.\Generated_Source\PSoC4/cyfitter_cfg.c **** *
 142:.\Generated_Source\PSoC4/cyfitter_cfg.c **** * Parameters:
 143:.\Generated_Source\PSoC4/cyfitter_cfg.c **** *   void
 144:.\Generated_Source\PSoC4/cyfitter_cfg.c **** *
 145:.\Generated_Source\PSoC4/cyfitter_cfg.c **** * Return:
 146:.\Generated_Source\PSoC4/cyfitter_cfg.c **** *   void
ARM GAS  C:\Users\310295~1\AppData\Local\Temp\ccR0d7KE.s 			page 4


 147:.\Generated_Source\PSoC4/cyfitter_cfg.c **** *
 148:.\Generated_Source\PSoC4/cyfitter_cfg.c **** *******************************************************************************/
 149:.\Generated_Source\PSoC4/cyfitter_cfg.c **** static void cfg_write_bytes32(const uint32 addr_table[], const cy_cfg_addrvalue_t data_table[]);
 150:.\Generated_Source\PSoC4/cyfitter_cfg.c **** static void cfg_write_bytes32(const uint32 addr_table[], const cy_cfg_addrvalue_t data_table[])
 151:.\Generated_Source\PSoC4/cyfitter_cfg.c **** {
 152:.\Generated_Source\PSoC4/cyfitter_cfg.c **** 	/* For 32-bit little-endian architectures */
 153:.\Generated_Source\PSoC4/cyfitter_cfg.c **** 	uint32 i, j = 0u;
 154:.\Generated_Source\PSoC4/cyfitter_cfg.c **** 	for (i = 0u; i < CY_CFG_BASE_ADDR_COUNT; i++)
 155:.\Generated_Source\PSoC4/cyfitter_cfg.c **** 	{
 156:.\Generated_Source\PSoC4/cyfitter_cfg.c **** 		uint32 baseAddr = addr_table[i];
 157:.\Generated_Source\PSoC4/cyfitter_cfg.c **** 		uint8 count = (uint8)baseAddr;
 158:.\Generated_Source\PSoC4/cyfitter_cfg.c **** 		baseAddr &= 0xFFFFFF00u;
 159:.\Generated_Source\PSoC4/cyfitter_cfg.c **** 		while (count != 0u)
 160:.\Generated_Source\PSoC4/cyfitter_cfg.c **** 		{
 161:.\Generated_Source\PSoC4/cyfitter_cfg.c **** 			CY_SET_XTND_REG8((void CYFAR *)(baseAddr + data_table[j].offset), data_table[j].value);
 162:.\Generated_Source\PSoC4/cyfitter_cfg.c **** 			j++;
 163:.\Generated_Source\PSoC4/cyfitter_cfg.c **** 			count--;
 164:.\Generated_Source\PSoC4/cyfitter_cfg.c **** 		}
 165:.\Generated_Source\PSoC4/cyfitter_cfg.c **** 	}
 166:.\Generated_Source\PSoC4/cyfitter_cfg.c **** }
 167:.\Generated_Source\PSoC4/cyfitter_cfg.c **** 
 168:.\Generated_Source\PSoC4/cyfitter_cfg.c **** 
 169:.\Generated_Source\PSoC4/cyfitter_cfg.c **** /*******************************************************************************
 170:.\Generated_Source\PSoC4/cyfitter_cfg.c **** * Function Name: ClockSetup
 171:.\Generated_Source\PSoC4/cyfitter_cfg.c **** ********************************************************************************
 172:.\Generated_Source\PSoC4/cyfitter_cfg.c **** *
 173:.\Generated_Source\PSoC4/cyfitter_cfg.c **** * Summary:
 174:.\Generated_Source\PSoC4/cyfitter_cfg.c **** *   Performs the initialization of all of the clocks in the device based on the
 175:.\Generated_Source\PSoC4/cyfitter_cfg.c **** *   settings in the Clock tab of the DWR.  This includes enabling the requested
 176:.\Generated_Source\PSoC4/cyfitter_cfg.c **** *   clocks and setting the necessary dividers to produce the desired frequency. 
 177:.\Generated_Source\PSoC4/cyfitter_cfg.c **** *
 178:.\Generated_Source\PSoC4/cyfitter_cfg.c **** * Parameters:
 179:.\Generated_Source\PSoC4/cyfitter_cfg.c **** *   void
 180:.\Generated_Source\PSoC4/cyfitter_cfg.c **** *
 181:.\Generated_Source\PSoC4/cyfitter_cfg.c **** * Return:
 182:.\Generated_Source\PSoC4/cyfitter_cfg.c **** *   void
 183:.\Generated_Source\PSoC4/cyfitter_cfg.c **** *
 184:.\Generated_Source\PSoC4/cyfitter_cfg.c **** *******************************************************************************/
 185:.\Generated_Source\PSoC4/cyfitter_cfg.c **** static void ClockSetup(void);
 186:.\Generated_Source\PSoC4/cyfitter_cfg.c **** CY_CFG_SECTION
 187:.\Generated_Source\PSoC4/cyfitter_cfg.c **** static void ClockSetup(void)
 188:.\Generated_Source\PSoC4/cyfitter_cfg.c **** {
 189:.\Generated_Source\PSoC4/cyfitter_cfg.c **** 
 190:.\Generated_Source\PSoC4/cyfitter_cfg.c **** 	/* Set Flash Cycles based on max possible frequency in case a glitch occurs during ClockSetup(). *
 191:.\Generated_Source\PSoC4/cyfitter_cfg.c **** 	CY_SET_REG32((void CYXDATA *)(CYREG_CPUSS_FLASH_CTL), (0x0012u));
 192:.\Generated_Source\PSoC4/cyfitter_cfg.c **** 
 193:.\Generated_Source\PSoC4/cyfitter_cfg.c **** 	/* Start the WCO */
 194:.\Generated_Source\PSoC4/cyfitter_cfg.c **** 	CySysClkWcoStart();
 195:.\Generated_Source\PSoC4/cyfitter_cfg.c **** 	CyDelayCycles(12000000u); /* WCO may take up to 500ms to start */
 196:.\Generated_Source\PSoC4/cyfitter_cfg.c **** 	(void)CySysClkWcoSetPowerMode(CY_SYS_CLK_WCO_LPM);    /* Switch to the low power mode */
 197:.\Generated_Source\PSoC4/cyfitter_cfg.c **** 
 198:.\Generated_Source\PSoC4/cyfitter_cfg.c **** 	/* Setup and trim IMO based on desired frequency. */
 199:.\Generated_Source\PSoC4/cyfitter_cfg.c **** 	CySysClkWriteImoFreq(12u);
 200:.\Generated_Source\PSoC4/cyfitter_cfg.c **** 	/* CYDEV_WDT_CONFIG Starting address: CYDEV_WDT_CONFIG */
 201:.\Generated_Source\PSoC4/cyfitter_cfg.c **** 	CY_SET_XTND_REG32((void CYFAR *)(CYREG_WDT_CONFIG), 0x40000000u);
 202:.\Generated_Source\PSoC4/cyfitter_cfg.c **** 
 203:.\Generated_Source\PSoC4/cyfitter_cfg.c **** 
ARM GAS  C:\Users\310295~1\AppData\Local\Temp\ccR0d7KE.s 			page 5


 204:.\Generated_Source\PSoC4/cyfitter_cfg.c **** 	/* Enable fast start mode for XO */
 205:.\Generated_Source\PSoC4/cyfitter_cfg.c **** 	CY_SET_REG32((void*)CYREG_BLE_BLERD_BB_XO, CY_GET_REG32((void*)CYREG_BLE_BLERD_BB_XO) | (uint32)0x
 206:.\Generated_Source\PSoC4/cyfitter_cfg.c **** 	CY_SET_XTND_REG32((void CYFAR *)(CYREG_BLE_BLERD_BB_XO_CAPTRIM), 0x00004E4Eu);
 207:.\Generated_Source\PSoC4/cyfitter_cfg.c **** 	/* Disable Crystal Stable Interrupt before enabling ECO */
 208:.\Generated_Source\PSoC4/cyfitter_cfg.c **** 	CY_SET_REG32((void*)CYREG_BLE_BLESS_LL_DSM_CTRL, CY_GET_REG32((void*)CYREG_BLE_BLESS_LL_DSM_CTRL) 
 209:.\Generated_Source\PSoC4/cyfitter_cfg.c **** 	/* Start the ECO and do not check status since it is not needed for HFCLK */
 210:.\Generated_Source\PSoC4/cyfitter_cfg.c **** 	(void)CySysClkEcoStart(2000u);
 211:.\Generated_Source\PSoC4/cyfitter_cfg.c **** 	CyDelayUs(1500u); /* Wait to stabalize */
 212:.\Generated_Source\PSoC4/cyfitter_cfg.c **** 
 213:.\Generated_Source\PSoC4/cyfitter_cfg.c **** 	/* Setup phase aligned clocks */
 214:.\Generated_Source\PSoC4/cyfitter_cfg.c **** 
 215:.\Generated_Source\PSoC4/cyfitter_cfg.c **** 	/* CYDEV_CLK_IMO_CONFIG Starting address: CYDEV_CLK_IMO_CONFIG */
 216:.\Generated_Source\PSoC4/cyfitter_cfg.c **** 	CY_SET_XTND_REG32((void CYFAR *)(CYREG_CLK_IMO_CONFIG), 0x80000000u);
 217:.\Generated_Source\PSoC4/cyfitter_cfg.c **** 
 218:.\Generated_Source\PSoC4/cyfitter_cfg.c **** 	/* CYDEV_CLK_SELECT Starting address: CYDEV_CLK_SELECT */
 219:.\Generated_Source\PSoC4/cyfitter_cfg.c **** 	CY_SET_XTND_REG32((void CYFAR *)(CYREG_CLK_SELECT), 0x00000000u);
 220:.\Generated_Source\PSoC4/cyfitter_cfg.c **** 
 221:.\Generated_Source\PSoC4/cyfitter_cfg.c **** 	(void)CyIntSetVector(8u, &CySysWdtIsr);
 222:.\Generated_Source\PSoC4/cyfitter_cfg.c **** 	CyIntEnable(8u);
 223:.\Generated_Source\PSoC4/cyfitter_cfg.c **** 	CY_SET_XTND_REG32((void CYFAR *)(CYREG_WDT_CONFIG), 0x40000000u);
 224:.\Generated_Source\PSoC4/cyfitter_cfg.c **** 	/* Set Flash Cycles based on newly configured 12.00MHz HFCLK. */
 225:.\Generated_Source\PSoC4/cyfitter_cfg.c **** 	CY_SET_REG32((void CYXDATA *)(CYREG_CPUSS_FLASH_CTL), (0x0000u));
 226:.\Generated_Source\PSoC4/cyfitter_cfg.c **** }
 227:.\Generated_Source\PSoC4/cyfitter_cfg.c **** 
 228:.\Generated_Source\PSoC4/cyfitter_cfg.c **** 
 229:.\Generated_Source\PSoC4/cyfitter_cfg.c **** /* Analog API Functions */
 230:.\Generated_Source\PSoC4/cyfitter_cfg.c **** 
 231:.\Generated_Source\PSoC4/cyfitter_cfg.c **** 
 232:.\Generated_Source\PSoC4/cyfitter_cfg.c **** /*******************************************************************************
 233:.\Generated_Source\PSoC4/cyfitter_cfg.c **** * Function Name: AnalogSetDefault
 234:.\Generated_Source\PSoC4/cyfitter_cfg.c **** ********************************************************************************
 235:.\Generated_Source\PSoC4/cyfitter_cfg.c **** *
 236:.\Generated_Source\PSoC4/cyfitter_cfg.c **** * Summary:
 237:.\Generated_Source\PSoC4/cyfitter_cfg.c **** *  Sets up the analog portions of the chip to default values based on chip
 238:.\Generated_Source\PSoC4/cyfitter_cfg.c **** *  configuration options from the project.
 239:.\Generated_Source\PSoC4/cyfitter_cfg.c **** *
 240:.\Generated_Source\PSoC4/cyfitter_cfg.c **** * Parameters:
 241:.\Generated_Source\PSoC4/cyfitter_cfg.c **** *  void
 242:.\Generated_Source\PSoC4/cyfitter_cfg.c **** *
 243:.\Generated_Source\PSoC4/cyfitter_cfg.c **** * Return:
 244:.\Generated_Source\PSoC4/cyfitter_cfg.c **** *  void
 245:.\Generated_Source\PSoC4/cyfitter_cfg.c **** *
 246:.\Generated_Source\PSoC4/cyfitter_cfg.c **** *******************************************************************************/
 247:.\Generated_Source\PSoC4/cyfitter_cfg.c **** static void AnalogSetDefault(void);
 248:.\Generated_Source\PSoC4/cyfitter_cfg.c **** static void AnalogSetDefault(void)
 249:.\Generated_Source\PSoC4/cyfitter_cfg.c **** {
 250:.\Generated_Source\PSoC4/cyfitter_cfg.c **** 	CY_SET_XTND_REG32((void CYFAR *)CYREG_CTBM0_DFT_CTRL, 0x00000003u);
 251:.\Generated_Source\PSoC4/cyfitter_cfg.c **** 	CY_SET_XTND_REG32((void CYFAR *)CYREG_CTBM1_DFT_CTRL, 0x00000003u);
 252:.\Generated_Source\PSoC4/cyfitter_cfg.c **** 	CY_SET_XTND_REG32((void CYFAR *)CYREG_PASS_DSAB_DSAB_CTRL, 0x00000000u);
 253:.\Generated_Source\PSoC4/cyfitter_cfg.c **** }
 254:.\Generated_Source\PSoC4/cyfitter_cfg.c **** 
 255:.\Generated_Source\PSoC4/cyfitter_cfg.c **** #define CY_AMUX_UNUSED CYREG_CM0_ROM_DWT
 256:.\Generated_Source\PSoC4/cyfitter_cfg.c **** 
 257:.\Generated_Source\PSoC4/cyfitter_cfg.c **** 
 258:.\Generated_Source\PSoC4/cyfitter_cfg.c **** /*******************************************************************************
 259:.\Generated_Source\PSoC4/cyfitter_cfg.c **** * Function Name: cyfitter_cfg
 260:.\Generated_Source\PSoC4/cyfitter_cfg.c **** ********************************************************************************
ARM GAS  C:\Users\310295~1\AppData\Local\Temp\ccR0d7KE.s 			page 6


 261:.\Generated_Source\PSoC4/cyfitter_cfg.c **** * Summary:
 262:.\Generated_Source\PSoC4/cyfitter_cfg.c **** *  This function is called by the start-up code for the selected device. It
 263:.\Generated_Source\PSoC4/cyfitter_cfg.c **** *  performs all of the necessary device configuration based on the design
 264:.\Generated_Source\PSoC4/cyfitter_cfg.c **** *  settings.  This includes settings from the Design Wide Resources (DWR) such
 265:.\Generated_Source\PSoC4/cyfitter_cfg.c **** *  as Clocks and Pins as well as any component configuration that is necessary.
 266:.\Generated_Source\PSoC4/cyfitter_cfg.c **** *
 267:.\Generated_Source\PSoC4/cyfitter_cfg.c **** * Parameters:  
 268:.\Generated_Source\PSoC4/cyfitter_cfg.c **** *   void
 269:.\Generated_Source\PSoC4/cyfitter_cfg.c **** *
 270:.\Generated_Source\PSoC4/cyfitter_cfg.c **** * Return:
 271:.\Generated_Source\PSoC4/cyfitter_cfg.c **** *   void
 272:.\Generated_Source\PSoC4/cyfitter_cfg.c **** *
 273:.\Generated_Source\PSoC4/cyfitter_cfg.c **** *******************************************************************************/
 274:.\Generated_Source\PSoC4/cyfitter_cfg.c **** CY_CFG_SECTION
 275:.\Generated_Source\PSoC4/cyfitter_cfg.c **** void cyfitter_cfg(void)
 276:.\Generated_Source\PSoC4/cyfitter_cfg.c **** {
  26              		.loc 1 276 0
  27              		.cfi_startproc
  28 0000 F8B5     		push	{r3, r4, r5, r6, r7, lr}
  29              		.cfi_def_cfa_offset 24
  30              		.cfi_offset 3, -24
  31              		.cfi_offset 4, -20
  32              		.cfi_offset 5, -16
  33              		.cfi_offset 6, -12
  34              		.cfi_offset 7, -8
  35              		.cfi_offset 14, -4
 277:.\Generated_Source\PSoC4/cyfitter_cfg.c **** 	/* Disable interrupts by default. Let user enable if/when they want. */
 278:.\Generated_Source\PSoC4/cyfitter_cfg.c **** 	CyGlobalIntDisable;
  36              		.loc 1 278 0
  37              	@ 278 ".\Generated_Source\PSoC4\cyfitter_cfg.c" 1
  38 0002 72B6     		CPSID   i
  39              	@ 0 "" 2
  40              		.code	16
  41              	.LBB14:
  42              	.LBB15:
  43              	.LBB16:
  44              	.LBB17:
  63:.\Generated_Source\PSoC4/cyfitter_cfg.c **** }
  45              		.loc 1 63 0
  46 0004 8025     		mov	r5, #128
  47              	.LBE17:
  48              	.LBE16:
  49              	.LBE15:
  50              	.LBE14:
 279:.\Generated_Source\PSoC4/cyfitter_cfg.c **** 
 280:.\Generated_Source\PSoC4/cyfitter_cfg.c **** 	CY_SET_XTND_REG32((void CYFAR *)(CYREG_BLE_BLESS_LL_DSM_CTRL), 0x00000000u);
  51              		.loc 1 280 0
  52 0006 0024     		mov	r4, #0
  53 0008 474E     		ldr	r6, .L2
  54              	.LBB39:
  55              	.LBB24:
  56              	.LBB21:
  57              	.LBB18:
  63:.\Generated_Source\PSoC4/cyfitter_cfg.c **** }
  58              		.loc 1 63 0
  59 000a ED00     		lsl	r5, r5, #3
  60              	.LBE18:
ARM GAS  C:\Users\310295~1\AppData\Local\Temp\ccR0d7KE.s 			page 7


  61              	.LBE21:
  62              	.LBE24:
  63              	.LBE39:
  64              		.loc 1 280 0
  65 000c 3460     		str	r4, [r6]
  66              	.LVL0:
  67              	.LBB40:
  68              	.LBB25:
  69              	.LBB22:
  70              	.LBB19:
  63:.\Generated_Source\PSoC4/cyfitter_cfg.c **** }
  71              		.loc 1 63 0
  72 000e 211C     		mov	r1, r4
  73 0010 2A1C     		mov	r2, r5
  74 0012 4648     		ldr	r0, .L2+4
  75 0014 FFF7FEFF 		bl	memset
  76              	.LVL1:
  77 0018 2A1C     		mov	r2, r5
  78              	.LBE19:
  79              	.LBE22:
  80              	.LBE25:
  81              	.LBB26:
  82              	.LBB27:
  83              	.LBB28:
 161:.\Generated_Source\PSoC4/cyfitter_cfg.c **** 			j++;
  84              		.loc 1 161 0
  85 001a 0125     		mov	r5, #1
  86              	.LBE28:
  87              	.LBE27:
  88              	.LBE26:
  89              	.LBB35:
  90              	.LBB23:
  91              	.LBB20:
  63:.\Generated_Source\PSoC4/cyfitter_cfg.c **** }
  92              		.loc 1 63 0
  93 001c 211C     		mov	r1, r4
  94 001e 4448     		ldr	r0, .L2+8
  95 0020 FFF7FEFF 		bl	memset
  96              	.LVL2:
  97              	.LBE20:
  98              	.LBE23:
  99              	.LBE35:
 100              	.LBB36:
 101              	.LBB32:
 102              	.LBB29:
 161:.\Generated_Source\PSoC4/cyfitter_cfg.c **** 			j++;
 103              		.loc 1 161 0
 104 0024 434B     		ldr	r3, .L2+12
 105              	.LBE29:
 106              	.LBE32:
 107              	.LBE36:
 281:.\Generated_Source\PSoC4/cyfitter_cfg.c **** 
 282:.\Generated_Source\PSoC4/cyfitter_cfg.c **** 	{
 283:.\Generated_Source\PSoC4/cyfitter_cfg.c **** 		static const uint32 CYCODE cy_cfg_addr_table[] = {
 284:.\Generated_Source\PSoC4/cyfitter_cfg.c **** 			0x400F6002u, /* Base address: 0x400F6000 Count: 2 */
 285:.\Generated_Source\PSoC4/cyfitter_cfg.c **** 		};
 286:.\Generated_Source\PSoC4/cyfitter_cfg.c **** 
ARM GAS  C:\Users\310295~1\AppData\Local\Temp\ccR0d7KE.s 			page 8


 287:.\Generated_Source\PSoC4/cyfitter_cfg.c **** 		static const cy_cfg_addrvalue_t CYCODE cy_cfg_data_table[] = {
 288:.\Generated_Source\PSoC4/cyfitter_cfg.c **** 			{0x02u, 0x01u},
 289:.\Generated_Source\PSoC4/cyfitter_cfg.c **** 			{0x11u, 0x01u},
 290:.\Generated_Source\PSoC4/cyfitter_cfg.c **** 		};
 291:.\Generated_Source\PSoC4/cyfitter_cfg.c **** 
 292:.\Generated_Source\PSoC4/cyfitter_cfg.c **** 
 293:.\Generated_Source\PSoC4/cyfitter_cfg.c **** 
 294:.\Generated_Source\PSoC4/cyfitter_cfg.c **** 		CYPACKED typedef struct {
 295:.\Generated_Source\PSoC4/cyfitter_cfg.c **** 			void CYFAR *address;
 296:.\Generated_Source\PSoC4/cyfitter_cfg.c **** 			uint16 size;
 297:.\Generated_Source\PSoC4/cyfitter_cfg.c **** 		} CYPACKED_ATTR cfg_memset_t;
 298:.\Generated_Source\PSoC4/cyfitter_cfg.c **** 
 299:.\Generated_Source\PSoC4/cyfitter_cfg.c **** 		static const cfg_memset_t CYCODE cfg_memset_list [] = {
 300:.\Generated_Source\PSoC4/cyfitter_cfg.c **** 			/* address, size */
 301:.\Generated_Source\PSoC4/cyfitter_cfg.c **** 			{(void CYFAR *)(CYDEV_UDB_P0_U0_BASE), 1024u},
 302:.\Generated_Source\PSoC4/cyfitter_cfg.c **** 			{(void CYFAR *)(CYDEV_UDB_DSI0_BASE), 1024u},
 303:.\Generated_Source\PSoC4/cyfitter_cfg.c **** 		};
 304:.\Generated_Source\PSoC4/cyfitter_cfg.c **** 
 305:.\Generated_Source\PSoC4/cyfitter_cfg.c **** 		uint8 CYDATA i;
 306:.\Generated_Source\PSoC4/cyfitter_cfg.c **** 
 307:.\Generated_Source\PSoC4/cyfitter_cfg.c **** 		/* Zero out critical memory blocks before beginning configuration */
 308:.\Generated_Source\PSoC4/cyfitter_cfg.c **** 		for (i = 0u; i < (sizeof(cfg_memset_list)/sizeof(cfg_memset_list[0])); i++)
 309:.\Generated_Source\PSoC4/cyfitter_cfg.c **** 		{
 310:.\Generated_Source\PSoC4/cyfitter_cfg.c **** 			const cfg_memset_t CYCODE * CYDATA ms = &cfg_memset_list[i];
 311:.\Generated_Source\PSoC4/cyfitter_cfg.c **** 			CYMEMZERO(ms->address, (size_t)(uint32)(ms->size));
 312:.\Generated_Source\PSoC4/cyfitter_cfg.c **** 		}
 313:.\Generated_Source\PSoC4/cyfitter_cfg.c **** 
 314:.\Generated_Source\PSoC4/cyfitter_cfg.c **** 		cfg_write_bytes32(cy_cfg_addr_table, cy_cfg_data_table);
 315:.\Generated_Source\PSoC4/cyfitter_cfg.c **** 
 316:.\Generated_Source\PSoC4/cyfitter_cfg.c **** 		/* FORCED_HSIOM Starting address: CYDEV_HSIOM_PORT_SEL0 */
 317:.\Generated_Source\PSoC4/cyfitter_cfg.c **** 		CY_SET_XTND_REG32((void CYFAR *)(CYREG_HSIOM_PORT_SEL0), 0x00000000u);
 318:.\Generated_Source\PSoC4/cyfitter_cfg.c **** 
 319:.\Generated_Source\PSoC4/cyfitter_cfg.c **** 		/* UDB_PA_0 Starting address: CYDEV_UDB_PA0_BASE */
 320:.\Generated_Source\PSoC4/cyfitter_cfg.c **** 		CY_SET_XTND_REG32((void CYFAR *)(CYDEV_UDB_PA0_BASE), 0x00990000u);
 321:.\Generated_Source\PSoC4/cyfitter_cfg.c **** 
 322:.\Generated_Source\PSoC4/cyfitter_cfg.c **** 		/* UDB_PA_1 Starting address: CYDEV_UDB_PA1_BASE */
 323:.\Generated_Source\PSoC4/cyfitter_cfg.c **** 		CY_SET_XTND_REG32((void CYFAR *)(CYDEV_UDB_PA1_BASE), 0x00990000u);
 324:.\Generated_Source\PSoC4/cyfitter_cfg.c **** 
 325:.\Generated_Source\PSoC4/cyfitter_cfg.c **** 		/* UDB_PA_2 Starting address: CYDEV_UDB_PA2_BASE */
 326:.\Generated_Source\PSoC4/cyfitter_cfg.c **** 		CY_SET_XTND_REG32((void CYFAR *)(CYDEV_UDB_PA2_BASE), 0x00990000u);
 327:.\Generated_Source\PSoC4/cyfitter_cfg.c **** 		CY_SET_XTND_REG32((void CYFAR *)(CYREG_UDB_PA2_CFG4), 0x00200000u);
 108              		.loc 1 327 0
 109 0026 8021     		mov	r1, #128
 110              	.LBB37:
 111              	.LBB33:
 112              	.LBB30:
 161:.\Generated_Source\PSoC4/cyfitter_cfg.c **** 			j++;
 113              		.loc 1 161 0
 114 0028 1D70     		strb	r5, [r3]
 115              	.LVL3:
 116 002a 434B     		ldr	r3, .L2+16
 117              	.LBE30:
 118              	.LBE33:
 119              	.LBE37:
 320:.\Generated_Source\PSoC4/cyfitter_cfg.c **** 
 120              		.loc 1 320 0
 121 002c 434A     		ldr	r2, .L2+20
ARM GAS  C:\Users\310295~1\AppData\Local\Temp\ccR0d7KE.s 			page 9


 122              	.LBB38:
 123              	.LBB34:
 124              	.LBB31:
 161:.\Generated_Source\PSoC4/cyfitter_cfg.c **** 			j++;
 125              		.loc 1 161 0
 126 002e 1D70     		strb	r5, [r3]
 127              	.LVL4:
 128              	.LBE31:
 129              	.LBE34:
 130              	.LBE38:
 317:.\Generated_Source\PSoC4/cyfitter_cfg.c **** 
 131              		.loc 1 317 0
 132 0030 434B     		ldr	r3, .L2+24
 133              		.loc 1 327 0
 134 0032 8903     		lsl	r1, r1, #14
 317:.\Generated_Source\PSoC4/cyfitter_cfg.c **** 
 135              		.loc 1 317 0
 136 0034 1C60     		str	r4, [r3]
 320:.\Generated_Source\PSoC4/cyfitter_cfg.c **** 
 137              		.loc 1 320 0
 138 0036 9923     		mov	r3, #153
 139 0038 1B04     		lsl	r3, r3, #16
 140 003a 1360     		str	r3, [r2]
 323:.\Generated_Source\PSoC4/cyfitter_cfg.c **** 
 141              		.loc 1 323 0
 142 003c 414A     		ldr	r2, .L2+28
 328:.\Generated_Source\PSoC4/cyfitter_cfg.c **** 
 329:.\Generated_Source\PSoC4/cyfitter_cfg.c **** 		/* UDB_PA_3 Starting address: CYDEV_UDB_PA3_BASE */
 330:.\Generated_Source\PSoC4/cyfitter_cfg.c **** 		CY_SET_XTND_REG32((void CYFAR *)(CYDEV_UDB_PA3_BASE), 0x00990000u);
 331:.\Generated_Source\PSoC4/cyfitter_cfg.c **** 
 332:.\Generated_Source\PSoC4/cyfitter_cfg.c **** 		/* Enable digital routing */
 333:.\Generated_Source\PSoC4/cyfitter_cfg.c **** 		CY_SET_XTND_REG8((void *)CYREG_UDB_UDBIF_BANK_CTL, CY_GET_XTND_REG8((void *)CYREG_UDB_UDBIF_BANK_
 334:.\Generated_Source\PSoC4/cyfitter_cfg.c **** 
 335:.\Generated_Source\PSoC4/cyfitter_cfg.c **** 		/* Enable UDB array */
 336:.\Generated_Source\PSoC4/cyfitter_cfg.c **** 		CY_SET_XTND_REG8((void *)CYREG_UDB_UDBIF_WAIT_CFG, (uint8)((CY_GET_XTND_REG8((void *)CYREG_UDB_UD
 143              		.loc 1 336 0
 144 003e 3C20     		mov	r0, #60
 323:.\Generated_Source\PSoC4/cyfitter_cfg.c **** 
 145              		.loc 1 323 0
 146 0040 1360     		str	r3, [r2]
 326:.\Generated_Source\PSoC4/cyfitter_cfg.c **** 		CY_SET_XTND_REG32((void CYFAR *)(CYREG_UDB_PA2_CFG4), 0x00200000u);
 147              		.loc 1 326 0
 148 0042 414A     		ldr	r2, .L2+32
 149              	.LBE40:
 150              	.LBB41:
 151              	.LBB42:
 201:.\Generated_Source\PSoC4/cyfitter_cfg.c **** 
 152              		.loc 1 201 0
 153 0044 414F     		ldr	r7, .L2+36
 154              	.LBE42:
 155              	.LBE41:
 156              	.LBB45:
 326:.\Generated_Source\PSoC4/cyfitter_cfg.c **** 		CY_SET_XTND_REG32((void CYFAR *)(CYREG_UDB_PA2_CFG4), 0x00200000u);
 157              		.loc 1 326 0
 158 0046 1360     		str	r3, [r2]
 327:.\Generated_Source\PSoC4/cyfitter_cfg.c **** 
 159              		.loc 1 327 0
ARM GAS  C:\Users\310295~1\AppData\Local\Temp\ccR0d7KE.s 			page 10


 160 0048 414A     		ldr	r2, .L2+40
 161              	.LBE45:
 337:.\Generated_Source\PSoC4/cyfitter_cfg.c **** 		CY_SET_XTND_REG8((void *)CYREG_UDB_UDBIF_BANK_CTL, (uint8)(CY_GET_XTND_REG8((void *)CYREG_UDB_UDB
 338:.\Generated_Source\PSoC4/cyfitter_cfg.c **** 	}
 339:.\Generated_Source\PSoC4/cyfitter_cfg.c **** 
 340:.\Generated_Source\PSoC4/cyfitter_cfg.c **** 	/* Perform second pass device configuration. These items must be configured in specific order afte
 341:.\Generated_Source\PSoC4/cyfitter_cfg.c **** 	/* IOPINS0_0 Starting address: CYDEV_GPIO_PRT0_BASE */
 342:.\Generated_Source\PSoC4/cyfitter_cfg.c **** 	CY_SET_XTND_REG32((void CYFAR *)(CYDEV_GPIO_PRT0_BASE), 0x00000020u);
 343:.\Generated_Source\PSoC4/cyfitter_cfg.c **** 	CY_SET_XTND_REG32((void CYFAR *)(CYREG_GPIO_PRT0_PC), 0x00030000u);
 344:.\Generated_Source\PSoC4/cyfitter_cfg.c **** 
 345:.\Generated_Source\PSoC4/cyfitter_cfg.c **** 	/* IOPINS0_1 Starting address: CYDEV_GPIO_PRT1_BASE */
 346:.\Generated_Source\PSoC4/cyfitter_cfg.c **** 	CY_SET_XTND_REG32((void CYFAR *)(CYREG_GPIO_PRT1_PC), 0x00000A00u);
 347:.\Generated_Source\PSoC4/cyfitter_cfg.c **** 
 348:.\Generated_Source\PSoC4/cyfitter_cfg.c **** 	/* IOPINS0_2 Starting address: CYDEV_GPIO_PRT2_BASE */
 349:.\Generated_Source\PSoC4/cyfitter_cfg.c **** 	CY_SET_XTND_REG32((void CYFAR *)(CYDEV_GPIO_PRT2_BASE), 0x00000004u);
 350:.\Generated_Source\PSoC4/cyfitter_cfg.c **** 	CY_SET_XTND_REG32((void CYFAR *)(CYREG_GPIO_PRT2_PC), 0x00000080u);
 351:.\Generated_Source\PSoC4/cyfitter_cfg.c **** 	CY_SET_XTND_REG32((void CYFAR *)(CYREG_GPIO_PRT2_INTR_CFG), 0x00000030u);
 352:.\Generated_Source\PSoC4/cyfitter_cfg.c **** 
 353:.\Generated_Source\PSoC4/cyfitter_cfg.c **** 	/* IOPINS0_3 Starting address: CYDEV_GPIO_PRT3_BASE */
 354:.\Generated_Source\PSoC4/cyfitter_cfg.c **** 	CY_SET_XTND_REG32((void CYFAR *)(CYDEV_GPIO_PRT3_BASE), 0x000000E0u);
 355:.\Generated_Source\PSoC4/cyfitter_cfg.c **** 	CY_SET_XTND_REG32((void CYFAR *)(CYREG_GPIO_PRT3_PC), 0x00DB0000u);
 356:.\Generated_Source\PSoC4/cyfitter_cfg.c **** 
 357:.\Generated_Source\PSoC4/cyfitter_cfg.c **** 	/* IOPINS0_4 Starting address: CYDEV_GPIO_PRT4_BASE */
 358:.\Generated_Source\PSoC4/cyfitter_cfg.c **** 	CY_SET_XTND_REG32((void CYFAR *)(CYREG_GPIO_PRT4_PC), 0x00000005u);
 359:.\Generated_Source\PSoC4/cyfitter_cfg.c **** 
 360:.\Generated_Source\PSoC4/cyfitter_cfg.c **** 
 361:.\Generated_Source\PSoC4/cyfitter_cfg.c **** 	/* Setup clocks based on selections from Clock DWR */
 362:.\Generated_Source\PSoC4/cyfitter_cfg.c **** 	ClockSetup();
 363:.\Generated_Source\PSoC4/cyfitter_cfg.c **** 
 364:.\Generated_Source\PSoC4/cyfitter_cfg.c **** 	/* Perform basic analog initialization to defaults */
 365:.\Generated_Source\PSoC4/cyfitter_cfg.c **** 	AnalogSetDefault();
 366:.\Generated_Source\PSoC4/cyfitter_cfg.c **** 
 367:.\Generated_Source\PSoC4/cyfitter_cfg.c **** }
 162              		.loc 1 367 0
 163              		@ sp needed
 164              	.LBB46:
 327:.\Generated_Source\PSoC4/cyfitter_cfg.c **** 
 165              		.loc 1 327 0
 166 004a 1160     		str	r1, [r2]
 333:.\Generated_Source\PSoC4/cyfitter_cfg.c **** 
 167              		.loc 1 333 0
 168 004c 0221     		mov	r1, #2
 330:.\Generated_Source\PSoC4/cyfitter_cfg.c **** 
 169              		.loc 1 330 0
 170 004e 414A     		ldr	r2, .L2+44
 171 0050 1360     		str	r3, [r2]
 333:.\Generated_Source\PSoC4/cyfitter_cfg.c **** 
 172              		.loc 1 333 0
 173 0052 414A     		ldr	r2, .L2+48
 174 0054 1378     		ldrb	r3, [r2]
 175 0056 0B43     		orr	r3, r1
 336:.\Generated_Source\PSoC4/cyfitter_cfg.c **** 		CY_SET_XTND_REG8((void *)CYREG_UDB_UDBIF_BANK_CTL, (uint8)(CY_GET_XTND_REG8((void *)CYREG_UDB_UDB
 176              		.loc 1 336 0
 177 0058 4049     		ldr	r1, .L2+52
 333:.\Generated_Source\PSoC4/cyfitter_cfg.c **** 
 178              		.loc 1 333 0
 179 005a 1370     		strb	r3, [r2]
ARM GAS  C:\Users\310295~1\AppData\Local\Temp\ccR0d7KE.s 			page 11


 336:.\Generated_Source\PSoC4/cyfitter_cfg.c **** 		CY_SET_XTND_REG8((void *)CYREG_UDB_UDBIF_BANK_CTL, (uint8)(CY_GET_XTND_REG8((void *)CYREG_UDB_UDB
 180              		.loc 1 336 0
 181 005c 0B78     		ldrb	r3, [r1]
 182 005e 8343     		bic	r3, r0
 183 0060 2838     		sub	r0, r0, #40
 184 0062 0343     		orr	r3, r0
 185 0064 0B70     		strb	r3, [r1]
 337:.\Generated_Source\PSoC4/cyfitter_cfg.c **** 	}
 186              		.loc 1 337 0
 187 0066 1621     		mov	r1, #22
 188 0068 1378     		ldrb	r3, [r2]
 189 006a 0B43     		orr	r3, r1
 190 006c 1370     		strb	r3, [r2]
 191              	.LBE46:
 342:.\Generated_Source\PSoC4/cyfitter_cfg.c **** 	CY_SET_XTND_REG32((void CYFAR *)(CYREG_GPIO_PRT0_PC), 0x00030000u);
 192              		.loc 1 342 0
 193 006e 2022     		mov	r2, #32
 194 0070 3B4B     		ldr	r3, .L2+56
 195 0072 1A60     		str	r2, [r3]
 343:.\Generated_Source\PSoC4/cyfitter_cfg.c **** 
 196              		.loc 1 343 0
 197 0074 C022     		mov	r2, #192
 198 0076 3B4B     		ldr	r3, .L2+60
 199 0078 9202     		lsl	r2, r2, #10
 200 007a 1A60     		str	r2, [r3]
 346:.\Generated_Source\PSoC4/cyfitter_cfg.c **** 
 201              		.loc 1 346 0
 202 007c A022     		mov	r2, #160
 203 007e 3A4B     		ldr	r3, .L2+64
 204 0080 1201     		lsl	r2, r2, #4
 205 0082 1A60     		str	r2, [r3]
 349:.\Generated_Source\PSoC4/cyfitter_cfg.c **** 	CY_SET_XTND_REG32((void CYFAR *)(CYREG_GPIO_PRT2_PC), 0x00000080u);
 206              		.loc 1 349 0
 207 0084 0422     		mov	r2, #4
 208 0086 394B     		ldr	r3, .L2+68
 209 0088 1A60     		str	r2, [r3]
 350:.\Generated_Source\PSoC4/cyfitter_cfg.c **** 	CY_SET_XTND_REG32((void CYFAR *)(CYREG_GPIO_PRT2_INTR_CFG), 0x00000030u);
 210              		.loc 1 350 0
 211 008a 394B     		ldr	r3, .L2+72
 212 008c 7C32     		add	r2, r2, #124
 213 008e 1A60     		str	r2, [r3]
 351:.\Generated_Source\PSoC4/cyfitter_cfg.c **** 
 214              		.loc 1 351 0
 215 0090 384B     		ldr	r3, .L2+76
 216 0092 503A     		sub	r2, r2, #80
 217 0094 1A60     		str	r2, [r3]
 354:.\Generated_Source\PSoC4/cyfitter_cfg.c **** 	CY_SET_XTND_REG32((void CYFAR *)(CYREG_GPIO_PRT3_PC), 0x00DB0000u);
 218              		.loc 1 354 0
 219 0096 384B     		ldr	r3, .L2+80
 220 0098 B032     		add	r2, r2, #176
 221 009a 1A60     		str	r2, [r3]
 355:.\Generated_Source\PSoC4/cyfitter_cfg.c **** 
 222              		.loc 1 355 0
 223 009c DB22     		mov	r2, #219
 224 009e 374B     		ldr	r3, .L2+84
 225 00a0 1204     		lsl	r2, r2, #16
 226 00a2 1A60     		str	r2, [r3]
ARM GAS  C:\Users\310295~1\AppData\Local\Temp\ccR0d7KE.s 			page 12


 358:.\Generated_Source\PSoC4/cyfitter_cfg.c **** 
 227              		.loc 1 358 0
 228 00a4 0522     		mov	r2, #5
 229 00a6 364B     		ldr	r3, .L2+88
 230 00a8 1A60     		str	r2, [r3]
 231              	.LBB47:
 232              	.LBB43:
 191:.\Generated_Source\PSoC4/cyfitter_cfg.c **** 
 233              		.loc 1 191 0
 234 00aa 1223     		mov	r3, #18
 235 00ac 354A     		ldr	r2, .L2+92
 236 00ae 1360     		str	r3, [r2]
 194:.\Generated_Source\PSoC4/cyfitter_cfg.c **** 	CyDelayCycles(12000000u); /* WCO may take up to 500ms to start */
 237              		.loc 1 194 0
 238 00b0 FFF7FEFF 		bl	CySysClkWcoStart
 239              	.LVL5:
 195:.\Generated_Source\PSoC4/cyfitter_cfg.c **** 	(void)CySysClkWcoSetPowerMode(CY_SYS_CLK_WCO_LPM);    /* Switch to the low power mode */
 240              		.loc 1 195 0
 241 00b4 3448     		ldr	r0, .L2+96
 242 00b6 FFF7FEFF 		bl	CyDelayCycles
 243              	.LVL6:
 196:.\Generated_Source\PSoC4/cyfitter_cfg.c **** 
 244              		.loc 1 196 0
 245 00ba 281C     		mov	r0, r5
 246 00bc FFF7FEFF 		bl	CySysClkWcoSetPowerMode
 247              	.LVL7:
 199:.\Generated_Source\PSoC4/cyfitter_cfg.c **** 	/* CYDEV_WDT_CONFIG Starting address: CYDEV_WDT_CONFIG */
 248              		.loc 1 199 0
 249 00c0 0C20     		mov	r0, #12
 250 00c2 FFF7FEFF 		bl	CySysClkWriteImoFreq
 251              	.LVL8:
 201:.\Generated_Source\PSoC4/cyfitter_cfg.c **** 
 252              		.loc 1 201 0
 253 00c6 8023     		mov	r3, #128
 205:.\Generated_Source\PSoC4/cyfitter_cfg.c **** 	CY_SET_XTND_REG32((void CYFAR *)(CYREG_BLE_BLERD_BB_XO_CAPTRIM), 0x00004E4Eu);
 254              		.loc 1 205 0
 255 00c8 0221     		mov	r1, #2
 210:.\Generated_Source\PSoC4/cyfitter_cfg.c **** 	CyDelayUs(1500u); /* Wait to stabalize */
 256              		.loc 1 210 0
 257 00ca FA20     		mov	r0, #250
 205:.\Generated_Source\PSoC4/cyfitter_cfg.c **** 	CY_SET_XTND_REG32((void CYFAR *)(CYREG_BLE_BLERD_BB_XO_CAPTRIM), 0x00004E4Eu);
 258              		.loc 1 205 0
 259 00cc 2F4A     		ldr	r2, .L2+100
 201:.\Generated_Source\PSoC4/cyfitter_cfg.c **** 
 260              		.loc 1 201 0
 261 00ce DB05     		lsl	r3, r3, #23
 262 00d0 3B60     		str	r3, [r7]
 205:.\Generated_Source\PSoC4/cyfitter_cfg.c **** 	CY_SET_XTND_REG32((void CYFAR *)(CYREG_BLE_BLERD_BB_XO_CAPTRIM), 0x00004E4Eu);
 263              		.loc 1 205 0
 264 00d2 1368     		ldr	r3, [r2]
 208:.\Generated_Source\PSoC4/cyfitter_cfg.c **** 	/* Start the ECO and do not check status since it is not needed for HFCLK */
 265              		.loc 1 208 0
 266 00d4 0735     		add	r5, r5, #7
 205:.\Generated_Source\PSoC4/cyfitter_cfg.c **** 	CY_SET_XTND_REG32((void CYFAR *)(CYREG_BLE_BLERD_BB_XO_CAPTRIM), 0x00004E4Eu);
 267              		.loc 1 205 0
 268 00d6 0B43     		orr	r3, r1
 269 00d8 1360     		str	r3, [r2]
ARM GAS  C:\Users\310295~1\AppData\Local\Temp\ccR0d7KE.s 			page 13


 206:.\Generated_Source\PSoC4/cyfitter_cfg.c **** 	/* Disable Crystal Stable Interrupt before enabling ECO */
 270              		.loc 1 206 0
 271 00da 2D4A     		ldr	r2, .L2+104
 272 00dc 2D4B     		ldr	r3, .L2+108
 210:.\Generated_Source\PSoC4/cyfitter_cfg.c **** 	CyDelayUs(1500u); /* Wait to stabalize */
 273              		.loc 1 210 0
 274 00de C000     		lsl	r0, r0, #3
 206:.\Generated_Source\PSoC4/cyfitter_cfg.c **** 	/* Disable Crystal Stable Interrupt before enabling ECO */
 275              		.loc 1 206 0
 276 00e0 1A60     		str	r2, [r3]
 208:.\Generated_Source\PSoC4/cyfitter_cfg.c **** 	/* Start the ECO and do not check status since it is not needed for HFCLK */
 277              		.loc 1 208 0
 278 00e2 3368     		ldr	r3, [r6]
 279 00e4 AB43     		bic	r3, r5
 280 00e6 3360     		str	r3, [r6]
 210:.\Generated_Source\PSoC4/cyfitter_cfg.c **** 	CyDelayUs(1500u); /* Wait to stabalize */
 281              		.loc 1 210 0
 282 00e8 FFF7FEFF 		bl	CySysClkEcoStart
 283              	.LVL9:
 211:.\Generated_Source\PSoC4/cyfitter_cfg.c **** 
 284              		.loc 1 211 0
 285 00ec 2A48     		ldr	r0, .L2+112
 286 00ee FFF7FEFF 		bl	CyDelayUs
 287              	.LVL10:
 216:.\Generated_Source\PSoC4/cyfitter_cfg.c **** 
 288              		.loc 1 216 0
 289 00f2 8022     		mov	r2, #128
 290 00f4 294B     		ldr	r3, .L2+116
 291 00f6 1206     		lsl	r2, r2, #24
 292 00f8 1A60     		str	r2, [r3]
 219:.\Generated_Source\PSoC4/cyfitter_cfg.c **** 
 293              		.loc 1 219 0
 294 00fa 294B     		ldr	r3, .L2+120
 221:.\Generated_Source\PSoC4/cyfitter_cfg.c **** 	CyIntEnable(8u);
 295              		.loc 1 221 0
 296 00fc 281C     		mov	r0, r5
 219:.\Generated_Source\PSoC4/cyfitter_cfg.c **** 
 297              		.loc 1 219 0
 298 00fe 1C60     		str	r4, [r3]
 221:.\Generated_Source\PSoC4/cyfitter_cfg.c **** 	CyIntEnable(8u);
 299              		.loc 1 221 0
 300 0100 2849     		ldr	r1, .L2+124
 301 0102 FFF7FEFF 		bl	CyIntSetVector
 302              	.LVL11:
 222:.\Generated_Source\PSoC4/cyfitter_cfg.c **** 	CY_SET_XTND_REG32((void CYFAR *)(CYREG_WDT_CONFIG), 0x40000000u);
 303              		.loc 1 222 0
 304 0106 281C     		mov	r0, r5
 305 0108 FFF7FEFF 		bl	CyIntEnable
 306              	.LVL12:
 223:.\Generated_Source\PSoC4/cyfitter_cfg.c **** 	/* Set Flash Cycles based on newly configured 12.00MHz HFCLK. */
 307              		.loc 1 223 0
 308 010c 8023     		mov	r3, #128
 309 010e DB05     		lsl	r3, r3, #23
 310 0110 3B60     		str	r3, [r7]
 225:.\Generated_Source\PSoC4/cyfitter_cfg.c **** }
 311              		.loc 1 225 0
 312 0112 1C4B     		ldr	r3, .L2+92
ARM GAS  C:\Users\310295~1\AppData\Local\Temp\ccR0d7KE.s 			page 14


 313              	.LBE43:
 314              	.LBE47:
 315              	.LBB48:
 316              	.LBB49:
 250:.\Generated_Source\PSoC4/cyfitter_cfg.c **** 	CY_SET_XTND_REG32((void CYFAR *)CYREG_CTBM1_DFT_CTRL, 0x00000003u);
 317              		.loc 1 250 0
 318 0114 244A     		ldr	r2, .L2+128
 319              	.LBE49:
 320              	.LBE48:
 321              	.LBB51:
 322              	.LBB44:
 225:.\Generated_Source\PSoC4/cyfitter_cfg.c **** }
 323              		.loc 1 225 0
 324 0116 1C60     		str	r4, [r3]
 325              	.LBE44:
 326              	.LBE51:
 327              	.LBB52:
 328              	.LBB50:
 250:.\Generated_Source\PSoC4/cyfitter_cfg.c **** 	CY_SET_XTND_REG32((void CYFAR *)CYREG_CTBM1_DFT_CTRL, 0x00000003u);
 329              		.loc 1 250 0
 330 0118 0323     		mov	r3, #3
 331 011a 1360     		str	r3, [r2]
 251:.\Generated_Source\PSoC4/cyfitter_cfg.c **** 	CY_SET_XTND_REG32((void CYFAR *)CYREG_PASS_DSAB_DSAB_CTRL, 0x00000000u);
 332              		.loc 1 251 0
 333 011c 234A     		ldr	r2, .L2+132
 334 011e 1360     		str	r3, [r2]
 252:.\Generated_Source\PSoC4/cyfitter_cfg.c **** }
 335              		.loc 1 252 0
 336 0120 234B     		ldr	r3, .L2+136
 337 0122 1C60     		str	r4, [r3]
 338              	.LBE50:
 339              	.LBE52:
 340              		.loc 1 367 0
 341 0124 F8BD     		pop	{r3, r4, r5, r6, r7, pc}
 342              	.L3:
 343 0126 C046     		.align	2
 344              	.L2:
 345 0128 6CF02E40 		.word	1076818028
 346 012c 00300F40 		.word	1074737152
 347 0130 00400F40 		.word	1074741248
 348 0134 02600F40 		.word	1074749442
 349 0138 11600F40 		.word	1074749457
 350 013c 00500F40 		.word	1074745344
 351 0140 00000240 		.word	1073872896
 352 0144 10500F40 		.word	1074745360
 353 0148 20500F40 		.word	1074745376
 354 014c 0C020B40 		.word	1074463244
 355 0150 24500F40 		.word	1074745380
 356 0154 30500F40 		.word	1074745392
 357 0158 00700F40 		.word	1074753536
 358 015c 01700F40 		.word	1074753537
 359 0160 00000440 		.word	1074003968
 360 0164 08000440 		.word	1074003976
 361 0168 08010440 		.word	1074004232
 362 016c 00020440 		.word	1074004480
 363 0170 08020440 		.word	1074004488
 364 0174 0C020440 		.word	1074004492
ARM GAS  C:\Users\310295~1\AppData\Local\Temp\ccR0d7KE.s 			page 15


 365 0178 00030440 		.word	1074004736
 366 017c 08030440 		.word	1074004744
 367 0180 08040440 		.word	1074005000
 368 0184 30001040 		.word	1074790448
 369 0188 001BB700 		.word	12000000
 370 018c 78002E40 		.word	1076756600
 371 0190 4E4E0000 		.word	20046
 372 0194 7C002E40 		.word	1076756604
 373 0198 DC050000 		.word	1500
 374 019c 08010B40 		.word	1074462984
 375 01a0 00010B40 		.word	1074462976
 376 01a4 00000000 		.word	CySysWdtIsr
 377 01a8 30003040 		.word	1076887600
 378 01ac 30003140 		.word	1076953136
 379 01b0 000E3F40 		.word	1077874176
 380              		.cfi_endproc
 381              	.LFE8:
 382              		.size	cyfitter_cfg, .-cyfitter_cfg
 383              		.text
 384              	.Letext0:
 385              		.file 2 "c:\\program files (x86)\\cypress\\psoc creator\\3.3\\psoc creator\\import\\gnu\\arm\\4.9.
 386              		.file 3 ".\\Generated_Source\\PSoC4\\cytypes.h"
 387              		.file 4 ".\\Generated_Source\\PSoC4\\CyLib.h"
 388              		.file 5 ".\\Generated_Source\\PSoC4\\CyLFClk.h"