ARM GAS  C:\Users\310295~1\AppData\Local\Temp\cc8jfbKN.s 			page 1


   1              		.cpu cortex-m0
   2              		.fpu softvfp
   3              		.eabi_attribute 20, 1
   4              		.eabi_attribute 21, 1
   5              		.eabi_attribute 23, 3
   6              		.eabi_attribute 24, 1
   7              		.eabi_attribute 25, 1
   8              		.eabi_attribute 26, 1
   9              		.eabi_attribute 30, 4
  10              		.eabi_attribute 34, 0
  11              		.eabi_attribute 18, 4
  12              		.code	16
  13              		.file	"CyFlash.c"
  14              		.text
  15              	.Ltext0:
  16              		.cfi_sections	.debug_frame
  17              		.section	.text.CySysFlashWriteRow,"ax",%progbits
  18              		.align	1
  19              		.global	CySysFlashWriteRow
  20              		.code	16
  21              		.thumb_func
  22              		.type	CySysFlashWriteRow, %function
  23              	CySysFlashWriteRow:
  24              	.LFB2:
  25              		.file 1 ".\\Generated_Source\\PSoC4\\CyFlash.c"
   1:.\Generated_Source\PSoC4/CyFlash.c **** /***************************************************************************//**
   2:.\Generated_Source\PSoC4/CyFlash.c **** * \file CyFlash.c
   3:.\Generated_Source\PSoC4/CyFlash.c **** * \version 5.40
   4:.\Generated_Source\PSoC4/CyFlash.c **** *
   5:.\Generated_Source\PSoC4/CyFlash.c **** * \brief Provides an API for the FLASH.
   6:.\Generated_Source\PSoC4/CyFlash.c **** *
   7:.\Generated_Source\PSoC4/CyFlash.c **** * \note This code is endian agnostic.
   8:.\Generated_Source\PSoC4/CyFlash.c **** *
   9:.\Generated_Source\PSoC4/CyFlash.c **** * \note Documentation of the API's in this file is located in the System
  10:.\Generated_Source\PSoC4/CyFlash.c **** * Reference Guide provided with PSoC Creator.
  11:.\Generated_Source\PSoC4/CyFlash.c **** *
  12:.\Generated_Source\PSoC4/CyFlash.c **** ********************************************************************************
  13:.\Generated_Source\PSoC4/CyFlash.c **** * \copyright
  14:.\Generated_Source\PSoC4/CyFlash.c **** * Copyright 2010-2016, Cypress Semiconductor Corporation.  All rights reserved.
  15:.\Generated_Source\PSoC4/CyFlash.c **** * You may use this file only in accordance with the license, terms, conditions,
  16:.\Generated_Source\PSoC4/CyFlash.c **** * disclaimers, and limitations in the end user license agreement accompanying
  17:.\Generated_Source\PSoC4/CyFlash.c **** * the software package with which this file was provided.
  18:.\Generated_Source\PSoC4/CyFlash.c **** *******************************************************************************/
  19:.\Generated_Source\PSoC4/CyFlash.c **** 
  20:.\Generated_Source\PSoC4/CyFlash.c **** #include "CyFlash.h"
  21:.\Generated_Source\PSoC4/CyFlash.c **** 
  22:.\Generated_Source\PSoC4/CyFlash.c **** 
  23:.\Generated_Source\PSoC4/CyFlash.c **** /*******************************************************************************
  24:.\Generated_Source\PSoC4/CyFlash.c **** * Cypress identified a defect with the Flash write functionality of the
  25:.\Generated_Source\PSoC4/CyFlash.c **** * PSoC 4000, PSoC 4100, and PSoC 4200 devices. The CySysFlashWriteRow() function
  26:.\Generated_Source\PSoC4/CyFlash.c **** * now checks the data to be written and, if necessary, modifies it to have a
  27:.\Generated_Source\PSoC4/CyFlash.c **** * non-zero checksum. After writing to Flash, the modified data is replaced
  28:.\Generated_Source\PSoC4/CyFlash.c **** * (Flash program) with the correct (original) data.
  29:.\Generated_Source\PSoC4/CyFlash.c **** *******************************************************************************/
  30:.\Generated_Source\PSoC4/CyFlash.c **** #define CY_FLASH_CHECKSUM_WORKAROUND    (CY_PSOC4_4000 || CY_PSOC4_4100 || CY_PSOC4_4200)
  31:.\Generated_Source\PSoC4/CyFlash.c **** 
  32:.\Generated_Source\PSoC4/CyFlash.c **** #if (CY_IP_FM || ((!CY_PSOC4_4000) && CY_IP_SPCIF_SYNCHRONOUS) || (!CY_IP_FM) && CY_PSOC4_4000)
ARM GAS  C:\Users\310295~1\AppData\Local\Temp\cc8jfbKN.s 			page 2


  33:.\Generated_Source\PSoC4/CyFlash.c ****     static CY_SYS_FLASH_CLOCK_BACKUP_STRUCT cySysFlashBackup;
  34:.\Generated_Source\PSoC4/CyFlash.c **** #endif /* (CY_IP_FM || ((!CY_PSOC4_4000) && CY_IP_SPCIF_SYNCHRONOUS) || (!CY_IP_FM) && CY_PSOC4_400
  35:.\Generated_Source\PSoC4/CyFlash.c **** 
  36:.\Generated_Source\PSoC4/CyFlash.c **** static cystatus CySysFlashClockBackup(void);
  37:.\Generated_Source\PSoC4/CyFlash.c **** static cystatus CySysFlashClockRestore(void);
  38:.\Generated_Source\PSoC4/CyFlash.c **** #if(CY_IP_SPCIF_SYNCHRONOUS)
  39:.\Generated_Source\PSoC4/CyFlash.c ****     static cystatus CySysFlashClockConfig(void);
  40:.\Generated_Source\PSoC4/CyFlash.c **** #endif  /* (CY_IP_SPCIF_SYNCHRONOUS) */
  41:.\Generated_Source\PSoC4/CyFlash.c **** 
  42:.\Generated_Source\PSoC4/CyFlash.c **** 
  43:.\Generated_Source\PSoC4/CyFlash.c **** /*******************************************************************************
  44:.\Generated_Source\PSoC4/CyFlash.c **** * Function Name: CySysFlashWriteRow
  45:.\Generated_Source\PSoC4/CyFlash.c **** ****************************************************************************//**
  46:.\Generated_Source\PSoC4/CyFlash.c **** *
  47:.\Generated_Source\PSoC4/CyFlash.c **** * Erases a row of Flash and programs it with the new data.
  48:.\Generated_Source\PSoC4/CyFlash.c **** *
  49:.\Generated_Source\PSoC4/CyFlash.c **** * The IMO must be enabled before calling this function. The operation of the
  50:.\Generated_Source\PSoC4/CyFlash.c **** * flash writing hardware is dependent on the IMO.
  51:.\Generated_Source\PSoC4/CyFlash.c **** *
  52:.\Generated_Source\PSoC4/CyFlash.c **** * For PSoC 4000, PSoC 4100 BLE and PSoC 4200 BLE devices (PSoC 4100 BLE and
  53:.\Generated_Source\PSoC4/CyFlash.c **** * PSoC 4200 BLE devices with 256K of Flash memory are not affected), this API
  54:.\Generated_Source\PSoC4/CyFlash.c **** * will automatically modify the clock settings for the device. Writing to
  55:.\Generated_Source\PSoC4/CyFlash.c **** * flash requires that changes be made to the IMO and HFCLK settings. The
  56:.\Generated_Source\PSoC4/CyFlash.c **** * configuration is restored before returning. This will impact the operation
  57:.\Generated_Source\PSoC4/CyFlash.c **** * of most of the hardware in the device.
  58:.\Generated_Source\PSoC4/CyFlash.c **** *
  59:.\Generated_Source\PSoC4/CyFlash.c **** * For PSoC 4000 devices this API will automatically modify the clock settings
  60:.\Generated_Source\PSoC4/CyFlash.c **** * for the device. Writing to flash requires that changes be made to the IMO
  61:.\Generated_Source\PSoC4/CyFlash.c **** * and HFCLK settings. The configuration is restored before returning. HFCLK
  62:.\Generated_Source\PSoC4/CyFlash.c **** * will have several frequency changes during the operation of this API between
  63:.\Generated_Source\PSoC4/CyFlash.c **** * a minimum frequency of the current IMO frequency divided by 8 and a maximum
  64:.\Generated_Source\PSoC4/CyFlash.c **** * frequency of 12 MHz. This will impact the operation of most of the hardware
  65:.\Generated_Source\PSoC4/CyFlash.c **** * in the device.
  66:.\Generated_Source\PSoC4/CyFlash.c **** *
  67:.\Generated_Source\PSoC4/CyFlash.c **** * \param rowNum The flash row number. The number of the flash rows is defined by
  68:.\Generated_Source\PSoC4/CyFlash.c **** * the \ref CY_FLASH_NUMBER_ROWS macro for the selected device. Refer to the
  69:.\Generated_Source\PSoC4/CyFlash.c **** * device datasheet for the details.
  70:.\Generated_Source\PSoC4/CyFlash.c **** * \note The target flash array is calculated based on the specified flash row.
  71:.\Generated_Source\PSoC4/CyFlash.c **** *
  72:.\Generated_Source\PSoC4/CyFlash.c **** * \param rowData Array of bytes to write. The size of the array must be equal to
  73:.\Generated_Source\PSoC4/CyFlash.c **** * the flash row size. The flash row size for the selected device is defined by
  74:.\Generated_Source\PSoC4/CyFlash.c **** * the \ref CY_FLASH_SIZEOF_ROW macro. Refer to the device datasheet for the
  75:.\Generated_Source\PSoC4/CyFlash.c **** * details.
  76:.\Generated_Source\PSoC4/CyFlash.c **** *
  77:.\Generated_Source\PSoC4/CyFlash.c **** * \return \ref group_flash_status_codes
  78:.\Generated_Source\PSoC4/CyFlash.c **** *
  79:.\Generated_Source\PSoC4/CyFlash.c **** *******************************************************************************/
  80:.\Generated_Source\PSoC4/CyFlash.c **** uint32 CySysFlashWriteRow(uint32 rowNum, const uint8 rowData[])
  81:.\Generated_Source\PSoC4/CyFlash.c **** {
  26              		.loc 1 81 0
  27              		.cfi_startproc
  28              	.LVL0:
  82:.\Generated_Source\PSoC4/CyFlash.c ****     volatile uint32 retValue = CY_SYS_FLASH_SUCCESS;
  29              		.loc 1 82 0
  30 0000 0023     		mov	r3, #0
  81:.\Generated_Source\PSoC4/CyFlash.c ****     volatile uint32 retValue = CY_SYS_FLASH_SUCCESS;
  31              		.loc 1 81 0
ARM GAS  C:\Users\310295~1\AppData\Local\Temp\cc8jfbKN.s 			page 3


  32 0002 F0B5     		push	{r4, r5, r6, r7, lr}
  33              		.cfi_def_cfa_offset 20
  34              		.cfi_offset 4, -20
  35              		.cfi_offset 5, -16
  36              		.cfi_offset 6, -12
  37              		.cfi_offset 7, -8
  38              		.cfi_offset 14, -4
  39 0004 C7B0     		sub	sp, sp, #284
  40              		.cfi_def_cfa_offset 304
  41              		.loc 1 82 0
  42 0006 0293     		str	r3, [sp, #8]
  83:.\Generated_Source\PSoC4/CyFlash.c ****     volatile uint32 clkCnfRetValue = CY_SYS_FLASH_SUCCESS;
  43              		.loc 1 83 0
  44 0008 0393     		str	r3, [sp, #12]
  84:.\Generated_Source\PSoC4/CyFlash.c ****     volatile uint32 parameters[(CY_FLASH_SIZEOF_ROW + CY_FLASH_SRAM_ROM_DATA) / sizeof(uint32)];
  85:.\Generated_Source\PSoC4/CyFlash.c ****     uint8  interruptState;
  86:.\Generated_Source\PSoC4/CyFlash.c **** 
  87:.\Generated_Source\PSoC4/CyFlash.c ****     #if (CY_FLASH_CHECKSUM_WORKAROUND)
  88:.\Generated_Source\PSoC4/CyFlash.c ****         uint32 needChecksumWorkaround = 0u;
  89:.\Generated_Source\PSoC4/CyFlash.c ****         uint32 savedIndex = 0u;
  90:.\Generated_Source\PSoC4/CyFlash.c ****         uint32 savedValue = 0u;
  91:.\Generated_Source\PSoC4/CyFlash.c ****         uint32 checksum = 0u;
  92:.\Generated_Source\PSoC4/CyFlash.c ****         uint32 bits = 0u;
  93:.\Generated_Source\PSoC4/CyFlash.c ****         uint32 i;
  94:.\Generated_Source\PSoC4/CyFlash.c ****     #endif  /* (CY_FLASH_CHECKSUM_WORKAROUND) */
  95:.\Generated_Source\PSoC4/CyFlash.c **** 
  96:.\Generated_Source\PSoC4/CyFlash.c ****     if ((rowNum < CY_FLASH_NUMBER_ROWS) && (rowData != 0u))
  45              		.loc 1 96 0
  46 000a 2C4B     		ldr	r3, .L18
  47 000c 9842     		cmp	r0, r3
  48 000e 4FD8     		bhi	.L2
  49              		.loc 1 96 0 is_stmt 0 discriminator 1
  50 0010 0029     		cmp	r1, #0
  51 0012 4DD0     		beq	.L2
  97:.\Generated_Source\PSoC4/CyFlash.c ****     {
  98:.\Generated_Source\PSoC4/CyFlash.c ****         /* Copy data to be written into internal variable */
  99:.\Generated_Source\PSoC4/CyFlash.c ****         (void)memcpy((void *)&parameters[2u], rowData, CY_FLASH_SIZEOF_ROW);
  52              		.loc 1 99 0 is_stmt 1
  53 0014 8022     		mov	r2, #128
  54 0016 051C     		mov	r5, r0
  55 0018 5200     		lsl	r2, r2, #1
  56 001a 06A8     		add	r0, sp, #24
  57              	.LVL1:
  58 001c FFF7FEFF 		bl	memcpy
  59              	.LVL2:
 100:.\Generated_Source\PSoC4/CyFlash.c **** 
 101:.\Generated_Source\PSoC4/CyFlash.c ****         #if (CY_FLASH_CHECKSUM_WORKAROUND)
 102:.\Generated_Source\PSoC4/CyFlash.c **** 
 103:.\Generated_Source\PSoC4/CyFlash.c ****             for (i = 2u; i < ((CY_FLASH_SIZEOF_ROW / sizeof(uint32)) + 2u); i++)
 104:.\Generated_Source\PSoC4/CyFlash.c ****             {
 105:.\Generated_Source\PSoC4/CyFlash.c ****                 uint32 tmp = parameters[i];
 106:.\Generated_Source\PSoC4/CyFlash.c ****                 if (tmp != 0u)
 107:.\Generated_Source\PSoC4/CyFlash.c ****                 {
 108:.\Generated_Source\PSoC4/CyFlash.c ****                     checksum += tmp;
 109:.\Generated_Source\PSoC4/CyFlash.c ****                     bits |= tmp;
 110:.\Generated_Source\PSoC4/CyFlash.c ****                     savedIndex = i;
 111:.\Generated_Source\PSoC4/CyFlash.c ****                 }
ARM GAS  C:\Users\310295~1\AppData\Local\Temp\cc8jfbKN.s 			page 4


 112:.\Generated_Source\PSoC4/CyFlash.c ****             }
 113:.\Generated_Source\PSoC4/CyFlash.c **** 
 114:.\Generated_Source\PSoC4/CyFlash.c ****             needChecksumWorkaround = ((checksum == 0u) && (bits != 0u)) ? 1u : 0u;
 115:.\Generated_Source\PSoC4/CyFlash.c ****             if (needChecksumWorkaround != 0u)
 116:.\Generated_Source\PSoC4/CyFlash.c ****             {
 117:.\Generated_Source\PSoC4/CyFlash.c ****                 savedValue = parameters[savedIndex];
 118:.\Generated_Source\PSoC4/CyFlash.c ****                 parameters[savedIndex] = 0u;
 119:.\Generated_Source\PSoC4/CyFlash.c ****             }
 120:.\Generated_Source\PSoC4/CyFlash.c ****         #endif  /* (CY_FLASH_CHECKSUM_WORKAROUND) */
 121:.\Generated_Source\PSoC4/CyFlash.c **** 
 122:.\Generated_Source\PSoC4/CyFlash.c ****         /* Load Flash Bytes */
 123:.\Generated_Source\PSoC4/CyFlash.c ****         parameters[0u] = (uint32) (CY_FLASH_GET_MACRO_FROM_ROW(rowNum)        << CY_FLASH_PARAM_MAC
 124:.\Generated_Source\PSoC4/CyFlash.c ****                          (uint32) (CY_FLASH_PAGE_LATCH_START_ADDR             << CY_FLASH_PARAM_ADD
 125:.\Generated_Source\PSoC4/CyFlash.c ****                          (uint32) (CY_FLASH_KEY_TWO(CY_FLASH_API_OPCODE_LOAD) << CY_FLASH_PARAM_KEY
  60              		.loc 1 125 0
  61 0020 274B     		ldr	r3, .L18+4
  62 0022 9D42     		cmp	r5, r3
  63 0024 01D8     		bhi	.L11
  64 0026 274B     		ldr	r3, .L18+8
  65 0028 00E0     		b	.L3
  66              	.L11:
  67 002a 274B     		ldr	r3, .L18+12
  68              	.L3:
 123:.\Generated_Source\PSoC4/CyFlash.c ****                          (uint32) (CY_FLASH_PAGE_LATCH_START_ADDR             << CY_FLASH_PARAM_ADD
  69              		.loc 1 123 0
  70 002c 0493     		str	r3, [sp, #16]
 126:.\Generated_Source\PSoC4/CyFlash.c ****                          CY_FLASH_KEY_ONE;
 127:.\Generated_Source\PSoC4/CyFlash.c ****         parameters[1u] = CY_FLASH_SIZEOF_ROW - 1u;
  71              		.loc 1 127 0
  72 002e FF23     		mov	r3, #255
 128:.\Generated_Source\PSoC4/CyFlash.c **** 
 129:.\Generated_Source\PSoC4/CyFlash.c ****         CY_FLASH_CPUSS_SYSARG_REG = (uint32) &parameters[0u];
  73              		.loc 1 129 0
  74 0030 264C     		ldr	r4, .L18+16
 130:.\Generated_Source\PSoC4/CyFlash.c ****         CY_FLASH_CPUSS_SYSREQ_REG = CY_FLASH_CPUSS_REQ_START | CY_FLASH_API_OPCODE_LOAD;
  75              		.loc 1 130 0
  76 0032 2749     		ldr	r1, .L18+20
  77 0034 274A     		ldr	r2, .L18+24
 123:.\Generated_Source\PSoC4/CyFlash.c ****                          (uint32) (CY_FLASH_PAGE_LATCH_START_ADDR             << CY_FLASH_PARAM_ADD
  78              		.loc 1 123 0
  79 0036 04AE     		add	r6, sp, #16
 127:.\Generated_Source\PSoC4/CyFlash.c **** 
  80              		.loc 1 127 0
  81 0038 7360     		str	r3, [r6, #4]
 129:.\Generated_Source\PSoC4/CyFlash.c ****         CY_FLASH_CPUSS_SYSREQ_REG = CY_FLASH_CPUSS_REQ_START | CY_FLASH_API_OPCODE_LOAD;
  82              		.loc 1 129 0
  83 003a 2660     		str	r6, [r4]
  84              		.loc 1 130 0
  85 003c 0A60     		str	r2, [r1]
 131:.\Generated_Source\PSoC4/CyFlash.c ****         CY_NOP;
  86              		.loc 1 131 0
  87              	@ 131 ".\Generated_Source\PSoC4\CyFlash.c" 1
  88 003e C046     		NOP
  89              	
  90              	@ 0 "" 2
 132:.\Generated_Source\PSoC4/CyFlash.c ****         retValue = CY_FLASH_API_RETURN;
  91              		.loc 1 132 0
ARM GAS  C:\Users\310295~1\AppData\Local\Temp\cc8jfbKN.s 			page 5


  92              		.code	16
  93 0040 2268     		ldr	r2, [r4]
  94 0042 0191     		str	r1, [sp, #4]
  95 0044 120F     		lsr	r2, r2, #28
  96 0046 0F2A     		cmp	r2, #15
  97 0048 02D1     		bne	.L4
  98              		.loc 1 132 0 is_stmt 0 discriminator 1
  99 004a 2268     		ldr	r2, [r4]
 100 004c 1340     		and	r3, r2
 101 004e 05E0     		b	.L5
 102              	.L4:
 103              		.loc 1 132 0 discriminator 2
 104 0050 2268     		ldr	r2, [r4]
 105 0052 0023     		mov	r3, #0
 106 0054 120F     		lsr	r2, r2, #28
 107 0056 0A2A     		cmp	r2, #10
 108 0058 00D0     		beq	.L5
 109              		.loc 1 132 0 discriminator 4
 110 005a 2368     		ldr	r3, [r4]
 111              	.L5:
 112              		.loc 1 132 0 discriminator 8
 113 005c 0293     		str	r3, [sp, #8]
 133:.\Generated_Source\PSoC4/CyFlash.c **** 
 134:.\Generated_Source\PSoC4/CyFlash.c ****         if(retValue == CY_SYS_FLASH_SUCCESS)
 114              		.loc 1 134 0 is_stmt 1 discriminator 8
 115 005e 029F     		ldr	r7, [sp, #8]
 116 0060 002F     		cmp	r7, #0
 117 0062 27D1     		bne	.L6
 135:.\Generated_Source\PSoC4/CyFlash.c ****         {
 136:.\Generated_Source\PSoC4/CyFlash.c ****             /***************************************************************
 137:.\Generated_Source\PSoC4/CyFlash.c ****             * Mask all the exceptions to guarantee that Flash write will
 138:.\Generated_Source\PSoC4/CyFlash.c ****             * occur in the atomic way. It will not affect system call
 139:.\Generated_Source\PSoC4/CyFlash.c ****             * execution (flash row write) since it is executed in the NMI
 140:.\Generated_Source\PSoC4/CyFlash.c ****             * context.
 141:.\Generated_Source\PSoC4/CyFlash.c ****             ***************************************************************/
 142:.\Generated_Source\PSoC4/CyFlash.c ****             interruptState = CyEnterCriticalSection();
 118              		.loc 1 142 0
 119 0064 FFF7FEFF 		bl	CyEnterCriticalSection
 120              	.LVL3:
 143:.\Generated_Source\PSoC4/CyFlash.c **** 
 144:.\Generated_Source\PSoC4/CyFlash.c ****             clkCnfRetValue = CySysFlashClockBackup();
 121              		.loc 1 144 0
 122 0068 0397     		str	r7, [sp, #12]
 145:.\Generated_Source\PSoC4/CyFlash.c **** 
 146:.\Generated_Source\PSoC4/CyFlash.c ****         #if(CY_IP_SPCIF_SYNCHRONOUS)
 147:.\Generated_Source\PSoC4/CyFlash.c ****             if(clkCnfRetValue == CY_SYS_FLASH_SUCCESS)
 148:.\Generated_Source\PSoC4/CyFlash.c ****             {
 149:.\Generated_Source\PSoC4/CyFlash.c ****                 retValue = CySysFlashClockConfig();
 150:.\Generated_Source\PSoC4/CyFlash.c ****             }
 151:.\Generated_Source\PSoC4/CyFlash.c ****         #endif  /* (CY_IP_SPCIF_SYNCHRONOUS) */
 152:.\Generated_Source\PSoC4/CyFlash.c **** 
 153:.\Generated_Source\PSoC4/CyFlash.c ****             if(retValue == CY_SYS_FLASH_SUCCESS)
 123              		.loc 1 153 0
 124 006a 029B     		ldr	r3, [sp, #8]
 125 006c 002B     		cmp	r3, #0
 126 006e 18D1     		bne	.L7
 154:.\Generated_Source\PSoC4/CyFlash.c ****             {
ARM GAS  C:\Users\310295~1\AppData\Local\Temp\cc8jfbKN.s 			page 6


 155:.\Generated_Source\PSoC4/CyFlash.c ****                 /* Write Row */
 156:.\Generated_Source\PSoC4/CyFlash.c ****                 parameters[0u]  = (uint32) (((uint32) CY_FLASH_KEY_TWO(CY_FLASH_API_OPCODE_WRITE_RO
 127              		.loc 1 156 0
 128 0070 194A     		ldr	r2, .L18+28
 157:.\Generated_Source\PSoC4/CyFlash.c ****                 parameters[0u] |= (uint32)(rowNum << 16u);
 129              		.loc 1 157 0
 130 0072 2D04     		lsl	r5, r5, #16
 131              	.LVL4:
 156:.\Generated_Source\PSoC4/CyFlash.c ****                 parameters[0u] |= (uint32)(rowNum << 16u);
 132              		.loc 1 156 0
 133 0074 0492     		str	r2, [sp, #16]
 134              		.loc 1 157 0
 135 0076 049A     		ldr	r2, [sp, #16]
 158:.\Generated_Source\PSoC4/CyFlash.c **** 
 159:.\Generated_Source\PSoC4/CyFlash.c ****                 CY_FLASH_CPUSS_SYSARG_REG = (uint32) &parameters[0u];
 160:.\Generated_Source\PSoC4/CyFlash.c ****                 CY_FLASH_CPUSS_SYSREQ_REG = CY_FLASH_CPUSS_REQ_START | CY_FLASH_API_OPCODE_WRITE_RO
 136              		.loc 1 160 0
 137 0078 1849     		ldr	r1, .L18+32
 157:.\Generated_Source\PSoC4/CyFlash.c **** 
 138              		.loc 1 157 0
 139 007a 1543     		orr	r5, r2
 140 007c 0495     		str	r5, [sp, #16]
 141              		.loc 1 160 0
 142 007e 019D     		ldr	r5, [sp, #4]
 159:.\Generated_Source\PSoC4/CyFlash.c ****                 CY_FLASH_CPUSS_SYSREQ_REG = CY_FLASH_CPUSS_REQ_START | CY_FLASH_API_OPCODE_WRITE_RO
 143              		.loc 1 159 0
 144 0080 2660     		str	r6, [r4]
 145 0082 124A     		ldr	r2, .L18+16
 146              		.loc 1 160 0
 147 0084 2960     		str	r1, [r5]
 161:.\Generated_Source\PSoC4/CyFlash.c ****                 CY_NOP;
 148              		.loc 1 161 0
 149              	@ 161 ".\Generated_Source\PSoC4\CyFlash.c" 1
 150 0086 C046     		NOP
 151              	
 152              	@ 0 "" 2
 162:.\Generated_Source\PSoC4/CyFlash.c ****                 retValue = CY_FLASH_API_RETURN;
 153              		.loc 1 162 0
 154              		.code	16
 155 0088 2168     		ldr	r1, [r4]
 156 008a 090F     		lsr	r1, r1, #28
 157 008c 0F29     		cmp	r1, #15
 158 008e 02D1     		bne	.L8
 159              		.loc 1 162 0 is_stmt 0 discriminator 1
 160 0090 1368     		ldr	r3, [r2]
 161 0092 DBB2     		uxtb	r3, r3
 162 0094 04E0     		b	.L9
 163              	.L8:
 164              		.loc 1 162 0 discriminator 2
 165 0096 1168     		ldr	r1, [r2]
 166 0098 090F     		lsr	r1, r1, #28
 167 009a 0A29     		cmp	r1, #10
 168 009c 00D0     		beq	.L9
 169              		.loc 1 162 0 discriminator 4
 170 009e 1368     		ldr	r3, [r2]
 171              	.L9:
 172              		.loc 1 162 0 discriminator 8
ARM GAS  C:\Users\310295~1\AppData\Local\Temp\cc8jfbKN.s 			page 7


 173 00a0 0293     		str	r3, [sp, #8]
 174              	.L7:
 163:.\Generated_Source\PSoC4/CyFlash.c ****             }
 164:.\Generated_Source\PSoC4/CyFlash.c **** 
 165:.\Generated_Source\PSoC4/CyFlash.c ****             #if (CY_FLASH_CHECKSUM_WORKAROUND)
 166:.\Generated_Source\PSoC4/CyFlash.c **** 
 167:.\Generated_Source\PSoC4/CyFlash.c ****                 if ((retValue == CYRET_SUCCESS) && (needChecksumWorkaround != 0u))
 168:.\Generated_Source\PSoC4/CyFlash.c ****                 {
 169:.\Generated_Source\PSoC4/CyFlash.c ****                     (void)memset((void *)&parameters[2u], 0, CY_FLASH_SIZEOF_ROW);
 170:.\Generated_Source\PSoC4/CyFlash.c ****                     parameters[savedIndex] = savedValue;
 171:.\Generated_Source\PSoC4/CyFlash.c **** 
 172:.\Generated_Source\PSoC4/CyFlash.c ****                     /* Load Flash Bytes */
 173:.\Generated_Source\PSoC4/CyFlash.c ****                     parameters[0u] = (uint32) (CY_FLASH_GET_MACRO_FROM_ROW(rowNum)        << CY_FLA
 174:.\Generated_Source\PSoC4/CyFlash.c ****                                      (uint32) (CY_FLASH_PAGE_LATCH_START_ADDR             << CY_FLA
 175:.\Generated_Source\PSoC4/CyFlash.c ****                                      (uint32) (CY_FLASH_KEY_TWO(CY_FLASH_API_OPCODE_LOAD) << CY_FLA
 176:.\Generated_Source\PSoC4/CyFlash.c ****                                      CY_FLASH_KEY_ONE;
 177:.\Generated_Source\PSoC4/CyFlash.c ****                     parameters[1u] = CY_FLASH_SIZEOF_ROW - 1u;
 178:.\Generated_Source\PSoC4/CyFlash.c **** 
 179:.\Generated_Source\PSoC4/CyFlash.c ****                     CY_FLASH_CPUSS_SYSARG_REG = (uint32) &parameters[0u];
 180:.\Generated_Source\PSoC4/CyFlash.c ****                     CY_FLASH_CPUSS_SYSREQ_REG = CY_FLASH_CPUSS_REQ_START | CY_FLASH_API_OPCODE_LOAD
 181:.\Generated_Source\PSoC4/CyFlash.c ****                     CY_NOP;
 182:.\Generated_Source\PSoC4/CyFlash.c ****                     retValue = CY_FLASH_API_RETURN;
 183:.\Generated_Source\PSoC4/CyFlash.c **** 
 184:.\Generated_Source\PSoC4/CyFlash.c **** 
 185:.\Generated_Source\PSoC4/CyFlash.c ****                     if(retValue == CY_SYS_FLASH_SUCCESS)
 186:.\Generated_Source\PSoC4/CyFlash.c ****                     {
 187:.\Generated_Source\PSoC4/CyFlash.c ****                         /* Program Row */
 188:.\Generated_Source\PSoC4/CyFlash.c ****                         parameters[0u]  =
 189:.\Generated_Source\PSoC4/CyFlash.c ****                             (uint32) (((uint32) CY_FLASH_KEY_TWO(CY_FLASH_API_OPCODE_PROGRAM_ROW) <
 190:.\Generated_Source\PSoC4/CyFlash.c ****                                                     CY_FLASH_PARAM_KEY_TWO_OFFSET) | CY_FLASH_KEY_O
 191:.\Generated_Source\PSoC4/CyFlash.c ****                         parameters[0u] |= (uint32)(rowNum << 16u);
 192:.\Generated_Source\PSoC4/CyFlash.c **** 
 193:.\Generated_Source\PSoC4/CyFlash.c ****                         CY_FLASH_CPUSS_SYSARG_REG = (uint32) &parameters[0u];
 194:.\Generated_Source\PSoC4/CyFlash.c ****                         CY_FLASH_CPUSS_SYSREQ_REG = CY_FLASH_CPUSS_REQ_START | CY_FLASH_API_OPCODE_
 195:.\Generated_Source\PSoC4/CyFlash.c ****                         CY_NOP;
 196:.\Generated_Source\PSoC4/CyFlash.c ****                         retValue = CY_FLASH_API_RETURN;
 197:.\Generated_Source\PSoC4/CyFlash.c ****                     }
 198:.\Generated_Source\PSoC4/CyFlash.c ****                 }
 199:.\Generated_Source\PSoC4/CyFlash.c ****             #endif  /* (CY_FLASH_CHECKSUM_WORKAROUND) */
 200:.\Generated_Source\PSoC4/CyFlash.c **** 
 201:.\Generated_Source\PSoC4/CyFlash.c ****             if(clkCnfRetValue == CY_SYS_FLASH_SUCCESS)
 175              		.loc 1 201 0 is_stmt 1
 176 00a2 039B     		ldr	r3, [sp, #12]
 177 00a4 002B     		cmp	r3, #0
 178 00a6 00D1     		bne	.L10
 179              	.LVL5:
 202:.\Generated_Source\PSoC4/CyFlash.c ****             {
 203:.\Generated_Source\PSoC4/CyFlash.c ****                 clkCnfRetValue = CySysFlashClockRestore();
 180              		.loc 1 203 0
 181 00a8 0393     		str	r3, [sp, #12]
 182              	.LVL6:
 183              	.L10:
 204:.\Generated_Source\PSoC4/CyFlash.c ****             }
 205:.\Generated_Source\PSoC4/CyFlash.c **** 
 206:.\Generated_Source\PSoC4/CyFlash.c ****             CyExitCriticalSection(interruptState);
 184              		.loc 1 206 0
 185 00aa FFF7FEFF 		bl	CyExitCriticalSection
ARM GAS  C:\Users\310295~1\AppData\Local\Temp\cc8jfbKN.s 			page 8


 186              	.LVL7:
 187 00ae 01E0     		b	.L6
 188              	.LVL8:
 189              	.L2:
 207:.\Generated_Source\PSoC4/CyFlash.c ****         }
 208:.\Generated_Source\PSoC4/CyFlash.c ****     }
 209:.\Generated_Source\PSoC4/CyFlash.c ****     else
 210:.\Generated_Source\PSoC4/CyFlash.c ****     {
 211:.\Generated_Source\PSoC4/CyFlash.c ****         retValue = CY_SYS_FLASH_INVALID_ADDR;
 190              		.loc 1 211 0
 191 00b0 0423     		mov	r3, #4
 192 00b2 0293     		str	r3, [sp, #8]
 193              	.LVL9:
 194              	.L6:
 212:.\Generated_Source\PSoC4/CyFlash.c ****     }
 213:.\Generated_Source\PSoC4/CyFlash.c **** 
 214:.\Generated_Source\PSoC4/CyFlash.c ****     return (retValue);
 195              		.loc 1 214 0
 196 00b4 0298     		ldr	r0, [sp, #8]
 215:.\Generated_Source\PSoC4/CyFlash.c **** }
 197              		.loc 1 215 0
 198 00b6 47B0     		add	sp, sp, #284
 199              		@ sp needed
 200 00b8 F0BD     		pop	{r4, r5, r6, r7, pc}
 201              	.L19:
 202 00ba C046     		.align	2
 203              	.L18:
 204 00bc FF030000 		.word	1023
 205 00c0 FF010000 		.word	511
 206 00c4 B6D70000 		.word	55222
 207 00c8 B6D70001 		.word	16832438
 208 00cc 08001040 		.word	1074790408
 209 00d0 04001040 		.word	1074790404
 210 00d4 04000080 		.word	-2147483644
 211 00d8 B6D80000 		.word	55478
 212 00dc 05000080 		.word	-2147483643
 213              		.cfi_endproc
 214              	.LFE2:
 215              		.size	CySysFlashWriteRow, .-CySysFlashWriteRow
 216              		.section	.text.CySysFlashSetWaitCycles,"ax",%progbits
 217              		.align	1
 218              		.global	CySysFlashSetWaitCycles
 219              		.code	16
 220              		.thumb_func
 221              		.type	CySysFlashSetWaitCycles, %function
 222              	CySysFlashSetWaitCycles:
 223              	.LFB3:
 216:.\Generated_Source\PSoC4/CyFlash.c **** 
 217:.\Generated_Source\PSoC4/CyFlash.c **** 
 218:.\Generated_Source\PSoC4/CyFlash.c **** 
 219:.\Generated_Source\PSoC4/CyFlash.c **** #if (CY_IP_FLASH_PARALLEL_PGM_EN && (CY_IP_FLASH_MACROS > 1u))
 220:.\Generated_Source\PSoC4/CyFlash.c **** /*******************************************************************************
 221:.\Generated_Source\PSoC4/CyFlash.c **** * Function Name: CySysFlashStartWriteRow
 222:.\Generated_Source\PSoC4/CyFlash.c **** ****************************************************************************//**
 223:.\Generated_Source\PSoC4/CyFlash.c **** *
 224:.\Generated_Source\PSoC4/CyFlash.c **** * Initiates a write to a row of Flash. A call to this API is non-blocking. 
 225:.\Generated_Source\PSoC4/CyFlash.c **** * Use CySysFlashResumeWriteRow() to resume flash writes and 
ARM GAS  C:\Users\310295~1\AppData\Local\Temp\cc8jfbKN.s 			page 9


 226:.\Generated_Source\PSoC4/CyFlash.c **** * CySysFlashGetWriteRowStatus() to ascertain status of the write operation.
 227:.\Generated_Source\PSoC4/CyFlash.c **** *
 228:.\Generated_Source\PSoC4/CyFlash.c **** * This API is applicable only for CCG3 device families.
 229:.\Generated_Source\PSoC4/CyFlash.c **** *
 230:.\Generated_Source\PSoC4/CyFlash.c **** * For CCG3 devices, parallel code execution and programming of flash is
 231:.\Generated_Source\PSoC4/CyFlash.c **** * supported since 128k flash is available as two banks of 64k. Please refer to
 232:.\Generated_Source\PSoC4/CyFlash.c **** * the device TRM for more details.
 233:.\Generated_Source\PSoC4/CyFlash.c **** *
 234:.\Generated_Source\PSoC4/CyFlash.c **** * CCG3 devices require HFCLK to be sourced by 48 MHz IMO during flash write.
 235:.\Generated_Source\PSoC4/CyFlash.c **** * This API will modify IMO configuration; it can be later restored to original
 236:.\Generated_Source\PSoC4/CyFlash.c **** * configuration by calling \ref CySysFlashGetWriteRowStatus().
 237:.\Generated_Source\PSoC4/CyFlash.c **** *
 238:.\Generated_Source\PSoC4/CyFlash.c **** * \param rowNum The flash row number. The number of the flash rows is defined by
 239:.\Generated_Source\PSoC4/CyFlash.c **** * the \ref CY_FLASH_NUMBER_ROWS macro for the selected device. Refer to the
 240:.\Generated_Source\PSoC4/CyFlash.c **** * device datasheet for the details.
 241:.\Generated_Source\PSoC4/CyFlash.c **** * \note The target flash array is calculated based on the specified flash row.
 242:.\Generated_Source\PSoC4/CyFlash.c **** *
 243:.\Generated_Source\PSoC4/CyFlash.c **** * \param rowData Array of bytes to write. The size of the array must be equal to
 244:.\Generated_Source\PSoC4/CyFlash.c **** * the flash row size. The flash row size for the selected device is defined by
 245:.\Generated_Source\PSoC4/CyFlash.c **** * the \ref CY_FLASH_SIZEOF_ROW macro. Refer to the device datasheet for the
 246:.\Generated_Source\PSoC4/CyFlash.c **** * details.
 247:.\Generated_Source\PSoC4/CyFlash.c **** *
 248:.\Generated_Source\PSoC4/CyFlash.c **** * \return \ref group_flash_status_codes
 249:.\Generated_Source\PSoC4/CyFlash.c **** *
 250:.\Generated_Source\PSoC4/CyFlash.c **** *******************************************************************************/
 251:.\Generated_Source\PSoC4/CyFlash.c **** uint32 CySysFlashStartWriteRow(uint32 rowNum, const uint8 rowData[])
 252:.\Generated_Source\PSoC4/CyFlash.c **** {
 253:.\Generated_Source\PSoC4/CyFlash.c ****     volatile uint32 retValue = CY_SYS_FLASH_SUCCESS;
 254:.\Generated_Source\PSoC4/CyFlash.c ****     volatile uint32 parameters[(CY_FLASH_SIZEOF_ROW + CY_FLASH_SRAM_ROM_DATA) / sizeof(uint32)];
 255:.\Generated_Source\PSoC4/CyFlash.c ****     uint8  interruptState;
 256:.\Generated_Source\PSoC4/CyFlash.c **** 
 257:.\Generated_Source\PSoC4/CyFlash.c **** #if(CY_IP_SPCIF_SYNCHRONOUS)
 258:.\Generated_Source\PSoC4/CyFlash.c ****     volatile uint32 clkCnfRetValue = CY_SYS_FLASH_SUCCESS;
 259:.\Generated_Source\PSoC4/CyFlash.c **** #endif  /* (CY_IP_SPCIF_SYNCHRONOUS) */    
 260:.\Generated_Source\PSoC4/CyFlash.c **** 
 261:.\Generated_Source\PSoC4/CyFlash.c ****     if ((rowNum < CY_FLASH_NUMBER_ROWS) && (rowData != 0u))
 262:.\Generated_Source\PSoC4/CyFlash.c ****     {
 263:.\Generated_Source\PSoC4/CyFlash.c ****         /* Copy data to be written into internal variable */
 264:.\Generated_Source\PSoC4/CyFlash.c ****         (void)memcpy((void *)&parameters[2u], rowData, CY_FLASH_SIZEOF_ROW);
 265:.\Generated_Source\PSoC4/CyFlash.c **** 
 266:.\Generated_Source\PSoC4/CyFlash.c ****         /* Load Flash Bytes */
 267:.\Generated_Source\PSoC4/CyFlash.c ****         parameters[0u] = (uint32) (CY_FLASH_GET_MACRO_FROM_ROW(rowNum)        << CY_FLASH_PARAM_MAC
 268:.\Generated_Source\PSoC4/CyFlash.c ****                          (uint32) (CY_FLASH_PAGE_LATCH_START_ADDR             << CY_FLASH_PARAM_ADD
 269:.\Generated_Source\PSoC4/CyFlash.c ****                          (uint32) (CY_FLASH_KEY_TWO(CY_FLASH_API_OPCODE_LOAD) << CY_FLASH_PARAM_KEY
 270:.\Generated_Source\PSoC4/CyFlash.c ****                          CY_FLASH_KEY_ONE;
 271:.\Generated_Source\PSoC4/CyFlash.c ****         parameters[1u] = CY_FLASH_SIZEOF_ROW - 1u;
 272:.\Generated_Source\PSoC4/CyFlash.c **** 
 273:.\Generated_Source\PSoC4/CyFlash.c ****         CY_FLASH_CPUSS_SYSARG_REG = (uint32) &parameters[0u];
 274:.\Generated_Source\PSoC4/CyFlash.c ****         CY_FLASH_CPUSS_SYSREQ_REG = CY_FLASH_CPUSS_REQ_START | CY_FLASH_API_OPCODE_LOAD;
 275:.\Generated_Source\PSoC4/CyFlash.c ****         CY_NOP;
 276:.\Generated_Source\PSoC4/CyFlash.c ****         retValue = CY_FLASH_API_RETURN;
 277:.\Generated_Source\PSoC4/CyFlash.c **** 
 278:.\Generated_Source\PSoC4/CyFlash.c ****         if(retValue == CY_SYS_FLASH_SUCCESS)
 279:.\Generated_Source\PSoC4/CyFlash.c ****         {
 280:.\Generated_Source\PSoC4/CyFlash.c ****             /***************************************************************
 281:.\Generated_Source\PSoC4/CyFlash.c ****             * Mask all the exceptions to guarantee that Flash write will
 282:.\Generated_Source\PSoC4/CyFlash.c ****             * occur in the atomic way. It will not affect system call
ARM GAS  C:\Users\310295~1\AppData\Local\Temp\cc8jfbKN.s 			page 10


 283:.\Generated_Source\PSoC4/CyFlash.c ****             * execution (flash row write) since it is executed in the NMI
 284:.\Generated_Source\PSoC4/CyFlash.c ****             * context.
 285:.\Generated_Source\PSoC4/CyFlash.c ****             ***************************************************************/
 286:.\Generated_Source\PSoC4/CyFlash.c ****             interruptState = CyEnterCriticalSection();
 287:.\Generated_Source\PSoC4/CyFlash.c **** 
 288:.\Generated_Source\PSoC4/CyFlash.c ****         #if(CY_IP_SPCIF_SYNCHRONOUS)
 289:.\Generated_Source\PSoC4/CyFlash.c ****             clkCnfRetValue = CySysFlashClockBackup();
 290:.\Generated_Source\PSoC4/CyFlash.c ****             
 291:.\Generated_Source\PSoC4/CyFlash.c ****             if(clkCnfRetValue == CY_SYS_FLASH_SUCCESS)
 292:.\Generated_Source\PSoC4/CyFlash.c ****             {
 293:.\Generated_Source\PSoC4/CyFlash.c ****                 retValue = CySysFlashClockConfig();
 294:.\Generated_Source\PSoC4/CyFlash.c ****             }
 295:.\Generated_Source\PSoC4/CyFlash.c ****         #else
 296:.\Generated_Source\PSoC4/CyFlash.c ****             CySysFlashClockBackup();
 297:.\Generated_Source\PSoC4/CyFlash.c ****         #endif  /* (CY_IP_SPCIF_SYNCHRONOUS) */
 298:.\Generated_Source\PSoC4/CyFlash.c **** 
 299:.\Generated_Source\PSoC4/CyFlash.c ****             if(retValue == CY_SYS_FLASH_SUCCESS)
 300:.\Generated_Source\PSoC4/CyFlash.c ****             {
 301:.\Generated_Source\PSoC4/CyFlash.c ****                 /* Non-blocking Write Row */
 302:.\Generated_Source\PSoC4/CyFlash.c ****                 parameters[0u]  = (uint32) (((uint32) CY_FLASH_KEY_TWO(CY_FLASH_API_OPCODE_NON_BLOC
 303:.\Generated_Source\PSoC4/CyFlash.c ****                                                         CY_FLASH_PARAM_KEY_TWO_OFFSET) | CY_FLASH_K
 304:.\Generated_Source\PSoC4/CyFlash.c ****                 parameters[0u] |= (uint32)(rowNum << 16u);
 305:.\Generated_Source\PSoC4/CyFlash.c **** 
 306:.\Generated_Source\PSoC4/CyFlash.c ****                 CY_FLASH_CPUSS_SYSARG_REG = (uint32) &parameters[0u];
 307:.\Generated_Source\PSoC4/CyFlash.c ****                 CY_FLASH_CPUSS_SYSREQ_REG = CY_FLASH_CPUSS_REQ_START | CY_FLASH_API_OPCODE_NON_BLOC
 308:.\Generated_Source\PSoC4/CyFlash.c ****                 CY_NOP;
 309:.\Generated_Source\PSoC4/CyFlash.c ****                 retValue = CY_FLASH_API_RETURN;
 310:.\Generated_Source\PSoC4/CyFlash.c ****             }
 311:.\Generated_Source\PSoC4/CyFlash.c **** 
 312:.\Generated_Source\PSoC4/CyFlash.c ****             CyExitCriticalSection(interruptState);
 313:.\Generated_Source\PSoC4/CyFlash.c ****         }
 314:.\Generated_Source\PSoC4/CyFlash.c ****     }
 315:.\Generated_Source\PSoC4/CyFlash.c ****     else
 316:.\Generated_Source\PSoC4/CyFlash.c ****     {
 317:.\Generated_Source\PSoC4/CyFlash.c ****         retValue = CY_SYS_FLASH_INVALID_ADDR;
 318:.\Generated_Source\PSoC4/CyFlash.c ****     }
 319:.\Generated_Source\PSoC4/CyFlash.c **** 
 320:.\Generated_Source\PSoC4/CyFlash.c ****     return (retValue);
 321:.\Generated_Source\PSoC4/CyFlash.c **** }
 322:.\Generated_Source\PSoC4/CyFlash.c **** 
 323:.\Generated_Source\PSoC4/CyFlash.c **** 
 324:.\Generated_Source\PSoC4/CyFlash.c **** /*******************************************************************************
 325:.\Generated_Source\PSoC4/CyFlash.c **** * Function Name: CySysFlashGetWriteRowStatus
 326:.\Generated_Source\PSoC4/CyFlash.c **** ****************************************************************************//**
 327:.\Generated_Source\PSoC4/CyFlash.c **** *
 328:.\Generated_Source\PSoC4/CyFlash.c **** * Returns the current status of the flash write operation.
 329:.\Generated_Source\PSoC4/CyFlash.c **** *
 330:.\Generated_Source\PSoC4/CyFlash.c **** * This API is applicable only for CCG3 device families.
 331:.\Generated_Source\PSoC4/CyFlash.c **** *
 332:.\Generated_Source\PSoC4/CyFlash.c **** * For CCG3 devices, parallel code execution and programming of flash is
 333:.\Generated_Source\PSoC4/CyFlash.c **** * supported since 128k flash is available as two banks of 64k. Please refer to
 334:.\Generated_Source\PSoC4/CyFlash.c **** * the device TRM for more details.
 335:.\Generated_Source\PSoC4/CyFlash.c **** *
 336:.\Generated_Source\PSoC4/CyFlash.c **** * CCG3 devices require HFCLK to be sourced by 48 MHz IMO during flash write.
 337:.\Generated_Source\PSoC4/CyFlash.c **** * This API will restore original IMO configuration; that has been earlier
 338:.\Generated_Source\PSoC4/CyFlash.c **** * modified by \ref CySysFlashStartWriteRow().
 339:.\Generated_Source\PSoC4/CyFlash.c **** *
ARM GAS  C:\Users\310295~1\AppData\Local\Temp\cc8jfbKN.s 			page 11


 340:.\Generated_Source\PSoC4/CyFlash.c **** * \return \ref group_flash_status_codes
 341:.\Generated_Source\PSoC4/CyFlash.c **** *
 342:.\Generated_Source\PSoC4/CyFlash.c **** *******************************************************************************/
 343:.\Generated_Source\PSoC4/CyFlash.c **** uint32 CySysFlashGetWriteRowStatus(void)
 344:.\Generated_Source\PSoC4/CyFlash.c **** {
 345:.\Generated_Source\PSoC4/CyFlash.c ****     volatile uint32 retValue = CY_SYS_FLASH_SUCCESS;
 346:.\Generated_Source\PSoC4/CyFlash.c **** 
 347:.\Generated_Source\PSoC4/CyFlash.c ****     CY_NOP;
 348:.\Generated_Source\PSoC4/CyFlash.c ****     retValue = CY_FLASH_API_RETURN;
 349:.\Generated_Source\PSoC4/CyFlash.c **** 
 350:.\Generated_Source\PSoC4/CyFlash.c ****     (void) CySysFlashClockRestore();
 351:.\Generated_Source\PSoC4/CyFlash.c **** 
 352:.\Generated_Source\PSoC4/CyFlash.c ****     return (retValue);
 353:.\Generated_Source\PSoC4/CyFlash.c **** }
 354:.\Generated_Source\PSoC4/CyFlash.c **** 
 355:.\Generated_Source\PSoC4/CyFlash.c **** 
 356:.\Generated_Source\PSoC4/CyFlash.c **** 
 357:.\Generated_Source\PSoC4/CyFlash.c **** /*******************************************************************************
 358:.\Generated_Source\PSoC4/CyFlash.c **** * Function Name: CySysFlashResumeWriteRow
 359:.\Generated_Source\PSoC4/CyFlash.c **** ****************************************************************************//**
 360:.\Generated_Source\PSoC4/CyFlash.c **** *
 361:.\Generated_Source\PSoC4/CyFlash.c **** * This API must be called, once the SPC interrupt is triggered to complete the
 362:.\Generated_Source\PSoC4/CyFlash.c **** * non-blocking operation. It is advised not to prolong calling this API for
 363:.\Generated_Source\PSoC4/CyFlash.c **** * more than 25 ms.
 364:.\Generated_Source\PSoC4/CyFlash.c **** *
 365:.\Generated_Source\PSoC4/CyFlash.c **** * The non-blocking write row API \ref CySysFlashStartWriteRow() requires that
 366:.\Generated_Source\PSoC4/CyFlash.c **** * this API be called 3 times to complete the write. This can be done by
 367:.\Generated_Source\PSoC4/CyFlash.c **** * configuring SPCIF interrupt and placing a call to this API.
 368:.\Generated_Source\PSoC4/CyFlash.c **** *
 369:.\Generated_Source\PSoC4/CyFlash.c **** * For CM0 based device, a non-blocking call to program a row of macro 0
 370:.\Generated_Source\PSoC4/CyFlash.c **** * requires the user to set the CPUSS_CONFIG.VECS_IN_RAM bit so that the
 371:.\Generated_Source\PSoC4/CyFlash.c **** * interrupt vector for the SPC is fetched from the SRAM rather than the FLASH.
 372:.\Generated_Source\PSoC4/CyFlash.c **** *
 373:.\Generated_Source\PSoC4/CyFlash.c **** * For CM0+ based device, if the user wants to keep the vector table in flash
 374:.\Generated_Source\PSoC4/CyFlash.c **** * when performing non-blocking flash write then they need to make sure the
 375:.\Generated_Source\PSoC4/CyFlash.c **** * vector table is placed in the flash macro which is not getting programmed by
 376:.\Generated_Source\PSoC4/CyFlash.c **** * configuring the VTOR register.
 377:.\Generated_Source\PSoC4/CyFlash.c **** *
 378:.\Generated_Source\PSoC4/CyFlash.c **** * This API is applicable only for CCG3 device families.
 379:.\Generated_Source\PSoC4/CyFlash.c **** *
 380:.\Generated_Source\PSoC4/CyFlash.c **** * \return \ref group_flash_status_codes
 381:.\Generated_Source\PSoC4/CyFlash.c **** *
 382:.\Generated_Source\PSoC4/CyFlash.c **** * \note Please consult the example project NonBlockingFlashWrite_Example for an
 383:.\Generated_Source\PSoC4/CyFlash.c **** * implementation.
 384:.\Generated_Source\PSoC4/CyFlash.c **** *
 385:.\Generated_Source\PSoC4/CyFlash.c **** *******************************************************************************/
 386:.\Generated_Source\PSoC4/CyFlash.c **** uint32 CySysFlashResumeWriteRow(void)
 387:.\Generated_Source\PSoC4/CyFlash.c **** {
 388:.\Generated_Source\PSoC4/CyFlash.c ****     volatile uint32 retValue = CY_SYS_FLASH_SUCCESS;
 389:.\Generated_Source\PSoC4/CyFlash.c ****     static volatile uint32 parameters[1u];
 390:.\Generated_Source\PSoC4/CyFlash.c **** 
 391:.\Generated_Source\PSoC4/CyFlash.c ****     /* Resume */
 392:.\Generated_Source\PSoC4/CyFlash.c ****     parameters[0u] = (uint32) (((uint32) CY_FLASH_KEY_TWO(CY_FLASH_API_OPCODE_RESUME_NON_BLOCKING) 
 393:.\Generated_Source\PSoC4/CyFlash.c ****                                          CY_FLASH_PARAM_KEY_TWO_OFFSET) | CY_FLASH_KEY_ONE);
 394:.\Generated_Source\PSoC4/CyFlash.c ****     CY_FLASH_CPUSS_SYSARG_REG = (uint32) &parameters[0u];
 395:.\Generated_Source\PSoC4/CyFlash.c ****     CY_FLASH_CPUSS_SYSREQ_REG = CY_FLASH_CPUSS_REQ_START | CY_FLASH_API_OPCODE_RESUME_NON_BLOCKING;
 396:.\Generated_Source\PSoC4/CyFlash.c ****     
ARM GAS  C:\Users\310295~1\AppData\Local\Temp\cc8jfbKN.s 			page 12


 397:.\Generated_Source\PSoC4/CyFlash.c ****     CY_NOP;
 398:.\Generated_Source\PSoC4/CyFlash.c ****     retValue = CY_FLASH_API_RETURN;
 399:.\Generated_Source\PSoC4/CyFlash.c ****     
 400:.\Generated_Source\PSoC4/CyFlash.c ****     return (retValue);
 401:.\Generated_Source\PSoC4/CyFlash.c **** }
 402:.\Generated_Source\PSoC4/CyFlash.c **** 
 403:.\Generated_Source\PSoC4/CyFlash.c **** #endif /* (CY_IP_FLASH_PARALLEL_PGM_EN && (CY_IP_FLASH_MACROS > 1u)) */
 404:.\Generated_Source\PSoC4/CyFlash.c **** 
 405:.\Generated_Source\PSoC4/CyFlash.c **** 
 406:.\Generated_Source\PSoC4/CyFlash.c **** /*******************************************************************************
 407:.\Generated_Source\PSoC4/CyFlash.c **** * Function Name: CySysFlashSetWaitCycles
 408:.\Generated_Source\PSoC4/CyFlash.c **** ****************************************************************************//**
 409:.\Generated_Source\PSoC4/CyFlash.c **** *
 410:.\Generated_Source\PSoC4/CyFlash.c **** * Sets the number of clock cycles the cache will wait before it samples data
 411:.\Generated_Source\PSoC4/CyFlash.c **** * coming back from Flash. This function must be called before increasing the
 412:.\Generated_Source\PSoC4/CyFlash.c **** * SYSCLK clock frequency. It can optionally be called after lowering SYSCLK
 413:.\Generated_Source\PSoC4/CyFlash.c **** * clock frequency in order to improve the CPU performance.
 414:.\Generated_Source\PSoC4/CyFlash.c **** *
 415:.\Generated_Source\PSoC4/CyFlash.c **** * \param freq The System clock frequency in MHz.
 416:.\Generated_Source\PSoC4/CyFlash.c **** *
 417:.\Generated_Source\PSoC4/CyFlash.c **** * \note Invalid frequency will be ignored in Release mode and the CPU will be
 418:.\Generated_Source\PSoC4/CyFlash.c **** * halted if project is compiled in Debug mode.
 419:.\Generated_Source\PSoC4/CyFlash.c **** *
 420:.\Generated_Source\PSoC4/CyFlash.c **** *******************************************************************************/
 421:.\Generated_Source\PSoC4/CyFlash.c **** void CySysFlashSetWaitCycles(uint32 freq)
 422:.\Generated_Source\PSoC4/CyFlash.c **** {
 224              		.loc 1 422 0
 225              		.cfi_startproc
 226              	.LVL10:
 227 0000 10B5     		push	{r4, lr}
 228              		.cfi_def_cfa_offset 8
 229              		.cfi_offset 4, -8
 230              		.cfi_offset 14, -4
 231              		.loc 1 422 0
 232 0002 041C     		mov	r4, r0
 423:.\Generated_Source\PSoC4/CyFlash.c ****     uint8  interruptState;
 424:.\Generated_Source\PSoC4/CyFlash.c **** 
 425:.\Generated_Source\PSoC4/CyFlash.c ****     interruptState = CyEnterCriticalSection();
 233              		.loc 1 425 0
 234 0004 FFF7FEFF 		bl	CyEnterCriticalSection
 235              	.LVL11:
 426:.\Generated_Source\PSoC4/CyFlash.c **** 
 427:.\Generated_Source\PSoC4/CyFlash.c ****     #if (CY_IP_CPUSS)
 428:.\Generated_Source\PSoC4/CyFlash.c **** 
 429:.\Generated_Source\PSoC4/CyFlash.c ****         if ( freq <= CY_FLASH_SYSCLK_BOUNDARY_MHZ )
 430:.\Generated_Source\PSoC4/CyFlash.c ****         {
 431:.\Generated_Source\PSoC4/CyFlash.c ****             CY_SYS_CLK_SELECT_REG &= (uint32)(~CY_FLASH_WAIT_STATE_EN);
 432:.\Generated_Source\PSoC4/CyFlash.c ****         }
 433:.\Generated_Source\PSoC4/CyFlash.c ****         else
 434:.\Generated_Source\PSoC4/CyFlash.c ****         {
 435:.\Generated_Source\PSoC4/CyFlash.c ****             CY_SYS_CLK_SELECT_REG |= CY_FLASH_WAIT_STATE_EN;
 436:.\Generated_Source\PSoC4/CyFlash.c ****         }
 437:.\Generated_Source\PSoC4/CyFlash.c ****     #else
 438:.\Generated_Source\PSoC4/CyFlash.c ****         #if (CY_IP_CPUSS_FLASHC_PRESENT)
 439:.\Generated_Source\PSoC4/CyFlash.c ****             /* CY_IP_FM and CY_IP_FS */
 440:.\Generated_Source\PSoC4/CyFlash.c ****             if (freq <= CY_FLASH_CTL_WS_0_FREQ_MAX)
 236              		.loc 1 440 0
ARM GAS  C:\Users\310295~1\AppData\Local\Temp\cc8jfbKN.s 			page 13


 237 0008 102C     		cmp	r4, #16
 238 000a 04D8     		bhi	.L21
 441:.\Generated_Source\PSoC4/CyFlash.c ****             {
 442:.\Generated_Source\PSoC4/CyFlash.c ****                 CY_FLASH_CTL_REG = (CY_FLASH_CTL_REG & ~CY_FLASH_CTL_WS_MASK) | CY_FLASH_CTL_WS_0_V
 239              		.loc 1 442 0
 240 000c 0321     		mov	r1, #3
 241 000e 0C4A     		ldr	r2, .L26
 242 0010 1368     		ldr	r3, [r2]
 243 0012 8B43     		bic	r3, r1
 244 0014 0FE0     		b	.L24
 245              	.L21:
 443:.\Generated_Source\PSoC4/CyFlash.c ****             } else
 444:.\Generated_Source\PSoC4/CyFlash.c ****             if (freq <= CY_FLASH_CTL_WS_1_FREQ_MAX)
 246              		.loc 1 444 0
 247 0016 202C     		cmp	r4, #32
 248 0018 05D8     		bhi	.L23
 445:.\Generated_Source\PSoC4/CyFlash.c ****             {
 446:.\Generated_Source\PSoC4/CyFlash.c ****                 CY_FLASH_CTL_REG = (CY_FLASH_CTL_REG & ~CY_FLASH_CTL_WS_MASK) | CY_FLASH_CTL_WS_1_V
 249              		.loc 1 446 0
 250 001a 0321     		mov	r1, #3
 251 001c 084A     		ldr	r2, .L26
 252 001e 1368     		ldr	r3, [r2]
 253 0020 8B43     		bic	r3, r1
 254 0022 0239     		sub	r1, r1, #2
 255 0024 06E0     		b	.L25
 256              	.L23:
 447:.\Generated_Source\PSoC4/CyFlash.c ****             } else
 448:.\Generated_Source\PSoC4/CyFlash.c ****             #if (CY_IP_FMLT || CY_IP_FSLT)
 449:.\Generated_Source\PSoC4/CyFlash.c ****                 if (freq <= CY_FLASH_CTL_WS_2_FREQ_MAX)
 257              		.loc 1 449 0
 258 0026 302C     		cmp	r4, #48
 259 0028 06D8     		bhi	.L22
 450:.\Generated_Source\PSoC4/CyFlash.c ****                 {
 451:.\Generated_Source\PSoC4/CyFlash.c ****                     CY_FLASH_CTL_REG = (CY_FLASH_CTL_REG & ~CY_FLASH_CTL_WS_MASK) | CY_FLASH_CTL_WS
 260              		.loc 1 451 0
 261 002a 0321     		mov	r1, #3
 262 002c 044A     		ldr	r2, .L26
 263 002e 1368     		ldr	r3, [r2]
 264 0030 8B43     		bic	r3, r1
 265 0032 0139     		sub	r1, r1, #1
 266              	.L25:
 267 0034 0B43     		orr	r3, r1
 268              	.L24:
 269 0036 1360     		str	r3, [r2]
 270              	.L22:
 452:.\Generated_Source\PSoC4/CyFlash.c ****                 }
 453:.\Generated_Source\PSoC4/CyFlash.c ****                 else
 454:.\Generated_Source\PSoC4/CyFlash.c ****             #endif  /* (CY_IP_FMLT || CY_IP_FSLT) */
 455:.\Generated_Source\PSoC4/CyFlash.c ****         #endif /* (CY_IP_CPUSS_FLASHC_PRESENT) */
 456:.\Generated_Source\PSoC4/CyFlash.c ****         {
 457:.\Generated_Source\PSoC4/CyFlash.c ****             /* Halt CPU in debug mode if frequency is invalid */
 458:.\Generated_Source\PSoC4/CyFlash.c ****             CYASSERT(0u != 0u);
 459:.\Generated_Source\PSoC4/CyFlash.c ****         }
 460:.\Generated_Source\PSoC4/CyFlash.c **** 
 461:.\Generated_Source\PSoC4/CyFlash.c ****     #endif  /* (CY_IP_CPUSS) */
 462:.\Generated_Source\PSoC4/CyFlash.c **** 
 463:.\Generated_Source\PSoC4/CyFlash.c ****     CyExitCriticalSection(interruptState);
ARM GAS  C:\Users\310295~1\AppData\Local\Temp\cc8jfbKN.s 			page 14


 271              		.loc 1 463 0
 272 0038 FFF7FEFF 		bl	CyExitCriticalSection
 273              	.LVL12:
 464:.\Generated_Source\PSoC4/CyFlash.c **** }
 274              		.loc 1 464 0
 275              		@ sp needed
 276              	.LVL13:
 277 003c 10BD     		pop	{r4, pc}
 278              	.L27:
 279 003e C046     		.align	2
 280              	.L26:
 281 0040 30001040 		.word	1074790448
 282              		.cfi_endproc
 283              	.LFE3:
 284              		.size	CySysFlashSetWaitCycles, .-CySysFlashSetWaitCycles
 285              		.section	.text.CySysSFlashWriteUserRow,"ax",%progbits
 286              		.align	1
 287              		.global	CySysSFlashWriteUserRow
 288              		.code	16
 289              		.thumb_func
 290              		.type	CySysSFlashWriteUserRow, %function
 291              	CySysSFlashWriteUserRow:
 292              	.LFB4:
 465:.\Generated_Source\PSoC4/CyFlash.c **** 
 466:.\Generated_Source\PSoC4/CyFlash.c **** 
 467:.\Generated_Source\PSoC4/CyFlash.c **** #if (CY_SFLASH_XTRA_ROWS)
 468:.\Generated_Source\PSoC4/CyFlash.c **** /*******************************************************************************
 469:.\Generated_Source\PSoC4/CyFlash.c **** * Function Name: CySysSFlashWriteUserRow
 470:.\Generated_Source\PSoC4/CyFlash.c **** ****************************************************************************//**
 471:.\Generated_Source\PSoC4/CyFlash.c **** *
 472:.\Generated_Source\PSoC4/CyFlash.c **** * Writes data to a row of SFlash user configurable area.
 473:.\Generated_Source\PSoC4/CyFlash.c **** *
 474:.\Generated_Source\PSoC4/CyFlash.c **** * This API is applicable for PSoC 4100 BLE, PSoC 4200 BLE, PSoC 4100M,
 475:.\Generated_Source\PSoC4/CyFlash.c **** * PSoC 4200M, and PSoC 4200L family of devices.
 476:.\Generated_Source\PSoC4/CyFlash.c **** *
 477:.\Generated_Source\PSoC4/CyFlash.c **** * \param rowNum The flash row number. The flash row number. The number of the
 478:.\Generated_Source\PSoC4/CyFlash.c **** * flash rows is defined by the CY_SFLASH_NUMBER_USERROWS macro for the selected
 479:.\Generated_Source\PSoC4/CyFlash.c **** * device. Valid range is 0-3. Refer to the device TRM for details.
 480:.\Generated_Source\PSoC4/CyFlash.c **** *
 481:.\Generated_Source\PSoC4/CyFlash.c **** * \param rowData Array of bytes to write. The size of the array must be equal to
 482:.\Generated_Source\PSoC4/CyFlash.c **** * the flash row size. The flash row size for the selected device is defined by
 483:.\Generated_Source\PSoC4/CyFlash.c **** * the \ref CY_SFLASH_SIZEOF_USERROW macro. Refer to the device TRM for the
 484:.\Generated_Source\PSoC4/CyFlash.c **** * details.
 485:.\Generated_Source\PSoC4/CyFlash.c **** *
 486:.\Generated_Source\PSoC4/CyFlash.c **** * \return \ref group_flash_status_codes
 487:.\Generated_Source\PSoC4/CyFlash.c **** *
 488:.\Generated_Source\PSoC4/CyFlash.c **** *******************************************************************************/
 489:.\Generated_Source\PSoC4/CyFlash.c **** uint32 CySysSFlashWriteUserRow(uint32 rowNum, const uint8 rowData[])
 490:.\Generated_Source\PSoC4/CyFlash.c **** {
 293              		.loc 1 490 0
 294              		.cfi_startproc
 295              	.LVL14:
 296 0000 F0B5     		push	{r4, r5, r6, r7, lr}
 297              		.cfi_def_cfa_offset 20
 298              		.cfi_offset 4, -20
 299              		.cfi_offset 5, -16
 300              		.cfi_offset 6, -12
ARM GAS  C:\Users\310295~1\AppData\Local\Temp\cc8jfbKN.s 			page 15


 301              		.cfi_offset 7, -8
 302              		.cfi_offset 14, -4
 491:.\Generated_Source\PSoC4/CyFlash.c ****     volatile uint32 retValue = CY_SYS_FLASH_SUCCESS;
 303              		.loc 1 491 0
 304 0002 0025     		mov	r5, #0
 490:.\Generated_Source\PSoC4/CyFlash.c ****     volatile uint32 retValue = CY_SYS_FLASH_SUCCESS;
 305              		.loc 1 490 0
 306 0004 C7B0     		sub	sp, sp, #284
 307              		.cfi_def_cfa_offset 304
 308              		.loc 1 491 0
 309 0006 0295     		str	r5, [sp, #8]
 492:.\Generated_Source\PSoC4/CyFlash.c ****     volatile uint32 clkCnfRetValue = CY_SYS_FLASH_SUCCESS;
 310              		.loc 1 492 0
 311 0008 0395     		str	r5, [sp, #12]
 493:.\Generated_Source\PSoC4/CyFlash.c ****     volatile uint32 parameters[(CY_FLASH_SIZEOF_ROW + CY_FLASH_SRAM_ROM_DATA)/4u];
 494:.\Generated_Source\PSoC4/CyFlash.c ****     uint8  interruptState;
 495:.\Generated_Source\PSoC4/CyFlash.c **** 
 496:.\Generated_Source\PSoC4/CyFlash.c **** 
 497:.\Generated_Source\PSoC4/CyFlash.c ****     if ((rowNum < CY_SFLASH_NUMBER_USERROWS) && (rowData != 0u))
 312              		.loc 1 497 0
 313 000a 0328     		cmp	r0, #3
 314 000c 47D8     		bhi	.L29
 315              		.loc 1 497 0 is_stmt 0 discriminator 1
 316 000e A942     		cmp	r1, r5
 317 0010 45D0     		beq	.L29
 498:.\Generated_Source\PSoC4/CyFlash.c ****     {
 499:.\Generated_Source\PSoC4/CyFlash.c ****         /* Load Flash Bytes */
 500:.\Generated_Source\PSoC4/CyFlash.c ****         parameters[0u] = (uint32) (CY_FLASH_GET_MACRO_FROM_ROW(rowNum)        << CY_FLASH_PARAM_MAC
 501:.\Generated_Source\PSoC4/CyFlash.c ****                          (uint32) (CY_FLASH_PAGE_LATCH_START_ADDR             << CY_FLASH_PARAM_ADD
 502:.\Generated_Source\PSoC4/CyFlash.c ****                          (uint32) (CY_FLASH_KEY_TWO(CY_FLASH_API_OPCODE_LOAD) << CY_FLASH_PARAM_KEY
 503:.\Generated_Source\PSoC4/CyFlash.c ****                          CY_FLASH_KEY_ONE;
 504:.\Generated_Source\PSoC4/CyFlash.c ****         parameters[1u] = CY_FLASH_SIZEOF_ROW - 1u;
 505:.\Generated_Source\PSoC4/CyFlash.c **** 
 506:.\Generated_Source\PSoC4/CyFlash.c ****         (void)memcpy((void *)&parameters[2u], rowData, CY_FLASH_SIZEOF_ROW);
 318              		.loc 1 506 0 is_stmt 1
 319 0012 8022     		mov	r2, #128
 504:.\Generated_Source\PSoC4/CyFlash.c **** 
 320              		.loc 1 504 0
 321 0014 FF27     		mov	r7, #255
 500:.\Generated_Source\PSoC4/CyFlash.c ****                          (uint32) (CY_FLASH_PAGE_LATCH_START_ADDR             << CY_FLASH_PARAM_ADD
 322              		.loc 1 500 0
 323 0016 244B     		ldr	r3, .L42
 324 0018 0190     		str	r0, [sp, #4]
 325 001a 04AE     		add	r6, sp, #16
 326              		.loc 1 506 0
 327 001c 06A8     		add	r0, sp, #24
 328              	.LVL15:
 329 001e 5200     		lsl	r2, r2, #1
 500:.\Generated_Source\PSoC4/CyFlash.c ****                          (uint32) (CY_FLASH_PAGE_LATCH_START_ADDR             << CY_FLASH_PARAM_ADD
 330              		.loc 1 500 0
 331 0020 0493     		str	r3, [sp, #16]
 507:.\Generated_Source\PSoC4/CyFlash.c ****         CY_FLASH_CPUSS_SYSARG_REG = (uint32) &parameters[0u];
 332              		.loc 1 507 0
 333 0022 224C     		ldr	r4, .L42+4
 504:.\Generated_Source\PSoC4/CyFlash.c **** 
 334              		.loc 1 504 0
 335 0024 7760     		str	r7, [r6, #4]
ARM GAS  C:\Users\310295~1\AppData\Local\Temp\cc8jfbKN.s 			page 16


 506:.\Generated_Source\PSoC4/CyFlash.c ****         CY_FLASH_CPUSS_SYSARG_REG = (uint32) &parameters[0u];
 336              		.loc 1 506 0
 337 0026 FFF7FEFF 		bl	memcpy
 338              	.LVL16:
 508:.\Generated_Source\PSoC4/CyFlash.c ****         CY_FLASH_CPUSS_SYSREQ_REG = CY_FLASH_CPUSS_REQ_START | CY_FLASH_API_OPCODE_LOAD;
 339              		.loc 1 508 0
 340 002a 214A     		ldr	r2, .L42+8
 341 002c 214B     		ldr	r3, .L42+12
 507:.\Generated_Source\PSoC4/CyFlash.c ****         CY_FLASH_CPUSS_SYSARG_REG = (uint32) &parameters[0u];
 342              		.loc 1 507 0
 343 002e 2660     		str	r6, [r4]
 344              		.loc 1 508 0
 345 0030 1360     		str	r3, [r2]
 509:.\Generated_Source\PSoC4/CyFlash.c ****         CY_NOP;
 346              		.loc 1 509 0
 347              	@ 509 ".\Generated_Source\PSoC4\CyFlash.c" 1
 348 0032 C046     		NOP
 349              	
 350              	@ 0 "" 2
 510:.\Generated_Source\PSoC4/CyFlash.c ****         retValue = CY_FLASH_API_RETURN;
 351              		.loc 1 510 0
 352              		.code	16
 353 0034 2368     		ldr	r3, [r4]
 354 0036 0092     		str	r2, [sp]
 355 0038 1B0F     		lsr	r3, r3, #28
 356 003a 0F2B     		cmp	r3, #15
 357 003c 02D1     		bne	.L30
 358              		.loc 1 510 0 is_stmt 0 discriminator 1
 359 003e 2568     		ldr	r5, [r4]
 360 0040 3D40     		and	r5, r7
 361 0042 04E0     		b	.L31
 362              	.L30:
 363              		.loc 1 510 0 discriminator 2
 364 0044 2368     		ldr	r3, [r4]
 365 0046 1B0F     		lsr	r3, r3, #28
 366 0048 0A2B     		cmp	r3, #10
 367 004a 00D0     		beq	.L31
 368              		.loc 1 510 0 discriminator 4
 369 004c 2568     		ldr	r5, [r4]
 370              	.L31:
 371              		.loc 1 510 0 discriminator 8
 372 004e 0295     		str	r5, [sp, #8]
 511:.\Generated_Source\PSoC4/CyFlash.c **** 
 512:.\Generated_Source\PSoC4/CyFlash.c ****         if(retValue == CY_SYS_FLASH_SUCCESS)
 373              		.loc 1 512 0 is_stmt 1 discriminator 8
 374 0050 029D     		ldr	r5, [sp, #8]
 375 0052 002D     		cmp	r5, #0
 376 0054 25D1     		bne	.L32
 513:.\Generated_Source\PSoC4/CyFlash.c ****         {
 514:.\Generated_Source\PSoC4/CyFlash.c ****             /***************************************************************
 515:.\Generated_Source\PSoC4/CyFlash.c ****             * Mask all the exceptions to guarantee that Flash write will
 516:.\Generated_Source\PSoC4/CyFlash.c ****             * occur in the atomic way. It will not affect system call
 517:.\Generated_Source\PSoC4/CyFlash.c ****             * execution (flash row write) since it is executed in the NMI
 518:.\Generated_Source\PSoC4/CyFlash.c ****             * context.
 519:.\Generated_Source\PSoC4/CyFlash.c ****             ***************************************************************/
 520:.\Generated_Source\PSoC4/CyFlash.c ****             interruptState = CyEnterCriticalSection();
 377              		.loc 1 520 0
ARM GAS  C:\Users\310295~1\AppData\Local\Temp\cc8jfbKN.s 			page 17


 378 0056 FFF7FEFF 		bl	CyEnterCriticalSection
 379              	.LVL17:
 521:.\Generated_Source\PSoC4/CyFlash.c **** 
 522:.\Generated_Source\PSoC4/CyFlash.c ****             clkCnfRetValue = CySysFlashClockBackup();
 380              		.loc 1 522 0
 381 005a 0395     		str	r5, [sp, #12]
 523:.\Generated_Source\PSoC4/CyFlash.c **** 
 524:.\Generated_Source\PSoC4/CyFlash.c ****         #if(CY_IP_SPCIF_SYNCHRONOUS)
 525:.\Generated_Source\PSoC4/CyFlash.c ****             if(clkCnfRetValue == CY_SYS_FLASH_SUCCESS)
 526:.\Generated_Source\PSoC4/CyFlash.c ****             {
 527:.\Generated_Source\PSoC4/CyFlash.c ****                 retValue = CySysFlashClockConfig();
 528:.\Generated_Source\PSoC4/CyFlash.c ****             }
 529:.\Generated_Source\PSoC4/CyFlash.c ****         #endif  /* (CY_IP_SPCIF_SYNCHRONOUS) */
 530:.\Generated_Source\PSoC4/CyFlash.c **** 
 531:.\Generated_Source\PSoC4/CyFlash.c ****             if(retValue == CY_SYS_FLASH_SUCCESS)
 382              		.loc 1 531 0
 383 005c 029B     		ldr	r3, [sp, #8]
 384 005e 002B     		cmp	r3, #0
 385 0060 16D1     		bne	.L33
 532:.\Generated_Source\PSoC4/CyFlash.c ****             {
 533:.\Generated_Source\PSoC4/CyFlash.c ****                 /* Write User Sflash Row */
 534:.\Generated_Source\PSoC4/CyFlash.c ****                 parameters[0u]  = (uint32) (((uint32) CY_FLASH_KEY_TWO(CY_FLASH_API_OPCODE_WRITE_SF
 386              		.loc 1 534 0
 387 0062 154A     		ldr	r2, .L42+16
 535:.\Generated_Source\PSoC4/CyFlash.c ****                 parameters[1u] = (uint32) rowNum;
 536:.\Generated_Source\PSoC4/CyFlash.c **** 
 537:.\Generated_Source\PSoC4/CyFlash.c ****                 CY_FLASH_CPUSS_SYSARG_REG = (uint32) &parameters[0u];
 538:.\Generated_Source\PSoC4/CyFlash.c ****                 CY_FLASH_CPUSS_SYSREQ_REG = CY_FLASH_CPUSS_REQ_START | CY_FLASH_API_OPCODE_WRITE_SF
 388              		.loc 1 538 0
 389 0064 1549     		ldr	r1, .L42+20
 534:.\Generated_Source\PSoC4/CyFlash.c ****                 parameters[1u] = (uint32) rowNum;
 390              		.loc 1 534 0
 391 0066 0492     		str	r2, [sp, #16]
 392              		.loc 1 538 0
 393 0068 009D     		ldr	r5, [sp]
 535:.\Generated_Source\PSoC4/CyFlash.c ****                 parameters[1u] = (uint32) rowNum;
 394              		.loc 1 535 0
 395 006a 019A     		ldr	r2, [sp, #4]
 396 006c 7260     		str	r2, [r6, #4]
 537:.\Generated_Source\PSoC4/CyFlash.c ****                 CY_FLASH_CPUSS_SYSREQ_REG = CY_FLASH_CPUSS_REQ_START | CY_FLASH_API_OPCODE_WRITE_SF
 397              		.loc 1 537 0
 398 006e 2660     		str	r6, [r4]
 399 0070 0E4A     		ldr	r2, .L42+4
 400              		.loc 1 538 0
 401 0072 2960     		str	r1, [r5]
 539:.\Generated_Source\PSoC4/CyFlash.c ****                 CY_NOP;
 402              		.loc 1 539 0
 403              	@ 539 ".\Generated_Source\PSoC4\CyFlash.c" 1
 404 0074 C046     		NOP
 405              	
 406              	@ 0 "" 2
 540:.\Generated_Source\PSoC4/CyFlash.c ****                 retValue = CY_FLASH_API_RETURN;
 407              		.loc 1 540 0
 408              		.code	16
 409 0076 2168     		ldr	r1, [r4]
 410 0078 090F     		lsr	r1, r1, #28
 411 007a 0F29     		cmp	r1, #15
ARM GAS  C:\Users\310295~1\AppData\Local\Temp\cc8jfbKN.s 			page 18


 412 007c 02D1     		bne	.L34
 413              		.loc 1 540 0 is_stmt 0 discriminator 1
 414 007e 1368     		ldr	r3, [r2]
 415 0080 DBB2     		uxtb	r3, r3
 416 0082 04E0     		b	.L35
 417              	.L34:
 418              		.loc 1 540 0 discriminator 2
 419 0084 1168     		ldr	r1, [r2]
 420 0086 090F     		lsr	r1, r1, #28
 421 0088 0A29     		cmp	r1, #10
 422 008a 00D0     		beq	.L35
 423              		.loc 1 540 0 discriminator 4
 424 008c 1368     		ldr	r3, [r2]
 425              	.L35:
 426              		.loc 1 540 0 discriminator 8
 427 008e 0293     		str	r3, [sp, #8]
 428              	.L33:
 541:.\Generated_Source\PSoC4/CyFlash.c ****             }
 542:.\Generated_Source\PSoC4/CyFlash.c **** 
 543:.\Generated_Source\PSoC4/CyFlash.c ****             if(clkCnfRetValue == CY_SYS_FLASH_SUCCESS)
 429              		.loc 1 543 0 is_stmt 1
 430 0090 039B     		ldr	r3, [sp, #12]
 431 0092 002B     		cmp	r3, #0
 432 0094 00D1     		bne	.L36
 433              	.LVL18:
 544:.\Generated_Source\PSoC4/CyFlash.c ****             {
 545:.\Generated_Source\PSoC4/CyFlash.c ****                 clkCnfRetValue = CySysFlashClockRestore();
 434              		.loc 1 545 0
 435 0096 0393     		str	r3, [sp, #12]
 436              	.LVL19:
 437              	.L36:
 546:.\Generated_Source\PSoC4/CyFlash.c ****             }
 547:.\Generated_Source\PSoC4/CyFlash.c ****             CyExitCriticalSection(interruptState);
 438              		.loc 1 547 0
 439 0098 FFF7FEFF 		bl	CyExitCriticalSection
 440              	.LVL20:
 441 009c 01E0     		b	.L32
 442              	.LVL21:
 443              	.L29:
 548:.\Generated_Source\PSoC4/CyFlash.c ****         }
 549:.\Generated_Source\PSoC4/CyFlash.c ****     }
 550:.\Generated_Source\PSoC4/CyFlash.c ****     else
 551:.\Generated_Source\PSoC4/CyFlash.c ****     {
 552:.\Generated_Source\PSoC4/CyFlash.c ****         retValue = CY_SYS_FLASH_INVALID_ADDR;
 444              		.loc 1 552 0
 445 009e 0423     		mov	r3, #4
 446 00a0 0293     		str	r3, [sp, #8]
 447              	.LVL22:
 448              	.L32:
 553:.\Generated_Source\PSoC4/CyFlash.c ****     }
 554:.\Generated_Source\PSoC4/CyFlash.c **** 
 555:.\Generated_Source\PSoC4/CyFlash.c ****     return (retValue);
 449              		.loc 1 555 0
 450 00a2 0298     		ldr	r0, [sp, #8]
 556:.\Generated_Source\PSoC4/CyFlash.c **** }
 451              		.loc 1 556 0
 452 00a4 47B0     		add	sp, sp, #284
ARM GAS  C:\Users\310295~1\AppData\Local\Temp\cc8jfbKN.s 			page 19


 453              		@ sp needed
 454 00a6 F0BD     		pop	{r4, r5, r6, r7, pc}
 455              	.L43:
 456              		.align	2
 457              	.L42:
 458 00a8 B6D70000 		.word	55222
 459 00ac 08001040 		.word	1074790408
 460 00b0 04001040 		.word	1074790404
 461 00b4 04000080 		.word	-2147483644
 462 00b8 B6EB0000 		.word	60342
 463 00bc 18000080 		.word	-2147483624
 464              		.cfi_endproc
 465              	.LFE4:
 466              		.size	CySysSFlashWriteUserRow, .-CySysSFlashWriteUserRow
 467              		.text
 468              	.Letext0:
 469              		.file 2 ".\\Generated_Source\\PSoC4\\cytypes.h"
 470              		.file 3 ".\\Generated_Source\\PSoC4\\CyLib.h"