ARM GAS  C:\Users\310295~1\AppData\Local\Temp\ccVpEK8p.s 			page 1


   1              		.cpu cortex-m0
   2              		.fpu softvfp
   3              		.eabi_attribute 20, 1
   4              		.eabi_attribute 21, 1
   5              		.eabi_attribute 23, 3
   6              		.eabi_attribute 24, 1
   7              		.eabi_attribute 25, 1
   8              		.eabi_attribute 26, 1
   9              		.eabi_attribute 30, 4
  10              		.eabi_attribute 34, 0
  11              		.eabi_attribute 18, 4
  12              		.code	16
  13              		.file	"debug.c"
  14              		.text
  15              	.Ltext0:
  16              		.cfi_sections	.debug_frame
  17              		.section	.text.DebugCode,"ax",%progbits
  18              		.align	1
  19              		.global	DebugCode
  20              		.code	16
  21              		.thumb_func
  22              		.type	DebugCode, %function
  23              	DebugCode:
  24              	.LFB0:
  25              		.file 1 ".\\debug.c"
   1:.\debug.c     **** /* ========================================
   2:.\debug.c     ****  *
   3:.\debug.c     ****  * Copyright YOUR COMPANY, THE YEAR
   4:.\debug.c     ****  * All Rights Reserved
   5:.\debug.c     ****  * UNPUBLISHED, LICENSED SOFTWARE.
   6:.\debug.c     ****  *
   7:.\debug.c     ****  * CONFIDENTIAL AND PROPRIETARY INFORMATION
   8:.\debug.c     ****  * WHICH IS THE PROPERTY OF your company.
   9:.\debug.c     ****  *
  10:.\debug.c     ****  * ========================================
  11:.\debug.c     **** */
  12:.\debug.c     **** #include "debug.h"
  13:.\debug.c     **** 
  14:.\debug.c     **** 
  15:.\debug.c     **** char* convert(unsigned int, int);       //Convert integer number into octal, hex, etc.
  16:.\debug.c     **** 
  17:.\debug.c     **** void DebugCode(const char* txt)
  18:.\debug.c     **** {
  26              		.loc 1 18 0
  27              		.cfi_startproc
  28              	.LVL0:
  29 0000 37B5     		push	{r0, r1, r2, r4, r5, lr}
  30              		.cfi_def_cfa_offset 24
  31              		.cfi_offset 0, -24
  32              		.cfi_offset 1, -20
  33              		.cfi_offset 2, -16
  34              		.cfi_offset 4, -12
  35              		.cfi_offset 5, -8
  36              		.cfi_offset 14, -4
  19:.\debug.c     ****         uint8_t endline[2] = { '\r', '\n' };
  37              		.loc 1 19 0
  38 0002 0224     		mov	r4, #2
ARM GAS  C:\Users\310295~1\AppData\Local\Temp\ccVpEK8p.s 			page 2


  18:.\debug.c     ****         uint8_t endline[2] = { '\r', '\n' };
  39              		.loc 1 18 0
  40 0004 051C     		mov	r5, r0
  41              		.loc 1 19 0
  42 0006 221C     		mov	r2, r4
  43 0008 01A8     		add	r0, sp, #4
  44              	.LVL1:
  45 000a 0949     		ldr	r1, .L2
  46 000c FFF7FEFF 		bl	memcpy
  47              	.LVL2:
  20:.\debug.c     ****         UART_Dbg_PutArray(endline, 2);
  48              		.loc 1 20 0
  49 0010 211C     		mov	r1, r4
  50 0012 01A8     		add	r0, sp, #4
  51 0014 FFF7FEFF 		bl	UART_Dbg_PutArray
  52              	.LVL3:
  21:.\debug.c     ****         UART_Dbg_PutArray((uint8_t*)txt, strlen(txt));
  53              		.loc 1 21 0
  54 0018 281C     		mov	r0, r5
  55 001a FFF7FEFF 		bl	strlen
  56              	.LVL4:
  57 001e 011C     		mov	r1, r0
  58 0020 281C     		mov	r0, r5
  59 0022 FFF7FEFF 		bl	UART_Dbg_PutArray
  60              	.LVL5:
  22:.\debug.c     ****         UART_Dbg_PutArray(endline, 2);
  61              		.loc 1 22 0
  62 0026 01A8     		add	r0, sp, #4
  63 0028 211C     		mov	r1, r4
  64 002a FFF7FEFF 		bl	UART_Dbg_PutArray
  65              	.LVL6:
  23:.\debug.c     **** }
  66              		.loc 1 23 0
  67              		@ sp needed
  68              	.LVL7:
  69 002e 37BD     		pop	{r0, r1, r2, r4, r5, pc}
  70              	.L3:
  71              		.align	2
  72              	.L2:
  73 0030 00000000 		.word	.LANCHOR0
  74              		.cfi_endproc
  75              	.LFE0:
  76              		.size	DebugCode, .-DebugCode
  77              		.section	.text._write,"ax",%progbits
  78              		.align	1
  79              		.global	_write
  80              		.code	16
  81              		.thumb_func
  82              		.type	_write, %function
  83              	_write:
  84              	.LFB1:
  24:.\debug.c     **** 
  25:.\debug.c     **** #if defined(__ARMCC_VERSION)
  26:.\debug.c     ****  /* For MDK/RVDS compiler revise fputc function for printf functionality */
  27:.\debug.c     ****  struct __FILE
  28:.\debug.c     ****  {
  29:.\debug.c     ****      int handle;
ARM GAS  C:\Users\310295~1\AppData\Local\Temp\ccVpEK8p.s 			page 3


  30:.\debug.c     ****  };
  31:.\debug.c     ****  enum
  32:.\debug.c     ****  {
  33:.\debug.c     ****      STDIN_HANDLE,
  34:.\debug.c     ****      STDOUT_HANDLE,
  35:.\debug.c     ****      STDERR_HANDLE
  36:.\debug.c     ****  };
  37:.\debug.c     ****  FILE __stdin = {STDIN_HANDLE};
  38:.\debug.c     ****  FILE __stdout = {STDOUT_HANDLE};
  39:.\debug.c     ****  FILE __stderr = {STDERR_HANDLE};
  40:.\debug.c     ****  int fputc(int ch, FILE *file)
  41:.\debug.c     ****  {
  42:.\debug.c     ****      int ret = EOF;
  43:.\debug.c     ****      switch( file->handle )
  44:.\debug.c     ****      {
  45:.\debug.c     ****          case STDOUT_HANDLE:
  46:.\debug.c     ****              UART_DEB_UartPutChar(ch);
  47:.\debug.c     ****              ret = ch ;
  48:.\debug.c     ****              break ;
  49:.\debug.c     ****          case STDERR_HANDLE:
  50:.\debug.c     ****              ret = ch ;
  51:.\debug.c     ****              break ;
  52:.\debug.c     ****          default:
  53:.\debug.c     ****              file = file;
  54:.\debug.c     ****              break ;
  55:.\debug.c     ****      }
  56:.\debug.c     ****      return ret ;
  57:.\debug.c     ****  }
  58:.\debug.c     ****  #elif defined (__ICCARM__)      /* IAR */
  59:.\debug.c     ****  /* For IAR compiler revise __write() function for printf functionality */
  60:.\debug.c     ****  size_t __write(int handle, const unsigned char * buffer, size_t size)
  61:.\debug.c     ****  {
  62:.\debug.c     ****      size_t nChars = 0;
  63:.\debug.c     ****      if (buffer == 0)
  64:.\debug.c     ****      {
  65:.\debug.c     ****          /*
  66:.\debug.c     ****           * This means that we should flush internal buffers.  Since we
  67:.\debug.c     ****           * don't we just return.  (Remember, "handle" == -1 means that all
  68:.\debug.c     ****           * handles should be flushed.)
  69:.\debug.c     ****           */
  70:.\debug.c     ****          return (0);
  71:.\debug.c     ****      }
  72:.\debug.c     ****      for (/* Empty */; size != 0; --size)
  73:.\debug.c     ****      {
  74:.\debug.c     ****          UART_DEB_UartPutChar(*buffer++);
  75:.\debug.c     ****          ++nChars;
  76:.\debug.c     ****      }
  77:.\debug.c     ****      return (nChars);
  78:.\debug.c     ****  }
  79:.\debug.c     ****  #else  /* (__GNUC__)  GCC */
  80:.\debug.c     ****  /* For GCC compiler revise _write() function for printf functionality */
  81:.\debug.c     ****  int _write(int file, char *ptr, int len)
  82:.\debug.c     ****  {
  85              		.loc 1 82 0
  86              		.cfi_startproc
  87              	.LVL8:
  88 0000 70B5     		push	{r4, r5, r6, lr}
ARM GAS  C:\Users\310295~1\AppData\Local\Temp\ccVpEK8p.s 			page 4


  89              		.cfi_def_cfa_offset 16
  90              		.cfi_offset 4, -16
  91              		.cfi_offset 5, -12
  92              		.cfi_offset 6, -8
  93              		.cfi_offset 14, -4
  94              		.loc 1 82 0
  95 0002 0E1C     		mov	r6, r1
  96 0004 151C     		mov	r5, r2
  83:.\debug.c     ****      int i;
  84:.\debug.c     ****      file = file;
  85:.\debug.c     ****      for (i = 0; i < len; i++)
  97              		.loc 1 85 0
  98 0006 0C1C     		mov	r4, r1
  99              	.LVL9:
 100              	.L5:
 101 0008 A31B     		sub	r3, r4, r6
 102              		.loc 1 85 0 is_stmt 0 discriminator 1
 103 000a AB42     		cmp	r3, r5
 104 000c 04DA     		bge	.L8
 105              	.LVL10:
  86:.\debug.c     ****      {
  87:.\debug.c     ****          UART_Dbg_PutChar(*ptr++);
 106              		.loc 1 87 0 is_stmt 1 discriminator 3
 107 000e 2078     		ldrb	r0, [r4]
 108 0010 FFF7FEFF 		bl	UART_Dbg_PutChar
 109              	.LVL11:
 110 0014 0134     		add	r4, r4, #1
 111              	.LVL12:
 112 0016 F7E7     		b	.L5
 113              	.L8:
  88:.\debug.c     ****      }
  89:.\debug.c     ****      return len;
  90:.\debug.c     ****  }
 114              		.loc 1 90 0
 115 0018 281C     		mov	r0, r5
 116              		@ sp needed
 117              	.LVL13:
 118              	.LVL14:
 119 001a 70BD     		pop	{r4, r5, r6, pc}
 120              		.cfi_endproc
 121              	.LFE1:
 122              		.size	_write, .-_write
 123              		.global	__aeabi_uidivmod
 124              		.global	__aeabi_uidiv
 125              		.section	.text.convert,"ax",%progbits
 126              		.align	1
 127              		.global	convert
 128              		.code	16
 129              		.thumb_func
 130              		.type	convert, %function
 131              	convert:
 132              	.LFB3:
  91:.\debug.c     ****  #endif  /* (__ARMCC_VERSION) */ 
  92:.\debug.c     **** 
  93:.\debug.c     **** void sk_printf(char * format,...)
  94:.\debug.c     **** {
  95:.\debug.c     ****     char *traverse; 
ARM GAS  C:\Users\310295~1\AppData\Local\Temp\ccVpEK8p.s 			page 5


  96:.\debug.c     ****     int i; 
  97:.\debug.c     ****     char *s; 
  98:.\debug.c     **** 
  99:.\debug.c     ****     //Module 1: Initializing Myprintf's arguments 
 100:.\debug.c     ****     va_list arg; 
 101:.\debug.c     ****     va_start(arg, format); 
 102:.\debug.c     **** 
 103:.\debug.c     ****     for(traverse = format; *traverse != '\0'; traverse++) 
 104:.\debug.c     ****     { 
 105:.\debug.c     ****         while( *traverse != '%' ) 
 106:.\debug.c     ****         { 
 107:.\debug.c     ****             UART_Dbg_PutChar(*traverse);
 108:.\debug.c     ****             traverse++; 
 109:.\debug.c     ****         } 
 110:.\debug.c     **** 
 111:.\debug.c     ****         traverse++; 
 112:.\debug.c     **** 
 113:.\debug.c     ****         //Module 2: Fetching and executing arguments
 114:.\debug.c     ****         switch(*traverse) 
 115:.\debug.c     ****         { 
 116:.\debug.c     ****             case 'c' : i = va_arg(arg,int);     //Fetch char argument
 117:.\debug.c     ****                         UART_Dbg_PutChar(i);
 118:.\debug.c     ****                         break; 
 119:.\debug.c     **** 
 120:.\debug.c     ****             case 'd' : i = va_arg(arg,int);         //Fetch Decimal/Integer argument
 121:.\debug.c     ****                         if(i<0) 
 122:.\debug.c     ****                         { 
 123:.\debug.c     ****                             i = -i;
 124:.\debug.c     ****                             UART_Dbg_PutChar('-'); 
 125:.\debug.c     ****                         } 
 126:.\debug.c     ****                         UART_Dbg_PutString(convert(i,10));
 127:.\debug.c     ****                         break; 
 128:.\debug.c     **** 
 129:.\debug.c     ****             case 'o': i = va_arg(arg,unsigned int); //Fetch Octal representation
 130:.\debug.c     ****                         UART_Dbg_PutString(convert(i,8));
 131:.\debug.c     ****                         break; 
 132:.\debug.c     **** 
 133:.\debug.c     ****             case 's': s = va_arg(arg,char *);       //Fetch string
 134:.\debug.c     ****                         UART_Dbg_PutString(s); 
 135:.\debug.c     ****                         break; 
 136:.\debug.c     **** 
 137:.\debug.c     ****             case 'x': i = va_arg(arg,unsigned int); //Fetch Hexadecimal representation
 138:.\debug.c     ****                         UART_Dbg_PutString(convert(i,16));
 139:.\debug.c     ****                         break; 
 140:.\debug.c     ****         }   
 141:.\debug.c     ****     } 
 142:.\debug.c     ****     //Module 3: Closing argument list to necessary clean-up
 143:.\debug.c     ****     va_end(arg); 
 144:.\debug.c     **** } 
 145:.\debug.c     **** 
 146:.\debug.c     **** char *convert(unsigned int num, int base) 
 147:.\debug.c     **** { 
 133              		.loc 1 147 0
 134              		.cfi_startproc
 135              	.LVL15:
 148:.\debug.c     ****     static char Representation[]= "0123456789ABCDEF";
 149:.\debug.c     ****     static char buffer[50]; 
ARM GAS  C:\Users\310295~1\AppData\Local\Temp\ccVpEK8p.s 			page 6


 150:.\debug.c     ****     char *ptr; 
 151:.\debug.c     **** 
 152:.\debug.c     ****     ptr = &buffer[49]; 
 153:.\debug.c     ****     *ptr = '\0'; 
 136              		.loc 1 153 0
 137 0000 0023     		mov	r3, #0
 147:.\debug.c     ****     static char Representation[]= "0123456789ABCDEF";
 138              		.loc 1 147 0
 139 0002 70B5     		push	{r4, r5, r6, lr}
 140              		.cfi_def_cfa_offset 16
 141              		.cfi_offset 4, -16
 142              		.cfi_offset 5, -12
 143              		.cfi_offset 6, -8
 144              		.cfi_offset 14, -4
 147:.\debug.c     ****     static char Representation[]= "0123456789ABCDEF";
 145              		.loc 1 147 0
 146 0004 051C     		mov	r5, r0
 147 0006 0E1C     		mov	r6, r1
 148              		.loc 1 153 0
 149 0008 094C     		ldr	r4, .L11
 150 000a 3134     		add	r4, r4, #49
 151 000c 2370     		strb	r3, [r4]
 152              	.LVL16:
 153              	.L10:
 154:.\debug.c     **** 
 155:.\debug.c     ****     do 
 156:.\debug.c     ****     { 
 157:.\debug.c     ****         *--ptr = Representation[num%base]; 
 154              		.loc 1 157 0 discriminator 1
 155 000e 281C     		mov	r0, r5
 156 0010 311C     		mov	r1, r6
 157 0012 FFF7FEFF 		bl	__aeabi_uidivmod
 158              	.LVL17:
 159 0016 074B     		ldr	r3, .L11+4
 160 0018 013C     		sub	r4, r4, #1
 161              	.LVL18:
 162 001a 0233     		add	r3, r3, #2
 163 001c 5B5C     		ldrb	r3, [r3, r1]
 158:.\debug.c     ****         num /= base; 
 164              		.loc 1 158 0 discriminator 1
 165 001e 281C     		mov	r0, r5
 157:.\debug.c     ****         num /= base; 
 166              		.loc 1 157 0 discriminator 1
 167 0020 2370     		strb	r3, [r4]
 168              		.loc 1 158 0 discriminator 1
 169 0022 311C     		mov	r1, r6
 170 0024 FFF7FEFF 		bl	__aeabi_uidiv
 171              	.LVL19:
 172 0028 051E     		sub	r5, r0, #0
 173              	.LVL20:
 159:.\debug.c     ****     }while(num != 0); 
 174              		.loc 1 159 0 discriminator 1
 175 002a F0D1     		bne	.L10
 160:.\debug.c     **** 
 161:.\debug.c     ****     return(ptr); 
 162:.\debug.c     **** }
 176              		.loc 1 162 0
ARM GAS  C:\Users\310295~1\AppData\Local\Temp\ccVpEK8p.s 			page 7


 177 002c 201C     		mov	r0, r4
 178              	.LVL21:
 179              		@ sp needed
 180              	.LVL22:
 181              	.LVL23:
 182              	.LVL24:
 183 002e 70BD     		pop	{r4, r5, r6, pc}
 184              	.L12:
 185              		.align	2
 186              	.L11:
 187 0030 00000000 		.word	.LANCHOR1
 188 0034 00000000 		.word	.LANCHOR0
 189              		.cfi_endproc
 190              	.LFE3:
 191              		.size	convert, .-convert
 192              		.section	.text.sk_printf,"ax",%progbits
 193              		.align	1
 194              		.global	sk_printf
 195              		.code	16
 196              		.thumb_func
 197              		.type	sk_printf, %function
 198              	sk_printf:
 199              	.LFB2:
  94:.\debug.c     ****     char *traverse; 
 200              		.loc 1 94 0
 201              		.cfi_startproc
 202              	.LVL25:
 203 0000 0FB4     		push	{r0, r1, r2, r3}
 204              		.cfi_def_cfa_offset 16
 205 0002 37B5     		push	{r0, r1, r2, r4, r5, lr}
 206              		.cfi_def_cfa_offset 40
 207              		.cfi_offset 0, -40
 208              		.cfi_offset 1, -36
 209              		.cfi_offset 2, -32
 210              		.cfi_offset 4, -28
 211              		.cfi_offset 5, -24
 212              		.cfi_offset 14, -20
  94:.\debug.c     ****     char *traverse; 
 213              		.loc 1 94 0
 214 0004 06AB     		add	r3, sp, #24
 215 0006 10CB     		ldmia	r3!, {r4}
 101:.\debug.c     **** 
 216              		.loc 1 101 0
 217 0008 0193     		str	r3, [sp, #4]
 218              	.LVL26:
 219              	.L14:
 103:.\debug.c     ****     { 
 220              		.loc 1 103 0 discriminator 1
 221 000a 2378     		ldrb	r3, [r4]
 222 000c 002B     		cmp	r3, #0
 223 000e 3FD0     		beq	.L28
 224              	.L25:
 105:.\debug.c     ****         { 
 225              		.loc 1 105 0
 226 0010 2078     		ldrb	r0, [r4]
 227 0012 2528     		cmp	r0, #37
 228 0014 03D0     		beq	.L29
ARM GAS  C:\Users\310295~1\AppData\Local\Temp\ccVpEK8p.s 			page 8


 107:.\debug.c     ****             traverse++; 
 229              		.loc 1 107 0
 230 0016 FFF7FEFF 		bl	UART_Dbg_PutChar
 231              	.LVL27:
 108:.\debug.c     ****         } 
 232              		.loc 1 108 0
 233 001a 0134     		add	r4, r4, #1
 234              	.LVL28:
 235 001c F8E7     		b	.L25
 236              	.L29:
 237              	.LVL29:
 114:.\debug.c     ****         { 
 238              		.loc 1 114 0
 239 001e 6378     		ldrb	r3, [r4, #1]
 240 0020 6F2B     		cmp	r3, #111
 241 0022 24D0     		beq	.L17
 242 0024 04D8     		bhi	.L18
 243 0026 632B     		cmp	r3, #99
 244 0028 0CD0     		beq	.L19
 245 002a 642B     		cmp	r3, #100
 246 002c 12D0     		beq	.L20
 247 002e 2DE0     		b	.L16
 248              	.L18:
 249 0030 732B     		cmp	r3, #115
 250 0032 22D0     		beq	.L21
 251 0034 782B     		cmp	r3, #120
 252 0036 29D1     		bne	.L16
 137:.\debug.c     ****                         UART_Dbg_PutString(convert(i,16));
 253              		.loc 1 137 0
 254 0038 019B     		ldr	r3, [sp, #4]
 138:.\debug.c     ****                         break; 
 255              		.loc 1 138 0
 256 003a 1021     		mov	r1, #16
 137:.\debug.c     ****                         UART_Dbg_PutString(convert(i,16));
 257              		.loc 1 137 0
 258 003c 1A1D     		add	r2, r3, #4
 259 003e 0192     		str	r2, [sp, #4]
 260              	.LVL30:
 138:.\debug.c     ****                         break; 
 261              		.loc 1 138 0
 262 0040 1868     		ldr	r0, [r3]
 263 0042 1FE0     		b	.L26
 264              	.LVL31:
 265              	.L19:
 116:.\debug.c     ****                         UART_Dbg_PutChar(i);
 266              		.loc 1 116 0
 267 0044 019B     		ldr	r3, [sp, #4]
 117:.\debug.c     ****                         break; 
 268              		.loc 1 117 0
 269 0046 1868     		ldr	r0, [r3]
 116:.\debug.c     ****                         UART_Dbg_PutChar(i);
 270              		.loc 1 116 0
 271 0048 1A1D     		add	r2, r3, #4
 117:.\debug.c     ****                         break; 
 272              		.loc 1 117 0
 273 004a C0B2     		uxtb	r0, r0
 116:.\debug.c     ****                         UART_Dbg_PutChar(i);
ARM GAS  C:\Users\310295~1\AppData\Local\Temp\ccVpEK8p.s 			page 9


 274              		.loc 1 116 0
 275 004c 0192     		str	r2, [sp, #4]
 276              	.LVL32:
 117:.\debug.c     ****                         break; 
 277              		.loc 1 117 0
 278 004e FFF7FEFF 		bl	UART_Dbg_PutChar
 279              	.LVL33:
 118:.\debug.c     **** 
 280              		.loc 1 118 0
 281 0052 1BE0     		b	.L16
 282              	.L20:
 120:.\debug.c     ****                         if(i<0) 
 283              		.loc 1 120 0
 284 0054 019B     		ldr	r3, [sp, #4]
 285 0056 1D68     		ldr	r5, [r3]
 286              	.LVL34:
 287 0058 1A1D     		add	r2, r3, #4
 288 005a 0192     		str	r2, [sp, #4]
 121:.\debug.c     ****                         { 
 289              		.loc 1 121 0
 290 005c 002D     		cmp	r5, #0
 291 005e 03DA     		bge	.L23
 124:.\debug.c     ****                         } 
 292              		.loc 1 124 0
 293 0060 2D20     		mov	r0, #45
 123:.\debug.c     ****                             UART_Dbg_PutChar('-'); 
 294              		.loc 1 123 0
 295 0062 6D42     		neg	r5, r5
 296              	.LVL35:
 124:.\debug.c     ****                         } 
 297              		.loc 1 124 0
 298 0064 FFF7FEFF 		bl	UART_Dbg_PutChar
 299              	.LVL36:
 300              	.L23:
 126:.\debug.c     ****                         break; 
 301              		.loc 1 126 0
 302 0068 281C     		mov	r0, r5
 303 006a 0A21     		mov	r1, #10
 304 006c 0AE0     		b	.L26
 305              	.LVL37:
 306              	.L17:
 129:.\debug.c     ****                         UART_Dbg_PutString(convert(i,8));
 307              		.loc 1 129 0
 308 006e 019B     		ldr	r3, [sp, #4]
 130:.\debug.c     ****                         break; 
 309              		.loc 1 130 0
 310 0070 0821     		mov	r1, #8
 129:.\debug.c     ****                         UART_Dbg_PutString(convert(i,8));
 311              		.loc 1 129 0
 312 0072 1A1D     		add	r2, r3, #4
 313 0074 0192     		str	r2, [sp, #4]
 314              	.LVL38:
 130:.\debug.c     ****                         break; 
 315              		.loc 1 130 0
 316 0076 1868     		ldr	r0, [r3]
 317 0078 04E0     		b	.L26
 318              	.LVL39:
ARM GAS  C:\Users\310295~1\AppData\Local\Temp\ccVpEK8p.s 			page 10


 319              	.L21:
 133:.\debug.c     ****                         UART_Dbg_PutString(s); 
 320              		.loc 1 133 0
 321 007a 019B     		ldr	r3, [sp, #4]
 322 007c 1A1D     		add	r2, r3, #4
 323 007e 0192     		str	r2, [sp, #4]
 324              	.LVL40:
 134:.\debug.c     ****                         break; 
 325              		.loc 1 134 0
 326 0080 1868     		ldr	r0, [r3]
 327 0082 01E0     		b	.L27
 328              	.LVL41:
 329              	.L26:
 138:.\debug.c     ****                         break; 
 330              		.loc 1 138 0
 331 0084 FFF7FEFF 		bl	convert
 332              	.LVL42:
 333              	.L27:
 334 0088 FFF7FEFF 		bl	UART_Dbg_PutString
 335              	.LVL43:
 336              	.L16:
 103:.\debug.c     ****     { 
 337              		.loc 1 103 0 discriminator 2
 338 008c 0234     		add	r4, r4, #2
 339              	.LVL44:
 340 008e BCE7     		b	.L14
 341              	.L28:
 144:.\debug.c     **** 
 342              		.loc 1 144 0
 343              		@ sp needed
 344              	.LVL45:
 345 0090 37BC     		pop	{r0, r1, r2, r4, r5}
 346 0092 08BC     		pop	{r3}
 347 0094 04B0     		add	sp, sp, #16
 348 0096 1847     		bx	r3
 349              		.cfi_endproc
 350              	.LFE2:
 351              		.size	sk_printf, .-sk_printf
 352              		.section	.rodata
 353              		.set	.LANCHOR0,. + 0
 354              	.LC0:
 355 0000 0D       		.byte	13
 356 0001 0A       		.byte	10
 357              		.type	Representation.5301, %object
 358              		.size	Representation.5301, 17
 359              	Representation.5301:
 360 0002 30313233 		.ascii	"0123456789ABCDEF\000"
 360      34353637 
 360      38394142 
 360      43444546 
 360      00
 361              		.bss
 362              		.set	.LANCHOR1,. + 0
 363              		.type	buffer.5302, %object
 364              		.size	buffer.5302, 50
 365              	buffer.5302:
 366 0000 00000000 		.space	50
ARM GAS  C:\Users\310295~1\AppData\Local\Temp\ccVpEK8p.s 			page 11


 366      00000000 
 366      00000000 
 366      00000000 
 366      00000000 
 367              		.text
 368              	.Letext0:
 369              		.file 2 "c:\\program files (x86)\\cypress\\psoc creator\\3.3\\psoc creator\\import\\gnu\\arm\\4.9.
 370              		.file 3 "c:\\program files (x86)\\cypress\\psoc creator\\3.3\\psoc creator\\import\\gnu\\arm\\4.9.
 371              		.file 4 "c:\\program files (x86)\\cypress\\psoc creator\\3.3\\psoc creator\\import\\gnu\\arm\\4.9.
 372              		.file 5 "c:\\program files (x86)\\cypress\\psoc creator\\3.3\\psoc creator\\import\\gnu\\arm\\4.9.
 373              		.file 6 "Generated_Source\\PSoC4/cytypes.h"
 374              		.file 7 "Generated_Source\\PSoC4/UART_Dbg.h"
 375              		.file 8 "<built-in>"
 376              		.file 9 "c:\\program files (x86)\\cypress\\psoc creator\\3.3\\psoc creator\\import\\gnu\\arm\\4.9.