ARM GAS  C:\Users\310295~1\AppData\Local\Temp\ccU9eANg.s 			page 1


   1              		.cpu cortex-m0
   2              		.fpu softvfp
   3              		.eabi_attribute 20, 1
   4              		.eabi_attribute 21, 1
   5              		.eabi_attribute 23, 3
   6              		.eabi_attribute 24, 1
   7              		.eabi_attribute 25, 1
   8              		.eabi_attribute 26, 1
   9              		.eabi_attribute 30, 4
  10              		.eabi_attribute 34, 0
  11              		.eabi_attribute 18, 4
  12              		.code	16
  13              		.file	"main.c"
  14              		.text
  15              	.Ltext0:
  16              		.cfi_sections	.debug_frame
  17              		.section	.text.StackEventHandler,"ax",%progbits
  18              		.align	1
  19              		.global	StackEventHandler
  20              		.code	16
  21              		.thumb_func
  22              		.type	StackEventHandler, %function
  23              	StackEventHandler:
  24              	.LFB38:
  25              		.file 1 ".\\main.c"
   1:.\main.c      **** /* ========================================
   2:.\main.c      ****  *
   3:.\main.c      ****  * Copyright YOUR COMPANY, THE YEAR
   4:.\main.c      ****  * All Rights Reserved
   5:.\main.c      ****  * UNPUBLISHED, LICENSED SOFTWARE.
   6:.\main.c      ****  *
   7:.\main.c      ****  * CONFIDENTIAL AND PROPRIETARY INFORMATION
   8:.\main.c      ****  * WHICH IS THE PROPERTY OF your company.
   9:.\main.c      ****  *
  10:.\main.c      ****  * ========================================
  11:.\main.c      **** */
  12:.\main.c      **** #include <project.h>
  13:.\main.c      **** #include "main.h"
  14:.\main.c      **** 
  15:.\main.c      **** /*******************************************************************************
  16:.\main.c      **** * Variable Declaration
  17:.\main.c      **** ********************************************************************************/
  18:.\main.c      **** volatile uint8 disconnect_flag = 0x0; 
  19:.\main.c      **** volatile uint8 ble_flag = 0x0;
  20:.\main.c      **** uint8 msg_buffer[20] = {0}; 
  21:.\main.c      **** 
  22:.\main.c      **** 
  23:.\main.c      **** 
  24:.\main.c      **** /*******************************************************************************
  25:.\main.c      **** * Function Name: EnableStop
  26:.\main.c      **** ********************************************************************************
  27:.\main.c      **** *
  28:.\main.c      **** * Summary:
  29:.\main.c      **** *  Performs the stop of the BLE Chip
  30:.\main.c      **** *
  31:.\main.c      **** * Parameters:
  32:.\main.c      **** *       Void
ARM GAS  C:\Users\310295~1\AppData\Local\Temp\ccU9eANg.s 			page 2


  33:.\main.c      **** *
  34:.\main.c      **** * Return:
  35:.\main.c      **** *  None
  36:.\main.c      **** *
  37:.\main.c      **** *******************************************************************************/
  38:.\main.c      **** static void EnableStop(void)
  39:.\main.c      **** {
  40:.\main.c      ****     DebugCode("SHREY: Turning Off the Chip");
  41:.\main.c      ****     UART_Dbg_Stop(); 
  42:.\main.c      ****     CySysPmStop();
  43:.\main.c      **** }
  44:.\main.c      **** /*******************************************************************************
  45:.\main.c      **** * Function Name: StackEventHandler
  46:.\main.c      **** ********************************************************************************
  47:.\main.c      **** *
  48:.\main.c      **** * Summary:
  49:.\main.c      **** *  This is an event callback function to receive events from the BLE Component.
  50:.\main.c      **** *
  51:.\main.c      **** * Parameters:
  52:.\main.c      **** *  uint8 event:       Event from the CYBLE component
  53:.\main.c      **** *  void* eventParams: A structure instance for corresponding event type. The
  54:.\main.c      **** *                     list of event structure is described in the component
  55:.\main.c      **** *                     datasheet.
  56:.\main.c      **** *
  57:.\main.c      **** * Return:
  58:.\main.c      **** *  None
  59:.\main.c      **** *
  60:.\main.c      **** *******************************************************************************/
  61:.\main.c      **** void StackEventHandler(uint32 event, void *eventParam)
  62:.\main.c      **** {
  26              		.loc 1 62 0
  27              		.cfi_startproc
  28              	.LVL0:
  29 0000 70B5     		push	{r4, r5, r6, lr}
  30              		.cfi_def_cfa_offset 16
  31              		.cfi_offset 4, -16
  32              		.cfi_offset 5, -12
  33              		.cfi_offset 6, -8
  34              		.cfi_offset 14, -4
  35              		.loc 1 62 0
  36 0002 041C     		mov	r4, r0
  63:.\main.c      ****     DebugCode("StackEventHandler++");
  37              		.loc 1 63 0
  38 0004 3348     		ldr	r0, .L17
  39              	.LVL1:
  62:.\main.c      ****     DebugCode("StackEventHandler++");
  40              		.loc 1 62 0
  41 0006 0D1C     		mov	r5, r1
  42              		.loc 1 63 0
  43 0008 FFF7FEFF 		bl	DebugCode
  44              	.LVL2:
  64:.\main.c      ****     
  65:.\main.c      ****     /** Pointer to the write structure**/
  66:.\main.c      ****     CYBLE_GATTS_WRITE_REQ_PARAM_T *writePTR; 
  67:.\main.c      ****     unsigned int error = 0x0; /*No Error*/
  68:.\main.c      ****     uint8 i = 0x0; 
  69:.\main.c      ****     
ARM GAS  C:\Users\310295~1\AppData\Local\Temp\ccU9eANg.s 			page 3


  70:.\main.c      ****     switch(event)
  45              		.loc 1 70 0
  46 000c 272C     		cmp	r4, #39
  47 000e 1ED0     		beq	.L3
  48 0010 04D8     		bhi	.L4
  49 0012 012C     		cmp	r4, #1
  50 0014 07D0     		beq	.L5
  51 0016 262C     		cmp	r4, #38
  52 0018 1DD0     		beq	.L6
  53 001a 56E0     		b	.L2
  54              	.L4:
  55 001c 282C     		cmp	r4, #40
  56 001e 09D0     		beq	.L7
  57 0020 4C2C     		cmp	r4, #76
  58 0022 22D0     		beq	.L8
  59 0024 51E0     		b	.L2
  60              	.L5:
  71:.\main.c      ****     {
  72:.\main.c      ****         /* Mandatory events to be handled by Find Me Target design */
  73:.\main.c      ****         case CYBLE_EVT_STACK_ON:
  74:.\main.c      ****             /*This occurs as soon as the BLE is ON */
  75:.\main.c      ****             DebugCode("BLE ON!! ADVERTISING :)");
  61              		.loc 1 75 0
  62 0026 2C48     		ldr	r0, .L17+4
  63 0028 FFF7FEFF 		bl	DebugCode
  64              	.LVL3:
  76:.\main.c      ****             CyBle_GappStartAdvertisement(CYBLE_ADVERTISING_FAST);
  65              		.loc 1 76 0
  66 002c 0020     		mov	r0, #0
  67 002e FFF7FEFF 		bl	CyBle_GappStartAdvertisement
  68              	.LVL4:
  77:.\main.c      ****         break;
  69              		.loc 1 77 0
  70 0032 4AE0     		b	.L2
  71              	.L7:
  78:.\main.c      ****             
  79:.\main.c      ****         case CYBLE_EVT_GAP_DEVICE_DISCONNECTED:
  80:.\main.c      ****             /* Start BLE advertisement for 30 seconds and update link
  81:.\main.c      ****              * status on LEDs */
  82:.\main.c      ****             DebugCode("BLE DISCONNECTED");
  72              		.loc 1 82 0
  73 0034 2948     		ldr	r0, .L17+8
  74 0036 FFF7FEFF 		bl	DebugCode
  75              	.LVL5:
  83:.\main.c      ****             CyBle_GappStartAdvertisement(CYBLE_ADVERTISING_FAST);
  76              		.loc 1 83 0
  77 003a 0020     		mov	r0, #0
  78 003c FFF7FEFF 		bl	CyBle_GappStartAdvertisement
  79              	.LVL6:
  84:.\main.c      ****             DebugCode("Ble Restart!! ");
  80              		.loc 1 84 0
  81 0040 2748     		ldr	r0, .L17+12
  82 0042 FFF7FEFF 		bl	DebugCode
  83              	.LVL7:
  85:.\main.c      ****             disconnect_flag = 0x1; 
  84              		.loc 1 85 0
  85 0046 0122     		mov	r2, #1
ARM GAS  C:\Users\310295~1\AppData\Local\Temp\ccU9eANg.s 			page 4


  86 0048 264B     		ldr	r3, .L17+16
  87 004a 1A70     		strb	r2, [r3]
  86:.\main.c      ****             break;
  88              		.loc 1 86 0
  89 004c 3DE0     		b	.L2
  90              	.L3:
  87:.\main.c      **** 
  88:.\main.c      ****         case CYBLE_EVT_GAP_DEVICE_CONNECTED:
  89:.\main.c      ****             /* BLE link is established */
  90:.\main.c      ****             DebugCode("BONDING SUCCESS ");
  91              		.loc 1 90 0
  92 004e 2648     		ldr	r0, .L17+20
  93 0050 FFF7FEFF 		bl	DebugCode
  94              	.LVL8:
  91:.\main.c      ****             break;
  95              		.loc 1 91 0
  96 0054 39E0     		b	.L2
  97              	.L6:
  92:.\main.c      **** 
  93:.\main.c      ****         case CYBLE_EVT_GAPP_ADVERTISEMENT_START_STOP:
  94:.\main.c      ****             if(CyBle_GetState() == CYBLE_STATE_DISCONNECTED)
  98              		.loc 1 94 0
  99 0056 254B     		ldr	r3, .L17+24
 100 0058 1B78     		ldrb	r3, [r3]
 101 005a 042B     		cmp	r3, #4
 102 005c 35D1     		bne	.L2
  95:.\main.c      ****             {
  96:.\main.c      ****                 /* Advertisement event timed out, go to low power
  97:.\main.c      ****                  * mode (Stop mode) and wait for device reset
  98:.\main.c      ****                  * event to wake up the device again */
  99:.\main.c      ****                 /*CySysPmSetWakeupPolarity(CY_PM_STOP_WAKEUP_ACTIVE_HIGH);*/
 100:.\main.c      ****                 disconnect_flag = 0x1; 
 103              		.loc 1 100 0
 104 005e 0122     		mov	r2, #1
 105 0060 204B     		ldr	r3, .L17+16
 106 0062 1A70     		strb	r2, [r3]
 101:.\main.c      ****                 CySysPmStop();
 107              		.loc 1 101 0
 108 0064 FFF7FEFF 		bl	CySysPmStop
 109              	.LVL9:
 110 0068 2FE0     		b	.L2
 111              	.L8:
 102:.\main.c      ****                
 103:.\main.c      ****                 /* Code execution will not reach here */
 104:.\main.c      ****             }
 105:.\main.c      ****             break;
 106:.\main.c      ****         case CYBLE_EVT_GATTS_WRITE_REQ:
 107:.\main.c      ****             DebugCode("SHREY :: Got a Write Request");
 112              		.loc 1 107 0
 113 006a 2148     		ldr	r0, .L17+28
 114 006c FFF7FEFF 		bl	DebugCode
 115              	.LVL10:
 108:.\main.c      ****             writePTR = (CYBLE_GATTS_WRITE_REQ_PARAM_T *)eventParam; 
 109:.\main.c      ****             if(writePTR != NULL)
 116              		.loc 1 109 0
 117 0070 002D     		cmp	r5, #0
 118 0072 0BD1     		bne	.L9
ARM GAS  C:\Users\310295~1\AppData\Local\Temp\ccU9eANg.s 			page 5


 119              	.LVL11:
 120              	.L10:
 110:.\main.c      ****             {
 111:.\main.c      ****                 if(CYBLE_TEST_TEST_CHAR_HANDLE == writePTR->handleValPair.attrHandle)
 112:.\main.c      ****                 {
 113:.\main.c      ****                     DebugCode("Correct Char Handle");
 114:.\main.c      ****                     if(writePTR->handleValPair.value.val != NULL)
 115:.\main.c      ****                     {
 116:.\main.c      ****                         if(ble_flag == 0)
 117:.\main.c      ****                         {
 118:.\main.c      ****                             DBG_PRINTF("Length = 0x%x \r \n", writePTR->handleValPair.value.len); 
 119:.\main.c      ****                             ble_flag = 0x1; 
 120:.\main.c      ****                             for(i = 0; i< writePTR->handleValPair.value.len; i++) 
 121:.\main.c      ****                             {
 122:.\main.c      ****                                 msg_buffer[i] = writePTR->handleValPair.value.val[i];
 123:.\main.c      ****                             }
 124:.\main.c      ****                         }
 125:.\main.c      ****                             
 126:.\main.c      ****                     }
 127:.\main.c      ****                 }
 128:.\main.c      ****             }
 129:.\main.c      ****             error = CyBle_GattsWriteRsp(cyBle_connHandle);
 121              		.loc 1 129 0
 122 0074 1F4A     		ldr	r2, .L17+32
 123 0076 5078     		ldrb	r0, [r2, #1]
 124 0078 1378     		ldrb	r3, [r2]
 125 007a 0002     		lsl	r0, r0, #8
 126 007c 1843     		orr	r0, r3
 127 007e FFF7FEFF 		bl	CyBle_GattsWriteRsp
 128              	.LVL12:
 129 0082 011C     		mov	r1, r0
 130              	.LVL13:
 130:.\main.c      ****             DBG_PRINTF("CYBLE_EVT_GATTS_WRITE_REQ Resp Error = %x \r \n", error);
 131              		.loc 1 130 0
 132 0084 1C48     		ldr	r0, .L17+36
 133 0086 FFF7FEFF 		bl	printf
 134              	.LVL14:
 131:.\main.c      ****             break;
 135              		.loc 1 131 0
 136 008a 1EE0     		b	.L2
 137              	.LVL15:
 138              	.L9:
 111:.\main.c      ****                 {
 139              		.loc 1 111 0
 140 008c AB89     		ldrh	r3, [r5, #12]
 141 008e 102B     		cmp	r3, #16
 142 0090 F0D1     		bne	.L10
 113:.\main.c      ****                     if(writePTR->handleValPair.value.val != NULL)
 143              		.loc 1 113 0
 144 0092 1A48     		ldr	r0, .L17+40
 145 0094 FFF7FEFF 		bl	DebugCode
 146              	.LVL16:
 114:.\main.c      ****                     {
 147              		.loc 1 114 0
 148 0098 6B68     		ldr	r3, [r5, #4]
 149 009a 002B     		cmp	r3, #0
 150 009c EAD0     		beq	.L10
ARM GAS  C:\Users\310295~1\AppData\Local\Temp\ccU9eANg.s 			page 6


 116:.\main.c      ****                         {
 151              		.loc 1 116 0
 152 009e 114E     		ldr	r6, .L17+16
 153 00a0 7378     		ldrb	r3, [r6, #1]
 154 00a2 DCB2     		uxtb	r4, r3
 155              	.LVL17:
 156 00a4 002C     		cmp	r4, #0
 157 00a6 E5D1     		bne	.L10
 118:.\main.c      ****                             ble_flag = 0x1; 
 158              		.loc 1 118 0
 159 00a8 2989     		ldrh	r1, [r5, #8]
 160 00aa 1548     		ldr	r0, .L17+44
 161 00ac FFF7FEFF 		bl	printf
 162              	.LVL18:
 119:.\main.c      ****                             for(i = 0; i< writePTR->handleValPair.value.len; i++) 
 163              		.loc 1 119 0
 164 00b0 0123     		mov	r3, #1
 165 00b2 7370     		strb	r3, [r6, #1]
 120:.\main.c      ****                             {
 166              		.loc 1 120 0
 167 00b4 231C     		mov	r3, r4
 168              	.LVL19:
 169              	.L11:
 120:.\main.c      ****                             {
 170              		.loc 1 120 0 is_stmt 0 discriminator 1
 171 00b6 2A89     		ldrh	r2, [r5, #8]
 172 00b8 9A42     		cmp	r2, r3
 173 00ba DBD9     		bls	.L10
 122:.\main.c      ****                             }
 174              		.loc 1 122 0 is_stmt 1 discriminator 3
 175 00bc 6A68     		ldr	r2, [r5, #4]
 176 00be D15C     		ldrb	r1, [r2, r3]
 177 00c0 B21C     		add	r2, r6, #2
 178 00c2 D154     		strb	r1, [r2, r3]
 120:.\main.c      ****                             {
 179              		.loc 1 120 0 discriminator 3
 180 00c4 0133     		add	r3, r3, #1
 181              	.LVL20:
 182 00c6 DBB2     		uxtb	r3, r3
 183              	.LVL21:
 184 00c8 F5E7     		b	.L11
 185              	.LVL22:
 186              	.L2:
 132:.\main.c      ****             
 133:.\main.c      **** 
 134:.\main.c      ****         /* Other events that are generated by the BLE Component that
 135:.\main.c      ****          * are not required for functioning of this design */
 136:.\main.c      ****         /**********************************************************
 137:.\main.c      ****         *                       General Events
 138:.\main.c      ****         ***********************************************************/
 139:.\main.c      ****         case CYBLE_EVT_HARDWARE_ERROR:    /* This event indicates that some internal HW error has o
 140:.\main.c      ****             break;
 141:.\main.c      **** 
 142:.\main.c      ****         case CYBLE_EVT_HCI_STATUS:
 143:.\main.c      ****             break;
 144:.\main.c      **** 
 145:.\main.c      ****         /**********************************************************
ARM GAS  C:\Users\310295~1\AppData\Local\Temp\ccU9eANg.s 			page 7


 146:.\main.c      ****         *                       GAP Events
 147:.\main.c      ****         ***********************************************************/
 148:.\main.c      ****         case CYBLE_EVT_GAP_AUTH_REQ:
 149:.\main.c      ****             break;
 150:.\main.c      **** 
 151:.\main.c      ****         case CYBLE_EVT_GAP_PASSKEY_ENTRY_REQUEST:
 152:.\main.c      ****             break;
 153:.\main.c      **** 
 154:.\main.c      ****         case CYBLE_EVT_GAP_PASSKEY_DISPLAY_REQUEST:
 155:.\main.c      ****             break;
 156:.\main.c      **** 
 157:.\main.c      ****         case CYBLE_EVT_GAP_AUTH_COMPLETE:
 158:.\main.c      **** 
 159:.\main.c      ****             break;
 160:.\main.c      ****         case CYBLE_EVT_GAP_AUTH_FAILED:
 161:.\main.c      **** 
 162:.\main.c      ****             break;
 163:.\main.c      **** 
 164:.\main.c      ****         case CYBLE_EVT_GAP_ENCRYPT_CHANGE:
 165:.\main.c      ****             break;
 166:.\main.c      **** 
 167:.\main.c      ****         case CYBLE_EVT_GAPC_CONNECTION_UPDATE_COMPLETE:
 168:.\main.c      ****             break;
 169:.\main.c      **** 
 170:.\main.c      ****         /**********************************************************
 171:.\main.c      ****         *                       GATT Events
 172:.\main.c      ****         ***********************************************************/
 173:.\main.c      ****         case CYBLE_EVT_GATT_CONNECT_IND:
 174:.\main.c      ****             break;
 175:.\main.c      **** 
 176:.\main.c      ****         case CYBLE_EVT_GATT_DISCONNECT_IND:
 177:.\main.c      ****             break;
 178:.\main.c      **** 
 179:.\main.c      ****         case CYBLE_EVT_GATTS_XCNHG_MTU_REQ:
 180:.\main.c      ****             break;
 181:.\main.c      **** 
 182:.\main.c      ****         case CYBLE_EVT_GATTS_READ_CHAR_VAL_ACCESS_REQ:
 183:.\main.c      ****             break;
 184:.\main.c      **** 
 185:.\main.c      ****         /**********************************************************
 186:.\main.c      ****         *                       Other Events
 187:.\main.c      ****         ***********************************************************/
 188:.\main.c      ****         case CYBLE_EVT_PENDING_FLASH_WRITE:
 189:.\main.c      ****             break;
 190:.\main.c      **** 
 191:.\main.c      ****         default:
 192:.\main.c      ****             break;
 193:.\main.c      ****     } /*Switch Case*/
 194:.\main.c      ****     DebugCode("StackEventHandler--");
 187              		.loc 1 194 0
 188 00ca 0E48     		ldr	r0, .L17+48
 189 00cc FFF7FEFF 		bl	DebugCode
 190              	.LVL23:
 195:.\main.c      **** }
 191              		.loc 1 195 0
 192              		@ sp needed
 193              	.LVL24:
ARM GAS  C:\Users\310295~1\AppData\Local\Temp\ccU9eANg.s 			page 8


 194 00d0 70BD     		pop	{r4, r5, r6, pc}
 195              	.L18:
 196 00d2 C046     		.align	2
 197              	.L17:
 198 00d4 00000000 		.word	.LC0
 199 00d8 14000000 		.word	.LC2
 200 00dc 2C000000 		.word	.LC4
 201 00e0 3D000000 		.word	.LC6
 202 00e4 00000000 		.word	.LANCHOR0
 203 00e8 4C000000 		.word	.LC9
 204 00ec 00000000 		.word	cyBle_state
 205 00f0 5D000000 		.word	.LC12
 206 00f4 00000000 		.word	cyBle_connHandle
 207 00f8 7A000000 		.word	.LC15
 208 00fc A8000000 		.word	.LC17
 209 0100 BC000000 		.word	.LC19
 210 0104 CE000000 		.word	.LC21
 211              		.cfi_endproc
 212              	.LFE38:
 213              		.size	StackEventHandler, .-StackEventHandler
 214              		.section	.text.WakeupIsrHandler,"ax",%progbits
 215              		.align	1
 216              		.global	WakeupIsrHandler
 217              		.code	16
 218              		.thumb_func
 219              		.type	WakeupIsrHandler, %function
 220              	WakeupIsrHandler:
 221              	.LFB39:
 196:.\main.c      **** 
 197:.\main.c      **** CY_ISR(WakeupIsrHandler)
 198:.\main.c      **** {
 222              		.loc 1 198 0
 223              		.cfi_startproc
 224 0000 08B5     		push	{r3, lr}
 225              		.cfi_def_cfa_offset 8
 226              		.cfi_offset 3, -8
 227              		.cfi_offset 14, -4
 199:.\main.c      **** //    static u8 sw_reg=0;
 200:.\main.c      ****     /* Clear pending Interrupt */
 201:.\main.c      ****     isr_Button_ClearPending();
 228              		.loc 1 201 0
 229 0002 FFF7FEFF 		bl	isr_Button_ClearPending
 230              	.LVL25:
 202:.\main.c      **** 
 203:.\main.c      ****     /* Clear pin Interrupt */
 204:.\main.c      ****     Button_ClearInterrupt();
 205:.\main.c      ****     
 206:.\main.c      **** }
 231              		.loc 1 206 0
 232              		@ sp needed
 204:.\main.c      ****     
 233              		.loc 1 204 0
 234 0006 FFF7FEFF 		bl	Button_ClearInterrupt
 235              	.LVL26:
 236              		.loc 1 206 0
 237 000a 08BD     		pop	{r3, pc}
 238              		.cfi_endproc
ARM GAS  C:\Users\310295~1\AppData\Local\Temp\ccU9eANg.s 			page 9


 239              	.LFE39:
 240              		.size	WakeupIsrHandler, .-WakeupIsrHandler
 241              		.section	.text.startup.main,"ax",%progbits
 242              		.align	1
 243              		.global	main
 244              		.code	16
 245              		.thumb_func
 246              		.type	main, %function
 247              	main:
 248              	.LFB40:
 207:.\main.c      **** 
 208:.\main.c      **** 
 209:.\main.c      **** int main()
 210:.\main.c      **** {
 249              		.loc 1 210 0
 250              		.cfi_startproc
 251 0000 10B5     		push	{r4, lr}
 252              		.cfi_def_cfa_offset 8
 253              		.cfi_offset 4, -8
 254              		.cfi_offset 14, -4
 211:.\main.c      ****     //uint8 i = 0x0; 
 212:.\main.c      ****     //uint8 temp_data = 0x0; 
 213:.\main.c      ****     /*Enable the UART Debuger to get hold of data*/
 214:.\main.c      ****     UART_Dbg_Start(); 
 255              		.loc 1 214 0
 256 0002 FFF7FEFF 		bl	UART_Dbg_Start
 257              	.LVL27:
 258              	.L21:
 215:.\main.c      ****     
 216:.\main.c      ****     /*Wait till the button is pressed */
 217:.\main.c      ****     while(Button_Read() == 0u);
 259              		.loc 1 217 0 discriminator 1
 260 0006 FFF7FEFF 		bl	Button_Read
 261              	.LVL28:
 262 000a 0028     		cmp	r0, #0
 263 000c FBD0     		beq	.L21
 218:.\main.c      ****     CyDelay(500); 
 264              		.loc 1 218 0
 265 000e FA20     		mov	r0, #250
 266 0010 4000     		lsl	r0, r0, #1
 267 0012 FFF7FEFF 		bl	CyDelay
 268              	.LVL29:
 269              	.L22:
 219:.\main.c      ****     while(Button_Read() == 0u); 
 270              		.loc 1 219 0 discriminator 1
 271 0016 FFF7FEFF 		bl	Button_Read
 272              	.LVL30:
 273 001a 0028     		cmp	r0, #0
 274 001c FBD0     		beq	.L22
 220:.\main.c      ****     
 221:.\main.c      ****     /*Process the button interrupts*/
 222:.\main.c      ****     isr_Button_StartEx(WakeupIsrHandler);
 275              		.loc 1 222 0
 276 001e 2248     		ldr	r0, .L30
 277 0020 FFF7FEFF 		bl	isr_Button_StartEx
 278              	.LVL31:
 223:.\main.c      ****     Button_ClearInterrupt();
ARM GAS  C:\Users\310295~1\AppData\Local\Temp\ccU9eANg.s 			page 10


 279              		.loc 1 223 0
 280 0024 FFF7FEFF 		bl	Button_ClearInterrupt
 281              	.LVL32:
 224:.\main.c      ****     isr_Button_ClearPending(); 
 282              		.loc 1 224 0
 283 0028 FFF7FEFF 		bl	isr_Button_ClearPending
 284              	.LVL33:
 225:.\main.c      ****     
 226:.\main.c      ****     /*Unfreeze the GPIOS*/
 227:.\main.c      ****     CySysPmUnfreezeIo(); 
 285              		.loc 1 227 0
 286 002c FFF7FEFF 		bl	CySysPmUnfreezeIo
 287              	.LVL34:
 228:.\main.c      ****     SET_DCDC_2_0V();
 288              		.loc 1 228 0
 289 0030 0020     		mov	r0, #0
 290 0032 FFF7FEFF 		bl	pwr_set_Write
 291              	.LVL35:
 229:.\main.c      ****     
 230:.\main.c      ****     CyGlobalIntEnable; /* Enable global interrupts. */
 292              		.loc 1 230 0
 293              	@ 230 ".\main.c" 1
 294 0036 62B6     		CPSIE   i
 295              	@ 0 "" 2
 231:.\main.c      ****     
 232:.\main.c      ****     DebugCode("SHREY Sleeve V1.0");
 296              		.loc 1 232 0
 297              		.code	16
 298 0038 1C48     		ldr	r0, .L30+4
 299 003a FFF7FEFF 		bl	DebugCode
 300              	.LVL36:
 233:.\main.c      ****     DebugCode("*****************************************");
 301              		.loc 1 233 0
 302 003e 1C4C     		ldr	r4, .L30+8
 303 0040 201C     		mov	r0, r4
 304 0042 FFF7FEFF 		bl	DebugCode
 305              	.LVL37:
 234:.\main.c      ****     DebugCode("Hello World");
 306              		.loc 1 234 0
 307 0046 1B48     		ldr	r0, .L30+12
 308 0048 FFF7FEFF 		bl	DebugCode
 309              	.LVL38:
 235:.\main.c      ****     DebugCode("Starting BLE Processor Now");
 310              		.loc 1 235 0
 311 004c 1A48     		ldr	r0, .L30+16
 312 004e FFF7FEFF 		bl	DebugCode
 313              	.LVL39:
 236:.\main.c      ****     DebugCode("*****************************************");
 314              		.loc 1 236 0
 315 0052 201C     		mov	r0, r4
 316 0054 FFF7FEFF 		bl	DebugCode
 317              	.LVL40:
 237:.\main.c      ****     
 238:.\main.c      ****     /** Start the BLE Processor Code Now **/ 
 239:.\main.c      ****     CyBle_Start(StackEventHandler); 
 318              		.loc 1 239 0
 319 0058 1848     		ldr	r0, .L30+20
ARM GAS  C:\Users\310295~1\AppData\Local\Temp\ccU9eANg.s 			page 11


 320 005a FFF7FEFF 		bl	CyBle_Start
 321              	.LVL41:
 322              	.L24:
 240:.\main.c      **** 
 241:.\main.c      **** #ifdef BLE_TEST
 242:.\main.c      ****     while(1)
 243:.\main.c      ****     {
 244:.\main.c      ****        CyBle_ProcessEvents(); 
 323              		.loc 1 244 0
 324 005e FFF7FEFF 		bl	CyBle_ProcessEvents
 325              	.LVL42:
 245:.\main.c      ****        /*For now if we have a disconnect just exit the loop 
 246:.\main.c      ****          and turn off the BLE*/
 247:.\main.c      ****        if(disconnect_flag == 0x1)
 326              		.loc 1 247 0
 327 0062 174C     		ldr	r4, .L30+24
 328 0064 2378     		ldrb	r3, [r4]
 329 0066 012B     		cmp	r3, #1
 330 0068 0FD0     		beq	.L29
 248:.\main.c      ****        {
 249:.\main.c      ****             DebugCode("I recd a disconnect and I am about to close");
 250:.\main.c      ****             break; 
 251:.\main.c      ****        }
 252:.\main.c      ****        if(ble_flag == 0x1)
 331              		.loc 1 252 0
 332 006a 6378     		ldrb	r3, [r4, #1]
 333 006c 012B     		cmp	r3, #1
 334 006e F6D1     		bne	.L24
 253:.\main.c      ****        {
 254:.\main.c      ****             DebugCode("Received a Valid data");
 335              		.loc 1 254 0
 336 0070 1448     		ldr	r0, .L30+28
 337 0072 FFF7FEFF 		bl	DebugCode
 338              	.LVL43:
 255:.\main.c      ****             DebugCode("Printing Received Characters"); 
 339              		.loc 1 255 0
 340 0076 1448     		ldr	r0, .L30+32
 341 0078 FFF7FEFF 		bl	DebugCode
 342              	.LVL44:
 256:.\main.c      **** #if 0 
 257:.\main.c      ****             for(i=0; i < 4; i++)
 258:.\main.c      ****             {
 259:.\main.c      ****                 temp_data= msg_buffer[i]; 
 260:.\main.c      ****                 DBG_PRINTF("0x%x \n",temp_data); 
 261:.\main.c      ****             }
 262:.\main.c      **** #endif 
 263:.\main.c      ****             DBG_PRINTF("%s \n",msg_buffer); 
 343              		.loc 1 263 0
 344 007c A11C     		add	r1, r4, #2
 345 007e 1348     		ldr	r0, .L30+36
 346 0080 FFF7FEFF 		bl	printf
 347              	.LVL45:
 264:.\main.c      ****             /*clear the ble received flag*/
 265:.\main.c      ****             ble_flag = 0x0; 
 348              		.loc 1 265 0
 349 0084 0023     		mov	r3, #0
 350 0086 6370     		strb	r3, [r4, #1]
ARM GAS  C:\Users\310295~1\AppData\Local\Temp\ccU9eANg.s 			page 12


 351 0088 E9E7     		b	.L24
 352              	.L29:
 249:.\main.c      ****             break; 
 353              		.loc 1 249 0
 354 008a 1148     		ldr	r0, .L30+40
 355 008c FFF7FEFF 		bl	DebugCode
 356              	.LVL46:
 266:.\main.c      ****        }
 267:.\main.c      ****     }
 268:.\main.c      **** #endif 
 269:.\main.c      ****     SET_DCDC_2_0V(); 
 357              		.loc 1 269 0
 358 0090 0020     		mov	r0, #0
 359 0092 FFF7FEFF 		bl	pwr_set_Write
 360              	.LVL47:
 361              	.LBB4:
 362              	.LBB5:
  40:.\main.c      ****     UART_Dbg_Stop(); 
 363              		.loc 1 40 0
 364 0096 0F48     		ldr	r0, .L30+44
 365 0098 FFF7FEFF 		bl	DebugCode
 366              	.LVL48:
 367              	.LBE5:
 368              	.LBE4:
 270:.\main.c      ****     EnableStop(); 
 271:.\main.c      ****     return 0;
 272:.\main.c      **** }
 369              		.loc 1 272 0
 370              		@ sp needed
 371              	.LBB7:
 372              	.LBB6:
  41:.\main.c      ****     CySysPmStop();
 373              		.loc 1 41 0
 374 009c FFF7FEFF 		bl	UART_Dbg_Stop
 375              	.LVL49:
  42:.\main.c      **** }
 376              		.loc 1 42 0
 377 00a0 FFF7FEFF 		bl	CySysPmStop
 378              	.LVL50:
 379              	.LBE6:
 380              	.LBE7:
 381              		.loc 1 272 0
 382 00a4 0020     		mov	r0, #0
 383 00a6 10BD     		pop	{r4, pc}
 384              	.L31:
 385              		.align	2
 386              	.L30:
 387 00a8 00000000 		.word	WakeupIsrHandler
 388 00ac E2000000 		.word	.LC25
 389 00b0 F4000000 		.word	.LC27
 390 00b4 1E010000 		.word	.LC29
 391 00b8 2A010000 		.word	.LC31
 392 00bc 00000000 		.word	StackEventHandler
 393 00c0 00000000 		.word	.LANCHOR0
 394 00c4 8D010000 		.word	.LC39
 395 00c8 A3010000 		.word	.LC41
 396 00cc C0010000 		.word	.LC43
ARM GAS  C:\Users\310295~1\AppData\Local\Temp\ccU9eANg.s 			page 13


 397 00d0 45010000 		.word	.LC35
 398 00d4 71010000 		.word	.LC37
 399              		.cfi_endproc
 400              	.LFE40:
 401              		.size	main, .-main
 402              		.global	msg_buffer
 403              		.global	ble_flag
 404              		.global	disconnect_flag
 405              		.section	.rodata.str1.1,"aMS",%progbits,1
 406              	.LC0:
 407 0000 53746163 		.ascii	"StackEventHandler++\000"
 407      6B457665 
 407      6E744861 
 407      6E646C65 
 407      722B2B00 
 408              	.LC2:
 409 0014 424C4520 		.ascii	"BLE ON!! ADVERTISING :)\000"
 409      4F4E2121 
 409      20414456 
 409      45525449 
 409      53494E47 
 410              	.LC4:
 411 002c 424C4520 		.ascii	"BLE DISCONNECTED\000"
 411      44495343 
 411      4F4E4E45 
 411      43544544 
 411      00
 412              	.LC6:
 413 003d 426C6520 		.ascii	"Ble Restart!! \000"
 413      52657374 
 413      61727421 
 413      212000
 414              	.LC9:
 415 004c 424F4E44 		.ascii	"BONDING SUCCESS \000"
 415      494E4720 
 415      53554343 
 415      45535320 
 415      00
 416              	.LC12:
 417 005d 53485245 		.ascii	"SHREY :: Got a Write Request\000"
 417      59203A3A 
 417      20476F74 
 417      20612057 
 417      72697465 
 418              	.LC15:
 419 007a 4359424C 		.ascii	"CYBLE_EVT_GATTS_WRITE_REQ Resp Error = %x \015 \012"
 419      455F4556 
 419      545F4741 
 419      5454535F 
 419      57524954 
 420 00a7 00       		.ascii	"\000"
 421              	.LC17:
 422 00a8 436F7272 		.ascii	"Correct Char Handle\000"
 422      65637420 
 422      43686172 
 422      2048616E 
 422      646C6500 
ARM GAS  C:\Users\310295~1\AppData\Local\Temp\ccU9eANg.s 			page 14


 423              	.LC19:
 424 00bc 4C656E67 		.ascii	"Length = 0x%x \015 \012\000"
 424      7468203D 
 424      20307825 
 424      78200D20 
 424      0A00
 425              	.LC21:
 426 00ce 53746163 		.ascii	"StackEventHandler--\000"
 426      6B457665 
 426      6E744861 
 426      6E646C65 
 426      722D2D00 
 427              	.LC25:
 428 00e2 53485245 		.ascii	"SHREY Sleeve V1.0\000"
 428      5920536C 
 428      65657665 
 428      2056312E 
 428      3000
 429              	.LC27:
 430 00f4 2A2A2A2A 		.ascii	"*****************************************\000"
 430      2A2A2A2A 
 430      2A2A2A2A 
 430      2A2A2A2A 
 430      2A2A2A2A 
 431              	.LC29:
 432 011e 48656C6C 		.ascii	"Hello World\000"
 432      6F20576F 
 432      726C6400 
 433              	.LC31:
 434 012a 53746172 		.ascii	"Starting BLE Processor Now\000"
 434      74696E67 
 434      20424C45 
 434      2050726F 
 434      63657373 
 435              	.LC35:
 436 0145 49207265 		.ascii	"I recd a disconnect and I am about to close\000"
 436      63642061 
 436      20646973 
 436      636F6E6E 
 436      65637420 
 437              	.LC37:
 438 0171 53485245 		.ascii	"SHREY: Turning Off the Chip\000"
 438      593A2054 
 438      75726E69 
 438      6E67204F 
 438      66662074 
 439              	.LC39:
 440 018d 52656365 		.ascii	"Received a Valid data\000"
 440      69766564 
 440      20612056 
 440      616C6964 
 440      20646174 
 441              	.LC41:
 442 01a3 5072696E 		.ascii	"Printing Received Characters\000"
 442      74696E67 
 442      20526563 
 442      65697665 
ARM GAS  C:\Users\310295~1\AppData\Local\Temp\ccU9eANg.s 			page 15


 442      64204368 
 443              	.LC43:
 444 01c0 2573200A 		.ascii	"%s \012\000"
 444      00
 445              		.bss
 446              		.set	.LANCHOR0,. + 0
 447              		.type	disconnect_flag, %object
 448              		.size	disconnect_flag, 1
 449              	disconnect_flag:
 450 0000 00       		.space	1
 451              		.type	ble_flag, %object
 452              		.size	ble_flag, 1
 453              	ble_flag:
 454 0001 00       		.space	1
 455              		.type	msg_buffer, %object
 456              		.size	msg_buffer, 20
 457              	msg_buffer:
 458 0002 00000000 		.space	20
 458      00000000 
 458      00000000 
 458      00000000 
 458      00000000 
 459              		.text
 460              	.Letext0:
 461              		.file 2 "Generated_Source\\PSoC4/cytypes.h"
 462              		.file 3 "Generated_Source\\PSoC4/BLE_System_Stack.h"
 463              		.file 4 "Generated_Source\\PSoC4/BLE_System_StackGatt.h"
 464              		.file 5 "Generated_Source\\PSoC4/BLE_System_StackGattServer.h"
 465              		.file 6 "Generated_Source\\PSoC4/BLE_System.h"
 466              		.file 7 "Generated_Source\\PSoC4/BLE_System_eventHandler.h"
 467              		.file 8 "c:\\program files (x86)\\cypress\\psoc creator\\3.3\\psoc creator\\import\\gnu\\arm\\4.9.
 468              		.file 9 "Generated_Source\\PSoC4/cyPm.h"
 469              		.file 10 "Generated_Source\\PSoC4/isr_Button.h"
 470              		.file 11 "Generated_Source\\PSoC4/UART_Dbg.h"
 471              		.file 12 "Generated_Source\\PSoC4/Button.h"
 472              		.file 13 ".\\debug.h"
 473              		.file 14 "Generated_Source\\PSoC4/CyLib.h"
 474              		.file 15 "Generated_Source\\PSoC4/pwr_set.h"