ARM GAS  C:\Users\310295~1\AppData\Local\Temp\ccZIm937.s 			page 1


   1              		.cpu cortex-m0
   2              		.fpu softvfp
   3              		.eabi_attribute 20, 1
   4              		.eabi_attribute 21, 1
   5              		.eabi_attribute 23, 3
   6              		.eabi_attribute 24, 1
   7              		.eabi_attribute 25, 1
   8              		.eabi_attribute 26, 1
   9              		.eabi_attribute 30, 1
  10              		.eabi_attribute 34, 0
  11              		.eabi_attribute 18, 4
  12              		.code	16
  13              		.file	"BLE_System.c"
  14              		.text
  15              	.Ltext0:
  16              		.cfi_sections	.debug_frame
  17              		.section	.text.CyBle_ChangeAdLocalName,"ax",%progbits
  18              		.align	2
  19              		.code	16
  20              		.thumb_func
  21              		.type	CyBle_ChangeAdLocalName, %function
  22              	CyBle_ChangeAdLocalName:
  23              	.LFB11:
  24              		.file 1 ".\\Generated_Source\\PSoC4\\BLE_System.c"
   1:.\Generated_Source\PSoC4/BLE_System.c **** /***************************************************************************//**
   2:.\Generated_Source\PSoC4/BLE_System.c **** * \file CYBLE.c
   3:.\Generated_Source\PSoC4/BLE_System.c **** * \version 3.10
   4:.\Generated_Source\PSoC4/BLE_System.c **** * 
   5:.\Generated_Source\PSoC4/BLE_System.c **** * \brief
   6:.\Generated_Source\PSoC4/BLE_System.c **** *  This file contains the source code for the Common APIs of the BLE Component.
   7:.\Generated_Source\PSoC4/BLE_System.c **** * 
   8:.\Generated_Source\PSoC4/BLE_System.c **** ********************************************************************************
   9:.\Generated_Source\PSoC4/BLE_System.c **** * \copyright
  10:.\Generated_Source\PSoC4/BLE_System.c **** * Copyright 2014-2016, Cypress Semiconductor Corporation.  All rights reserved.
  11:.\Generated_Source\PSoC4/BLE_System.c **** * You may use this file only in accordance with the license, terms, conditions,
  12:.\Generated_Source\PSoC4/BLE_System.c **** * disclaimers, and limitations in the end user license agreement accompanying
  13:.\Generated_Source\PSoC4/BLE_System.c **** * the software package with which this file was provided.
  14:.\Generated_Source\PSoC4/BLE_System.c **** *******************************************************************************/
  15:.\Generated_Source\PSoC4/BLE_System.c **** 
  16:.\Generated_Source\PSoC4/BLE_System.c **** #include "BLE_System_eventHandler.h"
  17:.\Generated_Source\PSoC4/BLE_System.c **** #include "BLE_System_HAL_PVT.h"
  18:.\Generated_Source\PSoC4/BLE_System.c **** #include <stdlib.h>
  19:.\Generated_Source\PSoC4/BLE_System.c **** 
  20:.\Generated_Source\PSoC4/BLE_System.c **** 
  21:.\Generated_Source\PSoC4/BLE_System.c **** /***************************************
  22:.\Generated_Source\PSoC4/BLE_System.c **** * Function Prototypes
  23:.\Generated_Source\PSoC4/BLE_System.c **** ***************************************/
  24:.\Generated_Source\PSoC4/BLE_System.c **** 
  25:.\Generated_Source\PSoC4/BLE_System.c **** #if(CYBLE_GATT_ROLE_SERVER)
  26:.\Generated_Source\PSoC4/BLE_System.c ****     #if(CYBLE_GAP_ROLE_PERIPHERAL)
  27:.\Generated_Source\PSoC4/BLE_System.c ****         static void CyBle_ChangeAdLocalName(const char8 name[], uint8 dest);
  28:.\Generated_Source\PSoC4/BLE_System.c ****     #endif /* (CYBLE_GAP_ROLE_PERIPHERAL) */
  29:.\Generated_Source\PSoC4/BLE_System.c **** #endif /* (CYBLE_GATT_ROLE_SERVER) */
  30:.\Generated_Source\PSoC4/BLE_System.c ****     
  31:.\Generated_Source\PSoC4/BLE_System.c **** 
  32:.\Generated_Source\PSoC4/BLE_System.c **** /***************************************
  33:.\Generated_Source\PSoC4/BLE_System.c **** * Global Variables
ARM GAS  C:\Users\310295~1\AppData\Local\Temp\ccZIm937.s 			page 2


  34:.\Generated_Source\PSoC4/BLE_System.c **** ***************************************/
  35:.\Generated_Source\PSoC4/BLE_System.c **** 
  36:.\Generated_Source\PSoC4/BLE_System.c **** /* Indicates whether the BLE has been initialized. The variable is initialized to
  37:.\Generated_Source\PSoC4/BLE_System.c ****    0 and set to 1 the first time CyBle_Start() is called. This allows the component
  38:.\Generated_Source\PSoC4/BLE_System.c ****    to restart without reinitialization after the first call to the CyBle_Start() 
  39:.\Generated_Source\PSoC4/BLE_System.c ****    routine. If reinitialization of the component is required, the variable should 
  40:.\Generated_Source\PSoC4/BLE_System.c ****    be set to 0 before the CyBle_Start() routine is called. Alternatively, the BLE
  41:.\Generated_Source\PSoC4/BLE_System.c ****    can be reinitialized by calling the CyBle_Init() function.
  42:.\Generated_Source\PSoC4/BLE_System.c **** */
  43:.\Generated_Source\PSoC4/BLE_System.c **** uint8  cyBle_initVar = 0u;
  44:.\Generated_Source\PSoC4/BLE_System.c **** 
  45:.\Generated_Source\PSoC4/BLE_System.c **** /* Allocate RAM memory for stack. This buffer could be reused by application when 
  46:.\Generated_Source\PSoC4/BLE_System.c ****    BLE component is stopped. For export mode buffer is allocated in heap.
  47:.\Generated_Source\PSoC4/BLE_System.c **** */
  48:.\Generated_Source\PSoC4/BLE_System.c **** #if(CYBLE_SHARING_MODE_EXPORT)
  49:.\Generated_Source\PSoC4/BLE_System.c ****     
  50:.\Generated_Source\PSoC4/BLE_System.c **** uint8 *cyBle_stackMemoryRam = NULL;
  51:.\Generated_Source\PSoC4/BLE_System.c **** 
  52:.\Generated_Source\PSoC4/BLE_System.c **** #else
  53:.\Generated_Source\PSoC4/BLE_System.c **** 
  54:.\Generated_Source\PSoC4/BLE_System.c **** CYBLE_CYALIGNED_BEGIN CY_NOINIT uint8 cyBle_stackMemoryRam[CYBLE_STACK_RAM_SIZE] CYBLE_CYALIGNED_EN
  55:.\Generated_Source\PSoC4/BLE_System.c **** 
  56:.\Generated_Source\PSoC4/BLE_System.c **** #endif  /* CYBLE_SHARING_MODE_EXPORT */
  57:.\Generated_Source\PSoC4/BLE_System.c **** 
  58:.\Generated_Source\PSoC4/BLE_System.c **** #if(CYBLE_GAP_ROLE_PERIPHERAL || CYBLE_GAP_ROLE_BROADCASTER)
  59:.\Generated_Source\PSoC4/BLE_System.c **** 
  60:.\Generated_Source\PSoC4/BLE_System.c **** CYBLE_GAPP_DISC_PARAM_T cyBle_discoveryParam =
  61:.\Generated_Source\PSoC4/BLE_System.c **** {
  62:.\Generated_Source\PSoC4/BLE_System.c ****     0x0120u,    /* uint16 advertising_interval_min */
  63:.\Generated_Source\PSoC4/BLE_System.c ****     0x0140u,    /* uint16 advertising_interval_max */
  64:.\Generated_Source\PSoC4/BLE_System.c ****     CYBLE_GAPP_CONNECTABLE_UNDIRECTED_ADV, /* uint8 advertising_type */
  65:.\Generated_Source\PSoC4/BLE_System.c ****     0x00u,      /* uint8 own_addr_type */
  66:.\Generated_Source\PSoC4/BLE_System.c ****     0x00u,      /* uint8 direct_addr_type */
  67:.\Generated_Source\PSoC4/BLE_System.c ****     {0x00u, 0x00u, 0x00u, 0x50u, 0xA0u, 0x00u}, /* uint8* direct_addr */
  68:.\Generated_Source\PSoC4/BLE_System.c ****     0x07u,      /* uint8 advertising_channel_map */
  69:.\Generated_Source\PSoC4/BLE_System.c ****     0x00u,      /* uint8 advertising_filter_policy */
  70:.\Generated_Source\PSoC4/BLE_System.c **** };
  71:.\Generated_Source\PSoC4/BLE_System.c **** 
  72:.\Generated_Source\PSoC4/BLE_System.c **** CYBLE_GAPP_DISC_DATA_T cyBle_discoveryData =
  73:.\Generated_Source\PSoC4/BLE_System.c **** {
  74:.\Generated_Source\PSoC4/BLE_System.c ****     { 0x02u, 0x01u, 0x06u, 0x0Du, 0x09u, 0x53u, 0x68u,
  75:.\Generated_Source\PSoC4/BLE_System.c ****     0x72u, 0x65u, 0x79u, 0x5Fu, 0x53u, 0x42u, 0x53u, 0x5Fu,
  76:.\Generated_Source\PSoC4/BLE_System.c ****     0x30u, 0x31u, 0x00u, 0x00u, 0x00u, 0x00u, 0x00u, 0x00u,
  77:.\Generated_Source\PSoC4/BLE_System.c ****     0x00u, 0x00u, 0x00u, 0x00u, 0x00u, 0x00u, 0x00u, 0x00u }, /* uint8 advertising_data[CYBLE_MAX_A
  78:.\Generated_Source\PSoC4/BLE_System.c ****     0x11u,      /* uint8 adv_data_length */
  79:.\Generated_Source\PSoC4/BLE_System.c **** };
  80:.\Generated_Source\PSoC4/BLE_System.c **** 
  81:.\Generated_Source\PSoC4/BLE_System.c **** CYBLE_GAPP_SCAN_RSP_DATA_T cyBle_scanRspData =
  82:.\Generated_Source\PSoC4/BLE_System.c **** {
  83:.\Generated_Source\PSoC4/BLE_System.c ****     { 0x03u, 0x03u, 0xF0u, 0x30u, 0x00u, 0x00u, 0x00u,
  84:.\Generated_Source\PSoC4/BLE_System.c ****     0x00u, 0x00u, 0x00u, 0x00u, 0x00u, 0x00u, 0x00u, 0x00u,
  85:.\Generated_Source\PSoC4/BLE_System.c ****     0x00u, 0x00u, 0x00u, 0x00u, 0x00u, 0x00u, 0x00u, 0x00u,
  86:.\Generated_Source\PSoC4/BLE_System.c ****     0x00u, 0x00u, 0x00u, 0x00u, 0x00u, 0x00u, 0x00u, 0x00u }, /* uint8 scan_rsp_data[CYBLE_MAX_SCAN
  87:.\Generated_Source\PSoC4/BLE_System.c ****     0x04u,      /* uint8 scan_rsp_data_length */
  88:.\Generated_Source\PSoC4/BLE_System.c **** };
  89:.\Generated_Source\PSoC4/BLE_System.c **** 
  90:.\Generated_Source\PSoC4/BLE_System.c **** /* This variable of type CYBLE_GAPP_DISC_MODE_INFO_T is present only when 
ARM GAS  C:\Users\310295~1\AppData\Local\Temp\ccZIm937.s 			page 3


  91:.\Generated_Source\PSoC4/BLE_System.c ****    the BLE component is configured for Peripheral GAP role or Central and 
  92:.\Generated_Source\PSoC4/BLE_System.c ****    Peripheral GAP role. It contains the Advertisement settings and also the 
  93:.\Generated_Source\PSoC4/BLE_System.c ****    Advertisement and Scan response data parameters entered in the customizer.
  94:.\Generated_Source\PSoC4/BLE_System.c ****    This variable can be used by advanced users to change Advertisement settings,
  95:.\Generated_Source\PSoC4/BLE_System.c ****    Advertisement or Scan response data in runtime. 
  96:.\Generated_Source\PSoC4/BLE_System.c **** */
  97:.\Generated_Source\PSoC4/BLE_System.c **** CYBLE_GAPP_DISC_MODE_INFO_T cyBle_discoveryModeInfo =
  98:.\Generated_Source\PSoC4/BLE_System.c **** {
  99:.\Generated_Source\PSoC4/BLE_System.c ****     0x02u,      /* uint8 discMode */
 100:.\Generated_Source\PSoC4/BLE_System.c ****     &cyBle_discoveryParam,
 101:.\Generated_Source\PSoC4/BLE_System.c ****     &cyBle_discoveryData,
 102:.\Generated_Source\PSoC4/BLE_System.c ****     &cyBle_scanRspData,
 103:.\Generated_Source\PSoC4/BLE_System.c ****     0x003Cu,    /* uint16 advTo */
 104:.\Generated_Source\PSoC4/BLE_System.c **** };
 105:.\Generated_Source\PSoC4/BLE_System.c **** 
 106:.\Generated_Source\PSoC4/BLE_System.c **** 
 107:.\Generated_Source\PSoC4/BLE_System.c **** #endif /* CYBLE_GAP_ROLE_PERIPHERAL || CYBLE_GAP_ROLE_BROADCASTER */
 108:.\Generated_Source\PSoC4/BLE_System.c **** 
 109:.\Generated_Source\PSoC4/BLE_System.c **** #if(CYBLE_GAP_ROLE_CENTRAL)
 110:.\Generated_Source\PSoC4/BLE_System.c ****     
 111:.\Generated_Source\PSoC4/BLE_System.c **** CYBLE_GAPC_CONN_PARAM_T cyBle_connectionParameters;
 112:.\Generated_Source\PSoC4/BLE_System.c **** 
 113:.\Generated_Source\PSoC4/BLE_System.c **** /* Connecting timeout is set to 30 seconds in CyBle_Init function. 
 114:.\Generated_Source\PSoC4/BLE_System.c ****    Not zero value starts timer in CyBle_GapcConnectDevice API.
 115:.\Generated_Source\PSoC4/BLE_System.c **** */
 116:.\Generated_Source\PSoC4/BLE_System.c **** uint16 cyBle_connectingTimeout;
 117:.\Generated_Source\PSoC4/BLE_System.c ****     
 118:.\Generated_Source\PSoC4/BLE_System.c **** #endif /* CYBLE_GAP_ROLE_CENTRAL */
 119:.\Generated_Source\PSoC4/BLE_System.c **** 
 120:.\Generated_Source\PSoC4/BLE_System.c **** #if(CYBLE_GAP_ROLE_CENTRAL || CYBLE_GAP_ROLE_OBSERVER)
 121:.\Generated_Source\PSoC4/BLE_System.c ****     
 122:.\Generated_Source\PSoC4/BLE_System.c **** 
 123:.\Generated_Source\PSoC4/BLE_System.c ****     
 124:.\Generated_Source\PSoC4/BLE_System.c **** #endif /* CYBLE_GAP_ROLE_CENTRAL || CYBLE_GAP_ROLE_OBSERVER */
 125:.\Generated_Source\PSoC4/BLE_System.c **** 
 126:.\Generated_Source\PSoC4/BLE_System.c **** #if((CYBLE_GAP_ROLE_PERIPHERAL || CYBLE_GAP_ROLE_CENTRAL) && (CYBLE_BONDING_REQUIREMENT == CYBLE_BO
 127:.\Generated_Source\PSoC4/BLE_System.c **** 
 128:.\Generated_Source\PSoC4/BLE_System.c **** uint8 cyBle_peerBonding;
 129:.\Generated_Source\PSoC4/BLE_System.c **** uint8 cyBle_pendingFlashWrite;
 130:.\Generated_Source\PSoC4/BLE_System.c ****     
 131:.\Generated_Source\PSoC4/BLE_System.c **** #if(CYBLE_GATT_DB_CCCD_COUNT != 0u)
 132:.\Generated_Source\PSoC4/BLE_System.c ****     static uint8 cyBle_pendingFlashClearCccdHandle;
 133:.\Generated_Source\PSoC4/BLE_System.c **** #endif /* CYBLE_GATT_DB_CCCD_COUNT != 0u */
 134:.\Generated_Source\PSoC4/BLE_System.c ****     
 135:.\Generated_Source\PSoC4/BLE_System.c **** #endif  /* (CYBLE_BONDING_REQUIREMENT == CYBLE_BONDING_YES) */
 136:.\Generated_Source\PSoC4/BLE_System.c **** 
 137:.\Generated_Source\PSoC4/BLE_System.c **** CYBLE_CALLBACK_T CyBle_ApplCallback;
 138:.\Generated_Source\PSoC4/BLE_System.c **** CYBLE_GAP_BD_ADDR_T cyBle_deviceAddress = {{0x00u, 0x00u, 0x00u, 0x50u, 0xA0u, 0x00u}, 0x00u };
 139:.\Generated_Source\PSoC4/BLE_System.c **** CYBLE_GAP_BD_ADDR_T * cyBle_sflashDeviceAddress = CYBLE_SFLASH_DEVICE_ADDRESS_PTR;
 140:.\Generated_Source\PSoC4/BLE_System.c **** 
 141:.\Generated_Source\PSoC4/BLE_System.c **** 
 142:.\Generated_Source\PSoC4/BLE_System.c **** /******************************************************************************
 143:.\Generated_Source\PSoC4/BLE_System.c **** * Function Name: CyBle_Init
 144:.\Generated_Source\PSoC4/BLE_System.c **** ***************************************************************************//**
 145:.\Generated_Source\PSoC4/BLE_System.c **** *
 146:.\Generated_Source\PSoC4/BLE_System.c **** *   Initializes the component with the parameters set in the customizer.
 147:.\Generated_Source\PSoC4/BLE_System.c **** * 
ARM GAS  C:\Users\310295~1\AppData\Local\Temp\ccZIm937.s 			page 4


 148:.\Generated_Source\PSoC4/BLE_System.c **** *  \return
 149:.\Generated_Source\PSoC4/BLE_System.c **** *   None
 150:.\Generated_Source\PSoC4/BLE_System.c **** * 
 151:.\Generated_Source\PSoC4/BLE_System.c **** ******************************************************************************/
 152:.\Generated_Source\PSoC4/BLE_System.c **** void CyBle_Init(void)
 153:.\Generated_Source\PSoC4/BLE_System.c **** {
 154:.\Generated_Source\PSoC4/BLE_System.c ****     cyBle_eventHandlerFlag = 0u;
 155:.\Generated_Source\PSoC4/BLE_System.c ****     cyBle_busyStatus = CYBLE_STACK_STATE_FREE;
 156:.\Generated_Source\PSoC4/BLE_System.c **** 
 157:.\Generated_Source\PSoC4/BLE_System.c ****     #if(CYBLE_GAP_ROLE_PERIPHERAL || CYBLE_GAP_ROLE_BROADCASTER) 
 158:.\Generated_Source\PSoC4/BLE_System.c ****         cyBle_advertisingIntervalType = CYBLE_ADVERTISING_FAST; 
 159:.\Generated_Source\PSoC4/BLE_System.c ****     #endif /* (CYBLE_GAP_ROLE_PERIPHERAL || CYBLE_GAP_ROLE_BROADCASTER)  */
 160:.\Generated_Source\PSoC4/BLE_System.c ****     #if(CYBLE_GAP_ROLE_CENTRAL || CYBLE_GAP_ROLE_OBSERVER)
 161:.\Generated_Source\PSoC4/BLE_System.c ****         cyBle_scanningIntervalType = CYBLE_SCANNING_FAST; 
 162:.\Generated_Source\PSoC4/BLE_System.c ****     #endif /* (CYBLE_GAP_ROLE_CENTRAL || CYBLE_GAP_ROLE_OBSERVER) */
 163:.\Generated_Source\PSoC4/BLE_System.c ****         
 164:.\Generated_Source\PSoC4/BLE_System.c ****     /* Init default connection parameters. 
 165:.\Generated_Source\PSoC4/BLE_System.c ****        Application may change it before initiating a connection */
 166:.\Generated_Source\PSoC4/BLE_System.c ****     #if(CYBLE_GAP_ROLE_CENTRAL)
 167:.\Generated_Source\PSoC4/BLE_System.c ****         cyBle_connectionParameters.scanIntv = cyBle_discoveryInfo.scanIntv;
 168:.\Generated_Source\PSoC4/BLE_System.c ****         cyBle_connectionParameters.scanWindow = cyBle_discoveryInfo.scanWindow;
 169:.\Generated_Source\PSoC4/BLE_System.c ****         cyBle_connectionParameters.ownAddrType = cyBle_discoveryInfo.ownAddrType;
 170:.\Generated_Source\PSoC4/BLE_System.c ****         cyBle_connectionParameters.initiatorFilterPolicy = cyBle_discoveryInfo.scanFilterPolicy;
 171:.\Generated_Source\PSoC4/BLE_System.c ****         cyBle_connectionParameters.connIntvMin = CYBLE_GAPC_CONNECTION_INTERVAL_MIN;
 172:.\Generated_Source\PSoC4/BLE_System.c ****         cyBle_connectionParameters.connIntvMax = CYBLE_GAPC_CONNECTION_INTERVAL_MAX;
 173:.\Generated_Source\PSoC4/BLE_System.c ****         cyBle_connectionParameters.connLatency = CYBLE_GAPC_CONNECTION_SLAVE_LATENCY;
 174:.\Generated_Source\PSoC4/BLE_System.c ****         cyBle_connectionParameters.supervisionTO = CYBLE_GAPC_CONNECTION_TIME_OUT;
 175:.\Generated_Source\PSoC4/BLE_System.c ****         cyBle_connectionParameters.minCeLength = 0x0000u;
 176:.\Generated_Source\PSoC4/BLE_System.c ****         cyBle_connectionParameters.maxCeLength = 0xFFFFu;
 177:.\Generated_Source\PSoC4/BLE_System.c ****         
 178:.\Generated_Source\PSoC4/BLE_System.c ****         cyBle_connectingTimeout = CYBLE_GAPC_CONNECTING_TIMEOUT;
 179:.\Generated_Source\PSoC4/BLE_System.c ****     #endif /* CYBLE_GAP_ROLE_CENTRAL */
 180:.\Generated_Source\PSoC4/BLE_System.c **** 
 181:.\Generated_Source\PSoC4/BLE_System.c ****     CyBle_ServiceInit();
 182:.\Generated_Source\PSoC4/BLE_System.c **** 
 183:.\Generated_Source\PSoC4/BLE_System.c ****     #if((CYBLE_GAP_ROLE_PERIPHERAL || CYBLE_GAP_ROLE_CENTRAL) && (CYBLE_BONDING_REQUIREMENT == CYBL
 184:.\Generated_Source\PSoC4/BLE_System.c ****         cyBle_pendingFlashWrite = 0u;
 185:.\Generated_Source\PSoC4/BLE_System.c ****         cyBle_peerBonding = CYBLE_GAP_BONDING_NONE;
 186:.\Generated_Source\PSoC4/BLE_System.c ****     #endif  /* (CYBLE_BONDING_REQUIREMENT == CYBLE_BONDING_YES) */
 187:.\Generated_Source\PSoC4/BLE_System.c **** 
 188:.\Generated_Source\PSoC4/BLE_System.c **** }
 189:.\Generated_Source\PSoC4/BLE_System.c **** 
 190:.\Generated_Source\PSoC4/BLE_System.c **** 
 191:.\Generated_Source\PSoC4/BLE_System.c **** /******************************************************************************
 192:.\Generated_Source\PSoC4/BLE_System.c **** * Function Name: CyBle_ServiceInit
 193:.\Generated_Source\PSoC4/BLE_System.c **** ***************************************************************************//**
 194:.\Generated_Source\PSoC4/BLE_System.c **** * 
 195:.\Generated_Source\PSoC4/BLE_System.c **** *  Initializes all included services.
 196:.\Generated_Source\PSoC4/BLE_System.c **** * 
 197:.\Generated_Source\PSoC4/BLE_System.c **** * \return
 198:.\Generated_Source\PSoC4/BLE_System.c **** *  None
 199:.\Generated_Source\PSoC4/BLE_System.c **** * 
 200:.\Generated_Source\PSoC4/BLE_System.c **** ******************************************************************************/
 201:.\Generated_Source\PSoC4/BLE_System.c **** void CyBle_ServiceInit(void)
 202:.\Generated_Source\PSoC4/BLE_System.c **** {
 203:.\Generated_Source\PSoC4/BLE_System.c ****     #if(CYBLE_GATT_ROLE_CLIENT)
 204:.\Generated_Source\PSoC4/BLE_System.c ****         /* Check service range before clearing to support partial discovery */
ARM GAS  C:\Users\310295~1\AppData\Local\Temp\ccZIm937.s 			page 5


 205:.\Generated_Source\PSoC4/BLE_System.c ****         if(cyBle_serverInfo[CYBLE_SRVI_GAP].range.startHandle == CYBLE_GATT_INVALID_ATTR_HANDLE_VAL
 206:.\Generated_Source\PSoC4/BLE_System.c ****         {
 207:.\Generated_Source\PSoC4/BLE_System.c ****             (void)memset(&cyBle_gapc, 0, sizeof(cyBle_gapc));
 208:.\Generated_Source\PSoC4/BLE_System.c ****         }
 209:.\Generated_Source\PSoC4/BLE_System.c ****         if(cyBle_serverInfo[CYBLE_SRVI_GATT].range.startHandle == CYBLE_GATT_INVALID_ATTR_HANDLE_VA
 210:.\Generated_Source\PSoC4/BLE_System.c ****         {
 211:.\Generated_Source\PSoC4/BLE_System.c ****             (void)memset(&cyBle_gattc, 0, sizeof(cyBle_gattc));
 212:.\Generated_Source\PSoC4/BLE_System.c ****         }
 213:.\Generated_Source\PSoC4/BLE_System.c ****     #endif /* CYBLE_GATT_ROLE_CLIENT */
 214:.\Generated_Source\PSoC4/BLE_System.c ****     
 215:.\Generated_Source\PSoC4/BLE_System.c **** 	#ifdef CYBLE_ANCS
 216:.\Generated_Source\PSoC4/BLE_System.c ****         CyBle_AncsInit();
 217:.\Generated_Source\PSoC4/BLE_System.c ****     #endif /* CYBLE_ANCS */
 218:.\Generated_Source\PSoC4/BLE_System.c **** 	
 219:.\Generated_Source\PSoC4/BLE_System.c ****     #ifdef CYBLE_ANS
 220:.\Generated_Source\PSoC4/BLE_System.c ****         CyBle_AnsInit();
 221:.\Generated_Source\PSoC4/BLE_System.c ****     #endif /* CYBLE_ANS */
 222:.\Generated_Source\PSoC4/BLE_System.c ****     
 223:.\Generated_Source\PSoC4/BLE_System.c ****     #ifdef CYBLE_BAS
 224:.\Generated_Source\PSoC4/BLE_System.c ****         CyBle_BasInit();
 225:.\Generated_Source\PSoC4/BLE_System.c ****     #endif /* CYBLE_BAS */
 226:.\Generated_Source\PSoC4/BLE_System.c ****     
 227:.\Generated_Source\PSoC4/BLE_System.c ****     #ifdef CYBLE_BCS
 228:.\Generated_Source\PSoC4/BLE_System.c ****         CyBle_BcsInit();
 229:.\Generated_Source\PSoC4/BLE_System.c ****     #endif /* CYBLE_BCS */
 230:.\Generated_Source\PSoC4/BLE_System.c **** 
 231:.\Generated_Source\PSoC4/BLE_System.c ****     #ifdef CYBLE_BLS
 232:.\Generated_Source\PSoC4/BLE_System.c ****         CyBle_BlsInit();
 233:.\Generated_Source\PSoC4/BLE_System.c ****     #endif /* CYBLE_BLS */
 234:.\Generated_Source\PSoC4/BLE_System.c ****     
 235:.\Generated_Source\PSoC4/BLE_System.c ****     #ifdef CYBLE_BMS
 236:.\Generated_Source\PSoC4/BLE_System.c ****         CyBle_BmsInit();
 237:.\Generated_Source\PSoC4/BLE_System.c ****     #endif /* CYBLE_BMS */
 238:.\Generated_Source\PSoC4/BLE_System.c ****     
 239:.\Generated_Source\PSoC4/BLE_System.c ****     #ifdef CYBLE_CGMS
 240:.\Generated_Source\PSoC4/BLE_System.c ****         CyBle_CgmsInit();
 241:.\Generated_Source\PSoC4/BLE_System.c ****     #endif /* CYBLE_CGMS */
 242:.\Generated_Source\PSoC4/BLE_System.c **** 
 243:.\Generated_Source\PSoC4/BLE_System.c ****     #ifdef CYBLE_CPS
 244:.\Generated_Source\PSoC4/BLE_System.c ****         CyBle_CpsInit();
 245:.\Generated_Source\PSoC4/BLE_System.c ****     #endif /* CYBLE_CPS */
 246:.\Generated_Source\PSoC4/BLE_System.c **** 
 247:.\Generated_Source\PSoC4/BLE_System.c ****     #ifdef CYBLE_CSCS
 248:.\Generated_Source\PSoC4/BLE_System.c ****         CyBle_CscsInit();
 249:.\Generated_Source\PSoC4/BLE_System.c ****     #endif /* CYBLE_CSCS */
 250:.\Generated_Source\PSoC4/BLE_System.c ****     
 251:.\Generated_Source\PSoC4/BLE_System.c ****     #ifdef CYBLE_CTS
 252:.\Generated_Source\PSoC4/BLE_System.c ****         CyBle_CtsInit();
 253:.\Generated_Source\PSoC4/BLE_System.c ****     #endif /* CYBLE_CTS */
 254:.\Generated_Source\PSoC4/BLE_System.c **** 
 255:.\Generated_Source\PSoC4/BLE_System.c ****     #ifdef CYBLE_CUSTOM
 256:.\Generated_Source\PSoC4/BLE_System.c ****         CyBle_CustomInit();
 257:.\Generated_Source\PSoC4/BLE_System.c ****     #endif /* CYBLE_CUSTOM */
 258:.\Generated_Source\PSoC4/BLE_System.c **** 
 259:.\Generated_Source\PSoC4/BLE_System.c ****     #ifdef CYBLE_DIS
 260:.\Generated_Source\PSoC4/BLE_System.c ****         CyBle_DisInit();
 261:.\Generated_Source\PSoC4/BLE_System.c ****     #endif /* CYBLE_DIS */
ARM GAS  C:\Users\310295~1\AppData\Local\Temp\ccZIm937.s 			page 6


 262:.\Generated_Source\PSoC4/BLE_System.c **** 
 263:.\Generated_Source\PSoC4/BLE_System.c ****     #ifdef CYBLE_ESS
 264:.\Generated_Source\PSoC4/BLE_System.c ****         CyBle_EssInit();
 265:.\Generated_Source\PSoC4/BLE_System.c ****     #endif /* CYBLE_ESS */
 266:.\Generated_Source\PSoC4/BLE_System.c ****     
 267:.\Generated_Source\PSoC4/BLE_System.c ****     #ifdef CYBLE_GLS
 268:.\Generated_Source\PSoC4/BLE_System.c ****         CyBle_GlsInit();
 269:.\Generated_Source\PSoC4/BLE_System.c ****     #endif /* CYBLE_GLS */
 270:.\Generated_Source\PSoC4/BLE_System.c ****     
 271:.\Generated_Source\PSoC4/BLE_System.c ****     #ifdef CYBLE_HIDS
 272:.\Generated_Source\PSoC4/BLE_System.c ****         CyBle_HidsInit();
 273:.\Generated_Source\PSoC4/BLE_System.c ****     #endif /* CYBLE_HIDS */
 274:.\Generated_Source\PSoC4/BLE_System.c **** 
 275:.\Generated_Source\PSoC4/BLE_System.c ****     #ifdef CYBLE_HPS
 276:.\Generated_Source\PSoC4/BLE_System.c ****         CyBle_HpsInit();
 277:.\Generated_Source\PSoC4/BLE_System.c ****     #endif /* CYBLE_HPS */
 278:.\Generated_Source\PSoC4/BLE_System.c **** 
 279:.\Generated_Source\PSoC4/BLE_System.c ****     #ifdef CYBLE_HRS
 280:.\Generated_Source\PSoC4/BLE_System.c ****         CyBle_HrsInit();
 281:.\Generated_Source\PSoC4/BLE_System.c ****     #endif /* CYBLE_HRS */
 282:.\Generated_Source\PSoC4/BLE_System.c ****     
 283:.\Generated_Source\PSoC4/BLE_System.c ****     #ifdef CYBLE_HTS
 284:.\Generated_Source\PSoC4/BLE_System.c ****         CyBle_HtsInit();
 285:.\Generated_Source\PSoC4/BLE_System.c ****     #endif /* CYBLE_RSCS */
 286:.\Generated_Source\PSoC4/BLE_System.c **** 
 287:.\Generated_Source\PSoC4/BLE_System.c ****     #ifdef CYBLE_IAS
 288:.\Generated_Source\PSoC4/BLE_System.c ****         CyBle_IasInit();
 289:.\Generated_Source\PSoC4/BLE_System.c ****     #endif /* CYBLE_IAS */
 290:.\Generated_Source\PSoC4/BLE_System.c **** 
 291:.\Generated_Source\PSoC4/BLE_System.c ****     #ifdef CYBLE_IPS
 292:.\Generated_Source\PSoC4/BLE_System.c ****         CyBle_IpsInit();
 293:.\Generated_Source\PSoC4/BLE_System.c ****     #endif /* CYBLE_IPS */
 294:.\Generated_Source\PSoC4/BLE_System.c ****     
 295:.\Generated_Source\PSoC4/BLE_System.c ****     #ifdef CYBLE_LLS
 296:.\Generated_Source\PSoC4/BLE_System.c ****         CyBle_LlsInit();
 297:.\Generated_Source\PSoC4/BLE_System.c ****     #endif /* CYBLE_LLS */
 298:.\Generated_Source\PSoC4/BLE_System.c **** 
 299:.\Generated_Source\PSoC4/BLE_System.c ****     #ifdef CYBLE_LNS
 300:.\Generated_Source\PSoC4/BLE_System.c ****         CyBle_LnsInit();
 301:.\Generated_Source\PSoC4/BLE_System.c ****     #endif /* CYBLE_LNS */
 302:.\Generated_Source\PSoC4/BLE_System.c ****     
 303:.\Generated_Source\PSoC4/BLE_System.c ****     #ifdef CYBLE_NDCS
 304:.\Generated_Source\PSoC4/BLE_System.c ****         CyBle_NdcsInit();
 305:.\Generated_Source\PSoC4/BLE_System.c ****     #endif /* CYBLE_NDCS */
 306:.\Generated_Source\PSoC4/BLE_System.c ****     
 307:.\Generated_Source\PSoC4/BLE_System.c ****     #ifdef CYBLE_PASS
 308:.\Generated_Source\PSoC4/BLE_System.c ****         CyBle_PassInit();
 309:.\Generated_Source\PSoC4/BLE_System.c ****     #endif /* CYBLE_PASS */
 310:.\Generated_Source\PSoC4/BLE_System.c ****     
 311:.\Generated_Source\PSoC4/BLE_System.c ****     #ifdef CYBLE_RSCS
 312:.\Generated_Source\PSoC4/BLE_System.c ****         CyBle_RscsInit();
 313:.\Generated_Source\PSoC4/BLE_System.c ****     #endif /* CYBLE_RSCS */
 314:.\Generated_Source\PSoC4/BLE_System.c **** 
 315:.\Generated_Source\PSoC4/BLE_System.c ****     #ifdef CYBLE_RTUS
 316:.\Generated_Source\PSoC4/BLE_System.c ****         CyBle_RtusInit();
 317:.\Generated_Source\PSoC4/BLE_System.c ****     #endif /* CYBLE_RTUS */
 318:.\Generated_Source\PSoC4/BLE_System.c **** 
ARM GAS  C:\Users\310295~1\AppData\Local\Temp\ccZIm937.s 			page 7


 319:.\Generated_Source\PSoC4/BLE_System.c ****     #ifdef CYBLE_SCPS
 320:.\Generated_Source\PSoC4/BLE_System.c ****         CyBle_ScpsInit();
 321:.\Generated_Source\PSoC4/BLE_System.c ****     #endif /* CYBLE_SCPS */
 322:.\Generated_Source\PSoC4/BLE_System.c ****     
 323:.\Generated_Source\PSoC4/BLE_System.c ****     #ifdef CYBLE_TPS
 324:.\Generated_Source\PSoC4/BLE_System.c ****         CyBle_TpsInit();
 325:.\Generated_Source\PSoC4/BLE_System.c ****     #endif /* CYBLE_TPS */
 326:.\Generated_Source\PSoC4/BLE_System.c ****     
 327:.\Generated_Source\PSoC4/BLE_System.c ****     #ifdef CYBLE_UDS
 328:.\Generated_Source\PSoC4/BLE_System.c ****         CyBle_UdsInit();
 329:.\Generated_Source\PSoC4/BLE_System.c ****     #endif /* CYBLE_UDS */
 330:.\Generated_Source\PSoC4/BLE_System.c **** 
 331:.\Generated_Source\PSoC4/BLE_System.c ****     #ifdef CYBLE_WPTS
 332:.\Generated_Source\PSoC4/BLE_System.c ****         CyBle_WptsInit();
 333:.\Generated_Source\PSoC4/BLE_System.c ****     #endif /* CYBLE_WPTS */
 334:.\Generated_Source\PSoC4/BLE_System.c **** 
 335:.\Generated_Source\PSoC4/BLE_System.c ****     #ifdef CYBLE_WSS
 336:.\Generated_Source\PSoC4/BLE_System.c ****         CyBle_WssInit();
 337:.\Generated_Source\PSoC4/BLE_System.c ****     #endif /* CYBLE_WSS */
 338:.\Generated_Source\PSoC4/BLE_System.c **** }
 339:.\Generated_Source\PSoC4/BLE_System.c **** 
 340:.\Generated_Source\PSoC4/BLE_System.c **** 
 341:.\Generated_Source\PSoC4/BLE_System.c **** /******************************************************************************
 342:.\Generated_Source\PSoC4/BLE_System.c **** * Function Name: CyBle_Start
 343:.\Generated_Source\PSoC4/BLE_System.c **** ***************************************************************************//**
 344:.\Generated_Source\PSoC4/BLE_System.c **** * 
 345:.\Generated_Source\PSoC4/BLE_System.c **** *  This function initializes the BLE Stack, which consists of the BLE Stack 
 346:.\Generated_Source\PSoC4/BLE_System.c **** *  Manager, BLE Controller, and BLE Host modules. It takes care of initializing
 347:.\Generated_Source\PSoC4/BLE_System.c **** *  the Profile layer, schedulers, Timer and other platform related
 348:.\Generated_Source\PSoC4/BLE_System.c **** *  resources required for the BLE component. It also registers the callback 
 349:.\Generated_Source\PSoC4/BLE_System.c **** *  function for BLE events that will be registered in the BLE stack.
 350:.\Generated_Source\PSoC4/BLE_System.c **** * 
 351:.\Generated_Source\PSoC4/BLE_System.c **** *  Note that this function does not reset the BLE Stack.
 352:.\Generated_Source\PSoC4/BLE_System.c **** * 
 353:.\Generated_Source\PSoC4/BLE_System.c **** *  For HCI-Mode of operation, this function will not initialize the BLE Host 
 354:.\Generated_Source\PSoC4/BLE_System.c **** *  module.
 355:.\Generated_Source\PSoC4/BLE_System.c **** * 
 356:.\Generated_Source\PSoC4/BLE_System.c **** *  Calling this function results in the generation of CYBLE_EVT_STACK_ON event
 357:.\Generated_Source\PSoC4/BLE_System.c **** *  on successful initialization of the BLE Stack.
 358:.\Generated_Source\PSoC4/BLE_System.c **** * 
 359:.\Generated_Source\PSoC4/BLE_System.c **** *  \param callbackFunc: Event callback function to receive events from BLE stack.
 360:.\Generated_Source\PSoC4/BLE_System.c **** *   CYBLE_CALLBACK_T is a function pointer type.
 361:.\Generated_Source\PSoC4/BLE_System.c **** * 
 362:.\Generated_Source\PSoC4/BLE_System.c **** * \return
 363:.\Generated_Source\PSoC4/BLE_System.c **** *  CYBLE_API_RESULT_T : Return value indicates if the function succeeded or 
 364:.\Generated_Source\PSoC4/BLE_System.c **** *  failed. Following are the possible error codes.
 365:.\Generated_Source\PSoC4/BLE_System.c **** * 
 366:.\Generated_Source\PSoC4/BLE_System.c **** *   <table>
 367:.\Generated_Source\PSoC4/BLE_System.c **** *  	  <tr>
 368:.\Generated_Source\PSoC4/BLE_System.c **** *       <th>Error codes</th>
 369:.\Generated_Source\PSoC4/BLE_System.c **** *       <th>Description</th>
 370:.\Generated_Source\PSoC4/BLE_System.c **** *     </tr>
 371:.\Generated_Source\PSoC4/BLE_System.c **** *     <tr>
 372:.\Generated_Source\PSoC4/BLE_System.c **** *       <td>CYBLE_ERROR_OK</td>
 373:.\Generated_Source\PSoC4/BLE_System.c **** *       <td>On successful operation.</td>
 374:.\Generated_Source\PSoC4/BLE_System.c **** *     </tr>
 375:.\Generated_Source\PSoC4/BLE_System.c **** *     <tr>
ARM GAS  C:\Users\310295~1\AppData\Local\Temp\ccZIm937.s 			page 8


 376:.\Generated_Source\PSoC4/BLE_System.c **** *       <td>CYBLE_ERROR_INVALID_PARAMETER</td>
 377:.\Generated_Source\PSoC4/BLE_System.c **** *       <td>On passing a NULL pointer to the function when the BLE stack is not built in HCI mode. 
 378:.\Generated_Source\PSoC4/BLE_System.c **** *			CYBLE_ERROR_INVALID_PARAMETER is never returned in HCI mode.</td>
 379:.\Generated_Source\PSoC4/BLE_System.c **** *     </tr>
 380:.\Generated_Source\PSoC4/BLE_System.c **** *     <tr>
 381:.\Generated_Source\PSoC4/BLE_System.c **** *       <td>CYBLE_ERROR_REPEATED_ATTEMPTS</td>
 382:.\Generated_Source\PSoC4/BLE_System.c **** *       <td>On invoking this function more than once without calling CyBle_Shutdown() 
 383:.\Generated_Source\PSoC4/BLE_System.c **** *           function between calls to this function.</td>
 384:.\Generated_Source\PSoC4/BLE_System.c **** *     </tr>
 385:.\Generated_Source\PSoC4/BLE_System.c **** *     <tr>
 386:.\Generated_Source\PSoC4/BLE_System.c **** *       <td>CYBLE_ERROR_MEMORY_ALLOCATION_FAILED</td>
 387:.\Generated_Source\PSoC4/BLE_System.c **** *       <td>There is insufficient memory available.</td>
 388:.\Generated_Source\PSoC4/BLE_System.c **** *     </tr>
 389:.\Generated_Source\PSoC4/BLE_System.c **** *   </table>
 390:.\Generated_Source\PSoC4/BLE_System.c **** * 
 391:.\Generated_Source\PSoC4/BLE_System.c **** *  \globalvars
 392:.\Generated_Source\PSoC4/BLE_System.c **** *   The CyBle_initVar variable is used to indicate initial
 393:.\Generated_Source\PSoC4/BLE_System.c **** *   configuration of this component. The variable is initialized to zero (0u)
 394:.\Generated_Source\PSoC4/BLE_System.c **** *   and set to one (1u) the first time CyBle_Start() is called. This
 395:.\Generated_Source\PSoC4/BLE_System.c **** *   allows for component initialization without re-initialization in all
 396:.\Generated_Source\PSoC4/BLE_System.c **** *   subsequent calls to the CyBle_Start() routine.
 397:.\Generated_Source\PSoC4/BLE_System.c **** * 
 398:.\Generated_Source\PSoC4/BLE_System.c **** ******************************************************************************/
 399:.\Generated_Source\PSoC4/BLE_System.c **** CYBLE_API_RESULT_T CyBle_Start(CYBLE_CALLBACK_T callbackFunc)
 400:.\Generated_Source\PSoC4/BLE_System.c **** {
 401:.\Generated_Source\PSoC4/BLE_System.c ****     CYBLE_API_RESULT_T apiResult = CYBLE_ERROR_OK;
 402:.\Generated_Source\PSoC4/BLE_System.c ****     
 403:.\Generated_Source\PSoC4/BLE_System.c ****     #if(CYBLE_MODE_PROFILE)
 404:.\Generated_Source\PSoC4/BLE_System.c ****     
 405:.\Generated_Source\PSoC4/BLE_System.c ****     CYBLE_STK_APP_DATA_BUFF_T cyBle_stackDataBuff[CYBLE_STACK_APP_MIN_POOL] = 
 406:.\Generated_Source\PSoC4/BLE_System.c ****     {
 407:.\Generated_Source\PSoC4/BLE_System.c ****         {CYBLE_GATT_MTU_PLUS_L2CAP_MEM_EXT, CYBLE_GATT_MTU_BUFF_COUNT + CYBLE_GATT_MAX_ATTR_BUFF_CO
 408:.\Generated_Source\PSoC4/BLE_System.c ****         {CYBLE_L2CAP_PSM_PLUS_L2CAP_MEM_EXT, CYBLE_L2CAP_PSM_COUNT},
 409:.\Generated_Source\PSoC4/BLE_System.c ****         {CYBLE_L2CAP_CBFC_PLUS_L2CAP_MEM_EXT, 2u * CYBLE_L2CAP_LOGICAL_CHANNEL_COUNT},
 410:.\Generated_Source\PSoC4/BLE_System.c ****         {CYBLE_L2CAP_MTU_PLUS_L2CAP_MEM_EXT, CYBLE_L2CAP_LOGICAL_CHANNEL_COUNT},
 411:.\Generated_Source\PSoC4/BLE_System.c ****         {CYBLE_L2CAP_MPS_PLUS_L2CAP_MEM_EXT, CYBLE_L2CAP_LOGICAL_CHANNEL_COUNT * (CYBLE_L2CAP_MTU_M
 412:.\Generated_Source\PSoC4/BLE_System.c ****     }; 
 413:.\Generated_Source\PSoC4/BLE_System.c **** 
 414:.\Generated_Source\PSoC4/BLE_System.c ****     #endif /* CYBLE_MODE_PROFILE */
 415:.\Generated_Source\PSoC4/BLE_System.c ****     
 416:.\Generated_Source\PSoC4/BLE_System.c ****     /* If not initialized then initialize all the required hardware and software */
 417:.\Generated_Source\PSoC4/BLE_System.c ****     if(cyBle_initVar == 0u)
 418:.\Generated_Source\PSoC4/BLE_System.c ****     {
 419:.\Generated_Source\PSoC4/BLE_System.c ****         CyBle_Init();
 420:.\Generated_Source\PSoC4/BLE_System.c ****         cyBle_initVar = 1u;
 421:.\Generated_Source\PSoC4/BLE_System.c ****     }
 422:.\Generated_Source\PSoC4/BLE_System.c ****     
 423:.\Generated_Source\PSoC4/BLE_System.c ****     if(callbackFunc != NULL)
 424:.\Generated_Source\PSoC4/BLE_System.c ****     {
 425:.\Generated_Source\PSoC4/BLE_System.c ****         CyBle_ApplCallback = callbackFunc;
 426:.\Generated_Source\PSoC4/BLE_System.c ****         
 427:.\Generated_Source\PSoC4/BLE_System.c ****     #if(CYBLE_SHARING_MODE_EXPORT)
 428:.\Generated_Source\PSoC4/BLE_System.c ****         if(cyBle_stackMemoryRam == NULL)
 429:.\Generated_Source\PSoC4/BLE_System.c ****         {
 430:.\Generated_Source\PSoC4/BLE_System.c ****             cyBle_stackMemoryRam = (uint8 *)malloc(CYBLE_STACK_RAM_SIZE);
 431:.\Generated_Source\PSoC4/BLE_System.c ****             if(cyBle_stackMemoryRam == NULL)
 432:.\Generated_Source\PSoC4/BLE_System.c ****             {
ARM GAS  C:\Users\310295~1\AppData\Local\Temp\ccZIm937.s 			page 9


 433:.\Generated_Source\PSoC4/BLE_System.c ****                 apiResult = CYBLE_ERROR_MEMORY_ALLOCATION_FAILED;
 434:.\Generated_Source\PSoC4/BLE_System.c ****             }
 435:.\Generated_Source\PSoC4/BLE_System.c ****         }
 436:.\Generated_Source\PSoC4/BLE_System.c ****     #endif /* CYBLE_SHARING_MODE_EXPORT */
 437:.\Generated_Source\PSoC4/BLE_System.c ****         if(apiResult == CYBLE_ERROR_OK)
 438:.\Generated_Source\PSoC4/BLE_System.c ****         {
 439:.\Generated_Source\PSoC4/BLE_System.c ****             CYBLE_DLE_CONFIG_PARAM_T dleConfigParams;
 440:.\Generated_Source\PSoC4/BLE_System.c ****             CYBLE_PRIVACY_1_2_CONFIG_PARAM_T privacyConfigParams;
 441:.\Generated_Source\PSoC4/BLE_System.c ****             CYBLE_STACK_CONFIG_PARAM_T stackConfig;
 442:.\Generated_Source\PSoC4/BLE_System.c ****             uint16 featureHeapReq;
 443:.\Generated_Source\PSoC4/BLE_System.c ****             
 444:.\Generated_Source\PSoC4/BLE_System.c ****             stackConfig.privacyConfig = &privacyConfigParams;
 445:.\Generated_Source\PSoC4/BLE_System.c ****             stackConfig.dleConfig = &dleConfigParams;
 446:.\Generated_Source\PSoC4/BLE_System.c ****             
 447:.\Generated_Source\PSoC4/BLE_System.c ****             /* Configure default BLE 4.1 features and enabled 4.2 features */
 448:.\Generated_Source\PSoC4/BLE_System.c ****             stackConfig.feature_mask = CYBLE_DLE_FEATURE | CYBLE_LL_PRIVACY_FEATURE | 
 449:.\Generated_Source\PSoC4/BLE_System.c ****                                        CYBLE_SECURE_CONN_FEATURE;
 450:.\Generated_Source\PSoC4/BLE_System.c **** 
 451:.\Generated_Source\PSoC4/BLE_System.c ****             /* Configure DLE */
 452:.\Generated_Source\PSoC4/BLE_System.c ****             dleConfigParams.dleMaxTxCapability = CYBLE_LL_MAX_TX_PAYLOAD_SIZE;
 453:.\Generated_Source\PSoC4/BLE_System.c ****             dleConfigParams.dleMaxRxCapability = CYBLE_LL_MAX_RX_PAYLOAD_SIZE;
 454:.\Generated_Source\PSoC4/BLE_System.c ****             dleConfigParams.dleNumTxBuffer = CYBLE_LL_DEFAULT_NUM_ACL_TX_PACKETS;
 455:.\Generated_Source\PSoC4/BLE_System.c ****         #if(CYBLE_DLE_FEATURE_ENABLED)
 456:.\Generated_Source\PSoC4/BLE_System.c ****             CyBle_EnableDleFeature();              /* Enable DLE code in stack */
 457:.\Generated_Source\PSoC4/BLE_System.c ****         #endif /* CYBLE_DLE_FEATURE_ENABLED */
 458:.\Generated_Source\PSoC4/BLE_System.c ****         
 459:.\Generated_Source\PSoC4/BLE_System.c ****             /* Configure LL Privacy */
 460:.\Generated_Source\PSoC4/BLE_System.c ****             privacyConfigParams.resolvingListSize = CYBLE_MAX_RESOLVABLE_DEVICES;
 461:.\Generated_Source\PSoC4/BLE_System.c ****         #if(CYBLE_LL_PRIVACY_FEATURE_ENABLED)
 462:.\Generated_Source\PSoC4/BLE_System.c ****             CyBle_EnablePrivacyFeature();          /* Enable LL Privacy code in stack */
 463:.\Generated_Source\PSoC4/BLE_System.c ****         #endif /* CYBLE_LL_PRIVACY_FEATURE_ENABLED */
 464:.\Generated_Source\PSoC4/BLE_System.c **** 
 465:.\Generated_Source\PSoC4/BLE_System.c ****             apiResult = CyBle_StackSetFeatureConfig(&stackConfig, &featureHeapReq);
 466:.\Generated_Source\PSoC4/BLE_System.c ****             }
 467:.\Generated_Source\PSoC4/BLE_System.c ****     
 468:.\Generated_Source\PSoC4/BLE_System.c ****         if(apiResult == CYBLE_ERROR_OK)
 469:.\Generated_Source\PSoC4/BLE_System.c ****         {
 470:.\Generated_Source\PSoC4/BLE_System.c ****             
 471:.\Generated_Source\PSoC4/BLE_System.c ****         #if(CYBLE_MODE_PROFILE)
 472:.\Generated_Source\PSoC4/BLE_System.c ****             #if(CYBLE_BONDING_REQUIREMENT == CYBLE_BONDING_YES)
 473:.\Generated_Source\PSoC4/BLE_System.c ****                 apiResult = CyBle_StackInit(&CyBle_EventHandler, cyBle_stackMemoryRam, 
 474:.\Generated_Source\PSoC4/BLE_System.c ****                     CYBLE_STACK_RAM_SIZE - CYBLE_GATT_PREPARE_WRITE_BUFF_LEN, cyBle_stackDataBuff, 
 475:.\Generated_Source\PSoC4/BLE_System.c ****                     CYBLE_STACK_APP_MIN_POOL, cyBle_flashStorage.stackFlashptr, CYBLE_STACK_FLASH_S
 476:.\Generated_Source\PSoC4/BLE_System.c ****             #else
 477:.\Generated_Source\PSoC4/BLE_System.c ****                 apiResult = CyBle_StackInit(&CyBle_EventHandler, cyBle_stackMemoryRam, 
 478:.\Generated_Source\PSoC4/BLE_System.c ****                     CYBLE_STACK_RAM_SIZE - CYBLE_GATT_PREPARE_WRITE_BUFF_LEN, cyBle_stackDataBuff, 
 479:.\Generated_Source\PSoC4/BLE_System.c ****                     CYBLE_STACK_APP_MIN_POOL, NULL, 0u);
 480:.\Generated_Source\PSoC4/BLE_System.c ****             #endif  /* CYBLE_BONDING_REQUIREMENT == CYBLE_BONDING_YES */
 481:.\Generated_Source\PSoC4/BLE_System.c ****         #else
 482:.\Generated_Source\PSoC4/BLE_System.c ****             apiResult = CyBle_StackInit(&CyBle_EventHandler, cyBle_stackMemoryRam, CYBLE_STACK_RAM_
 483:.\Generated_Source\PSoC4/BLE_System.c ****                 NULL, 0u, NULL, 0u);
 484:.\Generated_Source\PSoC4/BLE_System.c ****         #endif /* CYBLE_MODE_PROFILE */
 485:.\Generated_Source\PSoC4/BLE_System.c **** 
 486:.\Generated_Source\PSoC4/BLE_System.c ****             if(apiResult == CYBLE_ERROR_OK)
 487:.\Generated_Source\PSoC4/BLE_System.c ****             {
 488:.\Generated_Source\PSoC4/BLE_System.c ****                 CyBle_SetState(CYBLE_STATE_INITIALIZING);
 489:.\Generated_Source\PSoC4/BLE_System.c ****                 
ARM GAS  C:\Users\310295~1\AppData\Local\Temp\ccZIm937.s 			page 10


 490:.\Generated_Source\PSoC4/BLE_System.c ****             #if (CYBLE_GATT_ROLE_CLIENT)
 491:.\Generated_Source\PSoC4/BLE_System.c ****                 CyBle_SetClientState(CYBLE_CLIENT_STATE_DISCONNECTED);
 492:.\Generated_Source\PSoC4/BLE_System.c ****             #endif /* CYBLE_GATT_ROLE_CLIENT */
 493:.\Generated_Source\PSoC4/BLE_System.c ****                 
 494:.\Generated_Source\PSoC4/BLE_System.c ****             #if(CYBLE_GATT_ROLE_SERVER)
 495:.\Generated_Source\PSoC4/BLE_System.c ****                 apiResult = CyBle_GattsDbRegister(cyBle_gattDB, CYBLE_GATT_DB_INDEX_COUNT, CYBLE_GA
 496:.\Generated_Source\PSoC4/BLE_System.c ****             #endif /* CYBLE_GATT_ROLE_SERVER */
 497:.\Generated_Source\PSoC4/BLE_System.c ****             }
 498:.\Generated_Source\PSoC4/BLE_System.c ****         }
 499:.\Generated_Source\PSoC4/BLE_System.c ****     }
 500:.\Generated_Source\PSoC4/BLE_System.c ****     else
 501:.\Generated_Source\PSoC4/BLE_System.c ****     {
 502:.\Generated_Source\PSoC4/BLE_System.c ****         apiResult = CYBLE_ERROR_INVALID_PARAMETER;
 503:.\Generated_Source\PSoC4/BLE_System.c ****     }
 504:.\Generated_Source\PSoC4/BLE_System.c **** 
 505:.\Generated_Source\PSoC4/BLE_System.c ****     return (apiResult);
 506:.\Generated_Source\PSoC4/BLE_System.c **** }
 507:.\Generated_Source\PSoC4/BLE_System.c **** 
 508:.\Generated_Source\PSoC4/BLE_System.c **** 
 509:.\Generated_Source\PSoC4/BLE_System.c **** /******************************************************************************
 510:.\Generated_Source\PSoC4/BLE_System.c **** * Function Name: CyBle_Stop
 511:.\Generated_Source\PSoC4/BLE_System.c **** ***************************************************************************//**
 512:.\Generated_Source\PSoC4/BLE_System.c **** * 
 513:.\Generated_Source\PSoC4/BLE_System.c **** *  This function stops any ongoing operation in the BLE Stack and forces the 
 514:.\Generated_Source\PSoC4/BLE_System.c **** *  BLE Stack to shut down. The only function that can be called after calling
 515:.\Generated_Source\PSoC4/BLE_System.c **** *  this function is CyBle_Start(). 
 516:.\Generated_Source\PSoC4/BLE_System.c **** * 
 517:.\Generated_Source\PSoC4/BLE_System.c **** * \return
 518:.\Generated_Source\PSoC4/BLE_System.c **** *  None
 519:.\Generated_Source\PSoC4/BLE_System.c **** * 
 520:.\Generated_Source\PSoC4/BLE_System.c **** ******************************************************************************/
 521:.\Generated_Source\PSoC4/BLE_System.c **** void CyBle_Stop(void)
 522:.\Generated_Source\PSoC4/BLE_System.c **** {
 523:.\Generated_Source\PSoC4/BLE_System.c ****     CyBle_Shutdown();                         /* Stop all ongoing activities */
 524:.\Generated_Source\PSoC4/BLE_System.c ****     CyBle_SetState(CYBLE_STATE_STOPPED);
 525:.\Generated_Source\PSoC4/BLE_System.c ****     #if(CYBLE_SHARING_MODE_EXPORT)
 526:.\Generated_Source\PSoC4/BLE_System.c ****         if(cyBle_stackMemoryRam != NULL)
 527:.\Generated_Source\PSoC4/BLE_System.c ****         {
 528:.\Generated_Source\PSoC4/BLE_System.c ****             free(cyBle_stackMemoryRam);
 529:.\Generated_Source\PSoC4/BLE_System.c ****         }
 530:.\Generated_Source\PSoC4/BLE_System.c ****     #endif /* CYBLE_SHARING_MODE_EXPORT */
 531:.\Generated_Source\PSoC4/BLE_System.c **** }
 532:.\Generated_Source\PSoC4/BLE_System.c **** 
 533:.\Generated_Source\PSoC4/BLE_System.c **** 
 534:.\Generated_Source\PSoC4/BLE_System.c **** #if((CYBLE_GAP_ROLE_PERIPHERAL || CYBLE_GAP_ROLE_CENTRAL) && (CYBLE_BONDING_REQUIREMENT == CYBLE_BO
 535:.\Generated_Source\PSoC4/BLE_System.c **** 
 536:.\Generated_Source\PSoC4/BLE_System.c ****     
 537:.\Generated_Source\PSoC4/BLE_System.c **** /******************************************************************************
 538:.\Generated_Source\PSoC4/BLE_System.c **** * Function Name: CyBle_StoreBondingData
 539:.\Generated_Source\PSoC4/BLE_System.c **** ***************************************************************************//**
 540:.\Generated_Source\PSoC4/BLE_System.c **** * 
 541:.\Generated_Source\PSoC4/BLE_System.c **** *  This function writes the new bonding data from RAM to the dedicated Flash 
 542:.\Generated_Source\PSoC4/BLE_System.c **** *  location as defined by the component. It performs data comparing between RAM
 543:.\Generated_Source\PSoC4/BLE_System.c **** *  and Flash before writing to Flash. If there is no change between RAM and Flash
 544:.\Generated_Source\PSoC4/BLE_System.c **** *  data, then no write is performed. It writes only one flash row in one call.
 545:.\Generated_Source\PSoC4/BLE_System.c **** *  Application should keep calling this function till API return CYBLE_ERROR_OK. 
 546:.\Generated_Source\PSoC4/BLE_System.c **** *  This function is available only when Bonding requirement is selected in
ARM GAS  C:\Users\310295~1\AppData\Local\Temp\ccZIm937.s 			page 11


 547:.\Generated_Source\PSoC4/BLE_System.c **** *  Security settings.    
 548:.\Generated_Source\PSoC4/BLE_System.c **** * 
 549:.\Generated_Source\PSoC4/BLE_System.c **** *  \param isForceWrite:  If value is set to 0, then stack will check if flash write 
 550:.\Generated_Source\PSoC4/BLE_System.c **** *                 is permissible. 
 551:.\Generated_Source\PSoC4/BLE_System.c **** *  
 552:.\Generated_Source\PSoC4/BLE_System.c **** * \return
 553:.\Generated_Source\PSoC4/BLE_System.c **** *  Return value is of type CYBLE_API_RESULT_T.
 554:.\Generated_Source\PSoC4/BLE_System.c **** *
 555:.\Generated_Source\PSoC4/BLE_System.c **** *   Errors codes                         | Description
 556:.\Generated_Source\PSoC4/BLE_System.c **** *   ----------------------------------   | ------------------------------------
 557:.\Generated_Source\PSoC4/BLE_System.c **** *   CYBLE_ERROR_OK                       | On successful operation
 558:.\Generated_Source\PSoC4/BLE_System.c **** *   CYBLE_ERROR_FLASH_WRITE_NOT_PERMITED | Flash Write is not complete
 559:.\Generated_Source\PSoC4/BLE_System.c **** *    
 560:.\Generated_Source\PSoC4/BLE_System.c **** *  \sideeffect
 561:.\Generated_Source\PSoC4/BLE_System.c **** *   For BLE devices with 128K of Flash memory this API will automatically 
 562:.\Generated_Source\PSoC4/BLE_System.c **** *   modify the clock settings for the device.
 563:.\Generated_Source\PSoC4/BLE_System.c **** *   Writing to flash requires changes to be done to the IMO (set to 48 MHz)
 564:.\Generated_Source\PSoC4/BLE_System.c **** *   and HFCLK (source set to IMO) settings. The configuration is restored before
 565:.\Generated_Source\PSoC4/BLE_System.c **** *   returning. This will impact the operation of most of the hardware in the
 566:.\Generated_Source\PSoC4/BLE_System.c **** *   device.
 567:.\Generated_Source\PSoC4/BLE_System.c **** * 
 568:.\Generated_Source\PSoC4/BLE_System.c **** *  \globalvars
 569:.\Generated_Source\PSoC4/BLE_System.c **** *   The cyBle_pendingFlashWrite variable is used to detect status
 570:.\Generated_Source\PSoC4/BLE_System.c **** *   of pending write to flash operation for stack data and CCCD.
 571:.\Generated_Source\PSoC4/BLE_System.c **** *   This API automatically clears pending bits after write operation complete.
 572:.\Generated_Source\PSoC4/BLE_System.c **** *     
 573:.\Generated_Source\PSoC4/BLE_System.c **** ******************************************************************************/
 574:.\Generated_Source\PSoC4/BLE_System.c **** CYBLE_API_RESULT_T CyBle_StoreBondingData(uint8 isForceWrite)
 575:.\Generated_Source\PSoC4/BLE_System.c **** {
 576:.\Generated_Source\PSoC4/BLE_System.c ****     CYBLE_API_RESULT_T apiResult = CYBLE_ERROR_OK;
 577:.\Generated_Source\PSoC4/BLE_System.c ****     
 578:.\Generated_Source\PSoC4/BLE_System.c ****     /* Store Stack data */
 579:.\Generated_Source\PSoC4/BLE_System.c ****     if((cyBle_pendingFlashWrite & CYBLE_PENDING_STACK_FLASH_WRITE_BIT) != 0u)
 580:.\Generated_Source\PSoC4/BLE_System.c ****     {
 581:.\Generated_Source\PSoC4/BLE_System.c ****         apiResult = CyBle_StoreStackData(isForceWrite);
 582:.\Generated_Source\PSoC4/BLE_System.c ****         if(apiResult == CYBLE_ERROR_OK)
 583:.\Generated_Source\PSoC4/BLE_System.c ****         {
 584:.\Generated_Source\PSoC4/BLE_System.c ****             cyBle_pendingFlashWrite &= (uint8)~CYBLE_PENDING_STACK_FLASH_WRITE_BIT;
 585:.\Generated_Source\PSoC4/BLE_System.c ****             /* Change apiResult if there are more pending data to store */
 586:.\Generated_Source\PSoC4/BLE_System.c ****             if((cyBle_pendingFlashWrite & CYBLE_PENDING_CCCD_FLASH_WRITE_BIT) != 0u)
 587:.\Generated_Source\PSoC4/BLE_System.c ****             {
 588:.\Generated_Source\PSoC4/BLE_System.c ****                 apiResult = CYBLE_ERROR_FLASH_WRITE_NOT_PERMITED;
 589:.\Generated_Source\PSoC4/BLE_System.c ****             }
 590:.\Generated_Source\PSoC4/BLE_System.c ****         }
 591:.\Generated_Source\PSoC4/BLE_System.c ****     }
 592:.\Generated_Source\PSoC4/BLE_System.c **** #if(CYBLE_GATT_DB_CCCD_COUNT != 0u)
 593:.\Generated_Source\PSoC4/BLE_System.c ****     /* Store CCCD values */
 594:.\Generated_Source\PSoC4/BLE_System.c ****     if( ((apiResult == CYBLE_ERROR_OK) || (isForceWrite != 0u)) && 
 595:.\Generated_Source\PSoC4/BLE_System.c ****         ((cyBle_pendingFlashWrite & CYBLE_PENDING_CCCD_FLASH_WRITE_BIT) != 0u) &&
 596:.\Generated_Source\PSoC4/BLE_System.c ****         (cyBle_connHandle.bdHandle <= CYBLE_GAP_MAX_BONDED_DEVICE))
 597:.\Generated_Source\PSoC4/BLE_System.c ****     {
 598:.\Generated_Source\PSoC4/BLE_System.c ****         apiResult = CyBle_StoreAppData(cyBle_attValuesCCCD, cyBle_flashStorage.attValuesCCCDFlashMe
 599:.\Generated_Source\PSoC4/BLE_System.c ****                         cyBle_connHandle.bdHandle], CYBLE_GATT_DB_CCCD_COUNT, isForceWrite);
 600:.\Generated_Source\PSoC4/BLE_System.c ****         if(apiResult == CYBLE_ERROR_OK)
 601:.\Generated_Source\PSoC4/BLE_System.c ****         {
 602:.\Generated_Source\PSoC4/BLE_System.c ****             cyBle_pendingFlashWrite &= (uint8)~CYBLE_PENDING_CCCD_FLASH_WRITE_BIT;
 603:.\Generated_Source\PSoC4/BLE_System.c ****         }
ARM GAS  C:\Users\310295~1\AppData\Local\Temp\ccZIm937.s 			page 12


 604:.\Generated_Source\PSoC4/BLE_System.c ****     }
 605:.\Generated_Source\PSoC4/BLE_System.c ****     /* Clear requested CCCD values */
 606:.\Generated_Source\PSoC4/BLE_System.c ****     if( ((apiResult == CYBLE_ERROR_OK) || (isForceWrite != 0u)) && 
 607:.\Generated_Source\PSoC4/BLE_System.c ****         ((cyBle_pendingFlashWrite & CYBLE_PENDING_CCCD_FLASH_CLEAR_MASK) != 0u) )
 608:.\Generated_Source\PSoC4/BLE_System.c ****     {
 609:.\Generated_Source\PSoC4/BLE_System.c ****         if((cyBle_pendingFlashWrite & CYBLE_PENDING_CCCD_FLASH_CLEAR_ALL_BIT) != 0u)
 610:.\Generated_Source\PSoC4/BLE_System.c ****         {
 611:.\Generated_Source\PSoC4/BLE_System.c ****             /* Remove cccd values for all bonded devices */
 612:.\Generated_Source\PSoC4/BLE_System.c ****             uint8 defaultValuesCCCD[CYBLE_GAP_MAX_BONDED_DEVICE + 1u][CYBLE_GATT_DB_CCCD_COUNT];
 613:.\Generated_Source\PSoC4/BLE_System.c ****             
 614:.\Generated_Source\PSoC4/BLE_System.c ****             (void)memset(defaultValuesCCCD, 0, sizeof(defaultValuesCCCD));
 615:.\Generated_Source\PSoC4/BLE_System.c **** 
 616:.\Generated_Source\PSoC4/BLE_System.c ****             apiResult = CyBle_StoreAppData((uint8 *)defaultValuesCCCD, 
 617:.\Generated_Source\PSoC4/BLE_System.c ****                 (const uint8 *)cyBle_flashStorage.attValuesCCCDFlashMemory, sizeof(defaultValuesCCC
 618:.\Generated_Source\PSoC4/BLE_System.c ****             if(apiResult == CYBLE_ERROR_OK)
 619:.\Generated_Source\PSoC4/BLE_System.c ****             {
 620:.\Generated_Source\PSoC4/BLE_System.c ****                 cyBle_pendingFlashWrite &= (uint8)~CYBLE_PENDING_CCCD_FLASH_CLEAR_ALL_BIT;
 621:.\Generated_Source\PSoC4/BLE_System.c ****             }
 622:.\Generated_Source\PSoC4/BLE_System.c ****         }
 623:.\Generated_Source\PSoC4/BLE_System.c ****         else /* Remove cccd values for particular device */
 624:.\Generated_Source\PSoC4/BLE_System.c ****         {
 625:.\Generated_Source\PSoC4/BLE_System.c ****             uint8 defaultValuesCCCD[CYBLE_GATT_DB_CCCD_COUNT] = {0u};
 626:.\Generated_Source\PSoC4/BLE_System.c ****             
 627:.\Generated_Source\PSoC4/BLE_System.c ****             apiResult = CyBle_StoreAppData(defaultValuesCCCD, cyBle_flashStorage.attValuesCCCDFlash
 628:.\Generated_Source\PSoC4/BLE_System.c ****                                     cyBle_pendingFlashClearCccdHandle], CYBLE_GATT_DB_CCCD_COUNT, i
 629:.\Generated_Source\PSoC4/BLE_System.c ****             if(apiResult == CYBLE_ERROR_OK)
 630:.\Generated_Source\PSoC4/BLE_System.c ****             {
 631:.\Generated_Source\PSoC4/BLE_System.c ****                 cyBle_pendingFlashWrite &= (uint8)~CYBLE_PENDING_CCCD_FLASH_CLEAR_BIT;
 632:.\Generated_Source\PSoC4/BLE_System.c ****             }
 633:.\Generated_Source\PSoC4/BLE_System.c ****         }
 634:.\Generated_Source\PSoC4/BLE_System.c ****     }
 635:.\Generated_Source\PSoC4/BLE_System.c **** #endif /* CYBLE_GATT_DB_CCCD_COUNT != 0u */
 636:.\Generated_Source\PSoC4/BLE_System.c ****     return(apiResult);
 637:.\Generated_Source\PSoC4/BLE_System.c **** }
 638:.\Generated_Source\PSoC4/BLE_System.c **** 
 639:.\Generated_Source\PSoC4/BLE_System.c **** 
 640:.\Generated_Source\PSoC4/BLE_System.c **** /******************************************************************************
 641:.\Generated_Source\PSoC4/BLE_System.c **** * Function Name: CyBle_GapRemoveBondedDevice
 642:.\Generated_Source\PSoC4/BLE_System.c **** ***************************************************************************//**
 643:.\Generated_Source\PSoC4/BLE_System.c **** * 
 644:.\Generated_Source\PSoC4/BLE_System.c **** *  This function marks the device untrusted. It removes the bonding information
 645:.\Generated_Source\PSoC4/BLE_System.c **** *  of the device including CCCD values. This function removes device from the
 646:.\Generated_Source\PSoC4/BLE_System.c **** *  white list also when autopopulate white list with bonded devices option is
 647:.\Generated_Source\PSoC4/BLE_System.c **** *  enabled.
 648:.\Generated_Source\PSoC4/BLE_System.c **** * 
 649:.\Generated_Source\PSoC4/BLE_System.c **** *  This function is available only when Bonding requirement is selected in
 650:.\Generated_Source\PSoC4/BLE_System.c **** *  Security settings.    
 651:.\Generated_Source\PSoC4/BLE_System.c **** *
 652:.\Generated_Source\PSoC4/BLE_System.c **** *  \param bdAddr: Pointer to peer device address, of type CYBLE_GAP_BD_ADDR_T.
 653:.\Generated_Source\PSoC4/BLE_System.c **** *                 If device address is set to 0, then all devices shall be
 654:.\Generated_Source\PSoC4/BLE_System.c **** *                 removed from trusted list and white list.
 655:.\Generated_Source\PSoC4/BLE_System.c **** *
 656:.\Generated_Source\PSoC4/BLE_System.c **** * \return
 657:.\Generated_Source\PSoC4/BLE_System.c **** *  CYBLE_API_RESULT_T : Return value indicates if the function succeeded or
 658:.\Generated_Source\PSoC4/BLE_System.c **** *  failed. Following are the possible error codes.
 659:.\Generated_Source\PSoC4/BLE_System.c **** *
 660:.\Generated_Source\PSoC4/BLE_System.c **** *   Errors codes                     | Description
ARM GAS  C:\Users\310295~1\AppData\Local\Temp\ccZIm937.s 			page 13


 661:.\Generated_Source\PSoC4/BLE_System.c **** *   ---------------------------------| ------------------------------------
 662:.\Generated_Source\PSoC4/BLE_System.c **** *   CYBLE_ERROR_OK                   | On successful operation.
 663:.\Generated_Source\PSoC4/BLE_System.c **** *   CYBLE_ERROR_INVALID_PARAMETER    | On specifying NULL as input parameter for 'bdAddr'.
 664:.\Generated_Source\PSoC4/BLE_System.c **** *   CYBLE_ERROR_INVALID_OPERATION    | Whitelist is already in use or there is pending write to fla
 665:.\Generated_Source\PSoC4/BLE_System.c **** *   CYBLE_ERROR_NO_DEVICE_ENTITY     | Device does not exist in the bond list.
 666:.\Generated_Source\PSoC4/BLE_System.c **** *
 667:.\Generated_Source\PSoC4/BLE_System.c **** *  \globalvars
 668:.\Generated_Source\PSoC4/BLE_System.c **** *   The bdHandle is set in cyBle_pendingFlashWrite variable to indicate that
 669:.\Generated_Source\PSoC4/BLE_System.c **** *   data should be stored to flash by CyBle_StoreBondingData afterwards. 
 670:.\Generated_Source\PSoC4/BLE_System.c **** *     
 671:.\Generated_Source\PSoC4/BLE_System.c **** ******************************************************************************/
 672:.\Generated_Source\PSoC4/BLE_System.c **** CYBLE_API_RESULT_T CyBle_GapRemoveBondedDevice(CYBLE_GAP_BD_ADDR_T* bdAddr)
 673:.\Generated_Source\PSoC4/BLE_System.c **** {
 674:.\Generated_Source\PSoC4/BLE_System.c ****     CYBLE_API_RESULT_T apiResult = CYBLE_ERROR_OK;
 675:.\Generated_Source\PSoC4/BLE_System.c ****     
 676:.\Generated_Source\PSoC4/BLE_System.c ****     if(cyBle_pendingFlashWrite == 0u)
 677:.\Generated_Source\PSoC4/BLE_System.c ****     {
 678:.\Generated_Source\PSoC4/BLE_System.c ****         
 679:.\Generated_Source\PSoC4/BLE_System.c ****     #if(CYBLE_GATT_DB_CCCD_COUNT != 0u)
 680:.\Generated_Source\PSoC4/BLE_System.c ****         /* Request to clear CCCD values which will be done by CyBle_StoreBondingData API */
 681:.\Generated_Source\PSoC4/BLE_System.c ****         uint8 bDevHandle;
 682:.\Generated_Source\PSoC4/BLE_System.c ****         CYBLE_GAP_BD_ADDR_T invalidBdAddr = {{0u,0u,0u,0u,0u,0u}, 0u};
 683:.\Generated_Source\PSoC4/BLE_System.c **** 
 684:.\Generated_Source\PSoC4/BLE_System.c ****         if(memcmp(((uint8 *) &(bdAddr->bdAddr)), ((uint8 *) &(invalidBdAddr.bdAddr)), CYBLE_GAP_BD_
 685:.\Generated_Source\PSoC4/BLE_System.c **** 	    {
 686:.\Generated_Source\PSoC4/BLE_System.c ****             /* Request to remove all bonded devices by cyBle_StoreBondingData API */
 687:.\Generated_Source\PSoC4/BLE_System.c ****             cyBle_pendingFlashWrite |= CYBLE_PENDING_CCCD_FLASH_CLEAR_ALL_BIT;
 688:.\Generated_Source\PSoC4/BLE_System.c ****         }
 689:.\Generated_Source\PSoC4/BLE_System.c ****         else
 690:.\Generated_Source\PSoC4/BLE_System.c ****         {
 691:.\Generated_Source\PSoC4/BLE_System.c ****             /* Get the BD handle from Address */
 692:.\Generated_Source\PSoC4/BLE_System.c ****             apiResult = CyBle_GapGetPeerBdHandle(&bDevHandle, bdAddr);
 693:.\Generated_Source\PSoC4/BLE_System.c ****             if(apiResult == CYBLE_ERROR_OK)
 694:.\Generated_Source\PSoC4/BLE_System.c ****             {
 695:.\Generated_Source\PSoC4/BLE_System.c ****                 /* Store BD handle to clear cccd values by CyBle_StoreBondingData API */
 696:.\Generated_Source\PSoC4/BLE_System.c ****                 cyBle_pendingFlashWrite |= CYBLE_PENDING_CCCD_FLASH_CLEAR_BIT;
 697:.\Generated_Source\PSoC4/BLE_System.c ****                 cyBle_pendingFlashClearCccdHandle = bDevHandle;
 698:.\Generated_Source\PSoC4/BLE_System.c ****             }
 699:.\Generated_Source\PSoC4/BLE_System.c ****         }
 700:.\Generated_Source\PSoC4/BLE_System.c ****         if(apiResult == CYBLE_ERROR_OK)
 701:.\Generated_Source\PSoC4/BLE_System.c ****         {
 702:.\Generated_Source\PSoC4/BLE_System.c ****             #if(CYBLE_AUTO_POPULATE_WHITELIST != 0u)
 703:.\Generated_Source\PSoC4/BLE_System.c ****                 apiResult = CyBle_GapRemoveDeviceFromWhiteList(bdAddr);
 704:.\Generated_Source\PSoC4/BLE_System.c ****             #else
 705:.\Generated_Source\PSoC4/BLE_System.c ****                 apiResult = CyBle_GapRemDeviceFromBondList(bdAddr);
 706:.\Generated_Source\PSoC4/BLE_System.c ****             #endif
 707:.\Generated_Source\PSoC4/BLE_System.c ****         }
 708:.\Generated_Source\PSoC4/BLE_System.c ****     #endif /* CYBLE_GATT_DB_CCCD_COUNT != 0u */
 709:.\Generated_Source\PSoC4/BLE_System.c ****     }
 710:.\Generated_Source\PSoC4/BLE_System.c ****     else
 711:.\Generated_Source\PSoC4/BLE_System.c ****     {
 712:.\Generated_Source\PSoC4/BLE_System.c ****         apiResult = CYBLE_ERROR_INVALID_OPERATION;
 713:.\Generated_Source\PSoC4/BLE_System.c ****     }
 714:.\Generated_Source\PSoC4/BLE_System.c ****     
 715:.\Generated_Source\PSoC4/BLE_System.c ****     return(apiResult);
 716:.\Generated_Source\PSoC4/BLE_System.c **** }
 717:.\Generated_Source\PSoC4/BLE_System.c **** 
ARM GAS  C:\Users\310295~1\AppData\Local\Temp\ccZIm937.s 			page 14


 718:.\Generated_Source\PSoC4/BLE_System.c **** 
 719:.\Generated_Source\PSoC4/BLE_System.c **** #endif /* (CYBLE_GAP_ROLE_PERIPHERAL || CYBLE_GAP_ROLE_CENTRAL) && (CYBLE_BONDING_REQUIREMENT == CY
 720:.\Generated_Source\PSoC4/BLE_System.c **** 
 721:.\Generated_Source\PSoC4/BLE_System.c **** 
 722:.\Generated_Source\PSoC4/BLE_System.c **** #if(CYBLE_GAP_ROLE_PERIPHERAL || CYBLE_GAP_ROLE_BROADCASTER)
 723:.\Generated_Source\PSoC4/BLE_System.c **** 
 724:.\Generated_Source\PSoC4/BLE_System.c ****     /******************************************************************************
 725:.\Generated_Source\PSoC4/BLE_System.c ****     *  Function Name: CyBle_GappStartAdvertisement
 726:.\Generated_Source\PSoC4/BLE_System.c ****     ***************************************************************************//**
 727:.\Generated_Source\PSoC4/BLE_System.c ****     *     
 728:.\Generated_Source\PSoC4/BLE_System.c ****     *  This function is used to start the advertisement using the advertisement data 
 729:.\Generated_Source\PSoC4/BLE_System.c ****     *  set in the component customizer's GUI. After invoking this API, the device 
 730:.\Generated_Source\PSoC4/BLE_System.c ****     *  will be available for connection by the devices configured for GAP central 
 731:.\Generated_Source\PSoC4/BLE_System.c ****     *  role. It is only included if the device is configured for GAP Peripheral or 
 732:.\Generated_Source\PSoC4/BLE_System.c ****     *  GAP Peripheral + Central role.
 733:.\Generated_Source\PSoC4/BLE_System.c ****     *  
 734:.\Generated_Source\PSoC4/BLE_System.c ****     *  On start of advertisement, GAP Peripheral receives the
 735:.\Generated_Source\PSoC4/BLE_System.c ****     *  CYBLE_EVT_GAPP_ADVERTISEMENT_START_STOP event. The following events are 
 736:.\Generated_Source\PSoC4/BLE_System.c ****     *  possible on invoking this function:
 737:.\Generated_Source\PSoC4/BLE_System.c ****     *  
 738:.\Generated_Source\PSoC4/BLE_System.c ****     *  * CYBLE_EVT_GAP_DEVICE_CONNECTED - If the device connects to a GAP Central and 
 739:.\Generated_Source\PSoC4/BLE_System.c ****     *    Link Layer Privacy is disabled in component customizer.
 740:.\Generated_Source\PSoC4/BLE_System.c ****     *  * CYBLE_EVT_GAP_ENHANCE_CONN_COMPLETE - If the device connects to a GAP Central and 
 741:.\Generated_Source\PSoC4/BLE_System.c ****     *    Link Layer Privacy is enabled in component customizer.
 742:.\Generated_Source\PSoC4/BLE_System.c ****     *  * CYBLE_EVT_TIMEOUT: If no device in GAP Central mode connects to this 
 743:.\Generated_Source\PSoC4/BLE_System.c ****     *                       device within the specified timeout limit. Stack 
 744:.\Generated_Source\PSoC4/BLE_System.c ****     *                       automatically initiate stop advertising when Slow 
 745:.\Generated_Source\PSoC4/BLE_System.c ****     *                       advertising was initiated, or starts Slow advertising
 746:.\Generated_Source\PSoC4/BLE_System.c ****     *                       after Fast advertising timeout occur.
 747:.\Generated_Source\PSoC4/BLE_System.c ****     *  * CYBLE_EVT_GAPP_ADVERTISEMENT_START_STOP: If device started or stopped
 748:.\Generated_Source\PSoC4/BLE_System.c ****     *                                               advertising. Use CyBle_GetState()
 749:.\Generated_Source\PSoC4/BLE_System.c ****     *                                               to determine the state. Sequential 
 750:.\Generated_Source\PSoC4/BLE_System.c ****     *                                               advertising could be started when
 751:.\Generated_Source\PSoC4/BLE_System.c ****     *                                               CYBLE_STATE_DISCONNECTED state is
 752:.\Generated_Source\PSoC4/BLE_System.c ****     *                                               returned.
 753:.\Generated_Source\PSoC4/BLE_System.c ****     * 
 754:.\Generated_Source\PSoC4/BLE_System.c ****     *  \param advertisingIntervalType: Fast or slow advertising interval with timings
 755:.\Generated_Source\PSoC4/BLE_System.c ****     *                                 entered in Advertising settings section of the
 756:.\Generated_Source\PSoC4/BLE_System.c ****     *                                 customizer.
 757:.\Generated_Source\PSoC4/BLE_System.c ****     *  * CYBLE_ADVERTISING_FAST   0x00u
 758:.\Generated_Source\PSoC4/BLE_System.c ****     *  * CYBLE_ADVERTISING_SLOW   0x01u
 759:.\Generated_Source\PSoC4/BLE_System.c ****     *  * CYBLE_ADVERTISING_CUSTOM 0x02u
 760:.\Generated_Source\PSoC4/BLE_System.c ****     * 
 761:.\Generated_Source\PSoC4/BLE_System.c ****     * \return
 762:.\Generated_Source\PSoC4/BLE_System.c ****     *  CYBLE_API_RESULT_T : Return value indicates if the function succeeded or
 763:.\Generated_Source\PSoC4/BLE_System.c ****     *  failed. Following are the possible error codes.
 764:.\Generated_Source\PSoC4/BLE_System.c ****     * 
 765:.\Generated_Source\PSoC4/BLE_System.c ****     *   Errors codes                      |  Description
 766:.\Generated_Source\PSoC4/BLE_System.c ****     *   --------------------------------- |  --------------------------------
 767:.\Generated_Source\PSoC4/BLE_System.c ****     *   CYBLE_ERROR_OK                    |  On successful operation.
 768:.\Generated_Source\PSoC4/BLE_System.c ****     *   CYBLE_ERROR_INVALID_PARAMETER     |  On passing an invalid parameter.
 769:.\Generated_Source\PSoC4/BLE_System.c ****     *   CYBLE_ERROR_INVALID_STATE         |  On calling this API not in Disconnected state.
 770:.\Generated_Source\PSoC4/BLE_System.c ****     *
 771:.\Generated_Source\PSoC4/BLE_System.c ****     * 
 772:.\Generated_Source\PSoC4/BLE_System.c ****     *******************************************************************************/
 773:.\Generated_Source\PSoC4/BLE_System.c ****     CYBLE_API_RESULT_T CyBle_GappStartAdvertisement(uint8 advertisingIntervalType)
 774:.\Generated_Source\PSoC4/BLE_System.c ****     {
ARM GAS  C:\Users\310295~1\AppData\Local\Temp\ccZIm937.s 			page 15


 775:.\Generated_Source\PSoC4/BLE_System.c ****         CYBLE_API_RESULT_T apiResult;
 776:.\Generated_Source\PSoC4/BLE_System.c ****         
 777:.\Generated_Source\PSoC4/BLE_System.c ****         if(advertisingIntervalType > CYBLE_ADVERTISING_CUSTOM)
 778:.\Generated_Source\PSoC4/BLE_System.c ****         {
 779:.\Generated_Source\PSoC4/BLE_System.c ****             apiResult = CYBLE_ERROR_INVALID_PARAMETER;
 780:.\Generated_Source\PSoC4/BLE_System.c ****         }
 781:.\Generated_Source\PSoC4/BLE_System.c ****         else if((CYBLE_STATE_DISCONNECTED == CyBle_GetState()) && ((cyBle_eventHandlerFlag & CYBLE_
 782:.\Generated_Source\PSoC4/BLE_System.c ****         {   
 783:.\Generated_Source\PSoC4/BLE_System.c ****             if(advertisingIntervalType == CYBLE_ADVERTISING_FAST)
 784:.\Generated_Source\PSoC4/BLE_System.c ****             {
 785:.\Generated_Source\PSoC4/BLE_System.c ****                 cyBle_discoveryModeInfo.advTo = CYBLE_FAST_ADV_TIMEOUT;
 786:.\Generated_Source\PSoC4/BLE_System.c ****                 cyBle_discoveryModeInfo.advParam->advIntvMin = CYBLE_FAST_ADV_INT_MIN;
 787:.\Generated_Source\PSoC4/BLE_System.c ****                 cyBle_discoveryModeInfo.advParam->advIntvMax = CYBLE_FAST_ADV_INT_MAX;
 788:.\Generated_Source\PSoC4/BLE_System.c ****             }
 789:.\Generated_Source\PSoC4/BLE_System.c ****             else if(advertisingIntervalType == CYBLE_ADVERTISING_SLOW)
 790:.\Generated_Source\PSoC4/BLE_System.c ****             {
 791:.\Generated_Source\PSoC4/BLE_System.c ****                 cyBle_discoveryModeInfo.advTo = CYBLE_SLOW_ADV_TIMEOUT;
 792:.\Generated_Source\PSoC4/BLE_System.c ****                 cyBle_discoveryModeInfo.advParam->advIntvMin = CYBLE_SLOW_ADV_INT_MIN;
 793:.\Generated_Source\PSoC4/BLE_System.c ****                 cyBle_discoveryModeInfo.advParam->advIntvMax = CYBLE_SLOW_ADV_INT_MAX;
 794:.\Generated_Source\PSoC4/BLE_System.c ****             }       
 795:.\Generated_Source\PSoC4/BLE_System.c ****             else /* Do not update advertising intervals */
 796:.\Generated_Source\PSoC4/BLE_System.c ****             {
 797:.\Generated_Source\PSoC4/BLE_System.c ****             }
 798:.\Generated_Source\PSoC4/BLE_System.c ****             cyBle_advertisingIntervalType = advertisingIntervalType;
 799:.\Generated_Source\PSoC4/BLE_System.c ****             apiResult = CyBle_GappEnterDiscoveryMode(&cyBle_discoveryModeInfo);
 800:.\Generated_Source\PSoC4/BLE_System.c ****         
 801:.\Generated_Source\PSoC4/BLE_System.c ****             if(CYBLE_ERROR_OK == apiResult)
 802:.\Generated_Source\PSoC4/BLE_System.c ****             {
 803:.\Generated_Source\PSoC4/BLE_System.c ****                 cyBle_eventHandlerFlag |= CYBLE_START_FLAG;
 804:.\Generated_Source\PSoC4/BLE_System.c ****             }
 805:.\Generated_Source\PSoC4/BLE_System.c ****         }
 806:.\Generated_Source\PSoC4/BLE_System.c ****         else
 807:.\Generated_Source\PSoC4/BLE_System.c ****         {
 808:.\Generated_Source\PSoC4/BLE_System.c ****             apiResult = CYBLE_ERROR_INVALID_STATE;
 809:.\Generated_Source\PSoC4/BLE_System.c ****         }
 810:.\Generated_Source\PSoC4/BLE_System.c **** 
 811:.\Generated_Source\PSoC4/BLE_System.c ****         return (apiResult);
 812:.\Generated_Source\PSoC4/BLE_System.c ****     }
 813:.\Generated_Source\PSoC4/BLE_System.c **** 
 814:.\Generated_Source\PSoC4/BLE_System.c ****     
 815:.\Generated_Source\PSoC4/BLE_System.c ****     /******************************************************************************
 816:.\Generated_Source\PSoC4/BLE_System.c ****     * Function Name: CyBle_GappStopAdvertisement
 817:.\Generated_Source\PSoC4/BLE_System.c ****     ***************************************************************************//**
 818:.\Generated_Source\PSoC4/BLE_System.c ****     * 
 819:.\Generated_Source\PSoC4/BLE_System.c ****     *   This function can be used to exit from discovery mode. After the execution 
 820:.\Generated_Source\PSoC4/BLE_System.c ****     *   of this function, there will no longer be any advertisements. On stopping 
 821:.\Generated_Source\PSoC4/BLE_System.c ****     *   advertising, GAP Peripheral receives CYBLE_EVT_GAPP_ADVERTISEMENT_START_STOP
 822:.\Generated_Source\PSoC4/BLE_System.c ****     *   event. It is expected that the application layer tracks the function call 
 823:.\Generated_Source\PSoC4/BLE_System.c ****     *   performed before occurrence of this event as this event can occur on making 
 824:.\Generated_Source\PSoC4/BLE_System.c ****     *   a call to Cy_BleGappStartAdvertisement(), CyBle_GappEnterDiscoveryMode(), 
 825:.\Generated_Source\PSoC4/BLE_System.c ****     *   or CyBle_GappStartAdvertisement() functions as well.
 826:.\Generated_Source\PSoC4/BLE_System.c ****     *   
 827:.\Generated_Source\PSoC4/BLE_System.c ****     *   The following event occurs on invoking this function:
 828:.\Generated_Source\PSoC4/BLE_System.c ****     *   * CYBLE_EVT_GAPP_ADVERTISEMENT_START_STOP
 829:.\Generated_Source\PSoC4/BLE_System.c ****     * 
 830:.\Generated_Source\PSoC4/BLE_System.c ****     *  \return
 831:.\Generated_Source\PSoC4/BLE_System.c ****     *   None
ARM GAS  C:\Users\310295~1\AppData\Local\Temp\ccZIm937.s 			page 16


 832:.\Generated_Source\PSoC4/BLE_System.c ****     * 
 833:.\Generated_Source\PSoC4/BLE_System.c ****     *******************************************************************************/
 834:.\Generated_Source\PSoC4/BLE_System.c ****     void CyBle_GappStopAdvertisement(void)
 835:.\Generated_Source\PSoC4/BLE_System.c ****     {
 836:.\Generated_Source\PSoC4/BLE_System.c ****         CyBle_GappExitDiscoveryMode();
 837:.\Generated_Source\PSoC4/BLE_System.c ****         cyBle_eventHandlerFlag |= CYBLE_STOP_FLAG;
 838:.\Generated_Source\PSoC4/BLE_System.c ****     }
 839:.\Generated_Source\PSoC4/BLE_System.c ****     
 840:.\Generated_Source\PSoC4/BLE_System.c ****     
 841:.\Generated_Source\PSoC4/BLE_System.c ****     /******************************************************************************
 842:.\Generated_Source\PSoC4/BLE_System.c ****     * Function Name: CyBle_ChangeAdDeviceAddress
 843:.\Generated_Source\PSoC4/BLE_System.c ****     ***************************************************************************//**
 844:.\Generated_Source\PSoC4/BLE_System.c ****     * 
 845:.\Generated_Source\PSoC4/BLE_System.c ****     *  This API is used to set the Bluetooth device address into the advertisement 
 846:.\Generated_Source\PSoC4/BLE_System.c ****     *  or scan response data structure.
 847:.\Generated_Source\PSoC4/BLE_System.c ****     * 
 848:.\Generated_Source\PSoC4/BLE_System.c ****     *  \param bdAddr: Bluetooth Device address. The variable is of type CYBLE_GAP_BD_ADDR_T
 849:.\Generated_Source\PSoC4/BLE_System.c ****     *  \param dest: 0 - selects advertisement structure, not zero value selects scan 
 850:.\Generated_Source\PSoC4/BLE_System.c ****     *               response structure.
 851:.\Generated_Source\PSoC4/BLE_System.c ****     * 
 852:.\Generated_Source\PSoC4/BLE_System.c ****     * \return
 853:.\Generated_Source\PSoC4/BLE_System.c ****     *  None
 854:.\Generated_Source\PSoC4/BLE_System.c ****     *  
 855:.\Generated_Source\PSoC4/BLE_System.c ****     *******************************************************************************/
 856:.\Generated_Source\PSoC4/BLE_System.c ****     void CyBle_ChangeAdDeviceAddress(const CYBLE_GAP_BD_ADDR_T* bdAddr, uint8 dest)
 857:.\Generated_Source\PSoC4/BLE_System.c ****     {
 858:.\Generated_Source\PSoC4/BLE_System.c ****         uint8 i;
 859:.\Generated_Source\PSoC4/BLE_System.c ****         uint8 *destBuffer = NULL;
 860:.\Generated_Source\PSoC4/BLE_System.c ****         
 861:.\Generated_Source\PSoC4/BLE_System.c ****         if(dest == 0u)      /* Destination - advertising structure */
 862:.\Generated_Source\PSoC4/BLE_System.c ****         {
 863:.\Generated_Source\PSoC4/BLE_System.c ****             #ifdef CYBLE_ADV_PKT_INDEX_BLUETOOTH_DEVICE_ADDRESS
 864:.\Generated_Source\PSoC4/BLE_System.c ****                 destBuffer = &cyBle_discoveryData.advData[CYBLE_ADV_PKT_INDEX_BLUETOOTH_DEVICE_ADDR
 865:.\Generated_Source\PSoC4/BLE_System.c ****             #endif /* CYBLE_ADV_PKT_INDEX_BLUETOOTH_DEVICE_ADDRESS */
 866:.\Generated_Source\PSoC4/BLE_System.c ****         }
 867:.\Generated_Source\PSoC4/BLE_System.c ****         else                /* Destination - scan response structure */
 868:.\Generated_Source\PSoC4/BLE_System.c ****         {
 869:.\Generated_Source\PSoC4/BLE_System.c ****             #ifdef CYBLE_SCN_PKT_INDEX_BLUETOOTH_DEVICE_ADDRESS
 870:.\Generated_Source\PSoC4/BLE_System.c ****                 destBuffer = &cyBle_scanRspData.scanRspData[CYBLE_SCN_PKT_INDEX_BLUETOOTH_DEVICE_AD
 871:.\Generated_Source\PSoC4/BLE_System.c ****             #endif /* CYBLE_SCN_PKT_INDEX_BLUETOOTH_DEVICE_ADDRESS */    
 872:.\Generated_Source\PSoC4/BLE_System.c ****         }
 873:.\Generated_Source\PSoC4/BLE_System.c ****         
 874:.\Generated_Source\PSoC4/BLE_System.c ****         if(destBuffer != NULL)
 875:.\Generated_Source\PSoC4/BLE_System.c ****         {
 876:.\Generated_Source\PSoC4/BLE_System.c ****             /* Update Device Address type */
 877:.\Generated_Source\PSoC4/BLE_System.c ****             destBuffer[0u] = bdAddr->type;
 878:.\Generated_Source\PSoC4/BLE_System.c ****             
 879:.\Generated_Source\PSoC4/BLE_System.c ****             for(i = 0u; i < CYBLE_GAP_BD_ADDR_SIZE; i++)
 880:.\Generated_Source\PSoC4/BLE_System.c ****             {
 881:.\Generated_Source\PSoC4/BLE_System.c ****                 destBuffer[i + 1u] = bdAddr->bdAddr[i];
 882:.\Generated_Source\PSoC4/BLE_System.c ****             }
 883:.\Generated_Source\PSoC4/BLE_System.c ****         }
 884:.\Generated_Source\PSoC4/BLE_System.c ****     }
 885:.\Generated_Source\PSoC4/BLE_System.c ****   
 886:.\Generated_Source\PSoC4/BLE_System.c **** #endif /* CYBLE_GAP_ROLE_PERIPHERAL || CYBLE_GAP_ROLE_BROADCASTER */
 887:.\Generated_Source\PSoC4/BLE_System.c **** 
 888:.\Generated_Source\PSoC4/BLE_System.c **** 
ARM GAS  C:\Users\310295~1\AppData\Local\Temp\ccZIm937.s 			page 17


 889:.\Generated_Source\PSoC4/BLE_System.c **** #if(CYBLE_GAP_ROLE_CENTRAL || CYBLE_GAP_ROLE_OBSERVER)
 890:.\Generated_Source\PSoC4/BLE_System.c **** 
 891:.\Generated_Source\PSoC4/BLE_System.c ****     /******************************************************************************
 892:.\Generated_Source\PSoC4/BLE_System.c ****     * Function Name: CyBle_GapcStartScan
 893:.\Generated_Source\PSoC4/BLE_System.c ****     ***************************************************************************//**
 894:.\Generated_Source\PSoC4/BLE_System.c ****     * 
 895:.\Generated_Source\PSoC4/BLE_System.c ****     *   This function is used for discovering GAP peripheral devices that are 
 896:.\Generated_Source\PSoC4/BLE_System.c ****     *   available for connection. It performs the scanning routine using the 
 897:.\Generated_Source\PSoC4/BLE_System.c ****     *   parameters entered in the component's customizer.
 898:.\Generated_Source\PSoC4/BLE_System.c ****     *   
 899:.\Generated_Source\PSoC4/BLE_System.c ****     *   As soon as the discovery operation starts, CYBLE_EVT_GAPC_SCAN_START_STOP 
 900:.\Generated_Source\PSoC4/BLE_System.c ****     *   event is generated. The CYBLE_EVT_GAPC_SCAN_PROGRESS_RESULT event is 
 901:.\Generated_Source\PSoC4/BLE_System.c ****     *   generated when a GAP peripheral device is located. There are three discovery
 902:.\Generated_Source\PSoC4/BLE_System.c ****     *   procedures can be selected in the customizer's GUI:
 903:.\Generated_Source\PSoC4/BLE_System.c ****     *   
 904:.\Generated_Source\PSoC4/BLE_System.c ****     *   * Observation procedure: A device performing the observer role receives only
 905:.\Generated_Source\PSoC4/BLE_System.c ****     *                            advertisement data from devices irrespective of 
 906:.\Generated_Source\PSoC4/BLE_System.c ****     *                            their discoverable mode settings. Advertisement 
 907:.\Generated_Source\PSoC4/BLE_System.c ****     *                            data received is provided by the event,      
 908:.\Generated_Source\PSoC4/BLE_System.c ****     *                            CYBLE_EVT_GAPC_SCAN_PROGRESS_RESULT. This procedure
 909:.\Generated_Source\PSoC4/BLE_System.c ****     *                            requires the scanType sub parameter to be passive
 910:.\Generated_Source\PSoC4/BLE_System.c ****     *                            scanning. 
 911:.\Generated_Source\PSoC4/BLE_System.c ****     *   
 912:.\Generated_Source\PSoC4/BLE_System.c ****     *   * Limited Discovery procedure: A device performing the limited discovery
 913:.\Generated_Source\PSoC4/BLE_System.c ****     *                                  procedure receives advertisement data and 
 914:.\Generated_Source\PSoC4/BLE_System.c ****     *                                  scan# response data from devices in the 
 915:.\Generated_Source\PSoC4/BLE_System.c ****     *                                  limited discoverable mode only. Received data
 916:.\Generated_Source\PSoC4/BLE_System.c ****     *                                  is provided by the event, 
 917:.\Generated_Source\PSoC4/BLE_System.c ****     *                                  CYBLE_EVT_GAPC_SCAN_PROGRESS_RESULT. This 
 918:.\Generated_Source\PSoC4/BLE_System.c ****     *                                  procedure requires the scanType sub-parameter 
 919:.\Generated_Source\PSoC4/BLE_System.c ****     *                                  to be active scanning.
 920:.\Generated_Source\PSoC4/BLE_System.c ****     *   
 921:.\Generated_Source\PSoC4/BLE_System.c ****     *   * General Discovery procedure: A device performing the general discovery 
 922:.\Generated_Source\PSoC4/BLE_System.c ****     *                                  procedure receives the advertisement data and
 923:.\Generated_Source\PSoC4/BLE_System.c ****     *                                  scan response data from devices in both 
 924:.\Generated_Source\PSoC4/BLE_System.c ****     *                                  limited discoverable mode and the general 
 925:.\Generated_Source\PSoC4/BLE_System.c ****     *                                  discoverable mode. Received data is provided
 926:.\Generated_Source\PSoC4/BLE_System.c ****     *                                  by the event,
 927:.\Generated_Source\PSoC4/BLE_System.c ****     *                                  CYBLE_EVT_GAPC_SCAN_PROGRESS_RESULT. This 
 928:.\Generated_Source\PSoC4/BLE_System.c ****     *                                  procedure requires the scanType sub-parameter
 929:.\Generated_Source\PSoC4/BLE_System.c ****     *                                  to be active scanning.
 930:.\Generated_Source\PSoC4/BLE_System.c ****     *   
 931:.\Generated_Source\PSoC4/BLE_System.c ****     *   Every Advertisement / Scan response packet received results in a new event, 
 932:.\Generated_Source\PSoC4/BLE_System.c ****     *   CYBLE_EVT_GAPC_SCAN_PROGRESS_RESULT.
 933:.\Generated_Source\PSoC4/BLE_System.c ****     *   If 'scanTo' sub-parameter is a non-zero value, then upon commencement of 
 934:.\Generated_Source\PSoC4/BLE_System.c ****     *   discovery procedure and elapsed time = 'scanTo', CYBLE_EVT_TIMEOUT event
 935:.\Generated_Source\PSoC4/BLE_System.c ****     *   is generated with the event parameter indicating CYBLE_GAP_SCAN_TO.
 936:.\Generated_Source\PSoC4/BLE_System.c ****     *   Possible generated events are:
 937:.\Generated_Source\PSoC4/BLE_System.c ****     *   * CYBLE_EVT_GAPC_SCAN_START_STOP: If a device started or stopped scanning. 
 938:.\Generated_Source\PSoC4/BLE_System.c ****     *                                     Use CyBle_GetState() to determine the 
 939:.\Generated_Source\PSoC4/BLE_System.c ****     *                                     state. Sequential scanning could be 
 940:.\Generated_Source\PSoC4/BLE_System.c ****     *                                     started when CYBLE_STATE_DISCONNECTED 
 941:.\Generated_Source\PSoC4/BLE_System.c ****     *                                     state is returned. 
 942:.\Generated_Source\PSoC4/BLE_System.c ****     *   * CYBLE_EVT_GAPC_SCAN_PROGRESS_RESULT 
 943:.\Generated_Source\PSoC4/BLE_System.c ****     *   * CYBLE_EVT_TIMEOUT (CYBLE_GAP_SCAN_TO)
 944:.\Generated_Source\PSoC4/BLE_System.c ****     * 
 945:.\Generated_Source\PSoC4/BLE_System.c ****     *   \param scanningIntervalType:  Fast or slow scanning interval with
ARM GAS  C:\Users\310295~1\AppData\Local\Temp\ccZIm937.s 			page 18


 946:.\Generated_Source\PSoC4/BLE_System.c ****     *       timings entered in Scan settings section of the customizer.
 947:.\Generated_Source\PSoC4/BLE_System.c ****     * 	  * CYBLE_SCANNING_FAST   0x00u
 948:.\Generated_Source\PSoC4/BLE_System.c ****     * 	  * CYBLE_SCANNING_SLOW   0x01u
 949:.\Generated_Source\PSoC4/BLE_System.c ****     * 	  * CYBLE_SCANNING_CUSTOM 0x02u
 950:.\Generated_Source\PSoC4/BLE_System.c ****     * 
 951:.\Generated_Source\PSoC4/BLE_System.c ****     * \return
 952:.\Generated_Source\PSoC4/BLE_System.c ****     *  CYBLE_API_RESULT_T : Return value indicates if the function succeeded or
 953:.\Generated_Source\PSoC4/BLE_System.c ****     *  failed. Following are the possible error codes.
 954:.\Generated_Source\PSoC4/BLE_System.c ****     *
 955:.\Generated_Source\PSoC4/BLE_System.c ****     *   Errors codes                       | Description
 956:.\Generated_Source\PSoC4/BLE_System.c ****     *   ---------------------------------- | -----------------------------------
 957:.\Generated_Source\PSoC4/BLE_System.c ****     *   CYBLE_ERROR_OK                     | On successful operation.
 958:.\Generated_Source\PSoC4/BLE_System.c ****     *   CYBLE_ERROR_STACK_INTERNAL         | An error occurred in the BLE stack.
 959:.\Generated_Source\PSoC4/BLE_System.c ****     *   CYBLE_ERROR_INVALID_PARAMETER      | On passing an invalid parameter.
 960:.\Generated_Source\PSoC4/BLE_System.c ****     *  
 961:.\Generated_Source\PSoC4/BLE_System.c ****     *******************************************************************************/
 962:.\Generated_Source\PSoC4/BLE_System.c ****     CYBLE_API_RESULT_T CyBle_GapcStartScan(uint8 scanningIntervalType)
 963:.\Generated_Source\PSoC4/BLE_System.c ****     {
 964:.\Generated_Source\PSoC4/BLE_System.c ****         CYBLE_API_RESULT_T apiResult;
 965:.\Generated_Source\PSoC4/BLE_System.c **** 
 966:.\Generated_Source\PSoC4/BLE_System.c ****         if(scanningIntervalType > CYBLE_SCANNING_CUSTOM)
 967:.\Generated_Source\PSoC4/BLE_System.c ****         {
 968:.\Generated_Source\PSoC4/BLE_System.c ****             apiResult = CYBLE_ERROR_INVALID_PARAMETER;
 969:.\Generated_Source\PSoC4/BLE_System.c ****         }
 970:.\Generated_Source\PSoC4/BLE_System.c ****         else
 971:.\Generated_Source\PSoC4/BLE_System.c ****         {
 972:.\Generated_Source\PSoC4/BLE_System.c ****             if(scanningIntervalType == CYBLE_SCANNING_FAST)
 973:.\Generated_Source\PSoC4/BLE_System.c ****             {
 974:.\Generated_Source\PSoC4/BLE_System.c ****                 cyBle_discoveryInfo.scanTo = CYBLE_FAST_SCAN_TIMEOUT;
 975:.\Generated_Source\PSoC4/BLE_System.c ****                 cyBle_discoveryInfo.scanIntv = CYBLE_FAST_SCAN_INTERVAL;
 976:.\Generated_Source\PSoC4/BLE_System.c ****                 cyBle_discoveryInfo.scanWindow = CYBLE_FAST_SCAN_WINDOW;
 977:.\Generated_Source\PSoC4/BLE_System.c ****             }
 978:.\Generated_Source\PSoC4/BLE_System.c ****             else if(scanningIntervalType == CYBLE_SCANNING_SLOW)
 979:.\Generated_Source\PSoC4/BLE_System.c ****             {
 980:.\Generated_Source\PSoC4/BLE_System.c ****                 cyBle_discoveryInfo.scanTo = CYBLE_SLOW_SCAN_TIMEOUT;
 981:.\Generated_Source\PSoC4/BLE_System.c ****                 cyBle_discoveryInfo.scanIntv = CYBLE_SLOW_SCAN_INTERVAL;
 982:.\Generated_Source\PSoC4/BLE_System.c ****                 cyBle_discoveryInfo.scanWindow = CYBLE_SLOW_SCAN_WINDOW;
 983:.\Generated_Source\PSoC4/BLE_System.c ****             }       
 984:.\Generated_Source\PSoC4/BLE_System.c ****             else /* Do not update scanning intervals */
 985:.\Generated_Source\PSoC4/BLE_System.c ****             {
 986:.\Generated_Source\PSoC4/BLE_System.c ****             }
 987:.\Generated_Source\PSoC4/BLE_System.c ****             
 988:.\Generated_Source\PSoC4/BLE_System.c ****             cyBle_scanningIntervalType = scanningIntervalType;
 989:.\Generated_Source\PSoC4/BLE_System.c ****             apiResult = CyBle_GapcStartDiscovery(&cyBle_discoveryInfo);
 990:.\Generated_Source\PSoC4/BLE_System.c ****         
 991:.\Generated_Source\PSoC4/BLE_System.c ****             if(CYBLE_ERROR_OK == apiResult)
 992:.\Generated_Source\PSoC4/BLE_System.c ****             {
 993:.\Generated_Source\PSoC4/BLE_System.c ****                 cyBle_eventHandlerFlag |= CYBLE_START_FLAG;
 994:.\Generated_Source\PSoC4/BLE_System.c ****             }
 995:.\Generated_Source\PSoC4/BLE_System.c ****         }
 996:.\Generated_Source\PSoC4/BLE_System.c ****        
 997:.\Generated_Source\PSoC4/BLE_System.c ****         return (apiResult);
 998:.\Generated_Source\PSoC4/BLE_System.c ****     }
 999:.\Generated_Source\PSoC4/BLE_System.c ****     
1000:.\Generated_Source\PSoC4/BLE_System.c ****     
1001:.\Generated_Source\PSoC4/BLE_System.c ****     /******************************************************************************
1002:.\Generated_Source\PSoC4/BLE_System.c ****     * Function Name: CyBle_GapcStopScan
ARM GAS  C:\Users\310295~1\AppData\Local\Temp\ccZIm937.s 			page 19


1003:.\Generated_Source\PSoC4/BLE_System.c ****     ***************************************************************************//**
1004:.\Generated_Source\PSoC4/BLE_System.c ****     * 
1005:.\Generated_Source\PSoC4/BLE_System.c ****     *   This function used to stop the discovery of devices. On stopping discovery
1006:.\Generated_Source\PSoC4/BLE_System.c ****     *   operation, CYBLE_EVT_GAPC_SCAN_START_STOP event is generated. Application
1007:.\Generated_Source\PSoC4/BLE_System.c ****     *   layer needs to keep track of the function call made before receiving this
1008:.\Generated_Source\PSoC4/BLE_System.c ****     *   event to associate this event with either the start or stop discovery
1009:.\Generated_Source\PSoC4/BLE_System.c ****     *   function.
1010:.\Generated_Source\PSoC4/BLE_System.c ****     * 
1011:.\Generated_Source\PSoC4/BLE_System.c ****     *   Possible events generated are:
1012:.\Generated_Source\PSoC4/BLE_System.c ****     *    * CYBLE_EVT_GAPC_SCAN_START_STOP
1013:.\Generated_Source\PSoC4/BLE_System.c ****     * 
1014:.\Generated_Source\PSoC4/BLE_System.c ****     *  \return
1015:.\Generated_Source\PSoC4/BLE_System.c ****     *   None
1016:.\Generated_Source\PSoC4/BLE_System.c ****     * 
1017:.\Generated_Source\PSoC4/BLE_System.c ****     *******************************************************************************/
1018:.\Generated_Source\PSoC4/BLE_System.c ****     void CyBle_GapcStopScan(void)
1019:.\Generated_Source\PSoC4/BLE_System.c ****     {
1020:.\Generated_Source\PSoC4/BLE_System.c ****         CyBle_GapcStopDiscovery();
1021:.\Generated_Source\PSoC4/BLE_System.c ****         
1022:.\Generated_Source\PSoC4/BLE_System.c ****         cyBle_eventHandlerFlag |= CYBLE_STOP_FLAG;
1023:.\Generated_Source\PSoC4/BLE_System.c ****     }
1024:.\Generated_Source\PSoC4/BLE_System.c **** 
1025:.\Generated_Source\PSoC4/BLE_System.c ****     
1026:.\Generated_Source\PSoC4/BLE_System.c **** #endif /* CYBLE_GAP_ROLE_CENTRAL || CYBLE_GAP_ROLE_OBSERVER */
1027:.\Generated_Source\PSoC4/BLE_System.c **** 
1028:.\Generated_Source\PSoC4/BLE_System.c **** 
1029:.\Generated_Source\PSoC4/BLE_System.c **** #if(CYBLE_GAP_ROLE_CENTRAL)
1030:.\Generated_Source\PSoC4/BLE_System.c **** 
1031:.\Generated_Source\PSoC4/BLE_System.c ****     /******************************************************************************
1032:.\Generated_Source\PSoC4/BLE_System.c ****     * Function Name: CyBle_GapcConnectDevice
1033:.\Generated_Source\PSoC4/BLE_System.c ****     ***************************************************************************//**
1034:.\Generated_Source\PSoC4/BLE_System.c ****     * 
1035:.\Generated_Source\PSoC4/BLE_System.c ****     *  This function is used to send a connection request to the remote device with
1036:.\Generated_Source\PSoC4/BLE_System.c ****     *  the connection parameters set in the component customizer. This function needs
1037:.\Generated_Source\PSoC4/BLE_System.c ****     *  to be called only once after the target device is discovered by 
1038:.\Generated_Source\PSoC4/BLE_System.c ****     *  CyBle_GapcStartScan() and further scanning has stopped. Scanning is 
1039:.\Generated_Source\PSoC4/BLE_System.c ****     *  successfully stopped on invoking CyBle_GapcStopScan() and then receiving the
1040:.\Generated_Source\PSoC4/BLE_System.c ****     *  event CYBLE_EVT_GAPC_SCAN_START_STOP with sub-parameter 'success' = 0x01u.
1041:.\Generated_Source\PSoC4/BLE_System.c ****     *  
1042:.\Generated_Source\PSoC4/BLE_System.c ****     *  On successful connection, the following events are generated at the GAP 
1043:.\Generated_Source\PSoC4/BLE_System.c ****     *  Central device (as well as the GAP Peripheral device), in the following order.
1044:.\Generated_Source\PSoC4/BLE_System.c ****     *  * CYBLE_EVT_GATT_CONNECT_IND
1045:.\Generated_Source\PSoC4/BLE_System.c ****     *  * CYBLE_EVT_GAP_DEVICE_CONNECTED - If the device connects to a GAP Central and 
1046:.\Generated_Source\PSoC4/BLE_System.c ****     *    Link Layer Privacy is disabled in component customizer.
1047:.\Generated_Source\PSoC4/BLE_System.c ****     *  * CYBLE_EVT_GAP_ENHANCE_CONN_COMPLETE - If the device connects to a GAP Central and 
1048:.\Generated_Source\PSoC4/BLE_System.c ****     *    Link Layer Privacy is enabled in component customizer.
1049:.\Generated_Source\PSoC4/BLE_System.c ****     *  * CYBLE_EVT_GAP_DEVICE_CONNECTED
1050:.\Generated_Source\PSoC4/BLE_System.c ****     *  
1051:.\Generated_Source\PSoC4/BLE_System.c ****     *  A procedure is considered to have timed out if a connection response packet is 
1052:.\Generated_Source\PSoC4/BLE_System.c ****     *  not received within time set by cyBle_connectingTimeout global variable
1053:.\Generated_Source\PSoC4/BLE_System.c ****     *  (30 seconds by default). CYBLE_EVT_TIMEOUT event with CYBLE_GENERIC_TO parameter
1054:.\Generated_Source\PSoC4/BLE_System.c ****     *  will indicate about connection procedure timeout. Connection will automatically
1055:.\Generated_Source\PSoC4/BLE_System.c ****     *  be canceled and state will be changed to CYBLE_STATE_DISCONNECTED.
1056:.\Generated_Source\PSoC4/BLE_System.c ****     * 
1057:.\Generated_Source\PSoC4/BLE_System.c ****     *  \param address: The device address of the remote device to connect to. 
1058:.\Generated_Source\PSoC4/BLE_System.c ****     *  
1059:.\Generated_Source\PSoC4/BLE_System.c ****     * \return
ARM GAS  C:\Users\310295~1\AppData\Local\Temp\ccZIm937.s 			page 20


1060:.\Generated_Source\PSoC4/BLE_System.c ****     *  CYBLE_API_RESULT_T : Return value indicates if the function succeeded or 
1061:.\Generated_Source\PSoC4/BLE_System.c ****     *  failed. Following are the possible error codes.
1062:.\Generated_Source\PSoC4/BLE_System.c ****     *
1063:.\Generated_Source\PSoC4/BLE_System.c ****     *   Errors codes                       | Description
1064:.\Generated_Source\PSoC4/BLE_System.c ****     *   ------------                       | -----------
1065:.\Generated_Source\PSoC4/BLE_System.c ****     *   CYBLE_ERROR_OK                     | On successful operation.
1066:.\Generated_Source\PSoC4/BLE_System.c ****     *   CYBLE_ERROR_STACK_INTERNAL         | On error occurred in the BLE stack.
1067:.\Generated_Source\PSoC4/BLE_System.c ****     *   CYBLE_ERROR_INVALID_PARAMETER      | On passing an invalid parameter.
1068:.\Generated_Source\PSoC4/BLE_System.c ****     *   CYBLE_ERROR_INVALID_STATE          | On calling this API not in Disconnected state.
1069:.\Generated_Source\PSoC4/BLE_System.c ****     *  
1070:.\Generated_Source\PSoC4/BLE_System.c ****     ******************************************************************************/
1071:.\Generated_Source\PSoC4/BLE_System.c ****     CYBLE_API_RESULT_T CyBle_GapcConnectDevice(const CYBLE_GAP_BD_ADDR_T * address)
1072:.\Generated_Source\PSoC4/BLE_System.c ****     {
1073:.\Generated_Source\PSoC4/BLE_System.c ****         CYBLE_API_RESULT_T apiResult;
1074:.\Generated_Source\PSoC4/BLE_System.c ****         uint8 i;
1075:.\Generated_Source\PSoC4/BLE_System.c **** 
1076:.\Generated_Source\PSoC4/BLE_System.c ****         if(CyBle_GetState() != CYBLE_STATE_DISCONNECTED)
1077:.\Generated_Source\PSoC4/BLE_System.c ****         {
1078:.\Generated_Source\PSoC4/BLE_System.c ****             apiResult = CYBLE_ERROR_INVALID_STATE;
1079:.\Generated_Source\PSoC4/BLE_System.c ****         }
1080:.\Generated_Source\PSoC4/BLE_System.c ****         else if(address == NULL)
1081:.\Generated_Source\PSoC4/BLE_System.c ****         {
1082:.\Generated_Source\PSoC4/BLE_System.c ****             apiResult = CYBLE_ERROR_INVALID_PARAMETER;
1083:.\Generated_Source\PSoC4/BLE_System.c ****         }
1084:.\Generated_Source\PSoC4/BLE_System.c ****         else
1085:.\Generated_Source\PSoC4/BLE_System.c ****         {
1086:.\Generated_Source\PSoC4/BLE_System.c ****             for(i = 0u; i < CYBLE_GAP_BD_ADDR_SIZE; i++)
1087:.\Generated_Source\PSoC4/BLE_System.c ****             {
1088:.\Generated_Source\PSoC4/BLE_System.c ****                 cyBle_connectionParameters.peerBdAddr[i] = address->bdAddr[i];
1089:.\Generated_Source\PSoC4/BLE_System.c ****             }
1090:.\Generated_Source\PSoC4/BLE_System.c ****             cyBle_connectionParameters.peerAddrType = address -> type;
1091:.\Generated_Source\PSoC4/BLE_System.c ****             apiResult = CyBle_GapcInitConnection(&cyBle_connectionParameters);
1092:.\Generated_Source\PSoC4/BLE_System.c ****             
1093:.\Generated_Source\PSoC4/BLE_System.c ****             if(apiResult == CYBLE_ERROR_OK)
1094:.\Generated_Source\PSoC4/BLE_System.c ****             {
1095:.\Generated_Source\PSoC4/BLE_System.c ****                 CyBle_SetState(CYBLE_STATE_CONNECTING);
1096:.\Generated_Source\PSoC4/BLE_System.c ****                 if(cyBle_connectingTimeout != 0u)
1097:.\Generated_Source\PSoC4/BLE_System.c ****                 {
1098:.\Generated_Source\PSoC4/BLE_System.c ****                     (void)CyBle_StartTimer(cyBle_connectingTimeout);
1099:.\Generated_Source\PSoC4/BLE_System.c ****                 }
1100:.\Generated_Source\PSoC4/BLE_System.c ****             }
1101:.\Generated_Source\PSoC4/BLE_System.c ****         }
1102:.\Generated_Source\PSoC4/BLE_System.c ****         return (apiResult);
1103:.\Generated_Source\PSoC4/BLE_System.c ****     }
1104:.\Generated_Source\PSoC4/BLE_System.c ****     
1105:.\Generated_Source\PSoC4/BLE_System.c **** 
1106:.\Generated_Source\PSoC4/BLE_System.c ****     /******************************************************************************
1107:.\Generated_Source\PSoC4/BLE_System.c ****     * Function Name: CyBle_GapcCancelDeviceConnection
1108:.\Generated_Source\PSoC4/BLE_System.c ****     ***************************************************************************//**
1109:.\Generated_Source\PSoC4/BLE_System.c ****     * 
1110:.\Generated_Source\PSoC4/BLE_System.c ****     *  This function cancels a previously initiated connection with the remote 
1111:.\Generated_Source\PSoC4/BLE_System.c ****     *  device. It is a blocking function. No event is generated on calling this 
1112:.\Generated_Source\PSoC4/BLE_System.c ****     *  function. If the devices are already connected then this function should not
1113:.\Generated_Source\PSoC4/BLE_System.c ****     *  be used. If you intend to disconnect from an existing connection, the function
1114:.\Generated_Source\PSoC4/BLE_System.c ****     *  CyBle_GapDisconnect() should be used.
1115:.\Generated_Source\PSoC4/BLE_System.c ****     * 
1116:.\Generated_Source\PSoC4/BLE_System.c ****     * \return
ARM GAS  C:\Users\310295~1\AppData\Local\Temp\ccZIm937.s 			page 21


1117:.\Generated_Source\PSoC4/BLE_System.c ****     *  CYBLE_API_RESULT_T : Return value indicates if the function succeeded or 
1118:.\Generated_Source\PSoC4/BLE_System.c ****     *  failed. Following are the possible error codes.
1119:.\Generated_Source\PSoC4/BLE_System.c ****     *
1120:.\Generated_Source\PSoC4/BLE_System.c ****     *   Errors codes                       | Description
1121:.\Generated_Source\PSoC4/BLE_System.c ****     *   ---------------------------------- | --------------------------------------
1122:.\Generated_Source\PSoC4/BLE_System.c ****     *   CYBLE_ERROR_OK                     | On successful operation.
1123:.\Generated_Source\PSoC4/BLE_System.c ****     *   CYBLE_ERROR_STACK_INTERNAL         | An error occurred in the BLE stack.
1124:.\Generated_Source\PSoC4/BLE_System.c ****     *   CYBLE_ERROR_INVALID_STATE          | On calling this API not in Connecting state.
1125:.\Generated_Source\PSoC4/BLE_System.c ****     *  
1126:.\Generated_Source\PSoC4/BLE_System.c ****     *******************************************************************************/
1127:.\Generated_Source\PSoC4/BLE_System.c ****     CYBLE_API_RESULT_T CyBle_GapcCancelDeviceConnection(void)
1128:.\Generated_Source\PSoC4/BLE_System.c ****     {
1129:.\Generated_Source\PSoC4/BLE_System.c ****         CYBLE_API_RESULT_T apiResult;
1130:.\Generated_Source\PSoC4/BLE_System.c ****         
1131:.\Generated_Source\PSoC4/BLE_System.c ****         if(CyBle_GetState() != CYBLE_STATE_CONNECTING)
1132:.\Generated_Source\PSoC4/BLE_System.c ****         {
1133:.\Generated_Source\PSoC4/BLE_System.c ****             apiResult = CYBLE_ERROR_INVALID_STATE;
1134:.\Generated_Source\PSoC4/BLE_System.c ****         }
1135:.\Generated_Source\PSoC4/BLE_System.c ****         else 
1136:.\Generated_Source\PSoC4/BLE_System.c ****         {
1137:.\Generated_Source\PSoC4/BLE_System.c ****             apiResult = CyBle_GapcCancelConnection();
1138:.\Generated_Source\PSoC4/BLE_System.c ****             
1139:.\Generated_Source\PSoC4/BLE_System.c ****             if(cyBle_connectingTimeout != 0u)
1140:.\Generated_Source\PSoC4/BLE_System.c ****             {
1141:.\Generated_Source\PSoC4/BLE_System.c ****                 (void)CyBle_StopTimer();
1142:.\Generated_Source\PSoC4/BLE_System.c ****             }
1143:.\Generated_Source\PSoC4/BLE_System.c **** 
1144:.\Generated_Source\PSoC4/BLE_System.c ****             if(apiResult == CYBLE_ERROR_OK)
1145:.\Generated_Source\PSoC4/BLE_System.c ****             {
1146:.\Generated_Source\PSoC4/BLE_System.c ****                 CyBle_SetState(CYBLE_STATE_DISCONNECTED);
1147:.\Generated_Source\PSoC4/BLE_System.c ****             }
1148:.\Generated_Source\PSoC4/BLE_System.c ****         }
1149:.\Generated_Source\PSoC4/BLE_System.c ****         return (apiResult);
1150:.\Generated_Source\PSoC4/BLE_System.c ****     }    
1151:.\Generated_Source\PSoC4/BLE_System.c **** 
1152:.\Generated_Source\PSoC4/BLE_System.c ****     
1153:.\Generated_Source\PSoC4/BLE_System.c **** #endif /* CYBLE_GAP_ROLE_CENTRAL */
1154:.\Generated_Source\PSoC4/BLE_System.c **** 
1155:.\Generated_Source\PSoC4/BLE_System.c **** 
1156:.\Generated_Source\PSoC4/BLE_System.c **** #if(CYBLE_GATT_ROLE_SERVER)
1157:.\Generated_Source\PSoC4/BLE_System.c **** 
1158:.\Generated_Source\PSoC4/BLE_System.c **** #if(CYBLE_GAP_ROLE_PERIPHERAL)
1159:.\Generated_Source\PSoC4/BLE_System.c **** 
1160:.\Generated_Source\PSoC4/BLE_System.c ****         /******************************************************************************
1161:.\Generated_Source\PSoC4/BLE_System.c ****         * Function Name: CyBle_ChangeAdLocalName
1162:.\Generated_Source\PSoC4/BLE_System.c ****         ***************************************************************************//**
1163:.\Generated_Source\PSoC4/BLE_System.c ****         *  This API is used to set the local device name in the advertisement or scan 
1164:.\Generated_Source\PSoC4/BLE_System.c ****         *  response data structure.
1165:.\Generated_Source\PSoC4/BLE_System.c ****         * 
1166:.\Generated_Source\PSoC4/BLE_System.c ****         *  \param name: The local device name string to be set in advertisement data 
1167:.\Generated_Source\PSoC4/BLE_System.c ****         *            structure.
1168:.\Generated_Source\PSoC4/BLE_System.c ****         *  \param dest: 0 - advertisement structure, not zero value selects scan response
1169:.\Generated_Source\PSoC4/BLE_System.c ****         *              structure.
1170:.\Generated_Source\PSoC4/BLE_System.c ****         * 
1171:.\Generated_Source\PSoC4/BLE_System.c ****         * \return
1172:.\Generated_Source\PSoC4/BLE_System.c ****         *  None
1173:.\Generated_Source\PSoC4/BLE_System.c ****         *  
ARM GAS  C:\Users\310295~1\AppData\Local\Temp\ccZIm937.s 			page 22


1174:.\Generated_Source\PSoC4/BLE_System.c ****         *******************************************************************************/
1175:.\Generated_Source\PSoC4/BLE_System.c ****         static void CyBle_ChangeAdLocalName(const char8 name[], uint8 dest)
1176:.\Generated_Source\PSoC4/BLE_System.c ****         {
  25              		.loc 1 1176 0
  26              		.cfi_startproc
  27              	.LVL0:
  28 0000 70B5     		push	{r4, r5, r6, lr}
  29              		.cfi_def_cfa_offset 16
  30              		.cfi_offset 4, -16
  31              		.cfi_offset 5, -12
  32              		.cfi_offset 6, -8
  33              		.cfi_offset 14, -4
  34              	.LVL1:
1177:.\Generated_Source\PSoC4/BLE_System.c ****             uint8 i;
1178:.\Generated_Source\PSoC4/BLE_System.c ****             uint8 flag = 0u;
1179:.\Generated_Source\PSoC4/BLE_System.c ****             uint8 adLength = 0u;
1180:.\Generated_Source\PSoC4/BLE_System.c ****             uint8 byteCounter = 0u;
1181:.\Generated_Source\PSoC4/BLE_System.c ****             uint8 *destBuffer;
1182:.\Generated_Source\PSoC4/BLE_System.c ****             uint8 maxLength;
1183:.\Generated_Source\PSoC4/BLE_System.c ****             
1184:.\Generated_Source\PSoC4/BLE_System.c ****             if(dest == 0u)      /* Destination - advertising structure */
  35              		.loc 1 1184 0
  36 0002 0029     		cmp	r1, #0
  37 0004 05D1     		bne	.L2
  38              	.LVL2:
1185:.\Generated_Source\PSoC4/BLE_System.c ****             {
1186:.\Generated_Source\PSoC4/BLE_System.c ****                 destBuffer = cyBle_discoveryData.advData;
1187:.\Generated_Source\PSoC4/BLE_System.c ****                 maxLength = cyBle_discoveryData.advDataLen;
  39              		.loc 1 1187 0
  40 0006 1A4C     		ldr	r4, .L15
  41 0008 E67F     		ldrb	r6, [r4, #31]
  42              	.LVL3:
  43              	.L4:
1188:.\Generated_Source\PSoC4/BLE_System.c ****             }
1189:.\Generated_Source\PSoC4/BLE_System.c ****             else                /* Destination - scan response structure */
1190:.\Generated_Source\PSoC4/BLE_System.c ****             {
1191:.\Generated_Source\PSoC4/BLE_System.c ****                 destBuffer = cyBle_scanRspData.scanRspData;
1192:.\Generated_Source\PSoC4/BLE_System.c ****                 maxLength = cyBle_scanRspData.scanRspDataLen;
1193:.\Generated_Source\PSoC4/BLE_System.c ****             }
1194:.\Generated_Source\PSoC4/BLE_System.c ****             
1195:.\Generated_Source\PSoC4/BLE_System.c ****             while((byteCounter < maxLength) && (0u == flag))
1196:.\Generated_Source\PSoC4/BLE_System.c ****             {
1197:.\Generated_Source\PSoC4/BLE_System.c ****                 adLength = destBuffer[byteCounter];
1198:.\Generated_Source\PSoC4/BLE_System.c ****                 
1199:.\Generated_Source\PSoC4/BLE_System.c ****                 if(0u != adLength)
1200:.\Generated_Source\PSoC4/BLE_System.c ****                 {
1201:.\Generated_Source\PSoC4/BLE_System.c ****                     /* Increment byte counter so it can point to AD type */
1202:.\Generated_Source\PSoC4/BLE_System.c ****                     byteCounter++;
1203:.\Generated_Source\PSoC4/BLE_System.c ****                     
1204:.\Generated_Source\PSoC4/BLE_System.c ****                     if((CYBLE_SHORT_LOCAL_NAME == destBuffer[byteCounter]) || 
1205:.\Generated_Source\PSoC4/BLE_System.c ****                        (CYBLE_COMPLETE_LOCAL_NAME == destBuffer[byteCounter]))
1206:.\Generated_Source\PSoC4/BLE_System.c ****                     {
1207:.\Generated_Source\PSoC4/BLE_System.c ****                         /* Start of the Local Name AD type was fount. Set flag and exit the loop. *
1208:.\Generated_Source\PSoC4/BLE_System.c ****                         flag = 1u;
  44              		.loc 1 1208 0
  45 000a 0023     		mov	r3, #0
  46 000c 0022     		mov	r2, #0
ARM GAS  C:\Users\310295~1\AppData\Local\Temp\ccZIm937.s 			page 23


  47 000e 0025     		mov	r5, #0
  48 0010 10E0     		b	.L3
  49              	.LVL4:
  50              	.L2:
1192:.\Generated_Source\PSoC4/BLE_System.c ****             }
  51              		.loc 1 1192 0
  52 0012 174C     		ldr	r4, .L15
  53 0014 2034     		add	r4, r4, #32
  54 0016 E67F     		ldrb	r6, [r4, #31]
  55              	.LVL5:
  56 0018 F7E7     		b	.L4
  57              	.LVL6:
  58              	.L7:
1197:.\Generated_Source\PSoC4/BLE_System.c ****                 
  59              		.loc 1 1197 0
  60 001a E25C     		ldrb	r2, [r4, r3]
  61              	.LVL7:
1199:.\Generated_Source\PSoC4/BLE_System.c ****                 {
  62              		.loc 1 1199 0
  63 001c 002A     		cmp	r2, #0
  64 001e 0DD0     		beq	.L5
1202:.\Generated_Source\PSoC4/BLE_System.c ****                     
  65              		.loc 1 1202 0
  66 0020 0133     		add	r3, r3, #1
  67              	.LVL8:
  68 0022 DBB2     		uxtb	r3, r3
  69              	.LVL9:
1204:.\Generated_Source\PSoC4/BLE_System.c ****                        (CYBLE_COMPLETE_LOCAL_NAME == destBuffer[byteCounter]))
  70              		.loc 1 1204 0
  71 0024 E15C     		ldrb	r1, [r4, r3]
  72 0026 0839     		sub	r1, r1, #8
  73 0028 0129     		cmp	r1, #1
  74 002a 02D9     		bls	.L14
1209:.\Generated_Source\PSoC4/BLE_System.c ****                     }
1210:.\Generated_Source\PSoC4/BLE_System.c ****                     else
1211:.\Generated_Source\PSoC4/BLE_System.c ****                     {
1212:.\Generated_Source\PSoC4/BLE_System.c ****                         byteCounter += adLength;
  75              		.loc 1 1212 0
  76 002c 9B18     		add	r3, r3, r2
  77              	.LVL10:
  78 002e DBB2     		uxtb	r3, r3
  79              	.LVL11:
  80 0030 00E0     		b	.L3
  81              	.L14:
1208:.\Generated_Source\PSoC4/BLE_System.c ****                     }
  82              		.loc 1 1208 0
  83 0032 0125     		mov	r5, #1
  84              	.LVL12:
  85              	.L3:
1195:.\Generated_Source\PSoC4/BLE_System.c ****             {
  86              		.loc 1 1195 0
  87 0034 B342     		cmp	r3, r6
  88 0036 01D2     		bcs	.L5
1195:.\Generated_Source\PSoC4/BLE_System.c ****             {
  89              		.loc 1 1195 0 is_stmt 0 discriminator 1
  90 0038 002D     		cmp	r5, #0
  91 003a EED0     		beq	.L7
ARM GAS  C:\Users\310295~1\AppData\Local\Temp\ccZIm937.s 			page 24


  92              	.L5:
1213:.\Generated_Source\PSoC4/BLE_System.c ****                     }
1214:.\Generated_Source\PSoC4/BLE_System.c ****                 }
1215:.\Generated_Source\PSoC4/BLE_System.c ****                 else
1216:.\Generated_Source\PSoC4/BLE_System.c ****                 {
1217:.\Generated_Source\PSoC4/BLE_System.c ****                     /* The end of advertisement data structure was encountered though exit the loop
1218:.\Generated_Source\PSoC4/BLE_System.c ****                     break;
1219:.\Generated_Source\PSoC4/BLE_System.c ****                 }
1220:.\Generated_Source\PSoC4/BLE_System.c ****             }
1221:.\Generated_Source\PSoC4/BLE_System.c ****             
1222:.\Generated_Source\PSoC4/BLE_System.c ****             if(0u != flag)
  93              		.loc 1 1222 0 is_stmt 1
  94 003c 002D     		cmp	r5, #0
  95 003e 16D0     		beq	.L1
1223:.\Generated_Source\PSoC4/BLE_System.c ****             {
1224:.\Generated_Source\PSoC4/BLE_System.c ****                 /* Reuse "adLength" to hold location of the last character of local name in 
1225:.\Generated_Source\PSoC4/BLE_System.c ****                    AD structure. */
1226:.\Generated_Source\PSoC4/BLE_System.c ****                 adLength += byteCounter;
  96              		.loc 1 1226 0
  97 0040 D218     		add	r2, r2, r3
  98              	.LVL13:
  99 0042 D1B2     		uxtb	r1, r2
 100              	.LVL14:
1227:.\Generated_Source\PSoC4/BLE_System.c ****                 
1228:.\Generated_Source\PSoC4/BLE_System.c ****                 /* Increment byte counter to point to start of the local Name string */
1229:.\Generated_Source\PSoC4/BLE_System.c ****                 byteCounter++;
 101              		.loc 1 1229 0
 102 0044 0133     		add	r3, r3, #1
 103              	.LVL15:
 104 0046 DBB2     		uxtb	r3, r3
 105              	.LVL16:
1230:.\Generated_Source\PSoC4/BLE_System.c ****                 
1231:.\Generated_Source\PSoC4/BLE_System.c ****                 for(i = byteCounter; ((i < (adLength)) && (CYBLE_NULL_CHARCTER != name[i - byteCoun
 106              		.loc 1 1231 0
 107 0048 1A1C     		mov	r2, r3
 108 004a 02E0     		b	.L9
 109              	.LVL17:
 110              	.L11:
1232:.\Generated_Source\PSoC4/BLE_System.c ****                 {
1233:.\Generated_Source\PSoC4/BLE_System.c ****                     destBuffer[i] = (uint8)name[i - byteCounter];
 111              		.loc 1 1233 0 discriminator 4
 112 004c A554     		strb	r5, [r4, r2]
1231:.\Generated_Source\PSoC4/BLE_System.c ****                 {
 113              		.loc 1 1231 0 discriminator 4
 114 004e 0132     		add	r2, r2, #1
 115              	.LVL18:
 116 0050 D2B2     		uxtb	r2, r2
 117              	.LVL19:
 118              	.L9:
1231:.\Generated_Source\PSoC4/BLE_System.c ****                 {
 119              		.loc 1 1231 0 is_stmt 0 discriminator 1
 120 0052 8A42     		cmp	r2, r1
 121 0054 09D2     		bcs	.L12
1231:.\Generated_Source\PSoC4/BLE_System.c ****                 {
 122              		.loc 1 1231 0 discriminator 3
 123 0056 D51A     		sub	r5, r2, r3
 124 0058 455D     		ldrb	r5, [r0, r5]
ARM GAS  C:\Users\310295~1\AppData\Local\Temp\ccZIm937.s 			page 25


 125 005a 002D     		cmp	r5, #0
 126 005c F6D1     		bne	.L11
 127 005e 04E0     		b	.L12
 128              	.LVL20:
 129              	.L13:
1234:.\Generated_Source\PSoC4/BLE_System.c ****                 }
1235:.\Generated_Source\PSoC4/BLE_System.c ****                 
1236:.\Generated_Source\PSoC4/BLE_System.c ****                 /* This loop handles the case when new local name is shorted than old one.
1237:.\Generated_Source\PSoC4/BLE_System.c ****                    In this case all remaining characters should be null characters. */
1238:.\Generated_Source\PSoC4/BLE_System.c ****                 while(adLength > i)
1239:.\Generated_Source\PSoC4/BLE_System.c ****                 {
1240:.\Generated_Source\PSoC4/BLE_System.c ****                     /* Terminate string */
1241:.\Generated_Source\PSoC4/BLE_System.c ****                     destBuffer[i] = (uint8)CYBLE_NULL_CHARCTER;
 130              		.loc 1 1241 0 is_stmt 1
 131 0060 A318     		add	r3, r4, r2
 132 0062 0020     		mov	r0, #0
 133 0064 1870     		strb	r0, [r3]
1242:.\Generated_Source\PSoC4/BLE_System.c ****                     i++;
 134              		.loc 1 1242 0
 135 0066 0132     		add	r2, r2, #1
 136              	.LVL21:
 137 0068 D2B2     		uxtb	r2, r2
 138              	.LVL22:
 139              	.L12:
1238:.\Generated_Source\PSoC4/BLE_System.c ****                 {
 140              		.loc 1 1238 0
 141 006a 9142     		cmp	r1, r2
 142 006c F8D8     		bhi	.L13
 143              	.LVL23:
 144              	.L1:
1243:.\Generated_Source\PSoC4/BLE_System.c ****                 }
1244:.\Generated_Source\PSoC4/BLE_System.c ****             }
1245:.\Generated_Source\PSoC4/BLE_System.c ****         }
 145              		.loc 1 1245 0
 146              		@ sp needed
 147              	.LVL24:
 148              	.LVL25:
 149 006e 70BD     		pop	{r4, r5, r6, pc}
 150              	.L16:
 151              		.align	2
 152              	.L15:
 153 0070 00000000 		.word	.LANCHOR0
 154              		.cfi_endproc
 155              	.LFE11:
 156              		.size	CyBle_ChangeAdLocalName, .-CyBle_ChangeAdLocalName
 157              		.section	.text.CyBle_ServiceInit,"ax",%progbits
 158              		.align	2
 159              		.global	CyBle_ServiceInit
 160              		.code	16
 161              		.thumb_func
 162              		.type	CyBle_ServiceInit, %function
 163              	CyBle_ServiceInit:
 164              	.LFB3:
 202:.\Generated_Source\PSoC4/BLE_System.c ****     #if(CYBLE_GATT_ROLE_CLIENT)
 165              		.loc 1 202 0
 166              		.cfi_startproc
 167 0000 08B5     		push	{r3, lr}
ARM GAS  C:\Users\310295~1\AppData\Local\Temp\ccZIm937.s 			page 26


 168              		.cfi_def_cfa_offset 8
 169              		.cfi_offset 3, -8
 170              		.cfi_offset 14, -4
 256:.\Generated_Source\PSoC4/BLE_System.c ****     #endif /* CYBLE_CUSTOM */
 171              		.loc 1 256 0
 172 0002 FFF7FEFF 		bl	CyBle_CustomInit
 173              	.LVL26:
 338:.\Generated_Source\PSoC4/BLE_System.c **** 
 174              		.loc 1 338 0
 175              		@ sp needed
 176 0006 08BD     		pop	{r3, pc}
 177              		.cfi_endproc
 178              	.LFE3:
 179              		.size	CyBle_ServiceInit, .-CyBle_ServiceInit
 180              		.section	.text.CyBle_Init,"ax",%progbits
 181              		.align	2
 182              		.global	CyBle_Init
 183              		.code	16
 184              		.thumb_func
 185              		.type	CyBle_Init, %function
 186              	CyBle_Init:
 187              	.LFB2:
 153:.\Generated_Source\PSoC4/BLE_System.c ****     cyBle_eventHandlerFlag = 0u;
 188              		.loc 1 153 0
 189              		.cfi_startproc
 190 0000 10B5     		push	{r4, lr}
 191              		.cfi_def_cfa_offset 8
 192              		.cfi_offset 4, -8
 193              		.cfi_offset 14, -4
 154:.\Generated_Source\PSoC4/BLE_System.c ****     cyBle_busyStatus = CYBLE_STACK_STATE_FREE;
 194              		.loc 1 154 0
 195 0002 0024     		mov	r4, #0
 196 0004 064B     		ldr	r3, .L19
 197 0006 1C70     		strb	r4, [r3]
 155:.\Generated_Source\PSoC4/BLE_System.c **** 
 198              		.loc 1 155 0
 199 0008 064B     		ldr	r3, .L19+4
 200 000a 1C70     		strb	r4, [r3]
 158:.\Generated_Source\PSoC4/BLE_System.c ****     #endif /* (CYBLE_GAP_ROLE_PERIPHERAL || CYBLE_GAP_ROLE_BROADCASTER)  */
 201              		.loc 1 158 0
 202 000c 064B     		ldr	r3, .L19+8
 203 000e 1C70     		strb	r4, [r3]
 181:.\Generated_Source\PSoC4/BLE_System.c **** 
 204              		.loc 1 181 0
 205 0010 FFF7FEFF 		bl	CyBle_ServiceInit
 206              	.LVL27:
 184:.\Generated_Source\PSoC4/BLE_System.c ****         cyBle_peerBonding = CYBLE_GAP_BONDING_NONE;
 207              		.loc 1 184 0
 208 0014 054B     		ldr	r3, .L19+12
 209 0016 1C70     		strb	r4, [r3]
 185:.\Generated_Source\PSoC4/BLE_System.c ****     #endif  /* (CYBLE_BONDING_REQUIREMENT == CYBLE_BONDING_YES) */
 210              		.loc 1 185 0
 211 0018 054B     		ldr	r3, .L19+16
 212 001a 1C70     		strb	r4, [r3]
 188:.\Generated_Source\PSoC4/BLE_System.c **** 
 213              		.loc 1 188 0
 214              		@ sp needed
ARM GAS  C:\Users\310295~1\AppData\Local\Temp\ccZIm937.s 			page 27


 215 001c 10BD     		pop	{r4, pc}
 216              	.L20:
 217 001e C046     		.align	2
 218              	.L19:
 219 0020 00000000 		.word	cyBle_eventHandlerFlag
 220 0024 00000000 		.word	cyBle_busyStatus
 221 0028 00000000 		.word	cyBle_advertisingIntervalType
 222 002c 00000000 		.word	cyBle_pendingFlashWrite
 223 0030 00000000 		.word	cyBle_peerBonding
 224              		.cfi_endproc
 225              	.LFE2:
 226              		.size	CyBle_Init, .-CyBle_Init
 227              		.section	.text.CyBle_Start,"ax",%progbits
 228              		.align	2
 229              		.global	CyBle_Start
 230              		.code	16
 231              		.thumb_func
 232              		.type	CyBle_Start, %function
 233              	CyBle_Start:
 234              	.LFB4:
 400:.\Generated_Source\PSoC4/BLE_System.c ****     CYBLE_API_RESULT_T apiResult = CYBLE_ERROR_OK;
 235              		.loc 1 400 0
 236              		.cfi_startproc
 237              	.LVL28:
 238 0000 10B5     		push	{r4, lr}
 239              		.cfi_def_cfa_offset 8
 240              		.cfi_offset 4, -8
 241              		.cfi_offset 14, -4
 242 0002 90B0     		sub	sp, sp, #64
 243              		.cfi_def_cfa_offset 72
 244 0004 041C     		mov	r4, r0
 245              	.LVL29:
 405:.\Generated_Source\PSoC4/BLE_System.c ****     {
 246              		.loc 1 405 0
 247 0006 0BA8     		add	r0, sp, #44
 248              	.LVL30:
 249 0008 1F49     		ldr	r1, .L25
 250 000a 1422     		mov	r2, #20
 251 000c FFF7FEFF 		bl	memcpy
 252              	.LVL31:
 417:.\Generated_Source\PSoC4/BLE_System.c ****     {
 253              		.loc 1 417 0
 254 0010 1E4B     		ldr	r3, .L25+4
 255 0012 1B78     		ldrb	r3, [r3]
 256 0014 002B     		cmp	r3, #0
 257 0016 04D1     		bne	.L22
 419:.\Generated_Source\PSoC4/BLE_System.c ****         cyBle_initVar = 1u;
 258              		.loc 1 419 0
 259 0018 FFF7FEFF 		bl	CyBle_Init
 260              	.LVL32:
 420:.\Generated_Source\PSoC4/BLE_System.c ****     }
 261              		.loc 1 420 0
 262 001c 0122     		mov	r2, #1
 263 001e 1B4B     		ldr	r3, .L25+4
 264 0020 1A70     		strb	r2, [r3]
 265              	.L22:
 423:.\Generated_Source\PSoC4/BLE_System.c ****     {
ARM GAS  C:\Users\310295~1\AppData\Local\Temp\ccZIm937.s 			page 28


 266              		.loc 1 423 0
 267 0022 002C     		cmp	r4, #0
 268 0024 2DD0     		beq	.L24
 425:.\Generated_Source\PSoC4/BLE_System.c ****         
 269              		.loc 1 425 0
 270 0026 1A4B     		ldr	r3, .L25+8
 271 0028 1C60     		str	r4, [r3]
 272              	.LBB2:
 444:.\Generated_Source\PSoC4/BLE_System.c ****             stackConfig.dleConfig = &dleConfigParams;
 273              		.loc 1 444 0
 274 002a 08A8     		add	r0, sp, #32
 275 002c 05AA     		add	r2, sp, #20
 276 002e 4260     		str	r2, [r0, #4]
 445:.\Generated_Source\PSoC4/BLE_System.c ****             
 277              		.loc 1 445 0
 278 0030 06AB     		add	r3, sp, #24
 279 0032 0893     		str	r3, [sp, #32]
 448:.\Generated_Source\PSoC4/BLE_System.c ****                                        CYBLE_SECURE_CONN_FEATURE;
 280              		.loc 1 448 0
 281 0034 0021     		mov	r1, #0
 282 0036 0181     		strh	r1, [r0, #8]
 452:.\Generated_Source\PSoC4/BLE_System.c ****             dleConfigParams.dleMaxRxCapability = CYBLE_LL_MAX_RX_PAYLOAD_SIZE;
 283              		.loc 1 452 0
 284 0038 1B31     		add	r1, r1, #27
 285 003a 1980     		strh	r1, [r3]
 453:.\Generated_Source\PSoC4/BLE_System.c ****             dleConfigParams.dleNumTxBuffer = CYBLE_LL_DEFAULT_NUM_ACL_TX_PACKETS;
 286              		.loc 1 453 0
 287 003c 5980     		strh	r1, [r3, #2]
 454:.\Generated_Source\PSoC4/BLE_System.c ****         #if(CYBLE_DLE_FEATURE_ENABLED)
 288              		.loc 1 454 0
 289 003e 1739     		sub	r1, r1, #23
 290 0040 1971     		strb	r1, [r3, #4]
 460:.\Generated_Source\PSoC4/BLE_System.c ****         #if(CYBLE_LL_PRIVACY_FEATURE_ENABLED)
 291              		.loc 1 460 0
 292 0042 0023     		mov	r3, #0
 293 0044 1370     		strb	r3, [r2]
 465:.\Generated_Source\PSoC4/BLE_System.c ****             }
 294              		.loc 1 465 0
 295 0046 1231     		add	r1, r1, #18
 296 0048 6944     		add	r1, r1, sp
 297 004a FFF7FEFF 		bl	CyBle_StackSetFeatureConfig
 298              	.LVL33:
 299              	.LBE2:
 468:.\Generated_Source\PSoC4/BLE_System.c ****         {
 300              		.loc 1 468 0
 301 004e 0028     		cmp	r0, #0
 302 0050 18D1     		bne	.L23
 473:.\Generated_Source\PSoC4/BLE_System.c ****                     CYBLE_STACK_RAM_SIZE - CYBLE_GATT_PREPARE_WRITE_BUFF_LEN, cyBle_stackDataBuff, 
 303              		.loc 1 473 0
 304 0052 0523     		mov	r3, #5
 305 0054 0093     		str	r3, [sp]
 306 0056 0F4B     		ldr	r3, .L25+12
 307 0058 0193     		str	r3, [sp, #4]
 308 005a 0F4B     		ldr	r3, .L25+16
 309 005c 0293     		str	r3, [sp, #8]
 310 005e 0F48     		ldr	r0, .L25+20
 311              	.LVL34:
ARM GAS  C:\Users\310295~1\AppData\Local\Temp\ccZIm937.s 			page 29


 312 0060 0F49     		ldr	r1, .L25+24
 313 0062 AE22     		mov	r2, #174
 314 0064 1201     		lsl	r2, r2, #4
 315 0066 0BAB     		add	r3, sp, #44
 316 0068 FFF7FEFF 		bl	CyBle_StackInit
 317              	.LVL35:
 486:.\Generated_Source\PSoC4/BLE_System.c ****             {
 318              		.loc 1 486 0
 319 006c 0028     		cmp	r0, #0
 320 006e 09D1     		bne	.L23
 488:.\Generated_Source\PSoC4/BLE_System.c ****                 
 321              		.loc 1 488 0
 322 0070 0122     		mov	r2, #1
 323 0072 0C4B     		ldr	r3, .L25+28
 324 0074 1A70     		strb	r2, [r3]
 495:.\Generated_Source\PSoC4/BLE_System.c ****             #endif /* CYBLE_GATT_ROLE_SERVER */
 325              		.loc 1 495 0
 326 0076 0C48     		ldr	r0, .L25+32
 327              	.LVL36:
 328 0078 1221     		mov	r1, #18
 329 007a 0B32     		add	r2, r2, #11
 330 007c FFF7FEFF 		bl	CyBle_GattsDbRegister
 331              	.LVL37:
 332 0080 00E0     		b	.L23
 333              	.LVL38:
 334              	.L24:
 502:.\Generated_Source\PSoC4/BLE_System.c ****     }
 335              		.loc 1 502 0
 336 0082 0120     		mov	r0, #1
 337              	.LVL39:
 338              	.L23:
 506:.\Generated_Source\PSoC4/BLE_System.c **** 
 339              		.loc 1 506 0
 340 0084 10B0     		add	sp, sp, #64
 341              		@ sp needed
 342              	.LVL40:
 343 0086 10BD     		pop	{r4, pc}
 344              	.L26:
 345              		.align	2
 346              	.L25:
 347 0088 00000000 		.word	.LANCHOR1
 348 008c 00000000 		.word	.LANCHOR2
 349 0090 00000000 		.word	CyBle_ApplCallback
 350 0094 00000000 		.word	cyBle_flashStorage
 351 0098 79020000 		.word	633
 352 009c 00000000 		.word	CyBle_EventHandler
 353 00a0 00000000 		.word	.LANCHOR3
 354 00a4 00000000 		.word	cyBle_state
 355 00a8 00000000 		.word	cyBle_gattDB
 356              		.cfi_endproc
 357              	.LFE4:
 358              		.size	CyBle_Start, .-CyBle_Start
 359              		.section	.text.CyBle_Stop,"ax",%progbits
 360              		.align	2
 361              		.global	CyBle_Stop
 362              		.code	16
 363              		.thumb_func
ARM GAS  C:\Users\310295~1\AppData\Local\Temp\ccZIm937.s 			page 30


 364              		.type	CyBle_Stop, %function
 365              	CyBle_Stop:
 366              	.LFB5:
 522:.\Generated_Source\PSoC4/BLE_System.c ****     CyBle_Shutdown();                         /* Stop all ongoing activities */
 367              		.loc 1 522 0
 368              		.cfi_startproc
 369 0000 08B5     		push	{r3, lr}
 370              		.cfi_def_cfa_offset 8
 371              		.cfi_offset 3, -8
 372              		.cfi_offset 14, -4
 523:.\Generated_Source\PSoC4/BLE_System.c ****     CyBle_SetState(CYBLE_STATE_STOPPED);
 373              		.loc 1 523 0
 374 0002 FFF7FEFF 		bl	CyBle_Shutdown
 375              	.LVL41:
 524:.\Generated_Source\PSoC4/BLE_System.c ****     #if(CYBLE_SHARING_MODE_EXPORT)
 376              		.loc 1 524 0
 377 0006 0022     		mov	r2, #0
 378 0008 014B     		ldr	r3, .L28
 379 000a 1A70     		strb	r2, [r3]
 531:.\Generated_Source\PSoC4/BLE_System.c **** 
 380              		.loc 1 531 0
 381              		@ sp needed
 382 000c 08BD     		pop	{r3, pc}
 383              	.L29:
 384 000e C046     		.align	2
 385              	.L28:
 386 0010 00000000 		.word	cyBle_state
 387              		.cfi_endproc
 388              	.LFE5:
 389              		.size	CyBle_Stop, .-CyBle_Stop
 390              		.section	.text.CyBle_StoreBondingData,"ax",%progbits
 391              		.align	2
 392              		.global	CyBle_StoreBondingData
 393              		.code	16
 394              		.thumb_func
 395              		.type	CyBle_StoreBondingData, %function
 396              	CyBle_StoreBondingData:
 397              	.LFB6:
 575:.\Generated_Source\PSoC4/BLE_System.c ****     CYBLE_API_RESULT_T apiResult = CYBLE_ERROR_OK;
 398              		.loc 1 575 0
 399              		.cfi_startproc
 400              	.LVL42:
 401 0000 10B5     		push	{r4, lr}
 402              		.cfi_def_cfa_offset 8
 403              		.cfi_offset 4, -8
 404              		.cfi_offset 14, -4
 405 0002 86B0     		sub	sp, sp, #24
 406              		.cfi_def_cfa_offset 32
 407 0004 041C     		mov	r4, r0
 408              	.LVL43:
 579:.\Generated_Source\PSoC4/BLE_System.c ****     {
 409              		.loc 1 579 0
 410 0006 334B     		ldr	r3, .L41
 411 0008 1B78     		ldrb	r3, [r3]
 412 000a DB07     		lsl	r3, r3, #31
 413 000c 0BD5     		bpl	.L39
 581:.\Generated_Source\PSoC4/BLE_System.c ****         if(apiResult == CYBLE_ERROR_OK)
ARM GAS  C:\Users\310295~1\AppData\Local\Temp\ccZIm937.s 			page 31


 414              		.loc 1 581 0
 415 000e FFF7FEFF 		bl	CyBle_StoreStackData
 416              	.LVL44:
 582:.\Generated_Source\PSoC4/BLE_System.c ****         {
 417              		.loc 1 582 0
 418 0012 0028     		cmp	r0, #0
 419 0014 0AD1     		bne	.L31
 584:.\Generated_Source\PSoC4/BLE_System.c ****             /* Change apiResult if there are more pending data to store */
 420              		.loc 1 584 0
 421 0016 2F4A     		ldr	r2, .L41
 422 0018 1378     		ldrb	r3, [r2]
 423 001a 0121     		mov	r1, #1
 424 001c 8B43     		bic	r3, r1
 425 001e 1370     		strb	r3, [r2]
 586:.\Generated_Source\PSoC4/BLE_System.c ****             {
 426              		.loc 1 586 0
 427 0020 9B07     		lsl	r3, r3, #30
 428 0022 02D4     		bmi	.L40
 429 0024 02E0     		b	.L31
 430              	.LVL45:
 431              	.L39:
 576:.\Generated_Source\PSoC4/BLE_System.c ****     
 432              		.loc 1 576 0
 433 0026 0020     		mov	r0, #0
 434              	.LVL46:
 435 0028 00E0     		b	.L31
 436              	.LVL47:
 437              	.L40:
 588:.\Generated_Source\PSoC4/BLE_System.c ****             }
 438              		.loc 1 588 0
 439 002a 2820     		mov	r0, #40
 440              	.LVL48:
 441              	.L31:
 594:.\Generated_Source\PSoC4/BLE_System.c ****         ((cyBle_pendingFlashWrite & CYBLE_PENDING_CCCD_FLASH_WRITE_BIT) != 0u) &&
 442              		.loc 1 594 0
 443 002c 0028     		cmp	r0, #0
 444 002e 01D0     		beq	.L32
 594:.\Generated_Source\PSoC4/BLE_System.c ****         ((cyBle_pendingFlashWrite & CYBLE_PENDING_CCCD_FLASH_WRITE_BIT) != 0u) &&
 445              		.loc 1 594 0 is_stmt 0 discriminator 2
 446 0030 002C     		cmp	r4, #0
 447 0032 18D0     		beq	.L33
 448              	.L32:
 595:.\Generated_Source\PSoC4/BLE_System.c ****         (cyBle_connHandle.bdHandle <= CYBLE_GAP_MAX_BONDED_DEVICE))
 449              		.loc 1 595 0 is_stmt 1 discriminator 3
 450 0034 274B     		ldr	r3, .L41
 451 0036 1B78     		ldrb	r3, [r3]
 594:.\Generated_Source\PSoC4/BLE_System.c ****         ((cyBle_pendingFlashWrite & CYBLE_PENDING_CCCD_FLASH_WRITE_BIT) != 0u) &&
 452              		.loc 1 594 0 discriminator 3
 453 0038 9B07     		lsl	r3, r3, #30
 454 003a 14D5     		bpl	.L33
 596:.\Generated_Source\PSoC4/BLE_System.c ****     {
 455              		.loc 1 596 0
 456 003c 264B     		ldr	r3, .L41+4
 457 003e 1978     		ldrb	r1, [r3]
 595:.\Generated_Source\PSoC4/BLE_System.c ****         (cyBle_connHandle.bdHandle <= CYBLE_GAP_MAX_BONDED_DEVICE))
 458              		.loc 1 595 0
 459 0040 0429     		cmp	r1, #4
ARM GAS  C:\Users\310295~1\AppData\Local\Temp\ccZIm937.s 			page 32


 460 0042 10D8     		bhi	.L33
 598:.\Generated_Source\PSoC4/BLE_System.c ****                         cyBle_connHandle.bdHandle], CYBLE_GATT_DB_CCCD_COUNT, isForceWrite);
 461              		.loc 1 598 0
 462 0044 9E31     		add	r1, r1, #158
 463 0046 8900     		lsl	r1, r1, #2
 464 0048 244B     		ldr	r3, .L41+8
 465 004a C918     		add	r1, r1, r3
 466 004c 0131     		add	r1, r1, #1
 467 004e 2448     		ldr	r0, .L41+12
 468              	.LVL49:
 469 0050 0422     		mov	r2, #4
 470 0052 231C     		mov	r3, r4
 471 0054 FFF7FEFF 		bl	CyBle_StoreAppData
 472              	.LVL50:
 600:.\Generated_Source\PSoC4/BLE_System.c ****         {
 473              		.loc 1 600 0
 474 0058 0028     		cmp	r0, #0
 475 005a 04D1     		bne	.L33
 602:.\Generated_Source\PSoC4/BLE_System.c ****         }
 476              		.loc 1 602 0
 477 005c 1D4A     		ldr	r2, .L41
 478 005e 1378     		ldrb	r3, [r2]
 479 0060 0221     		mov	r1, #2
 480 0062 8B43     		bic	r3, r1
 481 0064 1370     		strb	r3, [r2]
 482              	.LVL51:
 483              	.L33:
 606:.\Generated_Source\PSoC4/BLE_System.c ****         ((cyBle_pendingFlashWrite & CYBLE_PENDING_CCCD_FLASH_CLEAR_MASK) != 0u) )
 484              		.loc 1 606 0
 485 0066 0028     		cmp	r0, #0
 486 0068 01D0     		beq	.L34
 606:.\Generated_Source\PSoC4/BLE_System.c ****         ((cyBle_pendingFlashWrite & CYBLE_PENDING_CCCD_FLASH_CLEAR_MASK) != 0u) )
 487              		.loc 1 606 0 is_stmt 0 discriminator 2
 488 006a 002C     		cmp	r4, #0
 489 006c 2FD0     		beq	.L35
 490              	.L34:
 607:.\Generated_Source\PSoC4/BLE_System.c ****     {
 491              		.loc 1 607 0 is_stmt 1 discriminator 3
 492 006e 194B     		ldr	r3, .L41
 493 0070 1B78     		ldrb	r3, [r3]
 606:.\Generated_Source\PSoC4/BLE_System.c ****         ((cyBle_pendingFlashWrite & CYBLE_PENDING_CCCD_FLASH_CLEAR_MASK) != 0u) )
 494              		.loc 1 606 0 discriminator 3
 495 0072 0C22     		mov	r2, #12
 496 0074 1A42     		tst	r2, r3
 497 0076 2AD0     		beq	.L35
 609:.\Generated_Source\PSoC4/BLE_System.c ****         {
 498              		.loc 1 609 0
 499 0078 1B07     		lsl	r3, r3, #28
 500 007a 13D5     		bpl	.L36
 501              	.LBB3:
 614:.\Generated_Source\PSoC4/BLE_System.c **** 
 502              		.loc 1 614 0
 503 007c 0023     		mov	r3, #0
 504 007e 0193     		str	r3, [sp, #4]
 505 0080 0293     		str	r3, [sp, #8]
 506 0082 0393     		str	r3, [sp, #12]
 507 0084 0493     		str	r3, [sp, #16]
ARM GAS  C:\Users\310295~1\AppData\Local\Temp\ccZIm937.s 			page 33


 508 0086 0593     		str	r3, [sp, #20]
 616:.\Generated_Source\PSoC4/BLE_System.c ****                 (const uint8 *)cyBle_flashStorage.attValuesCCCDFlashMemory, sizeof(defaultValuesCCC
 509              		.loc 1 616 0
 510 0088 01A8     		add	r0, sp, #4
 511              	.LVL52:
 512 008a 1649     		ldr	r1, .L41+16
 513 008c 0832     		add	r2, r2, #8
 514 008e 231C     		mov	r3, r4
 515 0090 FFF7FEFF 		bl	CyBle_StoreAppData
 516              	.LVL53:
 618:.\Generated_Source\PSoC4/BLE_System.c ****             {
 517              		.loc 1 618 0
 518 0094 0028     		cmp	r0, #0
 519 0096 1AD1     		bne	.L35
 620:.\Generated_Source\PSoC4/BLE_System.c ****             }
 520              		.loc 1 620 0
 521 0098 0E4A     		ldr	r2, .L41
 522 009a 1378     		ldrb	r3, [r2]
 523 009c 0821     		mov	r1, #8
 524 009e 8B43     		bic	r3, r1
 525 00a0 1370     		strb	r3, [r2]
 526 00a2 14E0     		b	.L35
 527              	.L36:
 528              	.LBE3:
 529              	.LBB4:
 625:.\Generated_Source\PSoC4/BLE_System.c ****             
 530              		.loc 1 625 0
 531 00a4 0023     		mov	r3, #0
 532 00a6 0193     		str	r3, [sp, #4]
 627:.\Generated_Source\PSoC4/BLE_System.c ****                                     cyBle_pendingFlashClearCccdHandle], CYBLE_GATT_DB_CCCD_COUNT, i
 533              		.loc 1 627 0
 534 00a8 0F4B     		ldr	r3, .L41+20
 535 00aa 5978     		ldrb	r1, [r3, #1]
 536 00ac 9E31     		add	r1, r1, #158
 537 00ae 8900     		lsl	r1, r1, #2
 538 00b0 0A4B     		ldr	r3, .L41+8
 539 00b2 C918     		add	r1, r1, r3
 540 00b4 0131     		add	r1, r1, #1
 541 00b6 01A8     		add	r0, sp, #4
 542              	.LVL54:
 543 00b8 0422     		mov	r2, #4
 544 00ba 231C     		mov	r3, r4
 545 00bc FFF7FEFF 		bl	CyBle_StoreAppData
 546              	.LVL55:
 629:.\Generated_Source\PSoC4/BLE_System.c ****             {
 547              		.loc 1 629 0
 548 00c0 0028     		cmp	r0, #0
 549 00c2 04D1     		bne	.L35
 631:.\Generated_Source\PSoC4/BLE_System.c ****             }
 550              		.loc 1 631 0
 551 00c4 034A     		ldr	r2, .L41
 552 00c6 1378     		ldrb	r3, [r2]
 553 00c8 0421     		mov	r1, #4
 554 00ca 8B43     		bic	r3, r1
 555 00cc 1370     		strb	r3, [r2]
 556              	.LVL56:
 557              	.L35:
ARM GAS  C:\Users\310295~1\AppData\Local\Temp\ccZIm937.s 			page 34


 558              	.LBE4:
 637:.\Generated_Source\PSoC4/BLE_System.c **** 
 559              		.loc 1 637 0
 560 00ce 06B0     		add	sp, sp, #24
 561              		@ sp needed
 562 00d0 10BD     		pop	{r4, pc}
 563              	.L42:
 564 00d2 C046     		.align	2
 565              	.L41:
 566 00d4 00000000 		.word	cyBle_pendingFlashWrite
 567 00d8 00000000 		.word	cyBle_connHandle
 568 00dc 00000000 		.word	cyBle_flashStorage
 569 00e0 00000000 		.word	cyBle_attValuesCCCD
 570 00e4 79020000 		.word	cyBle_flashStorage+633
 571 00e8 00000000 		.word	.LANCHOR2
 572              		.cfi_endproc
 573              	.LFE6:
 574              		.size	CyBle_StoreBondingData, .-CyBle_StoreBondingData
 575              		.section	.text.CyBle_GapRemoveBondedDevice,"ax",%progbits
 576              		.align	2
 577              		.global	CyBle_GapRemoveBondedDevice
 578              		.code	16
 579              		.thumb_func
 580              		.type	CyBle_GapRemoveBondedDevice, %function
 581              	CyBle_GapRemoveBondedDevice:
 582              	.LFB7:
 673:.\Generated_Source\PSoC4/BLE_System.c ****     CYBLE_API_RESULT_T apiResult = CYBLE_ERROR_OK;
 583              		.loc 1 673 0
 584              		.cfi_startproc
 585              	.LVL57:
 586 0000 30B5     		push	{r4, r5, lr}
 587              		.cfi_def_cfa_offset 12
 588              		.cfi_offset 4, -12
 589              		.cfi_offset 5, -8
 590              		.cfi_offset 14, -4
 591 0002 85B0     		sub	sp, sp, #20
 592              		.cfi_def_cfa_offset 32
 593              	.LVL58:
 676:.\Generated_Source\PSoC4/BLE_System.c ****     {
 594              		.loc 1 676 0
 595 0004 184B     		ldr	r3, .L49
 596 0006 1D78     		ldrb	r5, [r3]
 597 0008 002D     		cmp	r5, #0
 598 000a 29D1     		bne	.L48
 599 000c 041C     		mov	r4, r0
 600              	.LBB5:
 682:.\Generated_Source\PSoC4/BLE_System.c **** 
 601              		.loc 1 682 0
 602 000e 02A9     		add	r1, sp, #8
 603 0010 0023     		mov	r3, #0
 604 0012 0B70     		strb	r3, [r1]
 605 0014 4B70     		strb	r3, [r1, #1]
 606 0016 8B70     		strb	r3, [r1, #2]
 607 0018 CB70     		strb	r3, [r1, #3]
 608 001a 0B71     		strb	r3, [r1, #4]
 609 001c 4B71     		strb	r3, [r1, #5]
 610 001e 8B71     		strb	r3, [r1, #6]
ARM GAS  C:\Users\310295~1\AppData\Local\Temp\ccZIm937.s 			page 35


 684:.\Generated_Source\PSoC4/BLE_System.c **** 	    {
 611              		.loc 1 684 0
 612 0020 0622     		mov	r2, #6
 613 0022 FFF7FEFF 		bl	memcmp
 614              	.LVL59:
 615 0026 0028     		cmp	r0, #0
 616 0028 04D1     		bne	.L45
 687:.\Generated_Source\PSoC4/BLE_System.c ****         }
 617              		.loc 1 687 0
 618 002a 0823     		mov	r3, #8
 619 002c 1D43     		orr	r5, r3
 620 002e 0E4B     		ldr	r3, .L49
 621 0030 1D70     		strb	r5, [r3]
 622 0032 0FE0     		b	.L46
 623              	.L45:
 692:.\Generated_Source\PSoC4/BLE_System.c ****             if(apiResult == CYBLE_ERROR_OK)
 624              		.loc 1 692 0
 625 0034 6B46     		mov	r3, sp
 626 0036 D81D     		add	r0, r3, #7
 627 0038 211C     		mov	r1, r4
 628 003a FFF7FEFF 		bl	CyBle_GapGetPeerBdHandle
 629              	.LVL60:
 693:.\Generated_Source\PSoC4/BLE_System.c ****             {
 630              		.loc 1 693 0
 631 003e 0028     		cmp	r0, #0
 632 0040 08D1     		bne	.L46
 696:.\Generated_Source\PSoC4/BLE_System.c ****                 cyBle_pendingFlashClearCccdHandle = bDevHandle;
 633              		.loc 1 696 0
 634 0042 094A     		ldr	r2, .L49
 635 0044 1178     		ldrb	r1, [r2]
 636 0046 0423     		mov	r3, #4
 637 0048 0B43     		orr	r3, r1
 638 004a 1370     		strb	r3, [r2]
 697:.\Generated_Source\PSoC4/BLE_System.c ****             }
 639              		.loc 1 697 0
 640 004c 6B46     		mov	r3, sp
 641 004e DA79     		ldrb	r2, [r3, #7]
 642 0050 064B     		ldr	r3, .L49+4
 643 0052 5A70     		strb	r2, [r3, #1]
 644              	.LVL61:
 645              	.L46:
 700:.\Generated_Source\PSoC4/BLE_System.c ****         {
 646              		.loc 1 700 0
 647 0054 0028     		cmp	r0, #0
 648 0056 04D1     		bne	.L44
 703:.\Generated_Source\PSoC4/BLE_System.c ****             #else
 649              		.loc 1 703 0
 650 0058 201C     		mov	r0, r4
 651              	.LVL62:
 652 005a FFF7FEFF 		bl	CyBle_GapRemoveDeviceFromWhiteList
 653              	.LVL63:
 654 005e 00E0     		b	.L44
 655              	.LVL64:
 656              	.L48:
 657              	.LBE5:
 712:.\Generated_Source\PSoC4/BLE_System.c ****     }
 658              		.loc 1 712 0
ARM GAS  C:\Users\310295~1\AppData\Local\Temp\ccZIm937.s 			page 36


 659 0060 0220     		mov	r0, #2
 660              	.LVL65:
 661              	.L44:
 716:.\Generated_Source\PSoC4/BLE_System.c **** 
 662              		.loc 1 716 0
 663 0062 05B0     		add	sp, sp, #20
 664              		@ sp needed
 665 0064 30BD     		pop	{r4, r5, pc}
 666              	.L50:
 667 0066 C046     		.align	2
 668              	.L49:
 669 0068 00000000 		.word	cyBle_pendingFlashWrite
 670 006c 00000000 		.word	.LANCHOR2
 671              		.cfi_endproc
 672              	.LFE7:
 673              		.size	CyBle_GapRemoveBondedDevice, .-CyBle_GapRemoveBondedDevice
 674              		.section	.text.CyBle_GappStartAdvertisement,"ax",%progbits
 675              		.align	2
 676              		.global	CyBle_GappStartAdvertisement
 677              		.code	16
 678              		.thumb_func
 679              		.type	CyBle_GappStartAdvertisement, %function
 680              	CyBle_GappStartAdvertisement:
 681              	.LFB8:
 774:.\Generated_Source\PSoC4/BLE_System.c ****         CYBLE_API_RESULT_T apiResult;
 682              		.loc 1 774 0
 683              		.cfi_startproc
 684              	.LVL66:
 685 0000 08B5     		push	{r3, lr}
 686              		.cfi_def_cfa_offset 8
 687              		.cfi_offset 3, -8
 688              		.cfi_offset 14, -4
 777:.\Generated_Source\PSoC4/BLE_System.c ****         {
 689              		.loc 1 777 0
 690 0002 0228     		cmp	r0, #2
 691 0004 33D8     		bhi	.L55
 781:.\Generated_Source\PSoC4/BLE_System.c ****         {   
 692              		.loc 1 781 0
 693 0006 1E4B     		ldr	r3, .L58
 694 0008 1B78     		ldrb	r3, [r3]
 695 000a 042B     		cmp	r3, #4
 696 000c 31D1     		bne	.L56
 781:.\Generated_Source\PSoC4/BLE_System.c ****         {   
 697              		.loc 1 781 0 is_stmt 0 discriminator 1
 698 000e 1D4B     		ldr	r3, .L58+4
 699 0010 1B78     		ldrb	r3, [r3]
 700 0012 5B07     		lsl	r3, r3, #29
 701 0014 30D4     		bmi	.L57
 783:.\Generated_Source\PSoC4/BLE_System.c ****             {
 702              		.loc 1 783 0 is_stmt 1
 703 0016 0028     		cmp	r0, #0
 704 0018 0CD1     		bne	.L53
 785:.\Generated_Source\PSoC4/BLE_System.c ****                 cyBle_discoveryModeInfo.advParam->advIntvMin = CYBLE_FAST_ADV_INT_MIN;
 705              		.loc 1 785 0
 706 001a 1B4B     		ldr	r3, .L58+8
 707 001c 1A1C     		mov	r2, r3
 708 001e 4032     		add	r2, r2, #64
ARM GAS  C:\Users\310295~1\AppData\Local\Temp\ccZIm937.s 			page 37


 709 0020 3C21     		mov	r1, #60
 710 0022 1182     		strh	r1, [r2, #16]
 786:.\Generated_Source\PSoC4/BLE_System.c ****                 cyBle_discoveryModeInfo.advParam->advIntvMax = CYBLE_FAST_ADV_INT_MAX;
 711              		.loc 1 786 0
 712 0024 9022     		mov	r2, #144
 713 0026 5200     		lsl	r2, r2, #1
 714 0028 596C     		ldr	r1, [r3, #68]
 715 002a 0A80     		strh	r2, [r1]
 787:.\Generated_Source\PSoC4/BLE_System.c ****             }
 716              		.loc 1 787 0
 717 002c 5B6C     		ldr	r3, [r3, #68]
 718 002e 2032     		add	r2, r2, #32
 719 0030 5A80     		strh	r2, [r3, #2]
 720 0032 0EE0     		b	.L54
 721              	.L53:
 789:.\Generated_Source\PSoC4/BLE_System.c ****             {
 722              		.loc 1 789 0
 723 0034 0128     		cmp	r0, #1
 724 0036 0CD1     		bne	.L54
 791:.\Generated_Source\PSoC4/BLE_System.c ****                 cyBle_discoveryModeInfo.advParam->advIntvMin = CYBLE_SLOW_ADV_INT_MIN;
 725              		.loc 1 791 0
 726 0038 134B     		ldr	r3, .L58+8
 727 003a 1A1C     		mov	r2, r3
 728 003c 4032     		add	r2, r2, #64
 729 003e 9621     		mov	r1, #150
 730 0040 1182     		strh	r1, [r2, #16]
 792:.\Generated_Source\PSoC4/BLE_System.c ****                 cyBle_discoveryModeInfo.advParam->advIntvMax = CYBLE_SLOW_ADV_INT_MAX;
 731              		.loc 1 792 0
 732 0042 C822     		mov	r2, #200
 733 0044 D200     		lsl	r2, r2, #3
 734 0046 596C     		ldr	r1, [r3, #68]
 735 0048 0A80     		strh	r2, [r1]
 793:.\Generated_Source\PSoC4/BLE_System.c ****             }       
 736              		.loc 1 793 0
 737 004a 5B6C     		ldr	r3, [r3, #68]
 738 004c 8022     		mov	r2, #128
 739 004e D201     		lsl	r2, r2, #7
 740 0050 5A80     		strh	r2, [r3, #2]
 741              	.L54:
 798:.\Generated_Source\PSoC4/BLE_System.c ****             apiResult = CyBle_GappEnterDiscoveryMode(&cyBle_discoveryModeInfo);
 742              		.loc 1 798 0
 743 0052 0E4B     		ldr	r3, .L58+12
 744 0054 1870     		strb	r0, [r3]
 799:.\Generated_Source\PSoC4/BLE_System.c ****         
 745              		.loc 1 799 0
 746 0056 0C48     		ldr	r0, .L58+8
 747              	.LVL67:
 748 0058 4030     		add	r0, r0, #64
 749 005a FFF7FEFF 		bl	CyBle_GappEnterDiscoveryMode
 750              	.LVL68:
 801:.\Generated_Source\PSoC4/BLE_System.c ****             {
 751              		.loc 1 801 0
 752 005e 0028     		cmp	r0, #0
 753 0060 0CD1     		bne	.L52
 803:.\Generated_Source\PSoC4/BLE_System.c ****             }
 754              		.loc 1 803 0
 755 0062 084A     		ldr	r2, .L58+4
ARM GAS  C:\Users\310295~1\AppData\Local\Temp\ccZIm937.s 			page 38


 756 0064 1178     		ldrb	r1, [r2]
 757 0066 0423     		mov	r3, #4
 758 0068 0B43     		orr	r3, r1
 759 006a 1370     		strb	r3, [r2]
 760 006c 06E0     		b	.L52
 761              	.LVL69:
 762              	.L55:
 779:.\Generated_Source\PSoC4/BLE_System.c ****         }
 763              		.loc 1 779 0
 764 006e 0120     		mov	r0, #1
 765              	.LVL70:
 766 0070 04E0     		b	.L52
 767              	.LVL71:
 768              	.L56:
 808:.\Generated_Source\PSoC4/BLE_System.c ****         }
 769              		.loc 1 808 0
 770 0072 0420     		mov	r0, #4
 771              	.LVL72:
 772 0074 FF30     		add	r0, r0, #255
 773 0076 01E0     		b	.L52
 774              	.LVL73:
 775              	.L57:
 776 0078 0420     		mov	r0, #4
 777              	.LVL74:
 778 007a FF30     		add	r0, r0, #255
 779              	.L52:
 780              	.LVL75:
 812:.\Generated_Source\PSoC4/BLE_System.c **** 
 781              		.loc 1 812 0
 782              		@ sp needed
 783 007c 08BD     		pop	{r3, pc}
 784              	.L59:
 785 007e C046     		.align	2
 786              	.L58:
 787 0080 00000000 		.word	cyBle_state
 788 0084 00000000 		.word	cyBle_eventHandlerFlag
 789 0088 00000000 		.word	.LANCHOR0
 790 008c 00000000 		.word	cyBle_advertisingIntervalType
 791              		.cfi_endproc
 792              	.LFE8:
 793              		.size	CyBle_GappStartAdvertisement, .-CyBle_GappStartAdvertisement
 794              		.section	.text.CyBle_GappStopAdvertisement,"ax",%progbits
 795              		.align	2
 796              		.global	CyBle_GappStopAdvertisement
 797              		.code	16
 798              		.thumb_func
 799              		.type	CyBle_GappStopAdvertisement, %function
 800              	CyBle_GappStopAdvertisement:
 801              	.LFB9:
 835:.\Generated_Source\PSoC4/BLE_System.c ****         CyBle_GappExitDiscoveryMode();
 802              		.loc 1 835 0
 803              		.cfi_startproc
 804 0000 08B5     		push	{r3, lr}
 805              		.cfi_def_cfa_offset 8
 806              		.cfi_offset 3, -8
 807              		.cfi_offset 14, -4
 836:.\Generated_Source\PSoC4/BLE_System.c ****         cyBle_eventHandlerFlag |= CYBLE_STOP_FLAG;
ARM GAS  C:\Users\310295~1\AppData\Local\Temp\ccZIm937.s 			page 39


 808              		.loc 1 836 0
 809 0002 FFF7FEFF 		bl	CyBle_GappExitDiscoveryMode
 810              	.LVL76:
 837:.\Generated_Source\PSoC4/BLE_System.c ****     }
 811              		.loc 1 837 0
 812 0006 034A     		ldr	r2, .L61
 813 0008 1178     		ldrb	r1, [r2]
 814 000a 0823     		mov	r3, #8
 815 000c 0B43     		orr	r3, r1
 816 000e 1370     		strb	r3, [r2]
 838:.\Generated_Source\PSoC4/BLE_System.c ****     
 817              		.loc 1 838 0
 818              		@ sp needed
 819 0010 08BD     		pop	{r3, pc}
 820              	.L62:
 821 0012 C046     		.align	2
 822              	.L61:
 823 0014 00000000 		.word	cyBle_eventHandlerFlag
 824              		.cfi_endproc
 825              	.LFE9:
 826              		.size	CyBle_GappStopAdvertisement, .-CyBle_GappStopAdvertisement
 827              		.section	.text.CyBle_ChangeAdDeviceAddress,"ax",%progbits
 828              		.align	2
 829              		.global	CyBle_ChangeAdDeviceAddress
 830              		.code	16
 831              		.thumb_func
 832              		.type	CyBle_ChangeAdDeviceAddress, %function
 833              	CyBle_ChangeAdDeviceAddress:
 834              	.LFB10:
 857:.\Generated_Source\PSoC4/BLE_System.c ****         uint8 i;
 835              		.loc 1 857 0
 836              		.cfi_startproc
 837              	.LVL77:
 884:.\Generated_Source\PSoC4/BLE_System.c ****   
 838              		.loc 1 884 0
 839              		@ sp needed
 840 0000 7047     		bx	lr
 841              		.cfi_endproc
 842              	.LFE10:
 843              		.size	CyBle_ChangeAdDeviceAddress, .-CyBle_ChangeAdDeviceAddress
 844 0002 C046     		.section	.text.CyBle_GapSetLocalName,"ax",%progbits
 845              		.align	2
 846              		.global	CyBle_GapSetLocalName
 847              		.code	16
 848              		.thumb_func
 849              		.type	CyBle_GapSetLocalName, %function
 850              	CyBle_GapSetLocalName:
 851              	.LFB12:
1246:.\Generated_Source\PSoC4/BLE_System.c ****         
1247:.\Generated_Source\PSoC4/BLE_System.c **** #endif /* (CYBLE_GAP_ROLE_PERIPHERAL) */  
1248:.\Generated_Source\PSoC4/BLE_System.c ****     
1249:.\Generated_Source\PSoC4/BLE_System.c ****     
1250:.\Generated_Source\PSoC4/BLE_System.c ****     /******************************************************************************
1251:.\Generated_Source\PSoC4/BLE_System.c ****     * Function Name: CyBle_GapSetLocalName
1252:.\Generated_Source\PSoC4/BLE_System.c ****     ***************************************************************************//**
1253:.\Generated_Source\PSoC4/BLE_System.c ****     *  This API is used to set the local device name - a Characteristic of the 
1254:.\Generated_Source\PSoC4/BLE_System.c ****     *  GAP Service. If the characteristic length entered in the component customizer
ARM GAS  C:\Users\310295~1\AppData\Local\Temp\ccZIm937.s 			page 40


1255:.\Generated_Source\PSoC4/BLE_System.c ****     *  is shorter than the string specified by the "name" parameter, the local device
1256:.\Generated_Source\PSoC4/BLE_System.c ****     *  name will be cut to the length specified in the customizer.
1257:.\Generated_Source\PSoC4/BLE_System.c ****     * 
1258:.\Generated_Source\PSoC4/BLE_System.c ****     *  \param name: The local device name string. The name string to be written as
1259:.\Generated_Source\PSoC4/BLE_System.c ****     *              the local device name. It represents a UTF-8 encoded User
1260:.\Generated_Source\PSoC4/BLE_System.c ****     *              Friendly Descriptive Name for the device. The length of the local
1261:.\Generated_Source\PSoC4/BLE_System.c ****     *              device string is entered into the component customizer and it can
1262:.\Generated_Source\PSoC4/BLE_System.c ****     *              be set to a value from 0 to 248 bytes. If the name contained in
1263:.\Generated_Source\PSoC4/BLE_System.c ****     *              the parameter is shorter than the length from the customizer, the
1264:.\Generated_Source\PSoC4/BLE_System.c ****     *              end of the name is indicated by a NULL octet (0x00).
1265:.\Generated_Source\PSoC4/BLE_System.c ****     * 
1266:.\Generated_Source\PSoC4/BLE_System.c ****     * \return
1267:.\Generated_Source\PSoC4/BLE_System.c ****     *  CYBLE_API_RESULT_T : Return value indicates if the function succeeded or 
1268:.\Generated_Source\PSoC4/BLE_System.c ****     *  failed. Following are the possible error codes.
1269:.\Generated_Source\PSoC4/BLE_System.c ****     *
1270:.\Generated_Source\PSoC4/BLE_System.c ****     *   Errors codes                       | Description
1271:.\Generated_Source\PSoC4/BLE_System.c ****     *   ------------                       | -----------
1272:.\Generated_Source\PSoC4/BLE_System.c ****     *   CYBLE_ERROR_OK                     | Function completed successfully.
1273:.\Generated_Source\PSoC4/BLE_System.c ****     *   CYBLE_ERROR_INVALID_PARAMETER      | On specifying NULL as input parameter
1274:.\Generated_Source\PSoC4/BLE_System.c ****     *  
1275:.\Generated_Source\PSoC4/BLE_System.c ****     *******************************************************************************/
1276:.\Generated_Source\PSoC4/BLE_System.c ****     CYBLE_API_RESULT_T CyBle_GapSetLocalName(const char8 name[])
1277:.\Generated_Source\PSoC4/BLE_System.c ****     {
 852              		.loc 1 1277 0
 853              		.cfi_startproc
 854              	.LVL78:
 855 0000 10B5     		push	{r4, lr}
 856              		.cfi_def_cfa_offset 8
 857              		.cfi_offset 4, -8
 858              		.cfi_offset 14, -4
 859              	.LVL79:
1278:.\Generated_Source\PSoC4/BLE_System.c ****         CYBLE_API_RESULT_T apiResult = CYBLE_ERROR_OK;
1279:.\Generated_Source\PSoC4/BLE_System.c ****         uint8 i;
1280:.\Generated_Source\PSoC4/BLE_System.c ****         char8 *ptr;
1281:.\Generated_Source\PSoC4/BLE_System.c ****         uint8 charLen;
1282:.\Generated_Source\PSoC4/BLE_System.c **** 
1283:.\Generated_Source\PSoC4/BLE_System.c ****         if(NULL != name)
 860              		.loc 1 1283 0
 861 0002 0028     		cmp	r0, #0
 862 0004 1DD0     		beq	.L70
1284:.\Generated_Source\PSoC4/BLE_System.c ****         {
1285:.\Generated_Source\PSoC4/BLE_System.c ****             /* Get the pointer to the Device Name characteristic  */
1286:.\Generated_Source\PSoC4/BLE_System.c ****             ptr = (char8 *) CYBLE_GATT_DB_ATTR_GET_ATTR_GEN_PTR(CYBLE_GAP_DEVICE_NAME_INDEX + 1u);
 863              		.loc 1 1286 0
 864 0006 104B     		ldr	r3, .L71
 865 0008 9A6B     		ldr	r2, [r3, #56]
 866 000a 5468     		ldr	r4, [r2, #4]
 867              	.LVL80:
1287:.\Generated_Source\PSoC4/BLE_System.c **** 
1288:.\Generated_Source\PSoC4/BLE_System.c ****             /* First need to get the maximum length of the characteristic data in the GATT
1289:.\Generated_Source\PSoC4/BLE_System.c ****                 database to make sure there is enough place for the data. The length
1290:.\Generated_Source\PSoC4/BLE_System.c ****                 can't be longer than 248, so only the LSB of 16 bit of length is to
1291:.\Generated_Source\PSoC4/BLE_System.c ****                 be used. */
1292:.\Generated_Source\PSoC4/BLE_System.c ****             charLen = (uint8)CYBLE_GATT_DB_ATTR_GET_ATTR_GEN_MAX_LEN(CYBLE_GAP_DEVICE_NAME_INDEX + 
 868              		.loc 1 1292 0
 869 000c 998E     		ldrh	r1, [r3, #52]
 870 000e C9B2     		uxtb	r1, r1
ARM GAS  C:\Users\310295~1\AppData\Local\Temp\ccZIm937.s 			page 41


 871              	.LVL81:
1293:.\Generated_Source\PSoC4/BLE_System.c **** 
1294:.\Generated_Source\PSoC4/BLE_System.c ****             /* Copy name into characteristic */
1295:.\Generated_Source\PSoC4/BLE_System.c ****             for(i = 0u; ((i < charLen) && (CYBLE_NULL_CHARCTER != name[i])); i++)
 872              		.loc 1 1295 0
 873 0010 0023     		mov	r3, #0
 874 0012 02E0     		b	.L66
 875              	.LVL82:
 876              	.L68:
1296:.\Generated_Source\PSoC4/BLE_System.c ****             {
1297:.\Generated_Source\PSoC4/BLE_System.c ****                 ptr[i] = name[i];
 877              		.loc 1 1297 0 discriminator 4
 878 0014 E254     		strb	r2, [r4, r3]
1295:.\Generated_Source\PSoC4/BLE_System.c ****             {
 879              		.loc 1 1295 0 discriminator 4
 880 0016 0133     		add	r3, r3, #1
 881              	.LVL83:
 882 0018 DBB2     		uxtb	r3, r3
 883              	.LVL84:
 884              	.L66:
1295:.\Generated_Source\PSoC4/BLE_System.c ****             {
 885              		.loc 1 1295 0 is_stmt 0 discriminator 1
 886 001a 8B42     		cmp	r3, r1
 887 001c 02D2     		bcs	.L67
1295:.\Generated_Source\PSoC4/BLE_System.c ****             {
 888              		.loc 1 1295 0 discriminator 3
 889 001e C25C     		ldrb	r2, [r0, r3]
 890 0020 002A     		cmp	r2, #0
 891 0022 F7D1     		bne	.L68
 892              	.L67:
1298:.\Generated_Source\PSoC4/BLE_System.c ****             }
1299:.\Generated_Source\PSoC4/BLE_System.c **** 
1300:.\Generated_Source\PSoC4/BLE_System.c ****             if(i < charLen)
 893              		.loc 1 1300 0 is_stmt 1
 894 0024 8B42     		cmp	r3, r1
 895 0026 02D2     		bcs	.L69
1301:.\Generated_Source\PSoC4/BLE_System.c ****             {
1302:.\Generated_Source\PSoC4/BLE_System.c ****                 /* Terminate string */
1303:.\Generated_Source\PSoC4/BLE_System.c ****                 ptr[i] = CYBLE_NULL_CHARCTER;
 896              		.loc 1 1303 0
 897 0028 E318     		add	r3, r4, r3
 898              	.LVL85:
 899 002a 0022     		mov	r2, #0
 900 002c 1A70     		strb	r2, [r3]
 901              	.L69:
 902 002e 041C     		mov	r4, r0
 903              	.LVL86:
1304:.\Generated_Source\PSoC4/BLE_System.c ****             }
1305:.\Generated_Source\PSoC4/BLE_System.c ****             
1306:.\Generated_Source\PSoC4/BLE_System.c ****             /* Set new actual length */
1307:.\Generated_Source\PSoC4/BLE_System.c ****             
1308:.\Generated_Source\PSoC4/BLE_System.c ****             /* Update device name in advertising and scan response structure */
1309:.\Generated_Source\PSoC4/BLE_System.c ****             #if(CYBLE_GAP_ROLE_PERIPHERAL)
1310:.\Generated_Source\PSoC4/BLE_System.c ****                 CyBle_ChangeAdLocalName(name, 0u);
 904              		.loc 1 1310 0
 905 0030 0021     		mov	r1, #0
 906              	.LVL87:
ARM GAS  C:\Users\310295~1\AppData\Local\Temp\ccZIm937.s 			page 42


 907 0032 FFF7FEFF 		bl	CyBle_ChangeAdLocalName
 908              	.LVL88:
1311:.\Generated_Source\PSoC4/BLE_System.c ****                 CyBle_ChangeAdLocalName(name, 1u);
 909              		.loc 1 1311 0
 910 0036 201C     		mov	r0, r4
 911 0038 0121     		mov	r1, #1
 912 003a FFF7FEFF 		bl	CyBle_ChangeAdLocalName
 913              	.LVL89:
1278:.\Generated_Source\PSoC4/BLE_System.c ****         uint8 i;
 914              		.loc 1 1278 0
 915 003e 0020     		mov	r0, #0
 916 0040 00E0     		b	.L65
 917              	.LVL90:
 918              	.L70:
1312:.\Generated_Source\PSoC4/BLE_System.c ****             #endif /* (CYBLE_GAP_ROLE_PERIPHERAL) */
1313:.\Generated_Source\PSoC4/BLE_System.c ****         }
1314:.\Generated_Source\PSoC4/BLE_System.c ****         else
1315:.\Generated_Source\PSoC4/BLE_System.c ****         {
1316:.\Generated_Source\PSoC4/BLE_System.c ****             apiResult = CYBLE_ERROR_INVALID_PARAMETER;
 919              		.loc 1 1316 0
 920 0042 0120     		mov	r0, #1
 921              	.LVL91:
 922              	.L65:
1317:.\Generated_Source\PSoC4/BLE_System.c ****         }
1318:.\Generated_Source\PSoC4/BLE_System.c ****         
1319:.\Generated_Source\PSoC4/BLE_System.c ****         return(apiResult);
1320:.\Generated_Source\PSoC4/BLE_System.c ****     }
 923              		.loc 1 1320 0
 924              		@ sp needed
 925 0044 10BD     		pop	{r4, pc}
 926              	.L72:
 927 0046 C046     		.align	2
 928              	.L71:
 929 0048 00000000 		.word	cyBle_gattDB
 930              		.cfi_endproc
 931              	.LFE12:
 932              		.size	CyBle_GapSetLocalName, .-CyBle_GapSetLocalName
 933              		.section	.text.CyBle_GapGetLocalName,"ax",%progbits
 934              		.align	2
 935              		.global	CyBle_GapGetLocalName
 936              		.code	16
 937              		.thumb_func
 938              		.type	CyBle_GapGetLocalName, %function
 939              	CyBle_GapGetLocalName:
 940              	.LFB13:
1321:.\Generated_Source\PSoC4/BLE_System.c **** 
1322:.\Generated_Source\PSoC4/BLE_System.c **** 
1323:.\Generated_Source\PSoC4/BLE_System.c ****     /******************************************************************************
1324:.\Generated_Source\PSoC4/BLE_System.c ****     * Function Name: CyBle_GapGetLocalName
1325:.\Generated_Source\PSoC4/BLE_System.c ****     ***************************************************************************//**
1326:.\Generated_Source\PSoC4/BLE_System.c ****     *  
1327:.\Generated_Source\PSoC4/BLE_System.c ****     *  This API is used to read the local device name - a Characteristic of the 
1328:.\Generated_Source\PSoC4/BLE_System.c ****     *  GAP Service.
1329:.\Generated_Source\PSoC4/BLE_System.c ****     * 
1330:.\Generated_Source\PSoC4/BLE_System.c ****     * \param name: The local device name string. Used to read the local name to the
1331:.\Generated_Source\PSoC4/BLE_System.c ****     *             given string array. It represents a UTF-8 encoded User Friendly 
1332:.\Generated_Source\PSoC4/BLE_System.c ****     *             Descriptive Name for the device. The length of the local device
ARM GAS  C:\Users\310295~1\AppData\Local\Temp\ccZIm937.s 			page 43


1333:.\Generated_Source\PSoC4/BLE_System.c ****     *             string is entered into the component customizer and it can be set
1334:.\Generated_Source\PSoC4/BLE_System.c ****     *             to a value from 0 to 248 bytes. If the name contained in the
1335:.\Generated_Source\PSoC4/BLE_System.c ****     *             parameter is shorter than the length from the customizer, the end
1336:.\Generated_Source\PSoC4/BLE_System.c ****     *             of the name is indicated by a NULL octet (0x00).
1337:.\Generated_Source\PSoC4/BLE_System.c ****     * 
1338:.\Generated_Source\PSoC4/BLE_System.c ****     * \return
1339:.\Generated_Source\PSoC4/BLE_System.c ****     *  CYBLE_API_RESULT_T : Return value indicates if the function succeeded or 
1340:.\Generated_Source\PSoC4/BLE_System.c ****     *  failed. Following are the possible error codes.
1341:.\Generated_Source\PSoC4/BLE_System.c ****     *
1342:.\Generated_Source\PSoC4/BLE_System.c ****     *   Errors codes                       | Description
1343:.\Generated_Source\PSoC4/BLE_System.c ****     *   ------------                       | -----------
1344:.\Generated_Source\PSoC4/BLE_System.c ****     *   CYBLE_ERROR_OK                     | Function completed successfully.
1345:.\Generated_Source\PSoC4/BLE_System.c ****     *   CYBLE_ERROR_INVALID_PARAMETER      | On specifying NULL as input parameter
1346:.\Generated_Source\PSoC4/BLE_System.c ****     *
1347:.\Generated_Source\PSoC4/BLE_System.c ****     *******************************************************************************/
1348:.\Generated_Source\PSoC4/BLE_System.c ****     CYBLE_API_RESULT_T CyBle_GapGetLocalName(char8 name[])
1349:.\Generated_Source\PSoC4/BLE_System.c ****     {
 941              		.loc 1 1349 0
 942              		.cfi_startproc
 943              	.LVL92:
 944 0000 10B5     		push	{r4, lr}
 945              		.cfi_def_cfa_offset 8
 946              		.cfi_offset 4, -8
 947              		.cfi_offset 14, -4
 948              	.LVL93:
1350:.\Generated_Source\PSoC4/BLE_System.c ****         CYBLE_API_RESULT_T apiResult = CYBLE_ERROR_OK;
1351:.\Generated_Source\PSoC4/BLE_System.c ****         uint8 charLen;
1352:.\Generated_Source\PSoC4/BLE_System.c ****         uint8 i;
1353:.\Generated_Source\PSoC4/BLE_System.c ****         char8 *ptr;
1354:.\Generated_Source\PSoC4/BLE_System.c **** 
1355:.\Generated_Source\PSoC4/BLE_System.c ****         if(NULL != name)
 949              		.loc 1 1355 0
 950 0002 0028     		cmp	r0, #0
 951 0004 12D0     		beq	.L78
1356:.\Generated_Source\PSoC4/BLE_System.c ****         {
1357:.\Generated_Source\PSoC4/BLE_System.c ****             /* Get the pointer to the Device Name characteristic  */
1358:.\Generated_Source\PSoC4/BLE_System.c ****             ptr = (char8 *) CYBLE_GATT_DB_ATTR_GET_ATTR_GEN_PTR(CYBLE_GAP_DEVICE_NAME_INDEX + 1u);
 952              		.loc 1 1358 0
 953 0006 0A4B     		ldr	r3, .L79
 954 0008 9B6B     		ldr	r3, [r3, #56]
 955 000a 5C68     		ldr	r4, [r3, #4]
 956              	.LVL94:
1359:.\Generated_Source\PSoC4/BLE_System.c **** 
1360:.\Generated_Source\PSoC4/BLE_System.c ****             /* First need to get the length of the characteristic data in the GATT
1361:.\Generated_Source\PSoC4/BLE_System.c ****                 database to make sure there is enough place for the data. The length
1362:.\Generated_Source\PSoC4/BLE_System.c ****                 can't be longer than 248, so only the LSB of 16 bit of length is to
1363:.\Generated_Source\PSoC4/BLE_System.c ****                 be used. */
1364:.\Generated_Source\PSoC4/BLE_System.c ****             charLen = (uint8)CYBLE_GATT_DB_ATTR_GET_ATTR_GEN_LEN(CYBLE_GAP_DEVICE_NAME_INDEX + 1u);
 957              		.loc 1 1364 0
 958 000c 1978     		ldrb	r1, [r3]
 959              	.LVL95:
1365:.\Generated_Source\PSoC4/BLE_System.c **** 
1366:.\Generated_Source\PSoC4/BLE_System.c ****             /* Copy name from characteristic */
1367:.\Generated_Source\PSoC4/BLE_System.c ****             for(i = 0u; ((i < charLen) && (CYBLE_NULL_CHARCTER != ptr[i])); i++)
 960              		.loc 1 1367 0
 961 000e 0023     		mov	r3, #0
 962 0010 02E0     		b	.L75
ARM GAS  C:\Users\310295~1\AppData\Local\Temp\ccZIm937.s 			page 44


 963              	.LVL96:
 964              	.L77:
1368:.\Generated_Source\PSoC4/BLE_System.c ****             {
1369:.\Generated_Source\PSoC4/BLE_System.c ****                 name[i] = ptr[i];
 965              		.loc 1 1369 0 discriminator 4
 966 0012 C254     		strb	r2, [r0, r3]
1367:.\Generated_Source\PSoC4/BLE_System.c ****             {
 967              		.loc 1 1367 0 discriminator 4
 968 0014 0133     		add	r3, r3, #1
 969              	.LVL97:
 970 0016 DBB2     		uxtb	r3, r3
 971              	.LVL98:
 972              	.L75:
1367:.\Generated_Source\PSoC4/BLE_System.c ****             {
 973              		.loc 1 1367 0 is_stmt 0 discriminator 1
 974 0018 8B42     		cmp	r3, r1
 975 001a 02D2     		bcs	.L76
1367:.\Generated_Source\PSoC4/BLE_System.c ****             {
 976              		.loc 1 1367 0 discriminator 3
 977 001c E25C     		ldrb	r2, [r4, r3]
 978 001e 002A     		cmp	r2, #0
 979 0020 F7D1     		bne	.L77
 980              	.L76:
1370:.\Generated_Source\PSoC4/BLE_System.c ****             }
1371:.\Generated_Source\PSoC4/BLE_System.c **** 
1372:.\Generated_Source\PSoC4/BLE_System.c ****             /* Terminate string */
1373:.\Generated_Source\PSoC4/BLE_System.c ****             name[i] = CYBLE_NULL_CHARCTER;
 981              		.loc 1 1373 0 is_stmt 1
 982 0022 C318     		add	r3, r0, r3
 983              	.LVL99:
 984 0024 0022     		mov	r2, #0
 985 0026 1A70     		strb	r2, [r3]
1350:.\Generated_Source\PSoC4/BLE_System.c ****         uint8 charLen;
 986              		.loc 1 1350 0
 987 0028 0020     		mov	r0, #0
 988              	.LVL100:
 989 002a 00E0     		b	.L74
 990              	.LVL101:
 991              	.L78:
1374:.\Generated_Source\PSoC4/BLE_System.c ****         }
1375:.\Generated_Source\PSoC4/BLE_System.c ****         else
1376:.\Generated_Source\PSoC4/BLE_System.c ****         {
1377:.\Generated_Source\PSoC4/BLE_System.c ****             apiResult = CYBLE_ERROR_INVALID_PARAMETER;
 992              		.loc 1 1377 0
 993 002c 0120     		mov	r0, #1
 994              	.LVL102:
 995              	.L74:
1378:.\Generated_Source\PSoC4/BLE_System.c ****         }
1379:.\Generated_Source\PSoC4/BLE_System.c ****         
1380:.\Generated_Source\PSoC4/BLE_System.c ****         return(apiResult);
1381:.\Generated_Source\PSoC4/BLE_System.c ****     }
 996              		.loc 1 1381 0
 997              		@ sp needed
 998 002e 10BD     		pop	{r4, pc}
 999              	.L80:
 1000              		.align	2
 1001              	.L79:
ARM GAS  C:\Users\310295~1\AppData\Local\Temp\ccZIm937.s 			page 45


 1002 0030 00000000 		.word	cyBle_gattDB
 1003              		.cfi_endproc
 1004              	.LFE13:
 1005              		.size	CyBle_GapGetLocalName, .-CyBle_GapGetLocalName
 1006              		.section	.text.CyBle_Get16ByPtr,"ax",%progbits
 1007              		.align	2
 1008              		.global	CyBle_Get16ByPtr
 1009              		.code	16
 1010              		.thumb_func
 1011              		.type	CyBle_Get16ByPtr, %function
 1012              	CyBle_Get16ByPtr:
 1013              	.LFB14:
1382:.\Generated_Source\PSoC4/BLE_System.c **** 
1383:.\Generated_Source\PSoC4/BLE_System.c **** #endif /* (CYBLE_GATT_ROLE_SERVER) */
1384:.\Generated_Source\PSoC4/BLE_System.c **** 
1385:.\Generated_Source\PSoC4/BLE_System.c **** 
1386:.\Generated_Source\PSoC4/BLE_System.c **** /******************************************************************************
1387:.\Generated_Source\PSoC4/BLE_System.c **** * Function Name: CyBle_Get16ByPtr
1388:.\Generated_Source\PSoC4/BLE_System.c **** ***************************************************************************//**
1389:.\Generated_Source\PSoC4/BLE_System.c **** * 
1390:.\Generated_Source\PSoC4/BLE_System.c **** *  Returns the two-bytes value by using a pointer to the LSB.
1391:.\Generated_Source\PSoC4/BLE_System.c **** * 
1392:.\Generated_Source\PSoC4/BLE_System.c **** *  \param ptr: Pointer to the LSB of two-bytes data (little endian).
1393:.\Generated_Source\PSoC4/BLE_System.c **** * 
1394:.\Generated_Source\PSoC4/BLE_System.c **** *  \return
1395:.\Generated_Source\PSoC4/BLE_System.c **** *  uint16: Two-bytes data.
1396:.\Generated_Source\PSoC4/BLE_System.c **** * 
1397:.\Generated_Source\PSoC4/BLE_System.c **** ******************************************************************************/
1398:.\Generated_Source\PSoC4/BLE_System.c **** uint16 CyBle_Get16ByPtr(const uint8 ptr[])
1399:.\Generated_Source\PSoC4/BLE_System.c **** {
 1014              		.loc 1 1399 0
 1015              		.cfi_startproc
 1016              	.LVL103:
1400:.\Generated_Source\PSoC4/BLE_System.c ****     return ((uint16) ptr[0u] | ((uint16) (((uint16) ptr[1u]) << 8u)));
 1017              		.loc 1 1400 0
 1018 0000 0378     		ldrb	r3, [r0]
 1019 0002 4078     		ldrb	r0, [r0, #1]
 1020              	.LVL104:
 1021 0004 0002     		lsl	r0, r0, #8
 1022 0006 1843     		orr	r0, r3
1401:.\Generated_Source\PSoC4/BLE_System.c **** }
 1023              		.loc 1 1401 0
 1024              		@ sp needed
 1025 0008 7047     		bx	lr
 1026              		.cfi_endproc
 1027              	.LFE14:
 1028              		.size	CyBle_Get16ByPtr, .-CyBle_Get16ByPtr
 1029 000a C046     		.section	.text.CyBle_Set16ByPtr,"ax",%progbits
 1030              		.align	2
 1031              		.global	CyBle_Set16ByPtr
 1032              		.code	16
 1033              		.thumb_func
 1034              		.type	CyBle_Set16ByPtr, %function
 1035              	CyBle_Set16ByPtr:
 1036              	.LFB15:
1402:.\Generated_Source\PSoC4/BLE_System.c **** 
1403:.\Generated_Source\PSoC4/BLE_System.c **** 
ARM GAS  C:\Users\310295~1\AppData\Local\Temp\ccZIm937.s 			page 46


1404:.\Generated_Source\PSoC4/BLE_System.c **** /******************************************************************************
1405:.\Generated_Source\PSoC4/BLE_System.c **** * Function Name: CyBle_Set16ByPtr
1406:.\Generated_Source\PSoC4/BLE_System.c **** ***************************************************************************//**
1407:.\Generated_Source\PSoC4/BLE_System.c **** * 
1408:.\Generated_Source\PSoC4/BLE_System.c **** *  Sets the two-bytes value by using a pointer to the LSB.
1409:.\Generated_Source\PSoC4/BLE_System.c **** * 
1410:.\Generated_Source\PSoC4/BLE_System.c **** *  \param ptr:    Pointer to the LSB of two-bytes data (little endian).
1411:.\Generated_Source\PSoC4/BLE_System.c **** *  \param value:  Two-bytes data to be written.
1412:.\Generated_Source\PSoC4/BLE_System.c **** * 
1413:.\Generated_Source\PSoC4/BLE_System.c **** *  \return
1414:.\Generated_Source\PSoC4/BLE_System.c **** *  None
1415:.\Generated_Source\PSoC4/BLE_System.c **** * 
1416:.\Generated_Source\PSoC4/BLE_System.c **** ******************************************************************************/
1417:.\Generated_Source\PSoC4/BLE_System.c **** void CyBle_Set16ByPtr(uint8 ptr[], uint16 value)
1418:.\Generated_Source\PSoC4/BLE_System.c **** {
 1037              		.loc 1 1418 0
 1038              		.cfi_startproc
 1039              	.LVL105:
1419:.\Generated_Source\PSoC4/BLE_System.c ****     ptr[0u] = (uint8) value;
 1040              		.loc 1 1419 0
 1041 0000 0170     		strb	r1, [r0]
1420:.\Generated_Source\PSoC4/BLE_System.c ****     ptr[1u] = (uint8) (value >> 8u);
 1042              		.loc 1 1420 0
 1043 0002 090A     		lsr	r1, r1, #8
 1044              	.LVL106:
 1045 0004 4170     		strb	r1, [r0, #1]
1421:.\Generated_Source\PSoC4/BLE_System.c **** }
 1046              		.loc 1 1421 0
 1047              		@ sp needed
 1048 0006 7047     		bx	lr
 1049              		.cfi_endproc
 1050              	.LFE15:
 1051              		.size	CyBle_Set16ByPtr, .-CyBle_Set16ByPtr
 1052              		.global	cyBle_sflashDeviceAddress
 1053              		.global	cyBle_deviceAddress
 1054              		.comm	CyBle_ApplCallback,4,4
 1055              		.comm	cyBle_pendingFlashWrite,1,1
 1056              		.comm	cyBle_peerBonding,1,1
 1057              		.global	cyBle_discoveryModeInfo
 1058              		.global	cyBle_scanRspData
 1059              		.global	cyBle_discoveryData
 1060              		.global	cyBle_discoveryParam
 1061              		.global	cyBle_stackMemoryRam
 1062              		.global	cyBle_initVar
 1063              		.section	.rodata
 1064              		.align	2
 1065              		.set	.LANCHOR1,. + 0
 1066              	.LC0:
 1067 0000 2400     		.short	36
 1068 0002 03       		.byte	3
 1069 0003 00       		.space	1
 1070 0004 3000     		.short	48
 1071 0006 01       		.byte	1
 1072 0007 00       		.space	1
 1073 0008 2800     		.short	40
 1074 000a 02       		.byte	2
 1075 000b 00       		.space	1
ARM GAS  C:\Users\310295~1\AppData\Local\Temp\ccZIm937.s 			page 47


 1076 000c 2400     		.short	36
 1077 000e 01       		.byte	1
 1078 000f 00       		.space	1
 1079 0010 2400     		.short	36
 1080 0012 01       		.byte	1
 1081 0013 00       		.space	1
 1082              		.data
 1083              		.align	2
 1084              		.set	.LANCHOR0,. + 0
 1085              		.type	cyBle_discoveryData, %object
 1086              		.size	cyBle_discoveryData, 32
 1087              	cyBle_discoveryData:
 1088 0000 02       		.byte	2
 1089 0001 01       		.byte	1
 1090 0002 06       		.byte	6
 1091 0003 0D       		.byte	13
 1092 0004 09       		.byte	9
 1093 0005 53       		.byte	83
 1094 0006 68       		.byte	104
 1095 0007 72       		.byte	114
 1096 0008 65       		.byte	101
 1097 0009 79       		.byte	121
 1098 000a 5F       		.byte	95
 1099 000b 53       		.byte	83
 1100 000c 42       		.byte	66
 1101 000d 53       		.byte	83
 1102 000e 5F       		.byte	95
 1103 000f 30       		.byte	48
 1104 0010 31       		.byte	49
 1105 0011 00       		.byte	0
 1106 0012 00       		.byte	0
 1107 0013 00       		.byte	0
 1108 0014 00       		.byte	0
 1109 0015 00       		.byte	0
 1110 0016 00       		.byte	0
 1111 0017 00       		.byte	0
 1112 0018 00       		.byte	0
 1113 0019 00       		.byte	0
 1114 001a 00       		.byte	0
 1115 001b 00       		.byte	0
 1116 001c 00       		.byte	0
 1117 001d 00       		.byte	0
 1118 001e 00       		.byte	0
 1119 001f 11       		.byte	17
 1120              		.type	cyBle_scanRspData, %object
 1121              		.size	cyBle_scanRspData, 32
 1122              	cyBle_scanRspData:
 1123 0020 03       		.byte	3
 1124 0021 03       		.byte	3
 1125 0022 F0       		.byte	-16
 1126 0023 30       		.byte	48
 1127 0024 00       		.byte	0
 1128 0025 00       		.byte	0
 1129 0026 00       		.byte	0
 1130 0027 00       		.byte	0
 1131 0028 00       		.byte	0
 1132 0029 00       		.byte	0
ARM GAS  C:\Users\310295~1\AppData\Local\Temp\ccZIm937.s 			page 48


 1133 002a 00       		.byte	0
 1134 002b 00       		.byte	0
 1135 002c 00       		.byte	0
 1136 002d 00       		.byte	0
 1137 002e 00       		.byte	0
 1138 002f 00       		.byte	0
 1139 0030 00       		.byte	0
 1140 0031 00       		.byte	0
 1141 0032 00       		.byte	0
 1142 0033 00       		.byte	0
 1143 0034 00       		.byte	0
 1144 0035 00       		.byte	0
 1145 0036 00       		.byte	0
 1146 0037 00       		.byte	0
 1147 0038 00       		.byte	0
 1148 0039 00       		.byte	0
 1149 003a 00       		.byte	0
 1150 003b 00       		.byte	0
 1151 003c 00       		.byte	0
 1152 003d 00       		.byte	0
 1153 003e 00       		.byte	0
 1154 003f 04       		.byte	4
 1155              		.type	cyBle_discoveryModeInfo, %object
 1156              		.size	cyBle_discoveryModeInfo, 20
 1157              	cyBle_discoveryModeInfo:
 1158 0040 02       		.byte	2
 1159 0041 000000   		.space	3
 1160 0044 00000000 		.word	cyBle_discoveryParam
 1161 0048 00000000 		.word	cyBle_discoveryData
 1162 004c 00000000 		.word	cyBle_scanRspData
 1163 0050 3C00     		.short	60
 1164 0052 0000     		.space	2
 1165              		.type	cyBle_sflashDeviceAddress, %object
 1166              		.size	cyBle_sflashDeviceAddress, 4
 1167              	cyBle_sflashDeviceAddress:
 1168 0054 00F2FF0F 		.word	268431872
 1169              		.type	cyBle_deviceAddress, %object
 1170              		.size	cyBle_deviceAddress, 7
 1171              	cyBle_deviceAddress:
 1172 0058 00       		.byte	0
 1173 0059 00       		.byte	0
 1174 005a 00       		.byte	0
 1175 005b 50       		.byte	80
 1176 005c A0       		.byte	-96
 1177 005d 00       		.byte	0
 1178 005e 00       		.byte	0
 1179 005f 00       		.space	1
 1180              		.type	cyBle_discoveryParam, %object
 1181              		.size	cyBle_discoveryParam, 16
 1182              	cyBle_discoveryParam:
 1183 0060 2001     		.short	288
 1184 0062 4001     		.short	320
 1185 0064 00       		.byte	0
 1186 0065 00       		.byte	0
 1187 0066 00       		.byte	0
 1188 0067 00       		.byte	0
 1189 0068 00       		.byte	0
ARM GAS  C:\Users\310295~1\AppData\Local\Temp\ccZIm937.s 			page 49


 1190 0069 00       		.byte	0
 1191 006a 50       		.byte	80
 1192 006b A0       		.byte	-96
 1193 006c 00       		.byte	0
 1194 006d 07       		.byte	7
 1195 006e 00       		.byte	0
 1196 006f 00       		.space	1
 1197              		.section	.noinit,"aw",%progbits
 1198              		.align	3
 1199              		.set	.LANCHOR3,. + 0
 1200              		.type	cyBle_stackMemoryRam, %object
 1201              		.size	cyBle_stackMemoryRam, 2784
 1202              	cyBle_stackMemoryRam:
 1203 0000 00000000 		.space	2784
 1203      00000000 
 1203      00000000 
 1203      00000000 
 1203      00000000 
 1204              		.bss
 1205              		.set	.LANCHOR2,. + 0
 1206              		.type	cyBle_initVar, %object
 1207              		.size	cyBle_initVar, 1
 1208              	cyBle_initVar:
 1209 0000 00       		.space	1
 1210              		.type	cyBle_pendingFlashClearCccdHandle, %object
 1211              		.size	cyBle_pendingFlashClearCccdHandle, 1
 1212              	cyBle_pendingFlashClearCccdHandle:
 1213 0001 00       		.space	1
 1214              		.text
 1215              	.Letext0:
 1216              		.file 2 ".\\Generated_Source\\PSoC4\\cytypes.h"
 1217              		.file 3 "c:\\program files (x86)\\cypress\\psoc creator\\3.3\\psoc creator\\import\\gnu\\arm\\4.9.
 1218              		.file 4 ".\\Generated_Source\\PSoC4\\BLE_System_Stack.h"
 1219              		.file 5 ".\\Generated_Source\\PSoC4\\BLE_System_StackGap.h"
 1220              		.file 6 ".\\Generated_Source\\PSoC4\\BLE_System_StackGatt.h"
 1221              		.file 7 ".\\Generated_Source\\PSoC4\\BLE_System_StackGattDb.h"
 1222              		.file 8 ".\\Generated_Source\\PSoC4\\BLE_System.h"
 1223              		.file 9 ".\\Generated_Source\\PSoC4\\BLE_System_gatt.h"
 1224              		.file 10 ".\\Generated_Source\\PSoC4\\BLE_System_eventHandler.h"
 1225              		.file 11 ".\\Generated_Source\\PSoC4\\BLE_System_custom.h"
 1226              		.file 12 ".\\Generated_Source\\PSoC4\\BLE_System_StackHostMain.h"
 1227              		.file 13 "c:\\program files (x86)\\cypress\\psoc creator\\3.3\\psoc creator\\import\\gnu\\arm\\4.9
 1228              		.section	.debug_info,"",%progbits
 1229              	.Ldebug_info0:
 1230 0000 B1100000 		.4byte	0x10b1
 1231 0004 0400     		.2byte	0x4
 1232 0006 00000000 		.4byte	.Ldebug_abbrev0
 1233 000a 04       		.byte	0x4
 1234 000b 01       		.uleb128 0x1
 1235 000c D6090000 		.4byte	.LASF255
 1236 0010 01       		.byte	0x1
 1237 0011 8E0B0000 		.4byte	.LASF256
 1238 0015 BB0E0000 		.4byte	.LASF257
 1239 0019 00000000 		.4byte	.Ldebug_ranges0+0
 1240 001d 00000000 		.4byte	0
 1241 0021 00000000 		.4byte	.Ldebug_line0
 1242 0025 02       		.uleb128 0x2
ARM GAS  C:\Users\310295~1\AppData\Local\Temp\ccZIm937.s 			page 50


 1243 0026 01       		.byte	0x1
 1244 0027 06       		.byte	0x6
 1245 0028 03040000 		.4byte	.LASF0
 1246 002c 02       		.uleb128 0x2
 1247 002d 01       		.byte	0x1
 1248 002e 08       		.byte	0x8
 1249 002f 9A040000 		.4byte	.LASF1
 1250 0033 02       		.uleb128 0x2
 1251 0034 02       		.byte	0x2
 1252 0035 05       		.byte	0x5
 1253 0036 11130000 		.4byte	.LASF2
 1254 003a 02       		.uleb128 0x2
 1255 003b 02       		.byte	0x2
 1256 003c 07       		.byte	0x7
 1257 003d F4150000 		.4byte	.LASF3
 1258 0041 02       		.uleb128 0x2
 1259 0042 04       		.byte	0x4
 1260 0043 05       		.byte	0x5
 1261 0044 80020000 		.4byte	.LASF4
 1262 0048 02       		.uleb128 0x2
 1263 0049 04       		.byte	0x4
 1264 004a 07       		.byte	0x7
 1265 004b 41090000 		.4byte	.LASF5
 1266 004f 02       		.uleb128 0x2
 1267 0050 08       		.byte	0x8
 1268 0051 05       		.byte	0x5
 1269 0052 B40B0000 		.4byte	.LASF6
 1270 0056 02       		.uleb128 0x2
 1271 0057 08       		.byte	0x8
 1272 0058 07       		.byte	0x7
 1273 0059 5B100000 		.4byte	.LASF7
 1274 005d 03       		.uleb128 0x3
 1275 005e 04       		.byte	0x4
 1276 005f 05       		.byte	0x5
 1277 0060 696E7400 		.ascii	"int\000"
 1278 0064 02       		.uleb128 0x2
 1279 0065 04       		.byte	0x4
 1280 0066 07       		.byte	0x7
 1281 0067 8B0D0000 		.4byte	.LASF8
 1282 006b 04       		.uleb128 0x4
 1283 006c C8120000 		.4byte	.LASF9
 1284 0070 02       		.byte	0x2
 1285 0071 9801     		.2byte	0x198
 1286 0073 2C000000 		.4byte	0x2c
 1287 0077 04       		.uleb128 0x4
 1288 0078 59170000 		.4byte	.LASF10
 1289 007c 02       		.byte	0x2
 1290 007d 9901     		.2byte	0x199
 1291 007f 3A000000 		.4byte	0x3a
 1292 0083 04       		.uleb128 0x4
 1293 0084 B3000000 		.4byte	.LASF11
 1294 0088 02       		.byte	0x2
 1295 0089 9A01     		.2byte	0x19a
 1296 008b 48000000 		.4byte	0x48
 1297 008f 02       		.uleb128 0x2
 1298 0090 04       		.byte	0x4
 1299 0091 04       		.byte	0x4
ARM GAS  C:\Users\310295~1\AppData\Local\Temp\ccZIm937.s 			page 51


 1300 0092 160D0000 		.4byte	.LASF12
 1301 0096 02       		.uleb128 0x2
 1302 0097 08       		.byte	0x8
 1303 0098 04       		.byte	0x4
 1304 0099 0E0C0000 		.4byte	.LASF13
 1305 009d 04       		.uleb128 0x4
 1306 009e 31010000 		.4byte	.LASF14
 1307 00a2 02       		.byte	0x2
 1308 00a3 A901     		.2byte	0x1a9
 1309 00a5 A9000000 		.4byte	0xa9
 1310 00a9 02       		.uleb128 0x2
 1311 00aa 01       		.byte	0x1
 1312 00ab 08       		.byte	0x8
 1313 00ac C2050000 		.4byte	.LASF15
 1314 00b0 05       		.uleb128 0x5
 1315 00b1 6B000000 		.4byte	0x6b
 1316 00b5 06       		.uleb128 0x6
 1317 00b6 1E000000 		.4byte	.LASF16
 1318 00ba 03       		.byte	0x3
 1319 00bb D4       		.byte	0xd4
 1320 00bc 64000000 		.4byte	0x64
 1321 00c0 02       		.uleb128 0x2
 1322 00c1 04       		.byte	0x4
 1323 00c2 07       		.byte	0x7
 1324 00c3 25000000 		.4byte	.LASF17
 1325 00c7 07       		.uleb128 0x7
 1326 00c8 04       		.byte	0x4
 1327 00c9 04       		.uleb128 0x4
 1328 00ca E10F0000 		.4byte	.LASF18
 1329 00ce 04       		.byte	0x4
 1330 00cf 3101     		.2byte	0x131
 1331 00d1 D5000000 		.4byte	0xd5
 1332 00d5 08       		.uleb128 0x8
 1333 00d6 04       		.byte	0x4
 1334 00d7 DB000000 		.4byte	0xdb
 1335 00db 09       		.uleb128 0x9
 1336 00dc EB000000 		.4byte	0xeb
 1337 00e0 0A       		.uleb128 0xa
 1338 00e1 6B000000 		.4byte	0x6b
 1339 00e5 0A       		.uleb128 0xa
 1340 00e6 C7000000 		.4byte	0xc7
 1341 00ea 00       		.byte	0
 1342 00eb 0B       		.uleb128 0xb
 1343 00ec 01       		.byte	0x1
 1344 00ed 04       		.byte	0x4
 1345 00ee 4201     		.2byte	0x142
 1346 00f0 A8020000 		.4byte	0x2a8
 1347 00f4 0C       		.uleb128 0xc
 1348 00f5 04060000 		.4byte	.LASF19
 1349 00f9 00       		.sleb128 0
 1350 00fa 0C       		.uleb128 0xc
 1351 00fb F8020000 		.4byte	.LASF20
 1352 00ff 01       		.sleb128 1
 1353 0100 0C       		.uleb128 0xc
 1354 0101 72100000 		.4byte	.LASF21
 1355 0105 02       		.sleb128 2
 1356 0106 0C       		.uleb128 0xc
ARM GAS  C:\Users\310295~1\AppData\Local\Temp\ccZIm937.s 			page 52


 1357 0107 37040000 		.4byte	.LASF22
 1358 010b 03       		.sleb128 3
 1359 010c 0C       		.uleb128 0xc
 1360 010d 9C160000 		.4byte	.LASF23
 1361 0111 04       		.sleb128 4
 1362 0112 0C       		.uleb128 0xc
 1363 0113 7A150000 		.4byte	.LASF24
 1364 0117 05       		.sleb128 5
 1365 0118 0C       		.uleb128 0xc
 1366 0119 F60F0000 		.4byte	.LASF25
 1367 011d 06       		.sleb128 6
 1368 011e 0C       		.uleb128 0xc
 1369 011f 1C140000 		.4byte	.LASF26
 1370 0123 20       		.sleb128 32
 1371 0124 0C       		.uleb128 0xc
 1372 0125 A7010000 		.4byte	.LASF27
 1373 0129 21       		.sleb128 33
 1374 012a 0C       		.uleb128 0xc
 1375 012b 290B0000 		.4byte	.LASF28
 1376 012f 22       		.sleb128 34
 1377 0130 0C       		.uleb128 0xc
 1378 0131 F40E0000 		.4byte	.LASF29
 1379 0135 23       		.sleb128 35
 1380 0136 0C       		.uleb128 0xc
 1381 0137 A9080000 		.4byte	.LASF30
 1382 013b 24       		.sleb128 36
 1383 013c 0C       		.uleb128 0xc
 1384 013d D5080000 		.4byte	.LASF31
 1385 0141 25       		.sleb128 37
 1386 0142 0C       		.uleb128 0xc
 1387 0143 72120000 		.4byte	.LASF32
 1388 0147 26       		.sleb128 38
 1389 0148 0C       		.uleb128 0xc
 1390 0149 61000000 		.4byte	.LASF33
 1391 014d 27       		.sleb128 39
 1392 014e 0C       		.uleb128 0xc
 1393 014f 16170000 		.4byte	.LASF34
 1394 0153 28       		.sleb128 40
 1395 0154 0C       		.uleb128 0xc
 1396 0155 20100000 		.4byte	.LASF35
 1397 0159 29       		.sleb128 41
 1398 015a 0C       		.uleb128 0xc
 1399 015b 8E0A0000 		.4byte	.LASF36
 1400 015f 2A       		.sleb128 42
 1401 0160 0C       		.uleb128 0xc
 1402 0161 220E0000 		.4byte	.LASF37
 1403 0165 2B       		.sleb128 43
 1404 0166 0C       		.uleb128 0xc
 1405 0167 96150000 		.4byte	.LASF38
 1406 016b 2C       		.sleb128 44
 1407 016c 0C       		.uleb128 0xc
 1408 016d 2E000000 		.4byte	.LASF39
 1409 0171 2D       		.sleb128 45
 1410 0172 0C       		.uleb128 0xc
 1411 0173 DC120000 		.4byte	.LASF40
 1412 0177 2E       		.sleb128 46
 1413 0178 0C       		.uleb128 0xc
ARM GAS  C:\Users\310295~1\AppData\Local\Temp\ccZIm937.s 			page 53


 1414 0179 17020000 		.4byte	.LASF41
 1415 017d 2F       		.sleb128 47
 1416 017e 0C       		.uleb128 0xc
 1417 017f A1050000 		.4byte	.LASF42
 1418 0183 30       		.sleb128 48
 1419 0184 0C       		.uleb128 0xc
 1420 0185 820C0000 		.4byte	.LASF43
 1421 0189 31       		.sleb128 49
 1422 018a 0C       		.uleb128 0xc
 1423 018b 4D060000 		.4byte	.LASF44
 1424 018f 32       		.sleb128 50
 1425 0190 0C       		.uleb128 0xc
 1426 0191 C6040000 		.4byte	.LASF45
 1427 0195 33       		.sleb128 51
 1428 0196 0C       		.uleb128 0xc
 1429 0197 93130000 		.4byte	.LASF46
 1430 019b C000     		.sleb128 64
 1431 019d 0C       		.uleb128 0xc
 1432 019e 80000000 		.4byte	.LASF47
 1433 01a2 C100     		.sleb128 65
 1434 01a4 0C       		.uleb128 0xc
 1435 01a5 B1160000 		.4byte	.LASF48
 1436 01a9 C200     		.sleb128 66
 1437 01ab 0C       		.uleb128 0xc
 1438 01ac 3D100000 		.4byte	.LASF49
 1439 01b0 C300     		.sleb128 67
 1440 01b2 0C       		.uleb128 0xc
 1441 01b3 A8040000 		.4byte	.LASF50
 1442 01b7 C400     		.sleb128 68
 1443 01b9 0C       		.uleb128 0xc
 1444 01ba 5F040000 		.4byte	.LASF51
 1445 01be C500     		.sleb128 69
 1446 01c0 0C       		.uleb128 0xc
 1447 01c1 95110000 		.4byte	.LASF52
 1448 01c5 C600     		.sleb128 70
 1449 01c7 0C       		.uleb128 0xc
 1450 01c8 77110000 		.4byte	.LASF53
 1451 01cc C700     		.sleb128 71
 1452 01ce 0C       		.uleb128 0xc
 1453 01cf 7A050000 		.4byte	.LASF54
 1454 01d3 C800     		.sleb128 72
 1455 01d5 0C       		.uleb128 0xc
 1456 01d6 4C0F0000 		.4byte	.LASF55
 1457 01da C900     		.sleb128 73
 1458 01dc 0C       		.uleb128 0xc
 1459 01dd 8B060000 		.4byte	.LASF56
 1460 01e1 CA00     		.sleb128 74
 1461 01e3 0C       		.uleb128 0xc
 1462 01e4 E5050000 		.4byte	.LASF57
 1463 01e8 CB00     		.sleb128 75
 1464 01ea 0C       		.uleb128 0xc
 1465 01eb 630E0000 		.4byte	.LASF58
 1466 01ef CC00     		.sleb128 76
 1467 01f1 0C       		.uleb128 0xc
 1468 01f2 08120000 		.4byte	.LASF59
 1469 01f6 CD00     		.sleb128 77
 1470 01f8 0C       		.uleb128 0xc
ARM GAS  C:\Users\310295~1\AppData\Local\Temp\ccZIm937.s 			page 54


 1471 01f9 62020000 		.4byte	.LASF60
 1472 01fd CE00     		.sleb128 78
 1473 01ff 0C       		.uleb128 0xc
 1474 0200 A50D0000 		.4byte	.LASF61
 1475 0204 CF00     		.sleb128 79
 1476 0206 0C       		.uleb128 0xc
 1477 0207 FD130000 		.4byte	.LASF62
 1478 020b D000     		.sleb128 80
 1479 020d 0C       		.uleb128 0xc
 1480 020e A9060000 		.4byte	.LASF63
 1481 0212 D100     		.sleb128 81
 1482 0214 0C       		.uleb128 0xc
 1483 0215 86010000 		.4byte	.LASF64
 1484 0219 D200     		.sleb128 82
 1485 021b 0C       		.uleb128 0xc
 1486 021c 34150000 		.4byte	.LASF65
 1487 0220 D300     		.sleb128 83
 1488 0222 0C       		.uleb128 0xc
 1489 0223 38170000 		.4byte	.LASF66
 1490 0227 D400     		.sleb128 84
 1491 0229 0C       		.uleb128 0xc
 1492 022a 850E0000 		.4byte	.LASF67
 1493 022e D500     		.sleb128 85
 1494 0230 0C       		.uleb128 0xc
 1495 0231 D3060000 		.4byte	.LASF68
 1496 0235 D600     		.sleb128 86
 1497 0237 0C       		.uleb128 0xc
 1498 0238 410D0000 		.4byte	.LASF69
 1499 023c D700     		.sleb128 87
 1500 023e 0C       		.uleb128 0xc
 1501 023f F3160000 		.4byte	.LASF70
 1502 0243 D800     		.sleb128 88
 1503 0245 0C       		.uleb128 0xc
 1504 0246 BA150000 		.4byte	.LASF71
 1505 024a F000     		.sleb128 112
 1506 024c 0C       		.uleb128 0xc
 1507 024d 53080000 		.4byte	.LASF72
 1508 0251 F100     		.sleb128 113
 1509 0253 0C       		.uleb128 0xc
 1510 0254 BF030000 		.4byte	.LASF73
 1511 0258 F200     		.sleb128 114
 1512 025a 0C       		.uleb128 0xc
 1513 025b DF130000 		.4byte	.LASF74
 1514 025f F300     		.sleb128 115
 1515 0261 0C       		.uleb128 0xc
 1516 0262 910F0000 		.4byte	.LASF75
 1517 0266 F400     		.sleb128 116
 1518 0268 0C       		.uleb128 0xc
 1519 0269 FD0A0000 		.4byte	.LASF76
 1520 026d F500     		.sleb128 117
 1521 026f 0C       		.uleb128 0xc
 1522 0270 59050000 		.4byte	.LASF77
 1523 0274 F600     		.sleb128 118
 1524 0276 0C       		.uleb128 0xc
 1525 0277 AB100000 		.4byte	.LASF78
 1526 027b F700     		.sleb128 119
 1527 027d 0C       		.uleb128 0xc
ARM GAS  C:\Users\310295~1\AppData\Local\Temp\ccZIm937.s 			page 55


 1528 027e 37010000 		.4byte	.LASF79
 1529 0282 F800     		.sleb128 120
 1530 0284 0C       		.uleb128 0xc
 1531 0285 ED040000 		.4byte	.LASF80
 1532 0289 F900     		.sleb128 121
 1533 028b 0C       		.uleb128 0xc
 1534 028c CF160000 		.4byte	.LASF81
 1535 0290 FA00     		.sleb128 122
 1536 0292 0C       		.uleb128 0xc
 1537 0293 370C0000 		.4byte	.LASF82
 1538 0297 FA01     		.sleb128 250
 1539 0299 0C       		.uleb128 0xc
 1540 029a EE140000 		.4byte	.LASF83
 1541 029e FB01     		.sleb128 251
 1542 02a0 0C       		.uleb128 0xc
 1543 02a1 140E0000 		.4byte	.LASF84
 1544 02a5 FF01     		.sleb128 255
 1545 02a7 00       		.byte	0
 1546 02a8 0B       		.uleb128 0xb
 1547 02a9 02       		.byte	0x2
 1548 02aa 04       		.byte	0x4
 1549 02ab FF02     		.2byte	0x2ff
 1550 02ad 78030000 		.4byte	0x378
 1551 02b1 0C       		.uleb128 0xc
 1552 02b2 50040000 		.4byte	.LASF85
 1553 02b6 00       		.sleb128 0
 1554 02b7 0C       		.uleb128 0xc
 1555 02b8 6F070000 		.4byte	.LASF86
 1556 02bc 01       		.sleb128 1
 1557 02bd 0C       		.uleb128 0xc
 1558 02be 75160000 		.4byte	.LASF87
 1559 02c2 02       		.sleb128 2
 1560 02c3 0C       		.uleb128 0xc
 1561 02c4 EB070000 		.4byte	.LASF88
 1562 02c8 03       		.sleb128 3
 1563 02c9 0C       		.uleb128 0xc
 1564 02ca 1E090000 		.4byte	.LASF89
 1565 02ce 04       		.sleb128 4
 1566 02cf 0C       		.uleb128 0xc
 1567 02d0 F00B0000 		.4byte	.LASF90
 1568 02d4 05       		.sleb128 5
 1569 02d5 0C       		.uleb128 0xc
 1570 02d6 C1140000 		.4byte	.LASF91
 1571 02da 06       		.sleb128 6
 1572 02db 0C       		.uleb128 0xc
 1573 02dc 6E060000 		.4byte	.LASF92
 1574 02e0 07       		.sleb128 7
 1575 02e1 0C       		.uleb128 0xc
 1576 02e2 F80C0000 		.4byte	.LASF93
 1577 02e6 08       		.sleb128 8
 1578 02e7 0C       		.uleb128 0xc
 1579 02e8 62140000 		.4byte	.LASF94
 1580 02ec 09       		.sleb128 9
 1581 02ed 0C       		.uleb128 0xc
 1582 02ee 6C170000 		.4byte	.LASF95
 1583 02f2 0A       		.sleb128 10
 1584 02f3 0C       		.uleb128 0xc
ARM GAS  C:\Users\310295~1\AppData\Local\Temp\ccZIm937.s 			page 56


 1585 02f4 DF010000 		.4byte	.LASF96
 1586 02f8 0B       		.sleb128 11
 1587 02f9 0C       		.uleb128 0xc
 1588 02fa 55150000 		.4byte	.LASF97
 1589 02fe 0C       		.sleb128 12
 1590 02ff 0C       		.uleb128 0xc
 1591 0300 E70D0000 		.4byte	.LASF98
 1592 0304 0D       		.sleb128 13
 1593 0305 0C       		.uleb128 0xc
 1594 0306 AD090000 		.4byte	.LASF99
 1595 030a 0E       		.sleb128 14
 1596 030b 0C       		.uleb128 0xc
 1597 030c CB0B0000 		.4byte	.LASF100
 1598 0310 0F       		.sleb128 15
 1599 0311 0C       		.uleb128 0xc
 1600 0312 CE000000 		.4byte	.LASF101
 1601 0316 10       		.sleb128 16
 1602 0317 0C       		.uleb128 0xc
 1603 0318 A60C0000 		.4byte	.LASF102
 1604 031c 11       		.sleb128 17
 1605 031d 0C       		.uleb128 0xc
 1606 031e 0B030000 		.4byte	.LASF103
 1607 0322 12       		.sleb128 18
 1608 0323 0C       		.uleb128 0xc
 1609 0324 DB030000 		.4byte	.LASF104
 1610 0328 13       		.sleb128 19
 1611 0329 0C       		.uleb128 0xc
 1612 032a 150C0000 		.4byte	.LASF105
 1613 032e 27       		.sleb128 39
 1614 032f 0C       		.uleb128 0xc
 1615 0330 1C0D0000 		.4byte	.LASF106
 1616 0334 28       		.sleb128 40
 1617 0335 0C       		.uleb128 0xc
 1618 0336 FC000000 		.4byte	.LASF107
 1619 033a 29       		.sleb128 41
 1620 033b 0C       		.uleb128 0xc
 1621 033c 60130000 		.4byte	.LASF108
 1622 0340 2A       		.sleb128 42
 1623 0341 0C       		.uleb128 0xc
 1624 0342 53090000 		.4byte	.LASF109
 1625 0346 2B       		.sleb128 43
 1626 0347 0C       		.uleb128 0xc
 1627 0348 EC100000 		.4byte	.LASF110
 1628 034c 2C       		.sleb128 44
 1629 034d 0C       		.uleb128 0xc
 1630 034e 53070000 		.4byte	.LASF111
 1631 0352 FE01     		.sleb128 254
 1632 0354 0C       		.uleb128 0xc
 1633 0355 43080000 		.4byte	.LASF112
 1634 0359 FF01     		.sleb128 255
 1635 035b 0C       		.uleb128 0xc
 1636 035c 330F0000 		.4byte	.LASF113
 1637 0360 8002     		.sleb128 256
 1638 0362 0C       		.uleb128 0xc
 1639 0363 1A0F0000 		.4byte	.LASF114
 1640 0367 8102     		.sleb128 257
 1641 0369 0C       		.uleb128 0xc
ARM GAS  C:\Users\310295~1\AppData\Local\Temp\ccZIm937.s 			page 57


 1642 036a 6A030000 		.4byte	.LASF115
 1643 036e 8202     		.sleb128 258
 1644 0370 0C       		.uleb128 0xc
 1645 0371 91100000 		.4byte	.LASF116
 1646 0375 8302     		.sleb128 259
 1647 0377 00       		.byte	0
 1648 0378 04       		.uleb128 0x4
 1649 0379 0D150000 		.4byte	.LASF117
 1650 037d 04       		.byte	0x4
 1651 037e 6B03     		.2byte	0x36b
 1652 0380 A8020000 		.4byte	0x2a8
 1653 0384 0D       		.uleb128 0xd
 1654 0385 07       		.byte	0x7
 1655 0386 04       		.byte	0x4
 1656 0387 2804     		.2byte	0x428
 1657 0389 A8030000 		.4byte	0x3a8
 1658 038d 0E       		.uleb128 0xe
 1659 038e 8C140000 		.4byte	.LASF118
 1660 0392 04       		.byte	0x4
 1661 0393 2B04     		.2byte	0x42b
 1662 0395 A8030000 		.4byte	0x3a8
 1663 0399 00       		.byte	0
 1664 039a 0E       		.uleb128 0xe
 1665 039b 70010000 		.4byte	.LASF119
 1666 039f 04       		.byte	0x4
 1667 03a0 2D04     		.2byte	0x42d
 1668 03a2 6B000000 		.4byte	0x6b
 1669 03a6 06       		.byte	0x6
 1670 03a7 00       		.byte	0
 1671 03a8 0F       		.uleb128 0xf
 1672 03a9 6B000000 		.4byte	0x6b
 1673 03ad B8030000 		.4byte	0x3b8
 1674 03b1 10       		.uleb128 0x10
 1675 03b2 C0000000 		.4byte	0xc0
 1676 03b6 05       		.byte	0x5
 1677 03b7 00       		.byte	0
 1678 03b8 04       		.uleb128 0x4
 1679 03b9 04110000 		.4byte	.LASF120
 1680 03bd 04       		.byte	0x4
 1681 03be 2E04     		.2byte	0x42e
 1682 03c0 84030000 		.4byte	0x384
 1683 03c4 0D       		.uleb128 0xd
 1684 03c5 04       		.byte	0x4
 1685 03c6 04       		.byte	0x4
 1686 03c7 3804     		.2byte	0x438
 1687 03c9 E8030000 		.4byte	0x3e8
 1688 03cd 0E       		.uleb128 0xe
 1689 03ce EF080000 		.4byte	.LASF121
 1690 03d2 04       		.byte	0x4
 1691 03d3 3B04     		.2byte	0x43b
 1692 03d5 77000000 		.4byte	0x77
 1693 03d9 00       		.byte	0
 1694 03da 0E       		.uleb128 0xe
 1695 03db 2B040000 		.4byte	.LASF122
 1696 03df 04       		.byte	0x4
 1697 03e0 3D04     		.2byte	0x43d
 1698 03e2 6B000000 		.4byte	0x6b
ARM GAS  C:\Users\310295~1\AppData\Local\Temp\ccZIm937.s 			page 58


 1699 03e6 02       		.byte	0x2
 1700 03e7 00       		.byte	0
 1701 03e8 04       		.uleb128 0x4
 1702 03e9 B3020000 		.4byte	.LASF123
 1703 03ed 04       		.byte	0x4
 1704 03ee 3E04     		.2byte	0x43e
 1705 03f0 C4030000 		.4byte	0x3c4
 1706 03f4 0D       		.uleb128 0xd
 1707 03f5 06       		.byte	0x6
 1708 03f6 04       		.byte	0x4
 1709 03f7 4204     		.2byte	0x442
 1710 03f9 25040000 		.4byte	0x425
 1711 03fd 0E       		.uleb128 0xe
 1712 03fe 680B0000 		.4byte	.LASF124
 1713 0402 04       		.byte	0x4
 1714 0403 4504     		.2byte	0x445
 1715 0405 77000000 		.4byte	0x77
 1716 0409 00       		.byte	0
 1717 040a 0E       		.uleb128 0xe
 1718 040b 28160000 		.4byte	.LASF125
 1719 040f 04       		.byte	0x4
 1720 0410 4804     		.2byte	0x448
 1721 0412 77000000 		.4byte	0x77
 1722 0416 02       		.byte	0x2
 1723 0417 0E       		.uleb128 0xe
 1724 0418 7C0D0000 		.4byte	.LASF126
 1725 041c 04       		.byte	0x4
 1726 041d 4B04     		.2byte	0x44b
 1727 041f 6B000000 		.4byte	0x6b
 1728 0423 04       		.byte	0x4
 1729 0424 00       		.byte	0
 1730 0425 04       		.uleb128 0x4
 1731 0426 49020000 		.4byte	.LASF127
 1732 042a 04       		.byte	0x4
 1733 042b 4C04     		.2byte	0x44c
 1734 042d F4030000 		.4byte	0x3f4
 1735 0431 0D       		.uleb128 0xd
 1736 0432 01       		.byte	0x1
 1737 0433 04       		.byte	0x4
 1738 0434 4F04     		.2byte	0x44f
 1739 0436 48040000 		.4byte	0x448
 1740 043a 0E       		.uleb128 0xe
 1741 043b 9B090000 		.4byte	.LASF128
 1742 043f 04       		.byte	0x4
 1743 0440 5204     		.2byte	0x452
 1744 0442 6B000000 		.4byte	0x6b
 1745 0446 00       		.byte	0
 1746 0447 00       		.byte	0
 1747 0448 04       		.uleb128 0x4
 1748 0449 CA0C0000 		.4byte	.LASF129
 1749 044d 04       		.byte	0x4
 1750 044e 5304     		.2byte	0x453
 1751 0450 31040000 		.4byte	0x431
 1752 0454 0D       		.uleb128 0xd
 1753 0455 0C       		.byte	0xc
 1754 0456 04       		.byte	0x4
 1755 0457 5904     		.2byte	0x459
ARM GAS  C:\Users\310295~1\AppData\Local\Temp\ccZIm937.s 			page 59


 1756 0459 85040000 		.4byte	0x485
 1757 045d 0E       		.uleb128 0xe
 1758 045e CD020000 		.4byte	.LASF130
 1759 0462 04       		.byte	0x4
 1760 0463 5C04     		.2byte	0x45c
 1761 0465 85040000 		.4byte	0x485
 1762 0469 00       		.byte	0
 1763 046a 0E       		.uleb128 0xe
 1764 046b 18110000 		.4byte	.LASF131
 1765 046f 04       		.byte	0x4
 1766 0470 5F04     		.2byte	0x45f
 1767 0472 8B040000 		.4byte	0x48b
 1768 0476 04       		.byte	0x4
 1769 0477 0E       		.uleb128 0xe
 1770 0478 980D0000 		.4byte	.LASF132
 1771 047c 04       		.byte	0x4
 1772 047d 6504     		.2byte	0x465
 1773 047f 77000000 		.4byte	0x77
 1774 0483 08       		.byte	0x8
 1775 0484 00       		.byte	0
 1776 0485 08       		.uleb128 0x8
 1777 0486 04       		.byte	0x4
 1778 0487 25040000 		.4byte	0x425
 1779 048b 08       		.uleb128 0x8
 1780 048c 04       		.byte	0x4
 1781 048d 48040000 		.4byte	0x448
 1782 0491 04       		.uleb128 0x4
 1783 0492 4D0B0000 		.4byte	.LASF133
 1784 0496 04       		.byte	0x4
 1785 0497 6604     		.2byte	0x466
 1786 0499 54040000 		.4byte	0x454
 1787 049d 11       		.uleb128 0x11
 1788 049e 01       		.byte	0x1
 1789 049f 05       		.byte	0x5
 1790 04a0 D0       		.byte	0xd0
 1791 04a1 C4040000 		.4byte	0x4c4
 1792 04a5 0C       		.uleb128 0xc
 1793 04a6 49160000 		.4byte	.LASF134
 1794 04aa 00       		.sleb128 0
 1795 04ab 0C       		.uleb128 0xc
 1796 04ac 650F0000 		.4byte	.LASF135
 1797 04b0 01       		.sleb128 1
 1798 04b1 0C       		.uleb128 0xc
 1799 04b2 BB130000 		.4byte	.LASF136
 1800 04b6 02       		.sleb128 2
 1801 04b7 0C       		.uleb128 0xc
 1802 04b8 95030000 		.4byte	.LASF137
 1803 04bc 03       		.sleb128 3
 1804 04bd 0C       		.uleb128 0xc
 1805 04be C0070000 		.4byte	.LASF138
 1806 04c2 04       		.sleb128 4
 1807 04c3 00       		.byte	0
 1808 04c4 06       		.uleb128 0x6
 1809 04c5 520E0000 		.4byte	.LASF139
 1810 04c9 05       		.byte	0x5
 1811 04ca E0       		.byte	0xe0
 1812 04cb 9D040000 		.4byte	0x49d
ARM GAS  C:\Users\310295~1\AppData\Local\Temp\ccZIm937.s 			page 60


 1813 04cf 0D       		.uleb128 0xd
 1814 04d0 10       		.byte	0x10
 1815 04d1 05       		.byte	0x5
 1816 04d2 0902     		.2byte	0x209
 1817 04d4 41050000 		.4byte	0x541
 1818 04d8 0E       		.uleb128 0xe
 1819 04d9 10050000 		.4byte	.LASF140
 1820 04dd 05       		.byte	0x5
 1821 04de 0F02     		.2byte	0x20f
 1822 04e0 77000000 		.4byte	0x77
 1823 04e4 00       		.byte	0
 1824 04e5 0E       		.uleb128 0xe
 1825 04e6 86170000 		.4byte	.LASF141
 1826 04ea 05       		.byte	0x5
 1827 04eb 1502     		.2byte	0x215
 1828 04ed 77000000 		.4byte	0x77
 1829 04f1 02       		.byte	0x2
 1830 04f2 0E       		.uleb128 0xe
 1831 04f3 16090000 		.4byte	.LASF142
 1832 04f7 05       		.byte	0x5
 1833 04f8 1E02     		.2byte	0x21e
 1834 04fa C4040000 		.4byte	0x4c4
 1835 04fe 04       		.byte	0x4
 1836 04ff 0E       		.uleb128 0xe
 1837 0500 60170000 		.4byte	.LASF143
 1838 0504 05       		.byte	0x5
 1839 0505 2602     		.2byte	0x226
 1840 0507 6B000000 		.4byte	0x6b
 1841 050b 05       		.byte	0x5
 1842 050c 0E       		.uleb128 0xe
 1843 050d 730C0000 		.4byte	.LASF144
 1844 0511 05       		.byte	0x5
 1845 0512 2D02     		.2byte	0x22d
 1846 0514 6B000000 		.4byte	0x6b
 1847 0518 06       		.byte	0x6
 1848 0519 0E       		.uleb128 0xe
 1849 051a 07160000 		.4byte	.LASF145
 1850 051e 05       		.byte	0x5
 1851 051f 3302     		.2byte	0x233
 1852 0521 A8030000 		.4byte	0x3a8
 1853 0525 07       		.byte	0x7
 1854 0526 0E       		.uleb128 0xe
 1855 0527 3B160000 		.4byte	.LASF146
 1856 052b 05       		.byte	0x5
 1857 052c 3B02     		.2byte	0x23b
 1858 052e 6B000000 		.4byte	0x6b
 1859 0532 0D       		.byte	0xd
 1860 0533 0E       		.uleb128 0xe
 1861 0534 C5080000 		.4byte	.LASF147
 1862 0538 05       		.byte	0x5
 1863 0539 4702     		.2byte	0x247
 1864 053b 6B000000 		.4byte	0x6b
 1865 053f 0E       		.byte	0xe
 1866 0540 00       		.byte	0
 1867 0541 04       		.uleb128 0x4
 1868 0542 87080000 		.4byte	.LASF148
 1869 0546 05       		.byte	0x5
ARM GAS  C:\Users\310295~1\AppData\Local\Temp\ccZIm937.s 			page 61


 1870 0547 4902     		.2byte	0x249
 1871 0549 CF040000 		.4byte	0x4cf
 1872 054d 0D       		.uleb128 0xd
 1873 054e 20       		.byte	0x20
 1874 054f 05       		.byte	0x5
 1875 0550 4C02     		.2byte	0x24c
 1876 0552 71050000 		.4byte	0x571
 1877 0556 0E       		.uleb128 0xe
 1878 0557 7D0E0000 		.4byte	.LASF149
 1879 055b 05       		.byte	0x5
 1880 055c 4F02     		.2byte	0x24f
 1881 055e 71050000 		.4byte	0x571
 1882 0562 00       		.byte	0
 1883 0563 0E       		.uleb128 0xe
 1884 0564 33110000 		.4byte	.LASF150
 1885 0568 05       		.byte	0x5
 1886 0569 5202     		.2byte	0x252
 1887 056b 6B000000 		.4byte	0x6b
 1888 056f 1F       		.byte	0x1f
 1889 0570 00       		.byte	0
 1890 0571 0F       		.uleb128 0xf
 1891 0572 6B000000 		.4byte	0x6b
 1892 0576 81050000 		.4byte	0x581
 1893 057a 10       		.uleb128 0x10
 1894 057b C0000000 		.4byte	0xc0
 1895 057f 1E       		.byte	0x1e
 1896 0580 00       		.byte	0
 1897 0581 04       		.uleb128 0x4
 1898 0582 42050000 		.4byte	.LASF151
 1899 0586 05       		.byte	0x5
 1900 0587 5402     		.2byte	0x254
 1901 0589 4D050000 		.4byte	0x54d
 1902 058d 0D       		.uleb128 0xd
 1903 058e 20       		.byte	0x20
 1904 058f 05       		.byte	0x5
 1905 0590 5702     		.2byte	0x257
 1906 0592 B1050000 		.4byte	0x5b1
 1907 0596 0E       		.uleb128 0xe
 1908 0597 12000000 		.4byte	.LASF152
 1909 059b 05       		.byte	0x5
 1910 059c 5B02     		.2byte	0x25b
 1911 059e 71050000 		.4byte	0x571
 1912 05a2 00       		.byte	0
 1913 05a3 0E       		.uleb128 0xe
 1914 05a4 51130000 		.4byte	.LASF153
 1915 05a8 05       		.byte	0x5
 1916 05a9 5E02     		.2byte	0x25e
 1917 05ab 6B000000 		.4byte	0x6b
 1918 05af 1F       		.byte	0x1f
 1919 05b0 00       		.byte	0
 1920 05b1 04       		.uleb128 0x4
 1921 05b2 9A120000 		.4byte	.LASF154
 1922 05b6 05       		.byte	0x5
 1923 05b7 6002     		.2byte	0x260
 1924 05b9 8D050000 		.4byte	0x58d
 1925 05bd 0D       		.uleb128 0xd
 1926 05be 14       		.byte	0x14
ARM GAS  C:\Users\310295~1\AppData\Local\Temp\ccZIm937.s 			page 62


 1927 05bf 05       		.byte	0x5
 1928 05c0 6302     		.2byte	0x263
 1929 05c2 08060000 		.4byte	0x608
 1930 05c6 0E       		.uleb128 0xe
 1931 05c7 C5000000 		.4byte	.LASF155
 1932 05cb 05       		.byte	0x5
 1933 05cc 6B02     		.2byte	0x26b
 1934 05ce 6B000000 		.4byte	0x6b
 1935 05d2 00       		.byte	0
 1936 05d3 0E       		.uleb128 0xe
 1937 05d4 C20B0000 		.4byte	.LASF156
 1938 05d8 05       		.byte	0x5
 1939 05d9 6E02     		.2byte	0x26e
 1940 05db 08060000 		.4byte	0x608
 1941 05df 04       		.byte	0x4
 1942 05e0 0E       		.uleb128 0xe
 1943 05e1 7D0E0000 		.4byte	.LASF149
 1944 05e5 05       		.byte	0x5
 1945 05e6 7002     		.2byte	0x270
 1946 05e8 0E060000 		.4byte	0x60e
 1947 05ec 08       		.byte	0x8
 1948 05ed 0E       		.uleb128 0xe
 1949 05ee 12000000 		.4byte	.LASF152
 1950 05f2 05       		.byte	0x5
 1951 05f3 7202     		.2byte	0x272
 1952 05f5 14060000 		.4byte	0x614
 1953 05f9 0C       		.byte	0xc
 1954 05fa 0E       		.uleb128 0xe
 1955 05fb F00F0000 		.4byte	.LASF157
 1956 05ff 05       		.byte	0x5
 1957 0600 7C02     		.2byte	0x27c
 1958 0602 77000000 		.4byte	0x77
 1959 0606 10       		.byte	0x10
 1960 0607 00       		.byte	0
 1961 0608 08       		.uleb128 0x8
 1962 0609 04       		.byte	0x4
 1963 060a 41050000 		.4byte	0x541
 1964 060e 08       		.uleb128 0x8
 1965 060f 04       		.byte	0x4
 1966 0610 81050000 		.4byte	0x581
 1967 0614 08       		.uleb128 0x8
 1968 0615 04       		.byte	0x4
 1969 0616 B1050000 		.4byte	0x5b1
 1970 061a 04       		.uleb128 0x4
 1971 061b 43110000 		.4byte	.LASF158
 1972 061f 05       		.byte	0x5
 1973 0620 7E02     		.2byte	0x27e
 1974 0622 BD050000 		.4byte	0x5bd
 1975 0626 08       		.uleb128 0x8
 1976 0627 04       		.byte	0x4
 1977 0628 6B000000 		.4byte	0x6b
 1978 062c 0D       		.uleb128 0xd
 1979 062d 02       		.byte	0x2
 1980 062e 06       		.byte	0x6
 1981 062f 9C01     		.2byte	0x19c
 1982 0631 50060000 		.4byte	0x650
 1983 0635 0E       		.uleb128 0xe
ARM GAS  C:\Users\310295~1\AppData\Local\Temp\ccZIm937.s 			page 63


 1984 0636 40020000 		.4byte	.LASF159
 1985 063a 06       		.byte	0x6
 1986 063b A301     		.2byte	0x1a3
 1987 063d 6B000000 		.4byte	0x6b
 1988 0641 00       		.byte	0
 1989 0642 0E       		.uleb128 0xe
 1990 0643 6F160000 		.4byte	.LASF160
 1991 0647 06       		.byte	0x6
 1992 0648 A901     		.2byte	0x1a9
 1993 064a 6B000000 		.4byte	0x6b
 1994 064e 01       		.byte	0x1
 1995 064f 00       		.byte	0
 1996 0650 04       		.uleb128 0x4
 1997 0651 BE010000 		.4byte	.LASF161
 1998 0655 06       		.byte	0x6
 1999 0656 AB01     		.2byte	0x1ab
 2000 0658 2C060000 		.4byte	0x62c
 2001 065c 08       		.uleb128 0x8
 2002 065d 04       		.byte	0x4
 2003 065e 77000000 		.4byte	0x77
 2004 0662 12       		.uleb128 0x12
 2005 0663 08       		.byte	0x8
 2006 0664 07       		.byte	0x7
 2007 0665 C3       		.byte	0xc3
 2008 0666 83060000 		.4byte	0x683
 2009 066a 13       		.uleb128 0x13
 2010 066b 26110000 		.4byte	.LASF162
 2011 066f 07       		.byte	0x7
 2012 0670 C6       		.byte	0xc6
 2013 0671 77000000 		.4byte	0x77
 2014 0675 00       		.byte	0
 2015 0676 13       		.uleb128 0x13
 2016 0677 B5120000 		.4byte	.LASF163
 2017 067b 07       		.byte	0x7
 2018 067c CB       		.byte	0xcb
 2019 067d C7000000 		.4byte	0xc7
 2020 0681 04       		.byte	0x4
 2021 0682 00       		.byte	0
 2022 0683 06       		.uleb128 0x6
 2023 0684 C30F0000 		.4byte	.LASF164
 2024 0688 07       		.byte	0x7
 2025 0689 CD       		.byte	0xcd
 2026 068a 62060000 		.4byte	0x662
 2027 068e 12       		.uleb128 0x12
 2028 068f 08       		.byte	0x8
 2029 0690 07       		.byte	0x7
 2030 0691 D0       		.byte	0xd0
 2031 0692 AF060000 		.4byte	0x6af
 2032 0696 13       		.uleb128 0x13
 2033 0697 D7050000 		.4byte	.LASF165
 2034 069b 07       		.byte	0x7
 2035 069c D3       		.byte	0xd3
 2036 069d 77000000 		.4byte	0x77
 2037 06a1 00       		.byte	0
 2038 06a2 13       		.uleb128 0x13
 2039 06a3 31130000 		.4byte	.LASF166
 2040 06a7 07       		.byte	0x7
ARM GAS  C:\Users\310295~1\AppData\Local\Temp\ccZIm937.s 			page 64


 2041 06a8 D8       		.byte	0xd8
 2042 06a9 AF060000 		.4byte	0x6af
 2043 06ad 04       		.byte	0x4
 2044 06ae 00       		.byte	0
 2045 06af 08       		.uleb128 0x8
 2046 06b0 04       		.byte	0x4
 2047 06b1 83060000 		.4byte	0x683
 2048 06b5 06       		.uleb128 0x6
 2049 06b6 53120000 		.4byte	.LASF167
 2050 06ba 07       		.byte	0x7
 2051 06bb DA       		.byte	0xda
 2052 06bc 8E060000 		.4byte	0x68e
 2053 06c0 14       		.uleb128 0x14
 2054 06c1 08       		.byte	0x8
 2055 06c2 07       		.byte	0x7
 2056 06c3 DD       		.byte	0xdd
 2057 06c4 DF060000 		.4byte	0x6df
 2058 06c8 15       		.uleb128 0x15
 2059 06c9 42130000 		.4byte	.LASF168
 2060 06cd 07       		.byte	0x7
 2061 06ce E4       		.byte	0xe4
 2062 06cf B5060000 		.4byte	0x6b5
 2063 06d3 15       		.uleb128 0x15
 2064 06d4 640A0000 		.4byte	.LASF169
 2065 06d8 07       		.byte	0x7
 2066 06d9 E7       		.byte	0xe7
 2067 06da 77000000 		.4byte	0x77
 2068 06de 00       		.byte	0
 2069 06df 06       		.uleb128 0x6
 2070 06e0 3B120000 		.4byte	.LASF170
 2071 06e4 07       		.byte	0x7
 2072 06e5 E9       		.byte	0xe9
 2073 06e6 C0060000 		.4byte	0x6c0
 2074 06ea 12       		.uleb128 0x12
 2075 06eb 14       		.byte	0x14
 2076 06ec 07       		.byte	0x7
 2077 06ed EC       		.byte	0xec
 2078 06ee 31070000 		.4byte	0x731
 2079 06f2 13       		.uleb128 0x13
 2080 06f3 1B050000 		.4byte	.LASF171
 2081 06f7 07       		.byte	0x7
 2082 06f8 EF       		.byte	0xef
 2083 06f9 77000000 		.4byte	0x77
 2084 06fd 00       		.byte	0
 2085 06fe 13       		.uleb128 0x13
 2086 06ff 8D030000 		.4byte	.LASF172
 2087 0703 07       		.byte	0x7
 2088 0704 F5       		.byte	0xf5
 2089 0705 77000000 		.4byte	0x77
 2090 0709 02       		.byte	0x2
 2091 070a 13       		.uleb128 0x13
 2092 070b 65010000 		.4byte	.LASF173
 2093 070f 07       		.byte	0x7
 2094 0710 FF       		.byte	0xff
 2095 0711 83000000 		.4byte	0x83
 2096 0715 04       		.byte	0x4
 2097 0716 0E       		.uleb128 0xe
ARM GAS  C:\Users\310295~1\AppData\Local\Temp\ccZIm937.s 			page 65


 2098 0717 C40D0000 		.4byte	.LASF174
 2099 071b 07       		.byte	0x7
 2100 071c 0201     		.2byte	0x102
 2101 071e 77000000 		.4byte	0x77
 2102 0722 08       		.byte	0x8
 2103 0723 0E       		.uleb128 0xe
 2104 0724 D0100000 		.4byte	.LASF175
 2105 0728 07       		.byte	0x7
 2106 0729 0B01     		.2byte	0x10b
 2107 072b DF060000 		.4byte	0x6df
 2108 072f 0C       		.byte	0xc
 2109 0730 00       		.byte	0
 2110 0731 04       		.uleb128 0x4
 2111 0732 F5060000 		.4byte	.LASF176
 2112 0736 07       		.byte	0x7
 2113 0737 0C01     		.2byte	0x10c
 2114 0739 EA060000 		.4byte	0x6ea
 2115 073d 04       		.uleb128 0x4
 2116 073e 75010000 		.4byte	.LASF177
 2117 0742 08       		.byte	0x8
 2118 0743 E601     		.2byte	0x1e6
 2119 0745 49070000 		.4byte	0x749
 2120 0749 08       		.uleb128 0x8
 2121 074a 04       		.byte	0x4
 2122 074b 4F070000 		.4byte	0x74f
 2123 074f 09       		.uleb128 0x9
 2124 0750 5F070000 		.4byte	0x75f
 2125 0754 0A       		.uleb128 0xa
 2126 0755 83000000 		.4byte	0x83
 2127 0759 0A       		.uleb128 0xa
 2128 075a C7000000 		.4byte	0xc7
 2129 075e 00       		.byte	0
 2130 075f 16       		.uleb128 0x16
 2131 0760 8F02     		.2byte	0x28f
 2132 0762 09       		.byte	0x9
 2133 0763 9C       		.byte	0x9c
 2134 0764 9C070000 		.4byte	0x79c
 2135 0768 13       		.uleb128 0x13
 2136 0769 79080000 		.4byte	.LASF178
 2137 076d 09       		.byte	0x9
 2138 076e 9F       		.byte	0x9f
 2139 076f 9C070000 		.4byte	0x79c
 2140 0773 00       		.byte	0
 2141 0774 17       		.uleb128 0x17
 2142 0775 2A080000 		.4byte	.LASF179
 2143 0779 09       		.byte	0x9
 2144 077a A2       		.byte	0xa2
 2145 077b AD070000 		.4byte	0x7ad
 2146 077f 7902     		.2byte	0x279
 2147 0781 17       		.uleb128 0x17
 2148 0782 40140000 		.4byte	.LASF180
 2149 0786 09       		.byte	0x9
 2150 0787 A5       		.byte	0xa5
 2151 0788 6B000000 		.4byte	0x6b
 2152 078c 8D02     		.2byte	0x28d
 2153 078e 17       		.uleb128 0x17
 2154 078f A1070000 		.4byte	.LASF181
ARM GAS  C:\Users\310295~1\AppData\Local\Temp\ccZIm937.s 			page 66


 2155 0793 09       		.byte	0x9
 2156 0794 A8       		.byte	0xa8
 2157 0795 6B000000 		.4byte	0x6b
 2158 0799 8E02     		.2byte	0x28e
 2159 079b 00       		.byte	0
 2160 079c 0F       		.uleb128 0xf
 2161 079d 6B000000 		.4byte	0x6b
 2162 07a1 AD070000 		.4byte	0x7ad
 2163 07a5 18       		.uleb128 0x18
 2164 07a6 C0000000 		.4byte	0xc0
 2165 07aa 7802     		.2byte	0x278
 2166 07ac 00       		.byte	0
 2167 07ad 0F       		.uleb128 0xf
 2168 07ae 6B000000 		.4byte	0x6b
 2169 07b2 C3070000 		.4byte	0x7c3
 2170 07b6 10       		.uleb128 0x10
 2171 07b7 C0000000 		.4byte	0xc0
 2172 07bb 04       		.byte	0x4
 2173 07bc 10       		.uleb128 0x10
 2174 07bd C0000000 		.4byte	0xc0
 2175 07c1 03       		.byte	0x3
 2176 07c2 00       		.byte	0
 2177 07c3 06       		.uleb128 0x6
 2178 07c4 86090000 		.4byte	.LASF182
 2179 07c8 09       		.byte	0x9
 2180 07c9 A9       		.byte	0xa9
 2181 07ca 5F070000 		.4byte	0x75f
 2182 07ce 0B       		.uleb128 0xb
 2183 07cf 01       		.byte	0x1
 2184 07d0 0A       		.byte	0xa
 2185 07d1 BF07     		.2byte	0x7bf
 2186 07d3 F6070000 		.4byte	0x7f6
 2187 07d7 0C       		.uleb128 0xc
 2188 07d8 86040000 		.4byte	.LASF183
 2189 07dc 00       		.sleb128 0
 2190 07dd 0C       		.uleb128 0xc
 2191 07de E40A0000 		.4byte	.LASF184
 2192 07e2 01       		.sleb128 1
 2193 07e3 0C       		.uleb128 0xc
 2194 07e4 12160000 		.4byte	.LASF185
 2195 07e8 02       		.sleb128 2
 2196 07e9 0C       		.uleb128 0xc
 2197 07ea FF010000 		.4byte	.LASF186
 2198 07ee 03       		.sleb128 3
 2199 07ef 0C       		.uleb128 0xc
 2200 07f0 22120000 		.4byte	.LASF187
 2201 07f4 04       		.sleb128 4
 2202 07f5 00       		.byte	0
 2203 07f6 04       		.uleb128 0x4
 2204 07f7 AD130000 		.4byte	.LASF188
 2205 07fb 0A       		.byte	0xa
 2206 07fc CD07     		.2byte	0x7cd
 2207 07fe CE070000 		.4byte	0x7ce
 2208 0802 08       		.uleb128 0x8
 2209 0803 04       		.byte	0x4
 2210 0804 08080000 		.4byte	0x808
 2211 0808 19       		.uleb128 0x19
ARM GAS  C:\Users\310295~1\AppData\Local\Temp\ccZIm937.s 			page 67


 2212 0809 1A       		.uleb128 0x1a
 2213 080a 9B000000 		.4byte	.LASF258
 2214 080e 01       		.byte	0x1
 2215 080f 9704     		.2byte	0x497
 2216 0811 00000000 		.4byte	.LFB11
 2217 0815 74000000 		.4byte	.LFE11-.LFB11
 2218 0819 01       		.uleb128 0x1
 2219 081a 9C       		.byte	0x9c
 2220 081b 9E080000 		.4byte	0x89e
 2221 081f 1B       		.uleb128 0x1b
 2222 0820 C3120000 		.4byte	.LASF189
 2223 0824 01       		.byte	0x1
 2224 0825 9704     		.2byte	0x497
 2225 0827 9E080000 		.4byte	0x89e
 2226 082b 00000000 		.4byte	.LLST0
 2227 082f 1B       		.uleb128 0x1b
 2228 0830 3E110000 		.4byte	.LASF190
 2229 0834 01       		.byte	0x1
 2230 0835 9704     		.2byte	0x497
 2231 0837 6B000000 		.4byte	0x6b
 2232 083b 21000000 		.4byte	.LLST1
 2233 083f 1C       		.uleb128 0x1c
 2234 0840 6900     		.ascii	"i\000"
 2235 0842 01       		.byte	0x1
 2236 0843 9904     		.2byte	0x499
 2237 0845 6B000000 		.4byte	0x6b
 2238 0849 42000000 		.4byte	.LLST2
 2239 084d 1D       		.uleb128 0x1d
 2240 084e D10D0000 		.4byte	.LASF191
 2241 0852 01       		.byte	0x1
 2242 0853 9A04     		.2byte	0x49a
 2243 0855 6B000000 		.4byte	0x6b
 2244 0859 76000000 		.4byte	.LLST3
 2245 085d 1D       		.uleb128 0x1d
 2246 085e 93160000 		.4byte	.LASF192
 2247 0862 01       		.byte	0x1
 2248 0863 9B04     		.2byte	0x49b
 2249 0865 6B000000 		.4byte	0x6b
 2250 0869 95000000 		.4byte	.LLST4
 2251 086d 1D       		.uleb128 0x1d
 2252 086e E2140000 		.4byte	.LASF193
 2253 0872 01       		.byte	0x1
 2254 0873 9C04     		.2byte	0x49c
 2255 0875 6B000000 		.4byte	0x6b
 2256 0879 BF000000 		.4byte	.LLST5
 2257 087d 1D       		.uleb128 0x1d
 2258 087e BA000000 		.4byte	.LASF194
 2259 0882 01       		.byte	0x1
 2260 0883 9D04     		.2byte	0x49d
 2261 0885 26060000 		.4byte	0x626
 2262 0889 FF000000 		.4byte	.LLST6
 2263 088d 1D       		.uleb128 0x1d
 2264 088e 9F080000 		.4byte	.LASF195
 2265 0892 01       		.byte	0x1
 2266 0893 9E04     		.2byte	0x49e
 2267 0895 6B000000 		.4byte	0x6b
 2268 0899 32010000 		.4byte	.LLST7
ARM GAS  C:\Users\310295~1\AppData\Local\Temp\ccZIm937.s 			page 68


 2269 089d 00       		.byte	0
 2270 089e 08       		.uleb128 0x8
 2271 089f 04       		.byte	0x4
 2272 08a0 A4080000 		.4byte	0x8a4
 2273 08a4 1E       		.uleb128 0x1e
 2274 08a5 9D000000 		.4byte	0x9d
 2275 08a9 1F       		.uleb128 0x1f
 2276 08aa 89020000 		.4byte	.LASF196
 2277 08ae 01       		.byte	0x1
 2278 08af C9       		.byte	0xc9
 2279 08b0 00000000 		.4byte	.LFB3
 2280 08b4 08000000 		.4byte	.LFE3-.LFB3
 2281 08b8 01       		.uleb128 0x1
 2282 08b9 9C       		.byte	0x9c
 2283 08ba C8080000 		.4byte	0x8c8
 2284 08be 20       		.uleb128 0x20
 2285 08bf 06000000 		.4byte	.LVL26
 2286 08c3 500F0000 		.4byte	0xf50
 2287 08c7 00       		.byte	0
 2288 08c8 1F       		.uleb128 0x1f
 2289 08c9 C8060000 		.4byte	.LASF197
 2290 08cd 01       		.byte	0x1
 2291 08ce 98       		.byte	0x98
 2292 08cf 00000000 		.4byte	.LFB2
 2293 08d3 34000000 		.4byte	.LFE2-.LFB2
 2294 08d7 01       		.uleb128 0x1
 2295 08d8 9C       		.byte	0x9c
 2296 08d9 E7080000 		.4byte	0x8e7
 2297 08dd 20       		.uleb128 0x20
 2298 08de 14000000 		.4byte	.LVL27
 2299 08e2 A9080000 		.4byte	0x8a9
 2300 08e6 00       		.byte	0
 2301 08e7 21       		.uleb128 0x21
 2302 08e8 D9110000 		.4byte	.LASF206
 2303 08ec 01       		.byte	0x1
 2304 08ed 8F01     		.2byte	0x18f
 2305 08ef 78030000 		.4byte	0x378
 2306 08f3 00000000 		.4byte	.LFB4
 2307 08f7 AC000000 		.4byte	.LFE4-.LFB4
 2308 08fb 01       		.uleb128 0x1
 2309 08fc 9C       		.byte	0x9c
 2310 08fd 020A0000 		.4byte	0xa02
 2311 0901 1B       		.uleb128 0x1b
 2312 0902 D2010000 		.4byte	.LASF198
 2313 0906 01       		.byte	0x1
 2314 0907 8F01     		.2byte	0x18f
 2315 0909 3D070000 		.4byte	0x73d
 2316 090d 50010000 		.4byte	.LLST8
 2317 0911 1D       		.uleb128 0x1d
 2318 0912 57000000 		.4byte	.LASF199
 2319 0916 01       		.byte	0x1
 2320 0917 9101     		.2byte	0x191
 2321 0919 78030000 		.4byte	0x378
 2322 091d 7C010000 		.4byte	.LLST9
 2323 0921 22       		.uleb128 0x22
 2324 0922 8D070000 		.4byte	.LASF200
 2325 0926 01       		.byte	0x1
ARM GAS  C:\Users\310295~1\AppData\Local\Temp\ccZIm937.s 			page 69


 2326 0927 9501     		.2byte	0x195
 2327 0929 020A0000 		.4byte	0xa02
 2328 092d 02       		.uleb128 0x2
 2329 092e 91       		.byte	0x91
 2330 092f 64       		.sleb128 -28
 2331 0930 23       		.uleb128 0x23
 2332 0931 2A000000 		.4byte	.LBB2
 2333 0935 24000000 		.4byte	.LBE2-.LBB2
 2334 0939 90090000 		.4byte	0x990
 2335 093d 22       		.uleb128 0x22
 2336 093e F1110000 		.4byte	.LASF201
 2337 0942 01       		.byte	0x1
 2338 0943 B701     		.2byte	0x1b7
 2339 0945 25040000 		.4byte	0x425
 2340 0949 02       		.uleb128 0x2
 2341 094a 91       		.byte	0x91
 2342 094b 50       		.sleb128 -48
 2343 094c 22       		.uleb128 0x22
 2344 094d AF0F0000 		.4byte	.LASF202
 2345 0951 01       		.byte	0x1
 2346 0952 B801     		.2byte	0x1b8
 2347 0954 48040000 		.4byte	0x448
 2348 0958 02       		.uleb128 0x2
 2349 0959 91       		.byte	0x91
 2350 095a 4C       		.sleb128 -52
 2351 095b 22       		.uleb128 0x22
 2352 095c EC020000 		.4byte	.LASF203
 2353 0960 01       		.byte	0x1
 2354 0961 B901     		.2byte	0x1b9
 2355 0963 91040000 		.4byte	0x491
 2356 0967 02       		.uleb128 0x2
 2357 0968 91       		.byte	0x91
 2358 0969 58       		.sleb128 -40
 2359 096a 22       		.uleb128 0x22
 2360 096b B1070000 		.4byte	.LASF204
 2361 096f 01       		.byte	0x1
 2362 0970 BA01     		.2byte	0x1ba
 2363 0972 77000000 		.4byte	0x77
 2364 0976 02       		.uleb128 0x2
 2365 0977 91       		.byte	0x91
 2366 0978 4E       		.sleb128 -50
 2367 0979 24       		.uleb128 0x24
 2368 097a 4E000000 		.4byte	.LVL33
 2369 097e 570F0000 		.4byte	0xf57
 2370 0982 25       		.uleb128 0x25
 2371 0983 01       		.uleb128 0x1
 2372 0984 51       		.byte	0x51
 2373 0985 02       		.uleb128 0x2
 2374 0986 91       		.byte	0x91
 2375 0987 4E       		.sleb128 -50
 2376 0988 25       		.uleb128 0x25
 2377 0989 01       		.uleb128 0x1
 2378 098a 50       		.byte	0x50
 2379 098b 02       		.uleb128 0x2
 2380 098c 91       		.byte	0x91
 2381 098d 58       		.sleb128 -40
 2382 098e 00       		.byte	0
ARM GAS  C:\Users\310295~1\AppData\Local\Temp\ccZIm937.s 			page 70


 2383 098f 00       		.byte	0
 2384 0990 26       		.uleb128 0x26
 2385 0991 10000000 		.4byte	.LVL31
 2386 0995 7D0F0000 		.4byte	0xf7d
 2387 0999 B2090000 		.4byte	0x9b2
 2388 099d 25       		.uleb128 0x25
 2389 099e 01       		.uleb128 0x1
 2390 099f 52       		.byte	0x52
 2391 09a0 01       		.uleb128 0x1
 2392 09a1 44       		.byte	0x44
 2393 09a2 25       		.uleb128 0x25
 2394 09a3 01       		.uleb128 0x1
 2395 09a4 51       		.byte	0x51
 2396 09a5 05       		.uleb128 0x5
 2397 09a6 03       		.byte	0x3
 2398 09a7 00000000 		.4byte	.LANCHOR1
 2399 09ab 25       		.uleb128 0x25
 2400 09ac 01       		.uleb128 0x1
 2401 09ad 50       		.byte	0x50
 2402 09ae 02       		.uleb128 0x2
 2403 09af 91       		.byte	0x91
 2404 09b0 64       		.sleb128 -28
 2405 09b1 00       		.byte	0
 2406 09b2 20       		.uleb128 0x20
 2407 09b3 1C000000 		.4byte	.LVL32
 2408 09b7 C8080000 		.4byte	0x8c8
 2409 09bb 26       		.uleb128 0x26
 2410 09bc 6C000000 		.4byte	.LVL35
 2411 09c0 9A0F0000 		.4byte	0xf9a
 2412 09c4 ED090000 		.4byte	0x9ed
 2413 09c8 25       		.uleb128 0x25
 2414 09c9 01       		.uleb128 0x1
 2415 09ca 53       		.byte	0x53
 2416 09cb 02       		.uleb128 0x2
 2417 09cc 91       		.byte	0x91
 2418 09cd 64       		.sleb128 -28
 2419 09ce 25       		.uleb128 0x25
 2420 09cf 01       		.uleb128 0x1
 2421 09d0 52       		.byte	0x52
 2422 09d1 03       		.uleb128 0x3
 2423 09d2 0A       		.byte	0xa
 2424 09d3 E00A     		.2byte	0xae0
 2425 09d5 25       		.uleb128 0x25
 2426 09d6 01       		.uleb128 0x1
 2427 09d7 51       		.byte	0x51
 2428 09d8 05       		.uleb128 0x5
 2429 09d9 03       		.byte	0x3
 2430 09da 00000000 		.4byte	.LANCHOR3
 2431 09de 25       		.uleb128 0x25
 2432 09df 02       		.uleb128 0x2
 2433 09e0 7D       		.byte	0x7d
 2434 09e1 08       		.sleb128 8
 2435 09e2 03       		.uleb128 0x3
 2436 09e3 0A       		.byte	0xa
 2437 09e4 7902     		.2byte	0x279
 2438 09e6 25       		.uleb128 0x25
 2439 09e7 02       		.uleb128 0x2
ARM GAS  C:\Users\310295~1\AppData\Local\Temp\ccZIm937.s 			page 71


 2440 09e8 7D       		.byte	0x7d
 2441 09e9 00       		.sleb128 0
 2442 09ea 01       		.uleb128 0x1
 2443 09eb 35       		.byte	0x35
 2444 09ec 00       		.byte	0
 2445 09ed 24       		.uleb128 0x24
 2446 09ee 80000000 		.4byte	.LVL37
 2447 09f2 D40F0000 		.4byte	0xfd4
 2448 09f6 25       		.uleb128 0x25
 2449 09f7 01       		.uleb128 0x1
 2450 09f8 52       		.byte	0x52
 2451 09f9 01       		.uleb128 0x1
 2452 09fa 3C       		.byte	0x3c
 2453 09fb 25       		.uleb128 0x25
 2454 09fc 01       		.uleb128 0x1
 2455 09fd 51       		.byte	0x51
 2456 09fe 01       		.uleb128 0x1
 2457 09ff 42       		.byte	0x42
 2458 0a00 00       		.byte	0
 2459 0a01 00       		.byte	0
 2460 0a02 0F       		.uleb128 0xf
 2461 0a03 E8030000 		.4byte	0x3e8
 2462 0a07 120A0000 		.4byte	0xa12
 2463 0a0b 10       		.uleb128 0x10
 2464 0a0c C0000000 		.4byte	0xc0
 2465 0a10 04       		.byte	0x4
 2466 0a11 00       		.byte	0
 2467 0a12 27       		.uleb128 0x27
 2468 0a13 1E0B0000 		.4byte	.LASF205
 2469 0a17 01       		.byte	0x1
 2470 0a18 0902     		.2byte	0x209
 2471 0a1a 00000000 		.4byte	.LFB5
 2472 0a1e 14000000 		.4byte	.LFE5-.LFB5
 2473 0a22 01       		.uleb128 0x1
 2474 0a23 9C       		.byte	0x9c
 2475 0a24 320A0000 		.4byte	0xa32
 2476 0a28 20       		.uleb128 0x20
 2477 0a29 06000000 		.4byte	.LVL41
 2478 0a2d FF0F0000 		.4byte	0xfff
 2479 0a31 00       		.byte	0
 2480 0a32 21       		.uleb128 0x21
 2481 0a33 AA140000 		.4byte	.LASF207
 2482 0a37 01       		.byte	0x1
 2483 0a38 3E02     		.2byte	0x23e
 2484 0a3a 78030000 		.4byte	0x378
 2485 0a3e 00000000 		.4byte	.LFB6
 2486 0a42 EC000000 		.4byte	.LFE6-.LFB6
 2487 0a46 01       		.uleb128 0x1
 2488 0a47 9C       		.byte	0x9c
 2489 0a48 060B0000 		.4byte	0xb06
 2490 0a4c 1B       		.uleb128 0x1b
 2491 0a4d 84100000 		.4byte	.LASF208
 2492 0a51 01       		.byte	0x1
 2493 0a52 3E02     		.2byte	0x23e
 2494 0a54 6B000000 		.4byte	0x6b
 2495 0a58 C8010000 		.4byte	.LLST10
 2496 0a5c 1D       		.uleb128 0x1d
ARM GAS  C:\Users\310295~1\AppData\Local\Temp\ccZIm937.s 			page 72


 2497 0a5d 57000000 		.4byte	.LASF199
 2498 0a61 01       		.byte	0x1
 2499 0a62 4002     		.2byte	0x240
 2500 0a64 78030000 		.4byte	0x378
 2501 0a68 02020000 		.4byte	.LLST11
 2502 0a6c 23       		.uleb128 0x23
 2503 0a6d 7C000000 		.4byte	.LBB3
 2504 0a71 28000000 		.4byte	.LBE3-.LBB3
 2505 0a75 A40A0000 		.4byte	0xaa4
 2506 0a79 22       		.uleb128 0x22
 2507 0a7a 6A0D0000 		.4byte	.LASF209
 2508 0a7e 01       		.byte	0x1
 2509 0a7f 6402     		.2byte	0x264
 2510 0a81 AD070000 		.4byte	0x7ad
 2511 0a85 02       		.uleb128 0x2
 2512 0a86 91       		.byte	0x91
 2513 0a87 64       		.sleb128 -28
 2514 0a88 24       		.uleb128 0x24
 2515 0a89 94000000 		.4byte	.LVL53
 2516 0a8d 07100000 		.4byte	0x1007
 2517 0a91 25       		.uleb128 0x25
 2518 0a92 01       		.uleb128 0x1
 2519 0a93 53       		.byte	0x53
 2520 0a94 02       		.uleb128 0x2
 2521 0a95 74       		.byte	0x74
 2522 0a96 00       		.sleb128 0
 2523 0a97 25       		.uleb128 0x25
 2524 0a98 01       		.uleb128 0x1
 2525 0a99 52       		.byte	0x52
 2526 0a9a 01       		.uleb128 0x1
 2527 0a9b 44       		.byte	0x44
 2528 0a9c 25       		.uleb128 0x25
 2529 0a9d 01       		.uleb128 0x1
 2530 0a9e 50       		.byte	0x50
 2531 0a9f 02       		.uleb128 0x2
 2532 0aa0 91       		.byte	0x91
 2533 0aa1 64       		.sleb128 -28
 2534 0aa2 00       		.byte	0
 2535 0aa3 00       		.byte	0
 2536 0aa4 23       		.uleb128 0x23
 2537 0aa5 A4000000 		.4byte	.LBB4
 2538 0aa9 2A000000 		.4byte	.LBE4-.LBB4
 2539 0aad DC0A0000 		.4byte	0xadc
 2540 0ab1 22       		.uleb128 0x22
 2541 0ab2 6A0D0000 		.4byte	.LASF209
 2542 0ab6 01       		.byte	0x1
 2543 0ab7 7102     		.2byte	0x271
 2544 0ab9 060B0000 		.4byte	0xb06
 2545 0abd 02       		.uleb128 0x2
 2546 0abe 91       		.byte	0x91
 2547 0abf 64       		.sleb128 -28
 2548 0ac0 24       		.uleb128 0x24
 2549 0ac1 C0000000 		.4byte	.LVL55
 2550 0ac5 07100000 		.4byte	0x1007
 2551 0ac9 25       		.uleb128 0x25
 2552 0aca 01       		.uleb128 0x1
 2553 0acb 53       		.byte	0x53
ARM GAS  C:\Users\310295~1\AppData\Local\Temp\ccZIm937.s 			page 73


 2554 0acc 02       		.uleb128 0x2
 2555 0acd 74       		.byte	0x74
 2556 0ace 00       		.sleb128 0
 2557 0acf 25       		.uleb128 0x25
 2558 0ad0 01       		.uleb128 0x1
 2559 0ad1 52       		.byte	0x52
 2560 0ad2 01       		.uleb128 0x1
 2561 0ad3 34       		.byte	0x34
 2562 0ad4 25       		.uleb128 0x25
 2563 0ad5 01       		.uleb128 0x1
 2564 0ad6 50       		.byte	0x50
 2565 0ad7 02       		.uleb128 0x2
 2566 0ad8 91       		.byte	0x91
 2567 0ad9 64       		.sleb128 -28
 2568 0ada 00       		.byte	0
 2569 0adb 00       		.byte	0
 2570 0adc 26       		.uleb128 0x26
 2571 0add 12000000 		.4byte	.LVL44
 2572 0ae1 2B100000 		.4byte	0x102b
 2573 0ae5 F00A0000 		.4byte	0xaf0
 2574 0ae9 25       		.uleb128 0x25
 2575 0aea 01       		.uleb128 0x1
 2576 0aeb 50       		.byte	0x50
 2577 0aec 02       		.uleb128 0x2
 2578 0aed 74       		.byte	0x74
 2579 0aee 00       		.sleb128 0
 2580 0aef 00       		.byte	0
 2581 0af0 24       		.uleb128 0x24
 2582 0af1 58000000 		.4byte	.LVL50
 2583 0af5 07100000 		.4byte	0x1007
 2584 0af9 25       		.uleb128 0x25
 2585 0afa 01       		.uleb128 0x1
 2586 0afb 53       		.byte	0x53
 2587 0afc 02       		.uleb128 0x2
 2588 0afd 74       		.byte	0x74
 2589 0afe 00       		.sleb128 0
 2590 0aff 25       		.uleb128 0x25
 2591 0b00 01       		.uleb128 0x1
 2592 0b01 52       		.byte	0x52
 2593 0b02 01       		.uleb128 0x1
 2594 0b03 34       		.byte	0x34
 2595 0b04 00       		.byte	0
 2596 0b05 00       		.byte	0
 2597 0b06 0F       		.uleb128 0xf
 2598 0b07 6B000000 		.4byte	0x6b
 2599 0b0b 160B0000 		.4byte	0xb16
 2600 0b0f 10       		.uleb128 0x10
 2601 0b10 C0000000 		.4byte	0xc0
 2602 0b14 03       		.byte	0x3
 2603 0b15 00       		.byte	0
 2604 0b16 21       		.uleb128 0x21
 2605 0b17 0F040000 		.4byte	.LASF210
 2606 0b1b 01       		.byte	0x1
 2607 0b1c A002     		.2byte	0x2a0
 2608 0b1e 78030000 		.4byte	0x378
 2609 0b22 00000000 		.4byte	.LFB7
 2610 0b26 70000000 		.4byte	.LFE7-.LFB7
ARM GAS  C:\Users\310295~1\AppData\Local\Temp\ccZIm937.s 			page 74


 2611 0b2a 01       		.uleb128 0x1
 2612 0b2b 9C       		.byte	0x9c
 2613 0b2c C20B0000 		.4byte	0xbc2
 2614 0b30 1B       		.uleb128 0x1b
 2615 0b31 8C140000 		.4byte	.LASF118
 2616 0b35 01       		.byte	0x1
 2617 0b36 A002     		.2byte	0x2a0
 2618 0b38 C20B0000 		.4byte	0xbc2
 2619 0b3c 59020000 		.4byte	.LLST12
 2620 0b40 1D       		.uleb128 0x1d
 2621 0b41 57000000 		.4byte	.LASF199
 2622 0b45 01       		.byte	0x1
 2623 0b46 A202     		.2byte	0x2a2
 2624 0b48 78030000 		.4byte	0x378
 2625 0b4c 90020000 		.4byte	.LLST13
 2626 0b50 28       		.uleb128 0x28
 2627 0b51 0E000000 		.4byte	.LBB5
 2628 0b55 52000000 		.4byte	.LBE5-.LBB5
 2629 0b59 22       		.uleb128 0x22
 2630 0b5a 5A010000 		.4byte	.LASF211
 2631 0b5e 01       		.byte	0x1
 2632 0b5f A902     		.2byte	0x2a9
 2633 0b61 6B000000 		.4byte	0x6b
 2634 0b65 02       		.uleb128 0x2
 2635 0b66 91       		.byte	0x91
 2636 0b67 67       		.sleb128 -25
 2637 0b68 22       		.uleb128 0x22
 2638 0b69 6C150000 		.4byte	.LASF212
 2639 0b6d 01       		.byte	0x1
 2640 0b6e AA02     		.2byte	0x2aa
 2641 0b70 B8030000 		.4byte	0x3b8
 2642 0b74 02       		.uleb128 0x2
 2643 0b75 91       		.byte	0x91
 2644 0b76 68       		.sleb128 -24
 2645 0b77 26       		.uleb128 0x26
 2646 0b78 26000000 		.4byte	.LVL59
 2647 0b7c 40100000 		.4byte	0x1040
 2648 0b80 960B0000 		.4byte	0xb96
 2649 0b84 25       		.uleb128 0x25
 2650 0b85 01       		.uleb128 0x1
 2651 0b86 52       		.byte	0x52
 2652 0b87 01       		.uleb128 0x1
 2653 0b88 36       		.byte	0x36
 2654 0b89 25       		.uleb128 0x25
 2655 0b8a 01       		.uleb128 0x1
 2656 0b8b 51       		.byte	0x51
 2657 0b8c 02       		.uleb128 0x2
 2658 0b8d 91       		.byte	0x91
 2659 0b8e 68       		.sleb128 -24
 2660 0b8f 25       		.uleb128 0x25
 2661 0b90 01       		.uleb128 0x1
 2662 0b91 50       		.byte	0x50
 2663 0b92 02       		.uleb128 0x2
 2664 0b93 74       		.byte	0x74
 2665 0b94 00       		.sleb128 0
 2666 0b95 00       		.byte	0
 2667 0b96 26       		.uleb128 0x26
ARM GAS  C:\Users\310295~1\AppData\Local\Temp\ccZIm937.s 			page 75


 2668 0b97 3E000000 		.4byte	.LVL60
 2669 0b9b 5F100000 		.4byte	0x105f
 2670 0b9f B00B0000 		.4byte	0xbb0
 2671 0ba3 25       		.uleb128 0x25
 2672 0ba4 01       		.uleb128 0x1
 2673 0ba5 51       		.byte	0x51
 2674 0ba6 02       		.uleb128 0x2
 2675 0ba7 74       		.byte	0x74
 2676 0ba8 00       		.sleb128 0
 2677 0ba9 25       		.uleb128 0x25
 2678 0baa 01       		.uleb128 0x1
 2679 0bab 50       		.byte	0x50
 2680 0bac 02       		.uleb128 0x2
 2681 0bad 7D       		.byte	0x7d
 2682 0bae 07       		.sleb128 7
 2683 0baf 00       		.byte	0
 2684 0bb0 24       		.uleb128 0x24
 2685 0bb1 5E000000 		.4byte	.LVL63
 2686 0bb5 7A100000 		.4byte	0x107a
 2687 0bb9 25       		.uleb128 0x25
 2688 0bba 01       		.uleb128 0x1
 2689 0bbb 50       		.byte	0x50
 2690 0bbc 02       		.uleb128 0x2
 2691 0bbd 74       		.byte	0x74
 2692 0bbe 00       		.sleb128 0
 2693 0bbf 00       		.byte	0
 2694 0bc0 00       		.byte	0
 2695 0bc1 00       		.byte	0
 2696 0bc2 08       		.uleb128 0x8
 2697 0bc3 04       		.byte	0x4
 2698 0bc4 B8030000 		.4byte	0x3b8
 2699 0bc8 21       		.uleb128 0x21
 2700 0bc9 25050000 		.4byte	.LASF213
 2701 0bcd 01       		.byte	0x1
 2702 0bce 0503     		.2byte	0x305
 2703 0bd0 78030000 		.4byte	0x378
 2704 0bd4 00000000 		.4byte	.LFB8
 2705 0bd8 90000000 		.4byte	.LFE8-.LFB8
 2706 0bdc 01       		.uleb128 0x1
 2707 0bdd 9C       		.byte	0x9c
 2708 0bde 160C0000 		.4byte	0xc16
 2709 0be2 1B       		.uleb128 0x1b
 2710 0be3 9B020000 		.4byte	.LASF214
 2711 0be7 01       		.byte	0x1
 2712 0be8 0503     		.2byte	0x305
 2713 0bea 6B000000 		.4byte	0x6b
 2714 0bee D1020000 		.4byte	.LLST14
 2715 0bf2 1D       		.uleb128 0x1d
 2716 0bf3 57000000 		.4byte	.LASF199
 2717 0bf7 01       		.byte	0x1
 2718 0bf8 0703     		.2byte	0x307
 2719 0bfa 78030000 		.4byte	0x378
 2720 0bfe 49030000 		.4byte	.LLST15
 2721 0c02 24       		.uleb128 0x24
 2722 0c03 5E000000 		.4byte	.LVL68
 2723 0c07 90100000 		.4byte	0x1090
 2724 0c0b 25       		.uleb128 0x25
ARM GAS  C:\Users\310295~1\AppData\Local\Temp\ccZIm937.s 			page 76


 2725 0c0c 01       		.uleb128 0x1
 2726 0c0d 50       		.byte	0x50
 2727 0c0e 05       		.uleb128 0x5
 2728 0c0f 03       		.byte	0x3
 2729 0c10 40000000 		.4byte	.LANCHOR0+64
 2730 0c14 00       		.byte	0
 2731 0c15 00       		.byte	0
 2732 0c16 27       		.uleb128 0x27
 2733 0c17 28070000 		.4byte	.LASF215
 2734 0c1b 01       		.byte	0x1
 2735 0c1c 4203     		.2byte	0x342
 2736 0c1e 00000000 		.4byte	.LFB9
 2737 0c22 18000000 		.4byte	.LFE9-.LFB9
 2738 0c26 01       		.uleb128 0x1
 2739 0c27 9C       		.byte	0x9c
 2740 0c28 360C0000 		.4byte	0xc36
 2741 0c2c 20       		.uleb128 0x20
 2742 0c2d 06000000 		.4byte	.LVL76
 2743 0c31 AC100000 		.4byte	0x10ac
 2744 0c35 00       		.byte	0
 2745 0c36 27       		.uleb128 0x27
 2746 0c37 C80A0000 		.4byte	.LASF216
 2747 0c3b 01       		.byte	0x1
 2748 0c3c 5803     		.2byte	0x358
 2749 0c3e 00000000 		.4byte	.LFB10
 2750 0c42 02000000 		.4byte	.LFE10-.LFB10
 2751 0c46 01       		.uleb128 0x1
 2752 0c47 9C       		.byte	0x9c
 2753 0c48 800C0000 		.4byte	0xc80
 2754 0c4c 29       		.uleb128 0x29
 2755 0c4d 8C140000 		.4byte	.LASF118
 2756 0c51 01       		.byte	0x1
 2757 0c52 5803     		.2byte	0x358
 2758 0c54 800C0000 		.4byte	0xc80
 2759 0c58 01       		.uleb128 0x1
 2760 0c59 50       		.byte	0x50
 2761 0c5a 29       		.uleb128 0x29
 2762 0c5b 3E110000 		.4byte	.LASF190
 2763 0c5f 01       		.byte	0x1
 2764 0c60 5803     		.2byte	0x358
 2765 0c62 6B000000 		.4byte	0x6b
 2766 0c66 01       		.uleb128 0x1
 2767 0c67 51       		.byte	0x51
 2768 0c68 2A       		.uleb128 0x2a
 2769 0c69 6900     		.ascii	"i\000"
 2770 0c6b 01       		.byte	0x1
 2771 0c6c 5A03     		.2byte	0x35a
 2772 0c6e 6B000000 		.4byte	0x6b
 2773 0c72 2B       		.uleb128 0x2b
 2774 0c73 BA000000 		.4byte	.LASF194
 2775 0c77 01       		.byte	0x1
 2776 0c78 5B03     		.2byte	0x35b
 2777 0c7a 26060000 		.4byte	0x626
 2778 0c7e 00       		.byte	0
 2779 0c7f 00       		.byte	0
 2780 0c80 08       		.uleb128 0x8
 2781 0c81 04       		.byte	0x4
ARM GAS  C:\Users\310295~1\AppData\Local\Temp\ccZIm937.s 			page 77


 2782 0c82 860C0000 		.4byte	0xc86
 2783 0c86 1E       		.uleb128 0x1e
 2784 0c87 B8030000 		.4byte	0x3b8
 2785 0c8b 21       		.uleb128 0x21
 2786 0c8c 1B130000 		.4byte	.LASF217
 2787 0c90 01       		.byte	0x1
 2788 0c91 FC04     		.2byte	0x4fc
 2789 0c93 78030000 		.4byte	0x378
 2790 0c97 00000000 		.4byte	.LFB12
 2791 0c9b 4C000000 		.4byte	.LFE12-.LFB12
 2792 0c9f 01       		.uleb128 0x1
 2793 0ca0 9C       		.byte	0x9c
 2794 0ca1 220D0000 		.4byte	0xd22
 2795 0ca5 1B       		.uleb128 0x1b
 2796 0ca6 C3120000 		.4byte	.LASF189
 2797 0caa 01       		.byte	0x1
 2798 0cab FC04     		.2byte	0x4fc
 2799 0cad 9E080000 		.4byte	0x89e
 2800 0cb1 67030000 		.4byte	.LLST16
 2801 0cb5 1D       		.uleb128 0x1d
 2802 0cb6 57000000 		.4byte	.LASF199
 2803 0cba 01       		.byte	0x1
 2804 0cbb FE04     		.2byte	0x4fe
 2805 0cbd 78030000 		.4byte	0x378
 2806 0cc1 9E030000 		.4byte	.LLST17
 2807 0cc5 1C       		.uleb128 0x1c
 2808 0cc6 6900     		.ascii	"i\000"
 2809 0cc8 01       		.byte	0x1
 2810 0cc9 FF04     		.2byte	0x4ff
 2811 0ccb 6B000000 		.4byte	0x6b
 2812 0ccf BD030000 		.4byte	.LLST18
 2813 0cd3 1C       		.uleb128 0x1c
 2814 0cd4 70747200 		.ascii	"ptr\000"
 2815 0cd8 01       		.byte	0x1
 2816 0cd9 0005     		.2byte	0x500
 2817 0cdb 220D0000 		.4byte	0xd22
 2818 0cdf E7030000 		.4byte	.LLST19
 2819 0ce3 1D       		.uleb128 0x1d
 2820 0ce4 0C0E0000 		.4byte	.LASF218
 2821 0ce8 01       		.byte	0x1
 2822 0ce9 0105     		.2byte	0x501
 2823 0ceb 6B000000 		.4byte	0x6b
 2824 0cef FA030000 		.4byte	.LLST20
 2825 0cf3 26       		.uleb128 0x26
 2826 0cf4 36000000 		.4byte	.LVL88
 2827 0cf8 09080000 		.4byte	0x809
 2828 0cfc 0C0D0000 		.4byte	0xd0c
 2829 0d00 25       		.uleb128 0x25
 2830 0d01 01       		.uleb128 0x1
 2831 0d02 51       		.byte	0x51
 2832 0d03 01       		.uleb128 0x1
 2833 0d04 30       		.byte	0x30
 2834 0d05 25       		.uleb128 0x25
 2835 0d06 01       		.uleb128 0x1
 2836 0d07 50       		.byte	0x50
 2837 0d08 02       		.uleb128 0x2
 2838 0d09 74       		.byte	0x74
ARM GAS  C:\Users\310295~1\AppData\Local\Temp\ccZIm937.s 			page 78


 2839 0d0a 00       		.sleb128 0
 2840 0d0b 00       		.byte	0
 2841 0d0c 24       		.uleb128 0x24
 2842 0d0d 3E000000 		.4byte	.LVL89
 2843 0d11 09080000 		.4byte	0x809
 2844 0d15 25       		.uleb128 0x25
 2845 0d16 01       		.uleb128 0x1
 2846 0d17 51       		.byte	0x51
 2847 0d18 01       		.uleb128 0x1
 2848 0d19 31       		.byte	0x31
 2849 0d1a 25       		.uleb128 0x25
 2850 0d1b 01       		.uleb128 0x1
 2851 0d1c 50       		.byte	0x50
 2852 0d1d 02       		.uleb128 0x2
 2853 0d1e 74       		.byte	0x74
 2854 0d1f 00       		.sleb128 0
 2855 0d20 00       		.byte	0
 2856 0d21 00       		.byte	0
 2857 0d22 08       		.uleb128 0x8
 2858 0d23 04       		.byte	0x4
 2859 0d24 9D000000 		.4byte	0x9d
 2860 0d28 21       		.uleb128 0x21
 2861 0d29 37060000 		.4byte	.LASF219
 2862 0d2d 01       		.byte	0x1
 2863 0d2e 4405     		.2byte	0x544
 2864 0d30 78030000 		.4byte	0x378
 2865 0d34 00000000 		.4byte	.LFB13
 2866 0d38 34000000 		.4byte	.LFE13-.LFB13
 2867 0d3c 01       		.uleb128 0x1
 2868 0d3d 9C       		.byte	0x9c
 2869 0d3e 910D0000 		.4byte	0xd91
 2870 0d42 1B       		.uleb128 0x1b
 2871 0d43 C3120000 		.4byte	.LASF189
 2872 0d47 01       		.byte	0x1
 2873 0d48 4405     		.2byte	0x544
 2874 0d4a 220D0000 		.4byte	0xd22
 2875 0d4e 0D040000 		.4byte	.LLST21
 2876 0d52 1D       		.uleb128 0x1d
 2877 0d53 57000000 		.4byte	.LASF199
 2878 0d57 01       		.byte	0x1
 2879 0d58 4605     		.2byte	0x546
 2880 0d5a 78030000 		.4byte	0x378
 2881 0d5e 47040000 		.4byte	.LLST22
 2882 0d62 1D       		.uleb128 0x1d
 2883 0d63 0C0E0000 		.4byte	.LASF218
 2884 0d67 01       		.byte	0x1
 2885 0d68 4705     		.2byte	0x547
 2886 0d6a 6B000000 		.4byte	0x6b
 2887 0d6e 66040000 		.4byte	.LLST23
 2888 0d72 1C       		.uleb128 0x1c
 2889 0d73 6900     		.ascii	"i\000"
 2890 0d75 01       		.byte	0x1
 2891 0d76 4805     		.2byte	0x548
 2892 0d78 6B000000 		.4byte	0x6b
 2893 0d7c 79040000 		.4byte	.LLST24
 2894 0d80 1C       		.uleb128 0x1c
 2895 0d81 70747200 		.ascii	"ptr\000"
ARM GAS  C:\Users\310295~1\AppData\Local\Temp\ccZIm937.s 			page 79


 2896 0d85 01       		.byte	0x1
 2897 0d86 4905     		.2byte	0x549
 2898 0d88 220D0000 		.4byte	0xd22
 2899 0d8c A3040000 		.4byte	.LLST25
 2900 0d90 00       		.byte	0
 2901 0d91 21       		.uleb128 0x21
 2902 0d92 0F100000 		.4byte	.LASF220
 2903 0d96 01       		.byte	0x1
 2904 0d97 7605     		.2byte	0x576
 2905 0d99 77000000 		.4byte	0x77
 2906 0d9d 00000000 		.4byte	.LFB14
 2907 0da1 0A000000 		.4byte	.LFE14-.LFB14
 2908 0da5 01       		.uleb128 0x1
 2909 0da6 9C       		.byte	0x9c
 2910 0da7 BC0D0000 		.4byte	0xdbc
 2911 0dab 2C       		.uleb128 0x2c
 2912 0dac 70747200 		.ascii	"ptr\000"
 2913 0db0 01       		.byte	0x1
 2914 0db1 7605     		.2byte	0x576
 2915 0db3 BC0D0000 		.4byte	0xdbc
 2916 0db7 B6040000 		.4byte	.LLST26
 2917 0dbb 00       		.byte	0
 2918 0dbc 08       		.uleb128 0x8
 2919 0dbd 04       		.byte	0x4
 2920 0dbe C20D0000 		.4byte	0xdc2
 2921 0dc2 1E       		.uleb128 0x1e
 2922 0dc3 6B000000 		.4byte	0x6b
 2923 0dc7 27       		.uleb128 0x27
 2924 0dc8 D60D0000 		.4byte	.LASF221
 2925 0dcc 01       		.byte	0x1
 2926 0dcd 8905     		.2byte	0x589
 2927 0dcf 00000000 		.4byte	.LFB15
 2928 0dd3 08000000 		.4byte	.LFE15-.LFB15
 2929 0dd7 01       		.uleb128 0x1
 2930 0dd8 9C       		.byte	0x9c
 2931 0dd9 FC0D0000 		.4byte	0xdfc
 2932 0ddd 2D       		.uleb128 0x2d
 2933 0dde 70747200 		.ascii	"ptr\000"
 2934 0de2 01       		.byte	0x1
 2935 0de3 8905     		.2byte	0x589
 2936 0de5 26060000 		.4byte	0x626
 2937 0de9 01       		.uleb128 0x1
 2938 0dea 50       		.byte	0x50
 2939 0deb 1B       		.uleb128 0x1b
 2940 0dec CA100000 		.4byte	.LASF222
 2941 0df0 01       		.byte	0x1
 2942 0df1 8905     		.2byte	0x589
 2943 0df3 77000000 		.4byte	0x77
 2944 0df7 D7040000 		.4byte	.LLST27
 2945 0dfb 00       		.byte	0
 2946 0dfc 2E       		.uleb128 0x2e
 2947 0dfd 06070000 		.4byte	.LASF223
 2948 0e01 01       		.byte	0x1
 2949 0e02 84       		.byte	0x84
 2950 0e03 6B000000 		.4byte	0x6b
 2951 0e07 05       		.uleb128 0x5
 2952 0e08 03       		.byte	0x3
ARM GAS  C:\Users\310295~1\AppData\Local\Temp\ccZIm937.s 			page 80


 2953 0e09 01000000 		.4byte	cyBle_pendingFlashClearCccdHandle
 2954 0e0d 2F       		.uleb128 0x2f
 2955 0e0e D9100000 		.4byte	.LASF224
 2956 0e12 01       		.byte	0x1
 2957 0e13 89       		.byte	0x89
 2958 0e14 3D070000 		.4byte	0x73d
 2959 0e18 05       		.uleb128 0x5
 2960 0e19 03       		.byte	0x3
 2961 0e1a 00000000 		.4byte	CyBle_ApplCallback
 2962 0e1e 2F       		.uleb128 0x2f
 2963 0e1f CE120000 		.4byte	.LASF225
 2964 0e23 01       		.byte	0x1
 2965 0e24 2B       		.byte	0x2b
 2966 0e25 6B000000 		.4byte	0x6b
 2967 0e29 05       		.uleb128 0x5
 2968 0e2a 03       		.byte	0x3
 2969 0e2b 00000000 		.4byte	cyBle_initVar
 2970 0e2f 0F       		.uleb128 0xf
 2971 0e30 6B000000 		.4byte	0x6b
 2972 0e34 400E0000 		.4byte	0xe40
 2973 0e38 18       		.uleb128 0x18
 2974 0e39 C0000000 		.4byte	0xc0
 2975 0e3d DF0A     		.2byte	0xadf
 2976 0e3f 00       		.byte	0
 2977 0e40 2F       		.uleb128 0x2f
 2978 0e41 77140000 		.4byte	.LASF226
 2979 0e45 01       		.byte	0x1
 2980 0e46 36       		.byte	0x36
 2981 0e47 2F0E0000 		.4byte	0xe2f
 2982 0e4b 05       		.uleb128 0x5
 2983 0e4c 03       		.byte	0x3
 2984 0e4d 00000000 		.4byte	cyBle_stackMemoryRam
 2985 0e51 30       		.uleb128 0x30
 2986 0e52 93140000 		.4byte	.LASF227
 2987 0e56 08       		.byte	0x8
 2988 0e57 8602     		.2byte	0x286
 2989 0e59 B0000000 		.4byte	0xb0
 2990 0e5d 2F       		.uleb128 0x2f
 2991 0e5e 56030000 		.4byte	.LASF228
 2992 0e62 01       		.byte	0x1
 2993 0e63 8A       		.byte	0x8a
 2994 0e64 B8030000 		.4byte	0x3b8
 2995 0e68 05       		.uleb128 0x5
 2996 0e69 03       		.byte	0x3
 2997 0e6a 00000000 		.4byte	cyBle_deviceAddress
 2998 0e6e 2F       		.uleb128 0x2f
 2999 0e6f 10080000 		.4byte	.LASF229
 3000 0e73 01       		.byte	0x1
 3001 0e74 8B       		.byte	0x8b
 3002 0e75 C20B0000 		.4byte	0xbc2
 3003 0e79 05       		.uleb128 0x5
 3004 0e7a 03       		.byte	0x3
 3005 0e7b 00000000 		.4byte	cyBle_sflashDeviceAddress
 3006 0e7f 2F       		.uleb128 0x2f
 3007 0e80 2E030000 		.4byte	.LASF230
 3008 0e84 01       		.byte	0x1
 3009 0e85 3C       		.byte	0x3c
ARM GAS  C:\Users\310295~1\AppData\Local\Temp\ccZIm937.s 			page 81


 3010 0e86 41050000 		.4byte	0x541
 3011 0e8a 05       		.uleb128 0x5
 3012 0e8b 03       		.byte	0x3
 3013 0e8c 00000000 		.4byte	cyBle_discoveryParam
 3014 0e90 2F       		.uleb128 0x2f
 3015 0e91 E0150000 		.4byte	.LASF231
 3016 0e95 01       		.byte	0x1
 3017 0e96 48       		.byte	0x48
 3018 0e97 81050000 		.4byte	0x581
 3019 0e9b 05       		.uleb128 0x5
 3020 0e9c 03       		.byte	0x3
 3021 0e9d 00000000 		.4byte	cyBle_discoveryData
 3022 0ea1 2F       		.uleb128 0x2f
 3023 0ea2 A90E0000 		.4byte	.LASF232
 3024 0ea6 01       		.byte	0x1
 3025 0ea7 51       		.byte	0x51
 3026 0ea8 B1050000 		.4byte	0x5b1
 3027 0eac 05       		.uleb128 0x5
 3028 0ead 03       		.byte	0x3
 3029 0eae 00000000 		.4byte	cyBle_scanRspData
 3030 0eb2 2F       		.uleb128 0x2f
 3031 0eb3 4A140000 		.4byte	.LASF233
 3032 0eb7 01       		.byte	0x1
 3033 0eb8 61       		.byte	0x61
 3034 0eb9 1A060000 		.4byte	0x61a
 3035 0ebd 05       		.uleb128 0x5
 3036 0ebe 03       		.byte	0x3
 3037 0ebf 00000000 		.4byte	cyBle_discoveryModeInfo
 3038 0ec3 2F       		.uleb128 0x2f
 3039 0ec4 5F110000 		.4byte	.LASF234
 3040 0ec8 01       		.byte	0x1
 3041 0ec9 81       		.byte	0x81
 3042 0eca 6B000000 		.4byte	0x6b
 3043 0ece 05       		.uleb128 0x5
 3044 0ecf 03       		.byte	0x3
 3045 0ed0 00000000 		.4byte	cyBle_pendingFlashWrite
 3046 0ed4 2F       		.uleb128 0x2f
 3047 0ed5 00000000 		.4byte	.LASF235
 3048 0ed9 01       		.byte	0x1
 3049 0eda 80       		.byte	0x80
 3050 0edb 6B000000 		.4byte	0x6b
 3051 0edf 05       		.uleb128 0x5
 3052 0ee0 03       		.byte	0x3
 3053 0ee1 00000000 		.4byte	cyBle_peerBonding
 3054 0ee5 0F       		.uleb128 0xf
 3055 0ee6 31070000 		.4byte	0x731
 3056 0eea F50E0000 		.4byte	0xef5
 3057 0eee 10       		.uleb128 0x10
 3058 0eef C0000000 		.4byte	0xc0
 3059 0ef3 11       		.byte	0x11
 3060 0ef4 00       		.byte	0
 3061 0ef5 31       		.uleb128 0x31
 3062 0ef6 EB0C0000 		.4byte	.LASF236
 3063 0efa 09       		.byte	0x9
 3064 0efb E8       		.byte	0xe8
 3065 0efc 000F0000 		.4byte	0xf00
 3066 0f00 1E       		.uleb128 0x1e
ARM GAS  C:\Users\310295~1\AppData\Local\Temp\ccZIm937.s 			page 82


 3067 0f01 E50E0000 		.4byte	0xee5
 3068 0f05 31       		.uleb128 0x31
 3069 0f06 20150000 		.4byte	.LASF237
 3070 0f0a 09       		.byte	0x9
 3071 0f0b EC       		.byte	0xec
 3072 0f0c 060B0000 		.4byte	0xb06
 3073 0f10 31       		.uleb128 0x31
 3074 0f11 7B0B0000 		.4byte	.LASF238
 3075 0f15 09       		.byte	0x9
 3076 0f16 F4       		.byte	0xf4
 3077 0f17 1B0F0000 		.4byte	0xf1b
 3078 0f1b 1E       		.uleb128 0x1e
 3079 0f1c C3070000 		.4byte	0x7c3
 3080 0f20 30       		.uleb128 0x30
 3081 0f21 E5110000 		.4byte	.LASF239
 3082 0f25 0A       		.byte	0xa
 3083 0f26 DA09     		.2byte	0x9da
 3084 0f28 F6070000 		.4byte	0x7f6
 3085 0f2c 30       		.uleb128 0x30
 3086 0f2d 00130000 		.4byte	.LASF240
 3087 0f31 0A       		.byte	0xa
 3088 0f32 DB09     		.2byte	0x9db
 3089 0f34 50060000 		.4byte	0x650
 3090 0f38 30       		.uleb128 0x30
 3091 0f39 B70A0000 		.4byte	.LASF241
 3092 0f3d 0A       		.byte	0xa
 3093 0f3e DC09     		.2byte	0x9dc
 3094 0f40 B0000000 		.4byte	0xb0
 3095 0f44 30       		.uleb128 0x30
 3096 0f45 550C0000 		.4byte	.LASF242
 3097 0f49 0A       		.byte	0xa
 3098 0f4a DF09     		.2byte	0x9df
 3099 0f4c 6B000000 		.4byte	0x6b
 3100 0f50 32       		.uleb128 0x32
 3101 0f51 410E0000 		.4byte	.LASF246
 3102 0f55 0B       		.byte	0xb
 3103 0f56 A5       		.byte	0xa5
 3104 0f57 33       		.uleb128 0x33
 3105 0f58 FA080000 		.4byte	.LASF243
 3106 0f5c 04       		.byte	0x4
 3107 0f5d 8F04     		.2byte	0x48f
 3108 0f5f 78030000 		.4byte	0x378
 3109 0f63 720F0000 		.4byte	0xf72
 3110 0f67 0A       		.uleb128 0xa
 3111 0f68 720F0000 		.4byte	0xf72
 3112 0f6c 0A       		.uleb128 0xa
 3113 0f6d 5C060000 		.4byte	0x65c
 3114 0f71 00       		.byte	0
 3115 0f72 08       		.uleb128 0x8
 3116 0f73 04       		.byte	0x4
 3117 0f74 780F0000 		.4byte	0xf78
 3118 0f78 1E       		.uleb128 0x1e
 3119 0f79 91040000 		.4byte	0x491
 3120 0f7d 34       		.uleb128 0x34
 3121 0f7e DB140000 		.4byte	.LASF259
 3122 0f82 C7000000 		.4byte	0xc7
 3123 0f86 9A0F0000 		.4byte	0xf9a
ARM GAS  C:\Users\310295~1\AppData\Local\Temp\ccZIm937.s 			page 83


 3124 0f8a 0A       		.uleb128 0xa
 3125 0f8b C7000000 		.4byte	0xc7
 3126 0f8f 0A       		.uleb128 0xa
 3127 0f90 02080000 		.4byte	0x802
 3128 0f94 0A       		.uleb128 0xa
 3129 0f95 C0000000 		.4byte	0xc0
 3130 0f99 00       		.byte	0
 3131 0f9a 33       		.uleb128 0x33
 3132 0f9b C7050000 		.4byte	.LASF244
 3133 0f9f 04       		.byte	0x4
 3134 0fa0 5705     		.2byte	0x557
 3135 0fa2 78030000 		.4byte	0x378
 3136 0fa6 CE0F0000 		.4byte	0xfce
 3137 0faa 0A       		.uleb128 0xa
 3138 0fab C9000000 		.4byte	0xc9
 3139 0faf 0A       		.uleb128 0xa
 3140 0fb0 26060000 		.4byte	0x626
 3141 0fb4 0A       		.uleb128 0xa
 3142 0fb5 77000000 		.4byte	0x77
 3143 0fb9 0A       		.uleb128 0xa
 3144 0fba CE0F0000 		.4byte	0xfce
 3145 0fbe 0A       		.uleb128 0xa
 3146 0fbf 6B000000 		.4byte	0x6b
 3147 0fc3 0A       		.uleb128 0xa
 3148 0fc4 BC0D0000 		.4byte	0xdbc
 3149 0fc8 0A       		.uleb128 0xa
 3150 0fc9 83000000 		.4byte	0x83
 3151 0fcd 00       		.byte	0
 3152 0fce 08       		.uleb128 0x8
 3153 0fcf 04       		.byte	0x4
 3154 0fd0 E8030000 		.4byte	0x3e8
 3155 0fd4 33       		.uleb128 0x33
 3156 0fd5 7D130000 		.4byte	.LASF245
 3157 0fd9 07       		.byte	0x7
 3158 0fda 4E01     		.2byte	0x14e
 3159 0fdc 78030000 		.4byte	0x378
 3160 0fe0 F40F0000 		.4byte	0xff4
 3161 0fe4 0A       		.uleb128 0xa
 3162 0fe5 F40F0000 		.4byte	0xff4
 3163 0fe9 0A       		.uleb128 0xa
 3164 0fea 77000000 		.4byte	0x77
 3165 0fee 0A       		.uleb128 0xa
 3166 0fef 77000000 		.4byte	0x77
 3167 0ff3 00       		.byte	0
 3168 0ff4 08       		.uleb128 0x8
 3169 0ff5 04       		.byte	0x4
 3170 0ff6 FA0F0000 		.4byte	0xffa
 3171 0ffa 1E       		.uleb128 0x1e
 3172 0ffb 31070000 		.4byte	0x731
 3173 0fff 35       		.uleb128 0x35
 3174 1000 44070000 		.4byte	.LASF247
 3175 1004 04       		.byte	0x4
 3176 1005 7205     		.2byte	0x572
 3177 1007 36       		.uleb128 0x36
 3178 1008 43030000 		.4byte	.LASF248
 3179 100c 0C       		.byte	0xc
 3180 100d 7F       		.byte	0x7f
ARM GAS  C:\Users\310295~1\AppData\Local\Temp\ccZIm937.s 			page 84


 3181 100e 78030000 		.4byte	0x378
 3182 1012 2B100000 		.4byte	0x102b
 3183 1016 0A       		.uleb128 0xa
 3184 1017 26060000 		.4byte	0x626
 3185 101b 0A       		.uleb128 0xa
 3186 101c BC0D0000 		.4byte	0xdbc
 3187 1020 0A       		.uleb128 0xa
 3188 1021 83000000 		.4byte	0x83
 3189 1025 0A       		.uleb128 0xa
 3190 1026 6B000000 		.4byte	0x6b
 3191 102a 00       		.byte	0
 3192 102b 36       		.uleb128 0x36
 3193 102c D7020000 		.4byte	.LASF249
 3194 1030 0C       		.byte	0xc
 3195 1031 61       		.byte	0x61
 3196 1032 78030000 		.4byte	0x378
 3197 1036 40100000 		.4byte	0x1040
 3198 103a 0A       		.uleb128 0xa
 3199 103b 6B000000 		.4byte	0x6b
 3200 103f 00       		.byte	0
 3201 1040 36       		.uleb128 0x36
 3202 1041 01120000 		.4byte	.LASF250
 3203 1045 0D       		.byte	0xd
 3204 1046 16       		.byte	0x16
 3205 1047 5D000000 		.4byte	0x5d
 3206 104b 5F100000 		.4byte	0x105f
 3207 104f 0A       		.uleb128 0xa
 3208 1050 02080000 		.4byte	0x802
 3209 1054 0A       		.uleb128 0xa
 3210 1055 02080000 		.4byte	0x802
 3211 1059 0A       		.uleb128 0xa
 3212 105a B5000000 		.4byte	0xb5
 3213 105e 00       		.byte	0
 3214 105f 33       		.uleb128 0x33
 3215 1060 18010000 		.4byte	.LASF251
 3216 1064 05       		.byte	0x5
 3217 1065 0705     		.2byte	0x507
 3218 1067 78030000 		.4byte	0x378
 3219 106b 7A100000 		.4byte	0x107a
 3220 106f 0A       		.uleb128 0xa
 3221 1070 26060000 		.4byte	0x626
 3222 1074 0A       		.uleb128 0xa
 3223 1075 C20B0000 		.4byte	0xbc2
 3224 1079 00       		.byte	0
 3225 107a 33       		.uleb128 0x33
 3226 107b B6110000 		.4byte	.LASF252
 3227 107f 05       		.byte	0x5
 3228 1080 1308     		.2byte	0x813
 3229 1082 78030000 		.4byte	0x378
 3230 1086 90100000 		.4byte	0x1090
 3231 108a 0A       		.uleb128 0xa
 3232 108b C20B0000 		.4byte	0xbc2
 3233 108f 00       		.byte	0
 3234 1090 33       		.uleb128 0x33
 3235 1091 710A0000 		.4byte	.LASF253
 3236 1095 05       		.byte	0x5
 3237 1096 6305     		.2byte	0x563
ARM GAS  C:\Users\310295~1\AppData\Local\Temp\ccZIm937.s 			page 85


 3238 1098 78030000 		.4byte	0x378
 3239 109c A6100000 		.4byte	0x10a6
 3240 10a0 0A       		.uleb128 0xa
 3241 10a1 A6100000 		.4byte	0x10a6
 3242 10a5 00       		.byte	0
 3243 10a6 08       		.uleb128 0x8
 3244 10a7 04       		.byte	0x4
 3245 10a8 1A060000 		.4byte	0x61a
 3246 10ac 35       		.uleb128 0x35
 3247 10ad 1B060000 		.4byte	.LASF254
 3248 10b1 05       		.byte	0x5
 3249 10b2 7405     		.2byte	0x574
 3250 10b4 00       		.byte	0
 3251              		.section	.debug_abbrev,"",%progbits
 3252              	.Ldebug_abbrev0:
 3253 0000 01       		.uleb128 0x1
 3254 0001 11       		.uleb128 0x11
 3255 0002 01       		.byte	0x1
 3256 0003 25       		.uleb128 0x25
 3257 0004 0E       		.uleb128 0xe
 3258 0005 13       		.uleb128 0x13
 3259 0006 0B       		.uleb128 0xb
 3260 0007 03       		.uleb128 0x3
 3261 0008 0E       		.uleb128 0xe
 3262 0009 1B       		.uleb128 0x1b
 3263 000a 0E       		.uleb128 0xe
 3264 000b 55       		.uleb128 0x55
 3265 000c 17       		.uleb128 0x17
 3266 000d 11       		.uleb128 0x11
 3267 000e 01       		.uleb128 0x1
 3268 000f 10       		.uleb128 0x10
 3269 0010 17       		.uleb128 0x17
 3270 0011 00       		.byte	0
 3271 0012 00       		.byte	0
 3272 0013 02       		.uleb128 0x2
 3273 0014 24       		.uleb128 0x24
 3274 0015 00       		.byte	0
 3275 0016 0B       		.uleb128 0xb
 3276 0017 0B       		.uleb128 0xb
 3277 0018 3E       		.uleb128 0x3e
 3278 0019 0B       		.uleb128 0xb
 3279 001a 03       		.uleb128 0x3
 3280 001b 0E       		.uleb128 0xe
 3281 001c 00       		.byte	0
 3282 001d 00       		.byte	0
 3283 001e 03       		.uleb128 0x3
 3284 001f 24       		.uleb128 0x24
 3285 0020 00       		.byte	0
 3286 0021 0B       		.uleb128 0xb
 3287 0022 0B       		.uleb128 0xb
 3288 0023 3E       		.uleb128 0x3e
 3289 0024 0B       		.uleb128 0xb
 3290 0025 03       		.uleb128 0x3
 3291 0026 08       		.uleb128 0x8
 3292 0027 00       		.byte	0
 3293 0028 00       		.byte	0
 3294 0029 04       		.uleb128 0x4
ARM GAS  C:\Users\310295~1\AppData\Local\Temp\ccZIm937.s 			page 86


 3295 002a 16       		.uleb128 0x16
 3296 002b 00       		.byte	0
 3297 002c 03       		.uleb128 0x3
 3298 002d 0E       		.uleb128 0xe
 3299 002e 3A       		.uleb128 0x3a
 3300 002f 0B       		.uleb128 0xb
 3301 0030 3B       		.uleb128 0x3b
 3302 0031 05       		.uleb128 0x5
 3303 0032 49       		.uleb128 0x49
 3304 0033 13       		.uleb128 0x13
 3305 0034 00       		.byte	0
 3306 0035 00       		.byte	0
 3307 0036 05       		.uleb128 0x5
 3308 0037 35       		.uleb128 0x35
 3309 0038 00       		.byte	0
 3310 0039 49       		.uleb128 0x49
 3311 003a 13       		.uleb128 0x13
 3312 003b 00       		.byte	0
 3313 003c 00       		.byte	0
 3314 003d 06       		.uleb128 0x6
 3315 003e 16       		.uleb128 0x16
 3316 003f 00       		.byte	0
 3317 0040 03       		.uleb128 0x3
 3318 0041 0E       		.uleb128 0xe
 3319 0042 3A       		.uleb128 0x3a
 3320 0043 0B       		.uleb128 0xb
 3321 0044 3B       		.uleb128 0x3b
 3322 0045 0B       		.uleb128 0xb
 3323 0046 49       		.uleb128 0x49
 3324 0047 13       		.uleb128 0x13
 3325 0048 00       		.byte	0
 3326 0049 00       		.byte	0
 3327 004a 07       		.uleb128 0x7
 3328 004b 0F       		.uleb128 0xf
 3329 004c 00       		.byte	0
 3330 004d 0B       		.uleb128 0xb
 3331 004e 0B       		.uleb128 0xb
 3332 004f 00       		.byte	0
 3333 0050 00       		.byte	0
 3334 0051 08       		.uleb128 0x8
 3335 0052 0F       		.uleb128 0xf
 3336 0053 00       		.byte	0
 3337 0054 0B       		.uleb128 0xb
 3338 0055 0B       		.uleb128 0xb
 3339 0056 49       		.uleb128 0x49
 3340 0057 13       		.uleb128 0x13
 3341 0058 00       		.byte	0
 3342 0059 00       		.byte	0
 3343 005a 09       		.uleb128 0x9
 3344 005b 15       		.uleb128 0x15
 3345 005c 01       		.byte	0x1
 3346 005d 27       		.uleb128 0x27
 3347 005e 19       		.uleb128 0x19
 3348 005f 01       		.uleb128 0x1
 3349 0060 13       		.uleb128 0x13
 3350 0061 00       		.byte	0
 3351 0062 00       		.byte	0
ARM GAS  C:\Users\310295~1\AppData\Local\Temp\ccZIm937.s 			page 87


 3352 0063 0A       		.uleb128 0xa
 3353 0064 05       		.uleb128 0x5
 3354 0065 00       		.byte	0
 3355 0066 49       		.uleb128 0x49
 3356 0067 13       		.uleb128 0x13
 3357 0068 00       		.byte	0
 3358 0069 00       		.byte	0
 3359 006a 0B       		.uleb128 0xb
 3360 006b 04       		.uleb128 0x4
 3361 006c 01       		.byte	0x1
 3362 006d 0B       		.uleb128 0xb
 3363 006e 0B       		.uleb128 0xb
 3364 006f 3A       		.uleb128 0x3a
 3365 0070 0B       		.uleb128 0xb
 3366 0071 3B       		.uleb128 0x3b
 3367 0072 05       		.uleb128 0x5
 3368 0073 01       		.uleb128 0x1
 3369 0074 13       		.uleb128 0x13
 3370 0075 00       		.byte	0
 3371 0076 00       		.byte	0
 3372 0077 0C       		.uleb128 0xc
 3373 0078 28       		.uleb128 0x28
 3374 0079 00       		.byte	0
 3375 007a 03       		.uleb128 0x3
 3376 007b 0E       		.uleb128 0xe
 3377 007c 1C       		.uleb128 0x1c
 3378 007d 0D       		.uleb128 0xd
 3379 007e 00       		.byte	0
 3380 007f 00       		.byte	0
 3381 0080 0D       		.uleb128 0xd
 3382 0081 13       		.uleb128 0x13
 3383 0082 01       		.byte	0x1
 3384 0083 0B       		.uleb128 0xb
 3385 0084 0B       		.uleb128 0xb
 3386 0085 3A       		.uleb128 0x3a
 3387 0086 0B       		.uleb128 0xb
 3388 0087 3B       		.uleb128 0x3b
 3389 0088 05       		.uleb128 0x5
 3390 0089 01       		.uleb128 0x1
 3391 008a 13       		.uleb128 0x13
 3392 008b 00       		.byte	0
 3393 008c 00       		.byte	0
 3394 008d 0E       		.uleb128 0xe
 3395 008e 0D       		.uleb128 0xd
 3396 008f 00       		.byte	0
 3397 0090 03       		.uleb128 0x3
 3398 0091 0E       		.uleb128 0xe
 3399 0092 3A       		.uleb128 0x3a
 3400 0093 0B       		.uleb128 0xb
 3401 0094 3B       		.uleb128 0x3b
 3402 0095 05       		.uleb128 0x5
 3403 0096 49       		.uleb128 0x49
 3404 0097 13       		.uleb128 0x13
 3405 0098 38       		.uleb128 0x38
 3406 0099 0B       		.uleb128 0xb
 3407 009a 00       		.byte	0
 3408 009b 00       		.byte	0
ARM GAS  C:\Users\310295~1\AppData\Local\Temp\ccZIm937.s 			page 88


 3409 009c 0F       		.uleb128 0xf
 3410 009d 01       		.uleb128 0x1
 3411 009e 01       		.byte	0x1
 3412 009f 49       		.uleb128 0x49
 3413 00a0 13       		.uleb128 0x13
 3414 00a1 01       		.uleb128 0x1
 3415 00a2 13       		.uleb128 0x13
 3416 00a3 00       		.byte	0
 3417 00a4 00       		.byte	0
 3418 00a5 10       		.uleb128 0x10
 3419 00a6 21       		.uleb128 0x21
 3420 00a7 00       		.byte	0
 3421 00a8 49       		.uleb128 0x49
 3422 00a9 13       		.uleb128 0x13
 3423 00aa 2F       		.uleb128 0x2f
 3424 00ab 0B       		.uleb128 0xb
 3425 00ac 00       		.byte	0
 3426 00ad 00       		.byte	0
 3427 00ae 11       		.uleb128 0x11
 3428 00af 04       		.uleb128 0x4
 3429 00b0 01       		.byte	0x1
 3430 00b1 0B       		.uleb128 0xb
 3431 00b2 0B       		.uleb128 0xb
 3432 00b3 3A       		.uleb128 0x3a
 3433 00b4 0B       		.uleb128 0xb
 3434 00b5 3B       		.uleb128 0x3b
 3435 00b6 0B       		.uleb128 0xb
 3436 00b7 01       		.uleb128 0x1
 3437 00b8 13       		.uleb128 0x13
 3438 00b9 00       		.byte	0
 3439 00ba 00       		.byte	0
 3440 00bb 12       		.uleb128 0x12
 3441 00bc 13       		.uleb128 0x13
 3442 00bd 01       		.byte	0x1
 3443 00be 0B       		.uleb128 0xb
 3444 00bf 0B       		.uleb128 0xb
 3445 00c0 3A       		.uleb128 0x3a
 3446 00c1 0B       		.uleb128 0xb
 3447 00c2 3B       		.uleb128 0x3b
 3448 00c3 0B       		.uleb128 0xb
 3449 00c4 01       		.uleb128 0x1
 3450 00c5 13       		.uleb128 0x13
 3451 00c6 00       		.byte	0
 3452 00c7 00       		.byte	0
 3453 00c8 13       		.uleb128 0x13
 3454 00c9 0D       		.uleb128 0xd
 3455 00ca 00       		.byte	0
 3456 00cb 03       		.uleb128 0x3
 3457 00cc 0E       		.uleb128 0xe
 3458 00cd 3A       		.uleb128 0x3a
 3459 00ce 0B       		.uleb128 0xb
 3460 00cf 3B       		.uleb128 0x3b
 3461 00d0 0B       		.uleb128 0xb
 3462 00d1 49       		.uleb128 0x49
 3463 00d2 13       		.uleb128 0x13
 3464 00d3 38       		.uleb128 0x38
 3465 00d4 0B       		.uleb128 0xb
ARM GAS  C:\Users\310295~1\AppData\Local\Temp\ccZIm937.s 			page 89


 3466 00d5 00       		.byte	0
 3467 00d6 00       		.byte	0
 3468 00d7 14       		.uleb128 0x14
 3469 00d8 17       		.uleb128 0x17
 3470 00d9 01       		.byte	0x1
 3471 00da 0B       		.uleb128 0xb
 3472 00db 0B       		.uleb128 0xb
 3473 00dc 3A       		.uleb128 0x3a
 3474 00dd 0B       		.uleb128 0xb
 3475 00de 3B       		.uleb128 0x3b
 3476 00df 0B       		.uleb128 0xb
 3477 00e0 01       		.uleb128 0x1
 3478 00e1 13       		.uleb128 0x13
 3479 00e2 00       		.byte	0
 3480 00e3 00       		.byte	0
 3481 00e4 15       		.uleb128 0x15
 3482 00e5 0D       		.uleb128 0xd
 3483 00e6 00       		.byte	0
 3484 00e7 03       		.uleb128 0x3
 3485 00e8 0E       		.uleb128 0xe
 3486 00e9 3A       		.uleb128 0x3a
 3487 00ea 0B       		.uleb128 0xb
 3488 00eb 3B       		.uleb128 0x3b
 3489 00ec 0B       		.uleb128 0xb
 3490 00ed 49       		.uleb128 0x49
 3491 00ee 13       		.uleb128 0x13
 3492 00ef 00       		.byte	0
 3493 00f0 00       		.byte	0
 3494 00f1 16       		.uleb128 0x16
 3495 00f2 13       		.uleb128 0x13
 3496 00f3 01       		.byte	0x1
 3497 00f4 0B       		.uleb128 0xb
 3498 00f5 05       		.uleb128 0x5
 3499 00f6 3A       		.uleb128 0x3a
 3500 00f7 0B       		.uleb128 0xb
 3501 00f8 3B       		.uleb128 0x3b
 3502 00f9 0B       		.uleb128 0xb
 3503 00fa 01       		.uleb128 0x1
 3504 00fb 13       		.uleb128 0x13
 3505 00fc 00       		.byte	0
 3506 00fd 00       		.byte	0
 3507 00fe 17       		.uleb128 0x17
 3508 00ff 0D       		.uleb128 0xd
 3509 0100 00       		.byte	0
 3510 0101 03       		.uleb128 0x3
 3511 0102 0E       		.uleb128 0xe
 3512 0103 3A       		.uleb128 0x3a
 3513 0104 0B       		.uleb128 0xb
 3514 0105 3B       		.uleb128 0x3b
 3515 0106 0B       		.uleb128 0xb
 3516 0107 49       		.uleb128 0x49
 3517 0108 13       		.uleb128 0x13
 3518 0109 38       		.uleb128 0x38
 3519 010a 05       		.uleb128 0x5
 3520 010b 00       		.byte	0
 3521 010c 00       		.byte	0
 3522 010d 18       		.uleb128 0x18
ARM GAS  C:\Users\310295~1\AppData\Local\Temp\ccZIm937.s 			page 90


 3523 010e 21       		.uleb128 0x21
 3524 010f 00       		.byte	0
 3525 0110 49       		.uleb128 0x49
 3526 0111 13       		.uleb128 0x13
 3527 0112 2F       		.uleb128 0x2f
 3528 0113 05       		.uleb128 0x5
 3529 0114 00       		.byte	0
 3530 0115 00       		.byte	0
 3531 0116 19       		.uleb128 0x19
 3532 0117 26       		.uleb128 0x26
 3533 0118 00       		.byte	0
 3534 0119 00       		.byte	0
 3535 011a 00       		.byte	0
 3536 011b 1A       		.uleb128 0x1a
 3537 011c 2E       		.uleb128 0x2e
 3538 011d 01       		.byte	0x1
 3539 011e 03       		.uleb128 0x3
 3540 011f 0E       		.uleb128 0xe
 3541 0120 3A       		.uleb128 0x3a
 3542 0121 0B       		.uleb128 0xb
 3543 0122 3B       		.uleb128 0x3b
 3544 0123 05       		.uleb128 0x5
 3545 0124 27       		.uleb128 0x27
 3546 0125 19       		.uleb128 0x19
 3547 0126 11       		.uleb128 0x11
 3548 0127 01       		.uleb128 0x1
 3549 0128 12       		.uleb128 0x12
 3550 0129 06       		.uleb128 0x6
 3551 012a 40       		.uleb128 0x40
 3552 012b 18       		.uleb128 0x18
 3553 012c 9742     		.uleb128 0x2117
 3554 012e 19       		.uleb128 0x19
 3555 012f 01       		.uleb128 0x1
 3556 0130 13       		.uleb128 0x13
 3557 0131 00       		.byte	0
 3558 0132 00       		.byte	0
 3559 0133 1B       		.uleb128 0x1b
 3560 0134 05       		.uleb128 0x5
 3561 0135 00       		.byte	0
 3562 0136 03       		.uleb128 0x3
 3563 0137 0E       		.uleb128 0xe
 3564 0138 3A       		.uleb128 0x3a
 3565 0139 0B       		.uleb128 0xb
 3566 013a 3B       		.uleb128 0x3b
 3567 013b 05       		.uleb128 0x5
 3568 013c 49       		.uleb128 0x49
 3569 013d 13       		.uleb128 0x13
 3570 013e 02       		.uleb128 0x2
 3571 013f 17       		.uleb128 0x17
 3572 0140 00       		.byte	0
 3573 0141 00       		.byte	0
 3574 0142 1C       		.uleb128 0x1c
 3575 0143 34       		.uleb128 0x34
 3576 0144 00       		.byte	0
 3577 0145 03       		.uleb128 0x3
 3578 0146 08       		.uleb128 0x8
 3579 0147 3A       		.uleb128 0x3a
ARM GAS  C:\Users\310295~1\AppData\Local\Temp\ccZIm937.s 			page 91


 3580 0148 0B       		.uleb128 0xb
 3581 0149 3B       		.uleb128 0x3b
 3582 014a 05       		.uleb128 0x5
 3583 014b 49       		.uleb128 0x49
 3584 014c 13       		.uleb128 0x13
 3585 014d 02       		.uleb128 0x2
 3586 014e 17       		.uleb128 0x17
 3587 014f 00       		.byte	0
 3588 0150 00       		.byte	0
 3589 0151 1D       		.uleb128 0x1d
 3590 0152 34       		.uleb128 0x34
 3591 0153 00       		.byte	0
 3592 0154 03       		.uleb128 0x3
 3593 0155 0E       		.uleb128 0xe
 3594 0156 3A       		.uleb128 0x3a
 3595 0157 0B       		.uleb128 0xb
 3596 0158 3B       		.uleb128 0x3b
 3597 0159 05       		.uleb128 0x5
 3598 015a 49       		.uleb128 0x49
 3599 015b 13       		.uleb128 0x13
 3600 015c 02       		.uleb128 0x2
 3601 015d 17       		.uleb128 0x17
 3602 015e 00       		.byte	0
 3603 015f 00       		.byte	0
 3604 0160 1E       		.uleb128 0x1e
 3605 0161 26       		.uleb128 0x26
 3606 0162 00       		.byte	0
 3607 0163 49       		.uleb128 0x49
 3608 0164 13       		.uleb128 0x13
 3609 0165 00       		.byte	0
 3610 0166 00       		.byte	0
 3611 0167 1F       		.uleb128 0x1f
 3612 0168 2E       		.uleb128 0x2e
 3613 0169 01       		.byte	0x1
 3614 016a 3F       		.uleb128 0x3f
 3615 016b 19       		.uleb128 0x19
 3616 016c 03       		.uleb128 0x3
 3617 016d 0E       		.uleb128 0xe
 3618 016e 3A       		.uleb128 0x3a
 3619 016f 0B       		.uleb128 0xb
 3620 0170 3B       		.uleb128 0x3b
 3621 0171 0B       		.uleb128 0xb
 3622 0172 27       		.uleb128 0x27
 3623 0173 19       		.uleb128 0x19
 3624 0174 11       		.uleb128 0x11
 3625 0175 01       		.uleb128 0x1
 3626 0176 12       		.uleb128 0x12
 3627 0177 06       		.uleb128 0x6
 3628 0178 40       		.uleb128 0x40
 3629 0179 18       		.uleb128 0x18
 3630 017a 9742     		.uleb128 0x2117
 3631 017c 19       		.uleb128 0x19
 3632 017d 01       		.uleb128 0x1
 3633 017e 13       		.uleb128 0x13
 3634 017f 00       		.byte	0
 3635 0180 00       		.byte	0
 3636 0181 20       		.uleb128 0x20
ARM GAS  C:\Users\310295~1\AppData\Local\Temp\ccZIm937.s 			page 92


 3637 0182 898201   		.uleb128 0x4109
 3638 0185 00       		.byte	0
 3639 0186 11       		.uleb128 0x11
 3640 0187 01       		.uleb128 0x1
 3641 0188 31       		.uleb128 0x31
 3642 0189 13       		.uleb128 0x13
 3643 018a 00       		.byte	0
 3644 018b 00       		.byte	0
 3645 018c 21       		.uleb128 0x21
 3646 018d 2E       		.uleb128 0x2e
 3647 018e 01       		.byte	0x1
 3648 018f 3F       		.uleb128 0x3f
 3649 0190 19       		.uleb128 0x19
 3650 0191 03       		.uleb128 0x3
 3651 0192 0E       		.uleb128 0xe
 3652 0193 3A       		.uleb128 0x3a
 3653 0194 0B       		.uleb128 0xb
 3654 0195 3B       		.uleb128 0x3b
 3655 0196 05       		.uleb128 0x5
 3656 0197 27       		.uleb128 0x27
 3657 0198 19       		.uleb128 0x19
 3658 0199 49       		.uleb128 0x49
 3659 019a 13       		.uleb128 0x13
 3660 019b 11       		.uleb128 0x11
 3661 019c 01       		.uleb128 0x1
 3662 019d 12       		.uleb128 0x12
 3663 019e 06       		.uleb128 0x6
 3664 019f 40       		.uleb128 0x40
 3665 01a0 18       		.uleb128 0x18
 3666 01a1 9742     		.uleb128 0x2117
 3667 01a3 19       		.uleb128 0x19
 3668 01a4 01       		.uleb128 0x1
 3669 01a5 13       		.uleb128 0x13
 3670 01a6 00       		.byte	0
 3671 01a7 00       		.byte	0
 3672 01a8 22       		.uleb128 0x22
 3673 01a9 34       		.uleb128 0x34
 3674 01aa 00       		.byte	0
 3675 01ab 03       		.uleb128 0x3
 3676 01ac 0E       		.uleb128 0xe
 3677 01ad 3A       		.uleb128 0x3a
 3678 01ae 0B       		.uleb128 0xb
 3679 01af 3B       		.uleb128 0x3b
 3680 01b0 05       		.uleb128 0x5
 3681 01b1 49       		.uleb128 0x49
 3682 01b2 13       		.uleb128 0x13
 3683 01b3 02       		.uleb128 0x2
 3684 01b4 18       		.uleb128 0x18
 3685 01b5 00       		.byte	0
 3686 01b6 00       		.byte	0
 3687 01b7 23       		.uleb128 0x23
 3688 01b8 0B       		.uleb128 0xb
 3689 01b9 01       		.byte	0x1
 3690 01ba 11       		.uleb128 0x11
 3691 01bb 01       		.uleb128 0x1
 3692 01bc 12       		.uleb128 0x12
 3693 01bd 06       		.uleb128 0x6
ARM GAS  C:\Users\310295~1\AppData\Local\Temp\ccZIm937.s 			page 93


 3694 01be 01       		.uleb128 0x1
 3695 01bf 13       		.uleb128 0x13
 3696 01c0 00       		.byte	0
 3697 01c1 00       		.byte	0
 3698 01c2 24       		.uleb128 0x24
 3699 01c3 898201   		.uleb128 0x4109
 3700 01c6 01       		.byte	0x1
 3701 01c7 11       		.uleb128 0x11
 3702 01c8 01       		.uleb128 0x1
 3703 01c9 31       		.uleb128 0x31
 3704 01ca 13       		.uleb128 0x13
 3705 01cb 00       		.byte	0
 3706 01cc 00       		.byte	0
 3707 01cd 25       		.uleb128 0x25
 3708 01ce 8A8201   		.uleb128 0x410a
 3709 01d1 00       		.byte	0
 3710 01d2 02       		.uleb128 0x2
 3711 01d3 18       		.uleb128 0x18
 3712 01d4 9142     		.uleb128 0x2111
 3713 01d6 18       		.uleb128 0x18
 3714 01d7 00       		.byte	0
 3715 01d8 00       		.byte	0
 3716 01d9 26       		.uleb128 0x26
 3717 01da 898201   		.uleb128 0x4109
 3718 01dd 01       		.byte	0x1
 3719 01de 11       		.uleb128 0x11
 3720 01df 01       		.uleb128 0x1
 3721 01e0 31       		.uleb128 0x31
 3722 01e1 13       		.uleb128 0x13
 3723 01e2 01       		.uleb128 0x1
 3724 01e3 13       		.uleb128 0x13
 3725 01e4 00       		.byte	0
 3726 01e5 00       		.byte	0
 3727 01e6 27       		.uleb128 0x27
 3728 01e7 2E       		.uleb128 0x2e
 3729 01e8 01       		.byte	0x1
 3730 01e9 3F       		.uleb128 0x3f
 3731 01ea 19       		.uleb128 0x19
 3732 01eb 03       		.uleb128 0x3
 3733 01ec 0E       		.uleb128 0xe
 3734 01ed 3A       		.uleb128 0x3a
 3735 01ee 0B       		.uleb128 0xb
 3736 01ef 3B       		.uleb128 0x3b
 3737 01f0 05       		.uleb128 0x5
 3738 01f1 27       		.uleb128 0x27
 3739 01f2 19       		.uleb128 0x19
 3740 01f3 11       		.uleb128 0x11
 3741 01f4 01       		.uleb128 0x1
 3742 01f5 12       		.uleb128 0x12
 3743 01f6 06       		.uleb128 0x6
 3744 01f7 40       		.uleb128 0x40
 3745 01f8 18       		.uleb128 0x18
 3746 01f9 9742     		.uleb128 0x2117
 3747 01fb 19       		.uleb128 0x19
 3748 01fc 01       		.uleb128 0x1
 3749 01fd 13       		.uleb128 0x13
 3750 01fe 00       		.byte	0
ARM GAS  C:\Users\310295~1\AppData\Local\Temp\ccZIm937.s 			page 94


 3751 01ff 00       		.byte	0
 3752 0200 28       		.uleb128 0x28
 3753 0201 0B       		.uleb128 0xb
 3754 0202 01       		.byte	0x1
 3755 0203 11       		.uleb128 0x11
 3756 0204 01       		.uleb128 0x1
 3757 0205 12       		.uleb128 0x12
 3758 0206 06       		.uleb128 0x6
 3759 0207 00       		.byte	0
 3760 0208 00       		.byte	0
 3761 0209 29       		.uleb128 0x29
 3762 020a 05       		.uleb128 0x5
 3763 020b 00       		.byte	0
 3764 020c 03       		.uleb128 0x3
 3765 020d 0E       		.uleb128 0xe
 3766 020e 3A       		.uleb128 0x3a
 3767 020f 0B       		.uleb128 0xb
 3768 0210 3B       		.uleb128 0x3b
 3769 0211 05       		.uleb128 0x5
 3770 0212 49       		.uleb128 0x49
 3771 0213 13       		.uleb128 0x13
 3772 0214 02       		.uleb128 0x2
 3773 0215 18       		.uleb128 0x18
 3774 0216 00       		.byte	0
 3775 0217 00       		.byte	0
 3776 0218 2A       		.uleb128 0x2a
 3777 0219 34       		.uleb128 0x34
 3778 021a 00       		.byte	0
 3779 021b 03       		.uleb128 0x3
 3780 021c 08       		.uleb128 0x8
 3781 021d 3A       		.uleb128 0x3a
 3782 021e 0B       		.uleb128 0xb
 3783 021f 3B       		.uleb128 0x3b
 3784 0220 05       		.uleb128 0x5
 3785 0221 49       		.uleb128 0x49
 3786 0222 13       		.uleb128 0x13
 3787 0223 00       		.byte	0
 3788 0224 00       		.byte	0
 3789 0225 2B       		.uleb128 0x2b
 3790 0226 34       		.uleb128 0x34
 3791 0227 00       		.byte	0
 3792 0228 03       		.uleb128 0x3
 3793 0229 0E       		.uleb128 0xe
 3794 022a 3A       		.uleb128 0x3a
 3795 022b 0B       		.uleb128 0xb
 3796 022c 3B       		.uleb128 0x3b
 3797 022d 05       		.uleb128 0x5
 3798 022e 49       		.uleb128 0x49
 3799 022f 13       		.uleb128 0x13
 3800 0230 1C       		.uleb128 0x1c
 3801 0231 0B       		.uleb128 0xb
 3802 0232 00       		.byte	0
 3803 0233 00       		.byte	0
 3804 0234 2C       		.uleb128 0x2c
 3805 0235 05       		.uleb128 0x5
 3806 0236 00       		.byte	0
 3807 0237 03       		.uleb128 0x3
ARM GAS  C:\Users\310295~1\AppData\Local\Temp\ccZIm937.s 			page 95


 3808 0238 08       		.uleb128 0x8
 3809 0239 3A       		.uleb128 0x3a
 3810 023a 0B       		.uleb128 0xb
 3811 023b 3B       		.uleb128 0x3b
 3812 023c 05       		.uleb128 0x5
 3813 023d 49       		.uleb128 0x49
 3814 023e 13       		.uleb128 0x13
 3815 023f 02       		.uleb128 0x2
 3816 0240 17       		.uleb128 0x17
 3817 0241 00       		.byte	0
 3818 0242 00       		.byte	0
 3819 0243 2D       		.uleb128 0x2d
 3820 0244 05       		.uleb128 0x5
 3821 0245 00       		.byte	0
 3822 0246 03       		.uleb128 0x3
 3823 0247 08       		.uleb128 0x8
 3824 0248 3A       		.uleb128 0x3a
 3825 0249 0B       		.uleb128 0xb
 3826 024a 3B       		.uleb128 0x3b
 3827 024b 05       		.uleb128 0x5
 3828 024c 49       		.uleb128 0x49
 3829 024d 13       		.uleb128 0x13
 3830 024e 02       		.uleb128 0x2
 3831 024f 18       		.uleb128 0x18
 3832 0250 00       		.byte	0
 3833 0251 00       		.byte	0
 3834 0252 2E       		.uleb128 0x2e
 3835 0253 34       		.uleb128 0x34
 3836 0254 00       		.byte	0
 3837 0255 03       		.uleb128 0x3
 3838 0256 0E       		.uleb128 0xe
 3839 0257 3A       		.uleb128 0x3a
 3840 0258 0B       		.uleb128 0xb
 3841 0259 3B       		.uleb128 0x3b
 3842 025a 0B       		.uleb128 0xb
 3843 025b 49       		.uleb128 0x49
 3844 025c 13       		.uleb128 0x13
 3845 025d 02       		.uleb128 0x2
 3846 025e 18       		.uleb128 0x18
 3847 025f 00       		.byte	0
 3848 0260 00       		.byte	0
 3849 0261 2F       		.uleb128 0x2f
 3850 0262 34       		.uleb128 0x34
 3851 0263 00       		.byte	0
 3852 0264 03       		.uleb128 0x3
 3853 0265 0E       		.uleb128 0xe
 3854 0266 3A       		.uleb128 0x3a
 3855 0267 0B       		.uleb128 0xb
 3856 0268 3B       		.uleb128 0x3b
 3857 0269 0B       		.uleb128 0xb
 3858 026a 49       		.uleb128 0x49
 3859 026b 13       		.uleb128 0x13
 3860 026c 3F       		.uleb128 0x3f
 3861 026d 19       		.uleb128 0x19
 3862 026e 02       		.uleb128 0x2
 3863 026f 18       		.uleb128 0x18
 3864 0270 00       		.byte	0
ARM GAS  C:\Users\310295~1\AppData\Local\Temp\ccZIm937.s 			page 96


 3865 0271 00       		.byte	0
 3866 0272 30       		.uleb128 0x30
 3867 0273 34       		.uleb128 0x34
 3868 0274 00       		.byte	0
 3869 0275 03       		.uleb128 0x3
 3870 0276 0E       		.uleb128 0xe
 3871 0277 3A       		.uleb128 0x3a
 3872 0278 0B       		.uleb128 0xb
 3873 0279 3B       		.uleb128 0x3b
 3874 027a 05       		.uleb128 0x5
 3875 027b 49       		.uleb128 0x49
 3876 027c 13       		.uleb128 0x13
 3877 027d 3F       		.uleb128 0x3f
 3878 027e 19       		.uleb128 0x19
 3879 027f 3C       		.uleb128 0x3c
 3880 0280 19       		.uleb128 0x19
 3881 0281 00       		.byte	0
 3882 0282 00       		.byte	0
 3883 0283 31       		.uleb128 0x31
 3884 0284 34       		.uleb128 0x34
 3885 0285 00       		.byte	0
 3886 0286 03       		.uleb128 0x3
 3887 0287 0E       		.uleb128 0xe
 3888 0288 3A       		.uleb128 0x3a
 3889 0289 0B       		.uleb128 0xb
 3890 028a 3B       		.uleb128 0x3b
 3891 028b 0B       		.uleb128 0xb
 3892 028c 49       		.uleb128 0x49
 3893 028d 13       		.uleb128 0x13
 3894 028e 3F       		.uleb128 0x3f
 3895 028f 19       		.uleb128 0x19
 3896 0290 3C       		.uleb128 0x3c
 3897 0291 19       		.uleb128 0x19
 3898 0292 00       		.byte	0
 3899 0293 00       		.byte	0
 3900 0294 32       		.uleb128 0x32
 3901 0295 2E       		.uleb128 0x2e
 3902 0296 00       		.byte	0
 3903 0297 3F       		.uleb128 0x3f
 3904 0298 19       		.uleb128 0x19
 3905 0299 03       		.uleb128 0x3
 3906 029a 0E       		.uleb128 0xe
 3907 029b 3A       		.uleb128 0x3a
 3908 029c 0B       		.uleb128 0xb
 3909 029d 3B       		.uleb128 0x3b
 3910 029e 0B       		.uleb128 0xb
 3911 029f 27       		.uleb128 0x27
 3912 02a0 19       		.uleb128 0x19
 3913 02a1 3C       		.uleb128 0x3c
 3914 02a2 19       		.uleb128 0x19
 3915 02a3 00       		.byte	0
 3916 02a4 00       		.byte	0
 3917 02a5 33       		.uleb128 0x33
 3918 02a6 2E       		.uleb128 0x2e
 3919 02a7 01       		.byte	0x1
 3920 02a8 3F       		.uleb128 0x3f
 3921 02a9 19       		.uleb128 0x19
ARM GAS  C:\Users\310295~1\AppData\Local\Temp\ccZIm937.s 			page 97


 3922 02aa 03       		.uleb128 0x3
 3923 02ab 0E       		.uleb128 0xe
 3924 02ac 3A       		.uleb128 0x3a
 3925 02ad 0B       		.uleb128 0xb
 3926 02ae 3B       		.uleb128 0x3b
 3927 02af 05       		.uleb128 0x5
 3928 02b0 27       		.uleb128 0x27
 3929 02b1 19       		.uleb128 0x19
 3930 02b2 49       		.uleb128 0x49
 3931 02b3 13       		.uleb128 0x13
 3932 02b4 3C       		.uleb128 0x3c
 3933 02b5 19       		.uleb128 0x19
 3934 02b6 01       		.uleb128 0x1
 3935 02b7 13       		.uleb128 0x13
 3936 02b8 00       		.byte	0
 3937 02b9 00       		.byte	0
 3938 02ba 34       		.uleb128 0x34
 3939 02bb 2E       		.uleb128 0x2e
 3940 02bc 01       		.byte	0x1
 3941 02bd 3F       		.uleb128 0x3f
 3942 02be 19       		.uleb128 0x19
 3943 02bf 03       		.uleb128 0x3
 3944 02c0 0E       		.uleb128 0xe
 3945 02c1 27       		.uleb128 0x27
 3946 02c2 19       		.uleb128 0x19
 3947 02c3 49       		.uleb128 0x49
 3948 02c4 13       		.uleb128 0x13
 3949 02c5 34       		.uleb128 0x34
 3950 02c6 19       		.uleb128 0x19
 3951 02c7 3C       		.uleb128 0x3c
 3952 02c8 19       		.uleb128 0x19
 3953 02c9 01       		.uleb128 0x1
 3954 02ca 13       		.uleb128 0x13
 3955 02cb 00       		.byte	0
 3956 02cc 00       		.byte	0
 3957 02cd 35       		.uleb128 0x35
 3958 02ce 2E       		.uleb128 0x2e
 3959 02cf 00       		.byte	0
 3960 02d0 3F       		.uleb128 0x3f
 3961 02d1 19       		.uleb128 0x19
 3962 02d2 03       		.uleb128 0x3
 3963 02d3 0E       		.uleb128 0xe
 3964 02d4 3A       		.uleb128 0x3a
 3965 02d5 0B       		.uleb128 0xb
 3966 02d6 3B       		.uleb128 0x3b
 3967 02d7 05       		.uleb128 0x5
 3968 02d8 27       		.uleb128 0x27
 3969 02d9 19       		.uleb128 0x19
 3970 02da 3C       		.uleb128 0x3c
 3971 02db 19       		.uleb128 0x19
 3972 02dc 00       		.byte	0
 3973 02dd 00       		.byte	0
 3974 02de 36       		.uleb128 0x36
 3975 02df 2E       		.uleb128 0x2e
 3976 02e0 01       		.byte	0x1
 3977 02e1 3F       		.uleb128 0x3f
 3978 02e2 19       		.uleb128 0x19
ARM GAS  C:\Users\310295~1\AppData\Local\Temp\ccZIm937.s 			page 98


 3979 02e3 03       		.uleb128 0x3
 3980 02e4 0E       		.uleb128 0xe
 3981 02e5 3A       		.uleb128 0x3a
 3982 02e6 0B       		.uleb128 0xb
 3983 02e7 3B       		.uleb128 0x3b
 3984 02e8 0B       		.uleb128 0xb
 3985 02e9 27       		.uleb128 0x27
 3986 02ea 19       		.uleb128 0x19
 3987 02eb 49       		.uleb128 0x49
 3988 02ec 13       		.uleb128 0x13
 3989 02ed 3C       		.uleb128 0x3c
 3990 02ee 19       		.uleb128 0x19
 3991 02ef 01       		.uleb128 0x1
 3992 02f0 13       		.uleb128 0x13
 3993 02f1 00       		.byte	0
 3994 02f2 00       		.byte	0
 3995 02f3 00       		.byte	0
 3996              		.section	.debug_loc,"",%progbits
 3997              	.Ldebug_loc0:
 3998              	.LLST0:
 3999 0000 00000000 		.4byte	.LVL0
 4000 0004 60000000 		.4byte	.LVL20
 4001 0008 0100     		.2byte	0x1
 4002 000a 50       		.byte	0x50
 4003 000b 60000000 		.4byte	.LVL20
 4004 000f 74000000 		.4byte	.LFE11
 4005 0013 0400     		.2byte	0x4
 4006 0015 F3       		.byte	0xf3
 4007 0016 01       		.uleb128 0x1
 4008 0017 50       		.byte	0x50
 4009 0018 9F       		.byte	0x9f
 4010 0019 00000000 		.4byte	0
 4011 001d 00000000 		.4byte	0
 4012              	.LLST1:
 4013 0021 00000000 		.4byte	.LVL0
 4014 0025 1A000000 		.4byte	.LVL6
 4015 0029 0100     		.2byte	0x1
 4016 002b 51       		.byte	0x51
 4017 002c 1A000000 		.4byte	.LVL6
 4018 0030 74000000 		.4byte	.LFE11
 4019 0034 0400     		.2byte	0x4
 4020 0036 F3       		.byte	0xf3
 4021 0037 01       		.uleb128 0x1
 4022 0038 51       		.byte	0x51
 4023 0039 9F       		.byte	0x9f
 4024 003a 00000000 		.4byte	0
 4025 003e 00000000 		.4byte	0
 4026              	.LLST2:
 4027 0042 48000000 		.4byte	.LVL16
 4028 0046 4C000000 		.4byte	.LVL17
 4029 004a 0100     		.2byte	0x1
 4030 004c 53       		.byte	0x53
 4031 004d 4C000000 		.4byte	.LVL17
 4032 0051 50000000 		.4byte	.LVL18
 4033 0055 0100     		.2byte	0x1
 4034 0057 52       		.byte	0x52
 4035 0058 52000000 		.4byte	.LVL19
ARM GAS  C:\Users\310295~1\AppData\Local\Temp\ccZIm937.s 			page 99


 4036 005c 68000000 		.4byte	.LVL21
 4037 0060 0100     		.2byte	0x1
 4038 0062 52       		.byte	0x52
 4039 0063 6A000000 		.4byte	.LVL22
 4040 0067 6E000000 		.4byte	.LVL23
 4041 006b 0100     		.2byte	0x1
 4042 006d 52       		.byte	0x52
 4043 006e 00000000 		.4byte	0
 4044 0072 00000000 		.4byte	0
 4045              	.LLST3:
 4046 0076 02000000 		.4byte	.LVL1
 4047 007a 1A000000 		.4byte	.LVL6
 4048 007e 0200     		.2byte	0x2
 4049 0080 30       		.byte	0x30
 4050 0081 9F       		.byte	0x9f
 4051 0082 1A000000 		.4byte	.LVL6
 4052 0086 4C000000 		.4byte	.LVL17
 4053 008a 0100     		.2byte	0x1
 4054 008c 55       		.byte	0x55
 4055 008d 00000000 		.4byte	0
 4056 0091 00000000 		.4byte	0
 4057              	.LLST4:
 4058 0095 02000000 		.4byte	.LVL1
 4059 0099 1A000000 		.4byte	.LVL6
 4060 009d 0200     		.2byte	0x2
 4061 009f 30       		.byte	0x30
 4062 00a0 9F       		.byte	0x9f
 4063 00a1 1A000000 		.4byte	.LVL6
 4064 00a5 42000000 		.4byte	.LVL13
 4065 00a9 0100     		.2byte	0x1
 4066 00ab 52       		.byte	0x52
 4067 00ac 44000000 		.4byte	.LVL14
 4068 00b0 6E000000 		.4byte	.LVL23
 4069 00b4 0100     		.2byte	0x1
 4070 00b6 51       		.byte	0x51
 4071 00b7 00000000 		.4byte	0
 4072 00bb 00000000 		.4byte	0
 4073              	.LLST5:
 4074 00bf 02000000 		.4byte	.LVL1
 4075 00c3 1A000000 		.4byte	.LVL6
 4076 00c7 0200     		.2byte	0x2
 4077 00c9 30       		.byte	0x30
 4078 00ca 9F       		.byte	0x9f
 4079 00cb 1A000000 		.4byte	.LVL6
 4080 00cf 22000000 		.4byte	.LVL8
 4081 00d3 0100     		.2byte	0x1
 4082 00d5 53       		.byte	0x53
 4083 00d6 24000000 		.4byte	.LVL9
 4084 00da 2E000000 		.4byte	.LVL10
 4085 00de 0100     		.2byte	0x1
 4086 00e0 53       		.byte	0x53
 4087 00e1 30000000 		.4byte	.LVL11
 4088 00e5 46000000 		.4byte	.LVL15
 4089 00e9 0100     		.2byte	0x1
 4090 00eb 53       		.byte	0x53
 4091 00ec 48000000 		.4byte	.LVL16
 4092 00f0 60000000 		.4byte	.LVL20
ARM GAS  C:\Users\310295~1\AppData\Local\Temp\ccZIm937.s 			page 100


 4093 00f4 0100     		.2byte	0x1
 4094 00f6 53       		.byte	0x53
 4095 00f7 00000000 		.4byte	0
 4096 00fb 00000000 		.4byte	0
 4097              	.LLST6:
 4098 00ff 06000000 		.4byte	.LVL2
 4099 0103 0A000000 		.4byte	.LVL3
 4100 0107 0600     		.2byte	0x6
 4101 0109 03       		.byte	0x3
 4102 010a 00000000 		.4byte	cyBle_discoveryData
 4103 010e 9F       		.byte	0x9f
 4104 010f 12000000 		.4byte	.LVL4
 4105 0113 1A000000 		.4byte	.LVL6
 4106 0117 0600     		.2byte	0x6
 4107 0119 03       		.byte	0x3
 4108 011a 00000000 		.4byte	cyBle_scanRspData
 4109 011e 9F       		.byte	0x9f
 4110 011f 1A000000 		.4byte	.LVL6
 4111 0123 6E000000 		.4byte	.LVL24
 4112 0127 0100     		.2byte	0x1
 4113 0129 54       		.byte	0x54
 4114 012a 00000000 		.4byte	0
 4115 012e 00000000 		.4byte	0
 4116              	.LLST7:
 4117 0132 0A000000 		.4byte	.LVL3
 4118 0136 12000000 		.4byte	.LVL4
 4119 013a 0100     		.2byte	0x1
 4120 013c 56       		.byte	0x56
 4121 013d 18000000 		.4byte	.LVL5
 4122 0141 6E000000 		.4byte	.LVL25
 4123 0145 0100     		.2byte	0x1
 4124 0147 56       		.byte	0x56
 4125 0148 00000000 		.4byte	0
 4126 014c 00000000 		.4byte	0
 4127              	.LLST8:
 4128 0150 00000000 		.4byte	.LVL28
 4129 0154 08000000 		.4byte	.LVL30
 4130 0158 0100     		.2byte	0x1
 4131 015a 50       		.byte	0x50
 4132 015b 08000000 		.4byte	.LVL30
 4133 015f 86000000 		.4byte	.LVL40
 4134 0163 0100     		.2byte	0x1
 4135 0165 54       		.byte	0x54
 4136 0166 86000000 		.4byte	.LVL40
 4137 016a AC000000 		.4byte	.LFE4
 4138 016e 0400     		.2byte	0x4
 4139 0170 F3       		.byte	0xf3
 4140 0171 01       		.uleb128 0x1
 4141 0172 50       		.byte	0x50
 4142 0173 9F       		.byte	0x9f
 4143 0174 00000000 		.4byte	0
 4144 0178 00000000 		.4byte	0
 4145              	.LLST9:
 4146 017c 06000000 		.4byte	.LVL29
 4147 0180 4E000000 		.4byte	.LVL33
 4148 0184 0200     		.2byte	0x2
 4149 0186 30       		.byte	0x30
ARM GAS  C:\Users\310295~1\AppData\Local\Temp\ccZIm937.s 			page 101


 4150 0187 9F       		.byte	0x9f
 4151 0188 4E000000 		.4byte	.LVL33
 4152 018c 60000000 		.4byte	.LVL34
 4153 0190 0100     		.2byte	0x1
 4154 0192 50       		.byte	0x50
 4155 0193 6C000000 		.4byte	.LVL35
 4156 0197 78000000 		.4byte	.LVL36
 4157 019b 0100     		.2byte	0x1
 4158 019d 50       		.byte	0x50
 4159 019e 80000000 		.4byte	.LVL37
 4160 01a2 82000000 		.4byte	.LVL38
 4161 01a6 0100     		.2byte	0x1
 4162 01a8 50       		.byte	0x50
 4163 01a9 82000000 		.4byte	.LVL38
 4164 01ad 84000000 		.4byte	.LVL39
 4165 01b1 0200     		.2byte	0x2
 4166 01b3 30       		.byte	0x30
 4167 01b4 9F       		.byte	0x9f
 4168 01b5 84000000 		.4byte	.LVL39
 4169 01b9 AC000000 		.4byte	.LFE4
 4170 01bd 0100     		.2byte	0x1
 4171 01bf 50       		.byte	0x50
 4172 01c0 00000000 		.4byte	0
 4173 01c4 00000000 		.4byte	0
 4174              	.LLST10:
 4175 01c8 00000000 		.4byte	.LVL42
 4176 01cc 11000000 		.4byte	.LVL44-1
 4177 01d0 0100     		.2byte	0x1
 4178 01d2 50       		.byte	0x50
 4179 01d3 11000000 		.4byte	.LVL44-1
 4180 01d7 26000000 		.4byte	.LVL45
 4181 01db 0400     		.2byte	0x4
 4182 01dd F3       		.byte	0xf3
 4183 01de 01       		.uleb128 0x1
 4184 01df 50       		.byte	0x50
 4185 01e0 9F       		.byte	0x9f
 4186 01e1 26000000 		.4byte	.LVL45
 4187 01e5 28000000 		.4byte	.LVL46
 4188 01e9 0100     		.2byte	0x1
 4189 01eb 50       		.byte	0x50
 4190 01ec 28000000 		.4byte	.LVL46
 4191 01f0 EC000000 		.4byte	.LFE6
 4192 01f4 0400     		.2byte	0x4
 4193 01f6 F3       		.byte	0xf3
 4194 01f7 01       		.uleb128 0x1
 4195 01f8 50       		.byte	0x50
 4196 01f9 9F       		.byte	0x9f
 4197 01fa 00000000 		.4byte	0
 4198 01fe 00000000 		.4byte	0
 4199              	.LLST11:
 4200 0202 06000000 		.4byte	.LVL43
 4201 0206 12000000 		.4byte	.LVL44
 4202 020a 0200     		.2byte	0x2
 4203 020c 30       		.byte	0x30
 4204 020d 9F       		.byte	0x9f
 4205 020e 12000000 		.4byte	.LVL44
 4206 0212 26000000 		.4byte	.LVL45
ARM GAS  C:\Users\310295~1\AppData\Local\Temp\ccZIm937.s 			page 102


 4207 0216 0100     		.2byte	0x1
 4208 0218 50       		.byte	0x50
 4209 0219 26000000 		.4byte	.LVL45
 4210 021d 2A000000 		.4byte	.LVL47
 4211 0221 0200     		.2byte	0x2
 4212 0223 30       		.byte	0x30
 4213 0224 9F       		.byte	0x9f
 4214 0225 2A000000 		.4byte	.LVL47
 4215 0229 50000000 		.4byte	.LVL49
 4216 022d 0100     		.2byte	0x1
 4217 022f 50       		.byte	0x50
 4218 0230 58000000 		.4byte	.LVL50
 4219 0234 8A000000 		.4byte	.LVL52
 4220 0238 0100     		.2byte	0x1
 4221 023a 50       		.byte	0x50
 4222 023b 94000000 		.4byte	.LVL53
 4223 023f B8000000 		.4byte	.LVL54
 4224 0243 0100     		.2byte	0x1
 4225 0245 50       		.byte	0x50
 4226 0246 C0000000 		.4byte	.LVL55
 4227 024a EC000000 		.4byte	.LFE6
 4228 024e 0100     		.2byte	0x1
 4229 0250 50       		.byte	0x50
 4230 0251 00000000 		.4byte	0
 4231 0255 00000000 		.4byte	0
 4232              	.LLST12:
 4233 0259 00000000 		.4byte	.LVL57
 4234 025d 25000000 		.4byte	.LVL59-1
 4235 0261 0100     		.2byte	0x1
 4236 0263 50       		.byte	0x50
 4237 0264 25000000 		.4byte	.LVL59-1
 4238 0268 60000000 		.4byte	.LVL64
 4239 026c 0100     		.2byte	0x1
 4240 026e 54       		.byte	0x54
 4241 026f 60000000 		.4byte	.LVL64
 4242 0273 62000000 		.4byte	.LVL65
 4243 0277 0100     		.2byte	0x1
 4244 0279 50       		.byte	0x50
 4245 027a 62000000 		.4byte	.LVL65
 4246 027e 70000000 		.4byte	.LFE7
 4247 0282 0400     		.2byte	0x4
 4248 0284 F3       		.byte	0xf3
 4249 0285 01       		.uleb128 0x1
 4250 0286 50       		.byte	0x50
 4251 0287 9F       		.byte	0x9f
 4252 0288 00000000 		.4byte	0
 4253 028c 00000000 		.4byte	0
 4254              	.LLST13:
 4255 0290 04000000 		.4byte	.LVL58
 4256 0294 3E000000 		.4byte	.LVL60
 4257 0298 0200     		.2byte	0x2
 4258 029a 30       		.byte	0x30
 4259 029b 9F       		.byte	0x9f
 4260 029c 3E000000 		.4byte	.LVL60
 4261 02a0 5A000000 		.4byte	.LVL62
 4262 02a4 0100     		.2byte	0x1
 4263 02a6 50       		.byte	0x50
ARM GAS  C:\Users\310295~1\AppData\Local\Temp\ccZIm937.s 			page 103


 4264 02a7 5E000000 		.4byte	.LVL63
 4265 02ab 60000000 		.4byte	.LVL64
 4266 02af 0100     		.2byte	0x1
 4267 02b1 50       		.byte	0x50
 4268 02b2 60000000 		.4byte	.LVL64
 4269 02b6 62000000 		.4byte	.LVL65
 4270 02ba 0200     		.2byte	0x2
 4271 02bc 30       		.byte	0x30
 4272 02bd 9F       		.byte	0x9f
 4273 02be 62000000 		.4byte	.LVL65
 4274 02c2 70000000 		.4byte	.LFE7
 4275 02c6 0100     		.2byte	0x1
 4276 02c8 50       		.byte	0x50
 4277 02c9 00000000 		.4byte	0
 4278 02cd 00000000 		.4byte	0
 4279              	.LLST14:
 4280 02d1 00000000 		.4byte	.LVL66
 4281 02d5 58000000 		.4byte	.LVL67
 4282 02d9 0100     		.2byte	0x1
 4283 02db 50       		.byte	0x50
 4284 02dc 58000000 		.4byte	.LVL67
 4285 02e0 5D000000 		.4byte	.LVL68-1
 4286 02e4 0200     		.2byte	0x2
 4287 02e6 73       		.byte	0x73
 4288 02e7 00       		.sleb128 0
 4289 02e8 5D000000 		.4byte	.LVL68-1
 4290 02ec 6E000000 		.4byte	.LVL69
 4291 02f0 0400     		.2byte	0x4
 4292 02f2 F3       		.byte	0xf3
 4293 02f3 01       		.uleb128 0x1
 4294 02f4 50       		.byte	0x50
 4295 02f5 9F       		.byte	0x9f
 4296 02f6 6E000000 		.4byte	.LVL69
 4297 02fa 70000000 		.4byte	.LVL70
 4298 02fe 0100     		.2byte	0x1
 4299 0300 50       		.byte	0x50
 4300 0301 70000000 		.4byte	.LVL70
 4301 0305 72000000 		.4byte	.LVL71
 4302 0309 0400     		.2byte	0x4
 4303 030b F3       		.byte	0xf3
 4304 030c 01       		.uleb128 0x1
 4305 030d 50       		.byte	0x50
 4306 030e 9F       		.byte	0x9f
 4307 030f 72000000 		.4byte	.LVL71
 4308 0313 74000000 		.4byte	.LVL72
 4309 0317 0100     		.2byte	0x1
 4310 0319 50       		.byte	0x50
 4311 031a 74000000 		.4byte	.LVL72
 4312 031e 78000000 		.4byte	.LVL73
 4313 0322 0400     		.2byte	0x4
 4314 0324 F3       		.byte	0xf3
 4315 0325 01       		.uleb128 0x1
 4316 0326 50       		.byte	0x50
 4317 0327 9F       		.byte	0x9f
 4318 0328 78000000 		.4byte	.LVL73
 4319 032c 7A000000 		.4byte	.LVL74
 4320 0330 0100     		.2byte	0x1
ARM GAS  C:\Users\310295~1\AppData\Local\Temp\ccZIm937.s 			page 104


 4321 0332 50       		.byte	0x50
 4322 0333 7A000000 		.4byte	.LVL74
 4323 0337 90000000 		.4byte	.LFE8
 4324 033b 0400     		.2byte	0x4
 4325 033d F3       		.byte	0xf3
 4326 033e 01       		.uleb128 0x1
 4327 033f 50       		.byte	0x50
 4328 0340 9F       		.byte	0x9f
 4329 0341 00000000 		.4byte	0
 4330 0345 00000000 		.4byte	0
 4331              	.LLST15:
 4332 0349 5E000000 		.4byte	.LVL68
 4333 034d 6E000000 		.4byte	.LVL69
 4334 0351 0100     		.2byte	0x1
 4335 0353 50       		.byte	0x50
 4336 0354 7C000000 		.4byte	.LVL75
 4337 0358 90000000 		.4byte	.LFE8
 4338 035c 0100     		.2byte	0x1
 4339 035e 50       		.byte	0x50
 4340 035f 00000000 		.4byte	0
 4341 0363 00000000 		.4byte	0
 4342              	.LLST16:
 4343 0367 00000000 		.4byte	.LVL78
 4344 036b 35000000 		.4byte	.LVL88-1
 4345 036f 0100     		.2byte	0x1
 4346 0371 50       		.byte	0x50
 4347 0372 35000000 		.4byte	.LVL88-1
 4348 0376 42000000 		.4byte	.LVL90
 4349 037a 0100     		.2byte	0x1
 4350 037c 54       		.byte	0x54
 4351 037d 42000000 		.4byte	.LVL90
 4352 0381 44000000 		.4byte	.LVL91
 4353 0385 0100     		.2byte	0x1
 4354 0387 50       		.byte	0x50
 4355 0388 44000000 		.4byte	.LVL91
 4356 038c 4C000000 		.4byte	.LFE12
 4357 0390 0400     		.2byte	0x4
 4358 0392 F3       		.byte	0xf3
 4359 0393 01       		.uleb128 0x1
 4360 0394 50       		.byte	0x50
 4361 0395 9F       		.byte	0x9f
 4362 0396 00000000 		.4byte	0
 4363 039a 00000000 		.4byte	0
 4364              	.LLST17:
 4365 039e 02000000 		.4byte	.LVL79
 4366 03a2 44000000 		.4byte	.LVL91
 4367 03a6 0200     		.2byte	0x2
 4368 03a8 30       		.byte	0x30
 4369 03a9 9F       		.byte	0x9f
 4370 03aa 44000000 		.4byte	.LVL91
 4371 03ae 4C000000 		.4byte	.LFE12
 4372 03b2 0100     		.2byte	0x1
 4373 03b4 50       		.byte	0x50
 4374 03b5 00000000 		.4byte	0
 4375 03b9 00000000 		.4byte	0
 4376              	.LLST18:
 4377 03bd 10000000 		.4byte	.LVL81
ARM GAS  C:\Users\310295~1\AppData\Local\Temp\ccZIm937.s 			page 105


 4378 03c1 14000000 		.4byte	.LVL82
 4379 03c5 0200     		.2byte	0x2
 4380 03c7 30       		.byte	0x30
 4381 03c8 9F       		.byte	0x9f
 4382 03c9 14000000 		.4byte	.LVL82
 4383 03cd 18000000 		.4byte	.LVL83
 4384 03d1 0100     		.2byte	0x1
 4385 03d3 53       		.byte	0x53
 4386 03d4 1A000000 		.4byte	.LVL84
 4387 03d8 2A000000 		.4byte	.LVL85
 4388 03dc 0100     		.2byte	0x1
 4389 03de 53       		.byte	0x53
 4390 03df 00000000 		.4byte	0
 4391 03e3 00000000 		.4byte	0
 4392              	.LLST19:
 4393 03e7 0C000000 		.4byte	.LVL80
 4394 03eb 30000000 		.4byte	.LVL86
 4395 03ef 0100     		.2byte	0x1
 4396 03f1 54       		.byte	0x54
 4397 03f2 00000000 		.4byte	0
 4398 03f6 00000000 		.4byte	0
 4399              	.LLST20:
 4400 03fa 10000000 		.4byte	.LVL81
 4401 03fe 32000000 		.4byte	.LVL87
 4402 0402 0100     		.2byte	0x1
 4403 0404 51       		.byte	0x51
 4404 0405 00000000 		.4byte	0
 4405 0409 00000000 		.4byte	0
 4406              	.LLST21:
 4407 040d 00000000 		.4byte	.LVL92
 4408 0411 2A000000 		.4byte	.LVL100
 4409 0415 0100     		.2byte	0x1
 4410 0417 50       		.byte	0x50
 4411 0418 2A000000 		.4byte	.LVL100
 4412 041c 2C000000 		.4byte	.LVL101
 4413 0420 0400     		.2byte	0x4
 4414 0422 F3       		.byte	0xf3
 4415 0423 01       		.uleb128 0x1
 4416 0424 50       		.byte	0x50
 4417 0425 9F       		.byte	0x9f
 4418 0426 2C000000 		.4byte	.LVL101
 4419 042a 2E000000 		.4byte	.LVL102
 4420 042e 0100     		.2byte	0x1
 4421 0430 50       		.byte	0x50
 4422 0431 2E000000 		.4byte	.LVL102
 4423 0435 34000000 		.4byte	.LFE13
 4424 0439 0400     		.2byte	0x4
 4425 043b F3       		.byte	0xf3
 4426 043c 01       		.uleb128 0x1
 4427 043d 50       		.byte	0x50
 4428 043e 9F       		.byte	0x9f
 4429 043f 00000000 		.4byte	0
 4430 0443 00000000 		.4byte	0
 4431              	.LLST22:
 4432 0447 02000000 		.4byte	.LVL93
 4433 044b 2E000000 		.4byte	.LVL102
 4434 044f 0200     		.2byte	0x2
ARM GAS  C:\Users\310295~1\AppData\Local\Temp\ccZIm937.s 			page 106


 4435 0451 30       		.byte	0x30
 4436 0452 9F       		.byte	0x9f
 4437 0453 2E000000 		.4byte	.LVL102
 4438 0457 34000000 		.4byte	.LFE13
 4439 045b 0100     		.2byte	0x1
 4440 045d 50       		.byte	0x50
 4441 045e 00000000 		.4byte	0
 4442 0462 00000000 		.4byte	0
 4443              	.LLST23:
 4444 0466 0E000000 		.4byte	.LVL95
 4445 046a 2C000000 		.4byte	.LVL101
 4446 046e 0100     		.2byte	0x1
 4447 0470 51       		.byte	0x51
 4448 0471 00000000 		.4byte	0
 4449 0475 00000000 		.4byte	0
 4450              	.LLST24:
 4451 0479 0E000000 		.4byte	.LVL95
 4452 047d 12000000 		.4byte	.LVL96
 4453 0481 0200     		.2byte	0x2
 4454 0483 30       		.byte	0x30
 4455 0484 9F       		.byte	0x9f
 4456 0485 12000000 		.4byte	.LVL96
 4457 0489 16000000 		.4byte	.LVL97
 4458 048d 0100     		.2byte	0x1
 4459 048f 53       		.byte	0x53
 4460 0490 18000000 		.4byte	.LVL98
 4461 0494 24000000 		.4byte	.LVL99
 4462 0498 0100     		.2byte	0x1
 4463 049a 53       		.byte	0x53
 4464 049b 00000000 		.4byte	0
 4465 049f 00000000 		.4byte	0
 4466              	.LLST25:
 4467 04a3 0C000000 		.4byte	.LVL94
 4468 04a7 2C000000 		.4byte	.LVL101
 4469 04ab 0100     		.2byte	0x1
 4470 04ad 54       		.byte	0x54
 4471 04ae 00000000 		.4byte	0
 4472 04b2 00000000 		.4byte	0
 4473              	.LLST26:
 4474 04b6 00000000 		.4byte	.LVL103
 4475 04ba 04000000 		.4byte	.LVL104
 4476 04be 0100     		.2byte	0x1
 4477 04c0 50       		.byte	0x50
 4478 04c1 04000000 		.4byte	.LVL104
 4479 04c5 0A000000 		.4byte	.LFE14
 4480 04c9 0400     		.2byte	0x4
 4481 04cb F3       		.byte	0xf3
 4482 04cc 01       		.uleb128 0x1
 4483 04cd 50       		.byte	0x50
 4484 04ce 9F       		.byte	0x9f
 4485 04cf 00000000 		.4byte	0
 4486 04d3 00000000 		.4byte	0
 4487              	.LLST27:
 4488 04d7 00000000 		.4byte	.LVL105
 4489 04db 04000000 		.4byte	.LVL106
 4490 04df 0100     		.2byte	0x1
 4491 04e1 51       		.byte	0x51
ARM GAS  C:\Users\310295~1\AppData\Local\Temp\ccZIm937.s 			page 107


 4492 04e2 04000000 		.4byte	.LVL106
 4493 04e6 08000000 		.4byte	.LFE15
 4494 04ea 0400     		.2byte	0x4
 4495 04ec F3       		.byte	0xf3
 4496 04ed 01       		.uleb128 0x1
 4497 04ee 51       		.byte	0x51
 4498 04ef 9F       		.byte	0x9f
 4499 04f0 00000000 		.4byte	0
 4500 04f4 00000000 		.4byte	0
 4501              		.section	.debug_aranges,"",%progbits
 4502 0000 84000000 		.4byte	0x84
 4503 0004 0200     		.2byte	0x2
 4504 0006 00000000 		.4byte	.Ldebug_info0
 4505 000a 04       		.byte	0x4
 4506 000b 00       		.byte	0
 4507 000c 0000     		.2byte	0
 4508 000e 0000     		.2byte	0
 4509 0010 00000000 		.4byte	.LFB11
 4510 0014 74000000 		.4byte	.LFE11-.LFB11
 4511 0018 00000000 		.4byte	.LFB3
 4512 001c 08000000 		.4byte	.LFE3-.LFB3
 4513 0020 00000000 		.4byte	.LFB2
 4514 0024 34000000 		.4byte	.LFE2-.LFB2
 4515 0028 00000000 		.4byte	.LFB4
 4516 002c AC000000 		.4byte	.LFE4-.LFB4
 4517 0030 00000000 		.4byte	.LFB5
 4518 0034 14000000 		.4byte	.LFE5-.LFB5
 4519 0038 00000000 		.4byte	.LFB6
 4520 003c EC000000 		.4byte	.LFE6-.LFB6
 4521 0040 00000000 		.4byte	.LFB7
 4522 0044 70000000 		.4byte	.LFE7-.LFB7
 4523 0048 00000000 		.4byte	.LFB8
 4524 004c 90000000 		.4byte	.LFE8-.LFB8
 4525 0050 00000000 		.4byte	.LFB9
 4526 0054 18000000 		.4byte	.LFE9-.LFB9
 4527 0058 00000000 		.4byte	.LFB10
 4528 005c 02000000 		.4byte	.LFE10-.LFB10
 4529 0060 00000000 		.4byte	.LFB12
 4530 0064 4C000000 		.4byte	.LFE12-.LFB12
 4531 0068 00000000 		.4byte	.LFB13
 4532 006c 34000000 		.4byte	.LFE13-.LFB13
 4533 0070 00000000 		.4byte	.LFB14
 4534 0074 0A000000 		.4byte	.LFE14-.LFB14
 4535 0078 00000000 		.4byte	.LFB15
 4536 007c 08000000 		.4byte	.LFE15-.LFB15
 4537 0080 00000000 		.4byte	0
 4538 0084 00000000 		.4byte	0
 4539              		.section	.debug_ranges,"",%progbits
 4540              	.Ldebug_ranges0:
 4541 0000 00000000 		.4byte	.LFB11
 4542 0004 74000000 		.4byte	.LFE11
 4543 0008 00000000 		.4byte	.LFB3
 4544 000c 08000000 		.4byte	.LFE3
 4545 0010 00000000 		.4byte	.LFB2
 4546 0014 34000000 		.4byte	.LFE2
 4547 0018 00000000 		.4byte	.LFB4
 4548 001c AC000000 		.4byte	.LFE4
ARM GAS  C:\Users\310295~1\AppData\Local\Temp\ccZIm937.s 			page 108


 4549 0020 00000000 		.4byte	.LFB5
 4550 0024 14000000 		.4byte	.LFE5
 4551 0028 00000000 		.4byte	.LFB6
 4552 002c EC000000 		.4byte	.LFE6
 4553 0030 00000000 		.4byte	.LFB7
 4554 0034 70000000 		.4byte	.LFE7
 4555 0038 00000000 		.4byte	.LFB8
 4556 003c 90000000 		.4byte	.LFE8
 4557 0040 00000000 		.4byte	.LFB9
 4558 0044 18000000 		.4byte	.LFE9
 4559 0048 00000000 		.4byte	.LFB10
 4560 004c 02000000 		.4byte	.LFE10
 4561 0050 00000000 		.4byte	.LFB12
 4562 0054 4C000000 		.4byte	.LFE12
 4563 0058 00000000 		.4byte	.LFB13
 4564 005c 34000000 		.4byte	.LFE13
 4565 0060 00000000 		.4byte	.LFB14
 4566 0064 0A000000 		.4byte	.LFE14
 4567 0068 00000000 		.4byte	.LFB15
 4568 006c 08000000 		.4byte	.LFE15
 4569 0070 00000000 		.4byte	0
 4570 0074 00000000 		.4byte	0
 4571              		.section	.debug_line,"",%progbits
 4572              	.Ldebug_line0:
 4573 0000 23040000 		.section	.debug_str,"MS",%progbits,1
 4573      02001B02 
 4573      00000201 
 4573      FB0E0D00 
 4573      01010101 
 4574              	.LASF235:
 4575 0000 6379426C 		.ascii	"cyBle_peerBonding\000"
 4575      655F7065 
 4575      6572426F 
 4575      6E64696E 
 4575      6700
 4576              	.LASF152:
 4577 0012 7363616E 		.ascii	"scanRspData\000"
 4577      52737044 
 4577      61746100 
 4578              	.LASF16:
 4579 001e 73697A65 		.ascii	"size_t\000"
 4579      5F7400
 4580              	.LASF17:
 4581 0025 73697A65 		.ascii	"sizetype\000"
 4581      74797065 
 4581      00
 4582              	.LASF39:
 4583 002e 4359424C 		.ascii	"CYBLE_EVT_GAP_NUMERIC_COMPARISON_REQUEST\000"
 4583      455F4556 
 4583      545F4741 
 4583      505F4E55 
 4583      4D455249 
 4584              	.LASF199:
 4585 0057 61706952 		.ascii	"apiResult\000"
 4585      6573756C 
 4585      7400
 4586              	.LASF33:
ARM GAS  C:\Users\310295~1\AppData\Local\Temp\ccZIm937.s 			page 109


 4587 0061 4359424C 		.ascii	"CYBLE_EVT_GAP_DEVICE_CONNECTED\000"
 4587      455F4556 
 4587      545F4741 
 4587      505F4445 
 4587      56494345 
 4588              	.LASF47:
 4589 0080 4359424C 		.ascii	"CYBLE_EVT_GATT_CONNECT_IND\000"
 4589      455F4556 
 4589      545F4741 
 4589      54545F43 
 4589      4F4E4E45 
 4590              	.LASF258:
 4591 009b 4379426C 		.ascii	"CyBle_ChangeAdLocalName\000"
 4591      655F4368 
 4591      616E6765 
 4591      41644C6F 
 4591      63616C4E 
 4592              	.LASF11:
 4593 00b3 75696E74 		.ascii	"uint32\000"
 4593      333200
 4594              	.LASF194:
 4595 00ba 64657374 		.ascii	"destBuffer\000"
 4595      42756666 
 4595      657200
 4596              	.LASF155:
 4597 00c5 64697363 		.ascii	"discMode\000"
 4597      4D6F6465 
 4597      00
 4598              	.LASF101:
 4599 00ce 4359424C 		.ascii	"CYBLE_ERROR_L2CAP_CONNECTION_ENTITY_NOT_FOUND\000"
 4599      455F4552 
 4599      524F525F 
 4599      4C324341 
 4599      505F434F 
 4600              	.LASF107:
 4601 00fc 4359424C 		.ascii	"CYBLE_ERROR_MIC_AUTH_FAILED\000"
 4601      455F4552 
 4601      524F525F 
 4601      4D49435F 
 4601      41555448 
 4602              	.LASF251:
 4603 0118 4379426C 		.ascii	"CyBle_GapGetPeerBdHandle\000"
 4603      655F4761 
 4603      70476574 
 4603      50656572 
 4603      42644861 
 4604              	.LASF14:
 4605 0131 63686172 		.ascii	"char8\000"
 4605      3800
 4606              	.LASF79:
 4607 0137 4359424C 		.ascii	"CYBLE_EVT_L2CAP_CBFC_RX_CREDIT_IND\000"
 4607      455F4556 
 4607      545F4C32 
 4607      4341505F 
 4607      43424643 
 4608              	.LASF211:
 4609 015a 62446576 		.ascii	"bDevHandle\000"
ARM GAS  C:\Users\310295~1\AppData\Local\Temp\ccZIm937.s 			page 110


 4609      48616E64 
 4609      6C6500
 4610              	.LASF173:
 4611 0165 7065726D 		.ascii	"permission\000"
 4611      69737369 
 4611      6F6E00
 4612              	.LASF119:
 4613 0170 74797065 		.ascii	"type\000"
 4613      00
 4614              	.LASF177:
 4615 0175 4359424C 		.ascii	"CYBLE_CALLBACK_T\000"
 4615      455F4341 
 4615      4C4C4241 
 4615      434B5F54 
 4615      00
 4616              	.LASF64:
 4617 0186 4359424C 		.ascii	"CYBLE_EVT_GATTC_HANDLE_VALUE_NTF\000"
 4617      455F4556 
 4617      545F4741 
 4617      5454435F 
 4617      48414E44 
 4618              	.LASF27:
 4619 01a7 4359424C 		.ascii	"CYBLE_EVT_GAP_AUTH_REQ\000"
 4619      455F4556 
 4619      545F4741 
 4619      505F4155 
 4619      54485F52 
 4620              	.LASF161:
 4621 01be 4359424C 		.ascii	"CYBLE_CONN_HANDLE_T\000"
 4621      455F434F 
 4621      4E4E5F48 
 4621      414E444C 
 4621      455F5400 
 4622              	.LASF198:
 4623 01d2 63616C6C 		.ascii	"callbackFunc\000"
 4623      6261636B 
 4623      46756E63 
 4623      00
 4624              	.LASF96:
 4625 01df 4359424C 		.ascii	"CYBLE_ERROR_BT_ON_NOT_COMPLETED\000"
 4625      455F4552 
 4625      524F525F 
 4625      42545F4F 
 4625      4E5F4E4F 
 4626              	.LASF186:
 4627 01ff 4359424C 		.ascii	"CYBLE_STATE_ADVERTISING\000"
 4627      455F5354 
 4627      4154455F 
 4627      41445645 
 4627      52544953 
 4628              	.LASF41:
 4629 0217 4359424C 		.ascii	"CYBLE_EVT_GAP_OOB_GENERATED_NOTIFICATION\000"
 4629      455F4556 
 4629      545F4741 
 4629      505F4F4F 
 4629      425F4745 
 4630              	.LASF159:
ARM GAS  C:\Users\310295~1\AppData\Local\Temp\ccZIm937.s 			page 111


 4631 0240 62644861 		.ascii	"bdHandle\000"
 4631      6E646C65 
 4631      00
 4632              	.LASF127:
 4633 0249 4359424C 		.ascii	"CYBLE_DLE_CONFIG_PARAM_T\000"
 4633      455F444C 
 4633      455F434F 
 4633      4E464947 
 4633      5F504152 
 4634              	.LASF60:
 4635 0262 4359424C 		.ascii	"CYBLE_EVT_GATTS_WRITE_CMD_REQ\000"
 4635      455F4556 
 4635      545F4741 
 4635      5454535F 
 4635      57524954 
 4636              	.LASF4:
 4637 0280 6C6F6E67 		.ascii	"long int\000"
 4637      20696E74 
 4637      00
 4638              	.LASF196:
 4639 0289 4379426C 		.ascii	"CyBle_ServiceInit\000"
 4639      655F5365 
 4639      72766963 
 4639      65496E69 
 4639      7400
 4640              	.LASF214:
 4641 029b 61647665 		.ascii	"advertisingIntervalType\000"
 4641      72746973 
 4641      696E6749 
 4641      6E746572 
 4641      76616C54 
 4642              	.LASF123:
 4643 02b3 4359424C 		.ascii	"CYBLE_STK_APP_DATA_BUFF_T\000"
 4643      455F5354 
 4643      4B5F4150 
 4643      505F4441 
 4643      54415F42 
 4644              	.LASF130:
 4645 02cd 646C6543 		.ascii	"dleConfig\000"
 4645      6F6E6669 
 4645      6700
 4646              	.LASF249:
 4647 02d7 4379426C 		.ascii	"CyBle_StoreStackData\000"
 4647      655F5374 
 4647      6F726553 
 4647      7461636B 
 4647      44617461 
 4648              	.LASF203:
 4649 02ec 73746163 		.ascii	"stackConfig\000"
 4649      6B436F6E 
 4649      66696700 
 4650              	.LASF20:
 4651 02f8 4359424C 		.ascii	"CYBLE_EVT_STACK_ON\000"
 4651      455F4556 
 4651      545F5354 
 4651      41434B5F 
 4651      4F4E00
ARM GAS  C:\Users\310295~1\AppData\Local\Temp\ccZIm937.s 			page 112


 4652              	.LASF103:
 4653 030b 4359424C 		.ascii	"CYBLE_ERROR_L2CAP_PSM_NOT_IN_RANGE\000"
 4653      455F4552 
 4653      524F525F 
 4653      4C324341 
 4653      505F5053 
 4654              	.LASF230:
 4655 032e 6379426C 		.ascii	"cyBle_discoveryParam\000"
 4655      655F6469 
 4655      73636F76 
 4655      65727950 
 4655      6172616D 
 4656              	.LASF248:
 4657 0343 4379426C 		.ascii	"CyBle_StoreAppData\000"
 4657      655F5374 
 4657      6F726541 
 4657      70704461 
 4657      746100
 4658              	.LASF228:
 4659 0356 6379426C 		.ascii	"cyBle_deviceAddress\000"
 4659      655F6465 
 4659      76696365 
 4659      41646472 
 4659      65737300 
 4660              	.LASF115:
 4661 036a 4359424C 		.ascii	"CYBLE_ERROR_CHAR_IS_NOT_DISCOVERED\000"
 4661      455F4552 
 4661      524F525F 
 4661      43484152 
 4661      5F49535F 
 4662              	.LASF172:
 4663 038d 61747454 		.ascii	"attType\000"
 4663      79706500 
 4664              	.LASF137:
 4665 0395 4359424C 		.ascii	"CYBLE_GAPP_NON_CONNECTABLE_UNDIRECTED_ADV\000"
 4665      455F4741 
 4665      50505F4E 
 4665      4F4E5F43 
 4665      4F4E4E45 
 4666              	.LASF73:
 4667 03bf 4359424C 		.ascii	"CYBLE_EVT_L2CAP_COMMAND_REJ\000"
 4667      455F4556 
 4667      545F4C32 
 4667      4341505F 
 4667      434F4D4D 
 4668              	.LASF104:
 4669 03db 4359424C 		.ascii	"CYBLE_ERROR_GATT_DB_INVALID_ATTR_HANDLE\000"
 4669      455F4552 
 4669      524F525F 
 4669      47415454 
 4669      5F44425F 
 4670              	.LASF0:
 4671 0403 7369676E 		.ascii	"signed char\000"
 4671      65642063 
 4671      68617200 
 4672              	.LASF210:
 4673 040f 4379426C 		.ascii	"CyBle_GapRemoveBondedDevice\000"
ARM GAS  C:\Users\310295~1\AppData\Local\Temp\ccZIm937.s 			page 113


 4673      655F4761 
 4673      7052656D 
 4673      6F766542 
 4673      6F6E6465 
 4674              	.LASF122:
 4675 042b 62756666 		.ascii	"bufferUnits\000"
 4675      6572556E 
 4675      69747300 
 4676              	.LASF22:
 4677 0437 4359424C 		.ascii	"CYBLE_EVT_HARDWARE_ERROR\000"
 4677      455F4556 
 4677      545F4841 
 4677      52445741 
 4677      52455F45 
 4678              	.LASF85:
 4679 0450 4359424C 		.ascii	"CYBLE_ERROR_OK\000"
 4679      455F4552 
 4679      524F525F 
 4679      4F4B00
 4680              	.LASF51:
 4681 045f 4359424C 		.ascii	"CYBLE_EVT_GATTC_READ_BY_GROUP_TYPE_RSP\000"
 4681      455F4556 
 4681      545F4741 
 4681      5454435F 
 4681      52454144 
 4682              	.LASF183:
 4683 0486 4359424C 		.ascii	"CYBLE_STATE_STOPPED\000"
 4683      455F5354 
 4683      4154455F 
 4683      53544F50 
 4683      50454400 
 4684              	.LASF1:
 4685 049a 756E7369 		.ascii	"unsigned char\000"
 4685      676E6564 
 4685      20636861 
 4685      7200
 4686              	.LASF50:
 4687 04a8 4359424C 		.ascii	"CYBLE_EVT_GATTC_XCHNG_MTU_RSP\000"
 4687      455F4556 
 4687      545F4741 
 4687      5454435F 
 4687      5843484E 
 4688              	.LASF45:
 4689 04c6 4359424C 		.ascii	"CYBLE_EVT_GAP_SMP_NEGOTIATED_AUTH_INFO\000"
 4689      455F4556 
 4689      545F4741 
 4689      505F534D 
 4689      505F4E45 
 4690              	.LASF80:
 4691 04ed 4359424C 		.ascii	"CYBLE_EVT_L2CAP_CBFC_TX_CREDIT_IND\000"
 4691      455F4556 
 4691      545F4C32 
 4691      4341505F 
 4691      43424643 
 4692              	.LASF140:
 4693 0510 61647649 		.ascii	"advIntvMin\000"
 4693      6E74764D 
ARM GAS  C:\Users\310295~1\AppData\Local\Temp\ccZIm937.s 			page 114


 4693      696E00
 4694              	.LASF171:
 4695 051b 61747448 		.ascii	"attHandle\000"
 4695      616E646C 
 4695      6500
 4696              	.LASF213:
 4697 0525 4379426C 		.ascii	"CyBle_GappStartAdvertisement\000"
 4697      655F4761 
 4697      70705374 
 4697      61727441 
 4697      64766572 
 4698              	.LASF151:
 4699 0542 4359424C 		.ascii	"CYBLE_GAPP_DISC_DATA_T\000"
 4699      455F4741 
 4699      50505F44 
 4699      4953435F 
 4699      44415441 
 4700              	.LASF77:
 4701 0559 4359424C 		.ascii	"CYBLE_EVT_L2CAP_CBFC_DISCONN_CNF\000"
 4701      455F4556 
 4701      545F4C32 
 4701      4341505F 
 4701      43424643 
 4702              	.LASF54:
 4703 057a 4359424C 		.ascii	"CYBLE_EVT_GATTC_FIND_BY_TYPE_VALUE_RSP\000"
 4703      455F4556 
 4703      545F4741 
 4703      5454435F 
 4703      46494E44 
 4704              	.LASF42:
 4705 05a1 4359424C 		.ascii	"CYBLE_EVT_GAP_DATA_LENGTH_CHANGE\000"
 4705      455F4556 
 4705      545F4741 
 4705      505F4441 
 4705      54415F4C 
 4706              	.LASF15:
 4707 05c2 63686172 		.ascii	"char\000"
 4707      00
 4708              	.LASF244:
 4709 05c7 4379426C 		.ascii	"CyBle_StackInit\000"
 4709      655F5374 
 4709      61636B49 
 4709      6E697400 
 4710              	.LASF165:
 4711 05d7 6D617841 		.ascii	"maxAttrLength\000"
 4711      7474724C 
 4711      656E6774 
 4711      6800
 4712              	.LASF57:
 4713 05e5 4359424C 		.ascii	"CYBLE_EVT_GATTC_READ_MULTI_RSP\000"
 4713      455F4556 
 4713      545F4741 
 4713      5454435F 
 4713      52454144 
 4714              	.LASF19:
 4715 0604 4359424C 		.ascii	"CYBLE_EVT_HOST_INVALID\000"
 4715      455F4556 
ARM GAS  C:\Users\310295~1\AppData\Local\Temp\ccZIm937.s 			page 115


 4715      545F484F 
 4715      53545F49 
 4715      4E56414C 
 4716              	.LASF254:
 4717 061b 4379426C 		.ascii	"CyBle_GappExitDiscoveryMode\000"
 4717      655F4761 
 4717      70704578 
 4717      69744469 
 4717      73636F76 
 4718              	.LASF219:
 4719 0637 4379426C 		.ascii	"CyBle_GapGetLocalName\000"
 4719      655F4761 
 4719      70476574 
 4719      4C6F6361 
 4719      6C4E616D 
 4720              	.LASF44:
 4721 064d 4359424C 		.ascii	"CYBLE_EVT_GAPC_DIRECT_ADV_REPORT\000"
 4721      455F4556 
 4721      545F4741 
 4721      50435F44 
 4721      49524543 
 4722              	.LASF92:
 4723 066e 4359424C 		.ascii	"CYBLE_ERROR_NO_DEVICE_ENTITY\000"
 4723      455F4552 
 4723      524F525F 
 4723      4E4F5F44 
 4723      45564943 
 4724              	.LASF56:
 4725 068b 4359424C 		.ascii	"CYBLE_EVT_GATTC_READ_BLOB_RSP\000"
 4725      455F4556 
 4725      545F4741 
 4725      5454435F 
 4725      52454144 
 4726              	.LASF63:
 4727 06a9 4359424C 		.ascii	"CYBLE_EVT_GATTC_EXEC_WRITE_RSP\000"
 4727      455F4556 
 4727      545F4741 
 4727      5454435F 
 4727      45584543 
 4728              	.LASF197:
 4729 06c8 4379426C 		.ascii	"CyBle_Init\000"
 4729      655F496E 
 4729      697400
 4730              	.LASF68:
 4731 06d3 4359424C 		.ascii	"CYBLE_EVT_GATTC_STOP_CMD_COMPLETE\000"
 4731      455F4556 
 4731      545F4741 
 4731      5454435F 
 4731      53544F50 
 4732              	.LASF176:
 4733 06f5 4359424C 		.ascii	"CYBLE_GATTS_DB_T\000"
 4733      455F4741 
 4733      5454535F 
 4733      44425F54 
 4733      00
 4734              	.LASF223:
 4735 0706 6379426C 		.ascii	"cyBle_pendingFlashClearCccdHandle\000"
ARM GAS  C:\Users\310295~1\AppData\Local\Temp\ccZIm937.s 			page 116


 4735      655F7065 
 4735      6E64696E 
 4735      67466C61 
 4735      7368436C 
 4736              	.LASF215:
 4737 0728 4379426C 		.ascii	"CyBle_GappStopAdvertisement\000"
 4737      655F4761 
 4737      70705374 
 4737      6F704164 
 4737      76657274 
 4738              	.LASF247:
 4739 0744 4379426C 		.ascii	"CyBle_Shutdown\000"
 4739      655F5368 
 4739      7574646F 
 4739      776E00
 4740              	.LASF111:
 4741 0753 4359424C 		.ascii	"CYBLE_ERROR_CONTROLLER_BUSY\000"
 4741      455F4552 
 4741      524F525F 
 4741      434F4E54 
 4741      524F4C4C 
 4742              	.LASF86:
 4743 076f 4359424C 		.ascii	"CYBLE_ERROR_INVALID_PARAMETER\000"
 4743      455F4552 
 4743      524F525F 
 4743      494E5641 
 4743      4C49445F 
 4744              	.LASF200:
 4745 078d 6379426C 		.ascii	"cyBle_stackDataBuff\000"
 4745      655F7374 
 4745      61636B44 
 4745      61746142 
 4745      75666600 
 4746              	.LASF181:
 4747 07a1 626F756E 		.ascii	"boundedDevCount\000"
 4747      64656444 
 4747      6576436F 
 4747      756E7400 
 4748              	.LASF204:
 4749 07b1 66656174 		.ascii	"featureHeapReq\000"
 4749      75726548 
 4749      65617052 
 4749      657100
 4750              	.LASF138:
 4751 07c0 4359424C 		.ascii	"CYBLE_GAPP_CONNECTABLE_LOW_DC_DIRECTED_ADV\000"
 4751      455F4741 
 4751      50505F43 
 4751      4F4E4E45 
 4751      43544142 
 4752              	.LASF88:
 4753 07eb 4359424C 		.ascii	"CYBLE_ERROR_MEMORY_ALLOCATION_FAILED\000"
 4753      455F4552 
 4753      524F525F 
 4753      4D454D4F 
 4753      52595F41 
 4754              	.LASF229:
 4755 0810 6379426C 		.ascii	"cyBle_sflashDeviceAddress\000"
ARM GAS  C:\Users\310295~1\AppData\Local\Temp\ccZIm937.s 			page 117


 4755      655F7366 
 4755      6C617368 
 4755      44657669 
 4755      63654164 
 4756              	.LASF179:
 4757 082a 61747456 		.ascii	"attValuesCCCDFlashMemory\000"
 4757      616C7565 
 4757      73434343 
 4757      44466C61 
 4757      73684D65 
 4758              	.LASF112:
 4759 0843 4359424C 		.ascii	"CYBLE_ERROR_MAX\000"
 4759      455F4552 
 4759      524F525F 
 4759      4D415800 
 4760              	.LASF72:
 4761 0853 4359424C 		.ascii	"CYBLE_EVT_L2CAP_CONN_PARAM_UPDATE_RSP\000"
 4761      455F4556 
 4761      545F4C32 
 4761      4341505F 
 4761      434F4E4E 
 4762              	.LASF178:
 4763 0879 73746163 		.ascii	"stackFlashptr\000"
 4763      6B466C61 
 4763      73687074 
 4763      7200
 4764              	.LASF148:
 4765 0887 4359424C 		.ascii	"CYBLE_GAPP_DISC_PARAM_T\000"
 4765      455F4741 
 4765      50505F44 
 4765      4953435F 
 4765      50415241 
 4766              	.LASF195:
 4767 089f 6D61784C 		.ascii	"maxLength\000"
 4767      656E6774 
 4767      6800
 4768              	.LASF30:
 4769 08a9 4359424C 		.ascii	"CYBLE_EVT_GAP_AUTH_COMPLETE\000"
 4769      455F4556 
 4769      545F4741 
 4769      505F4155 
 4769      54485F43 
 4770              	.LASF147:
 4771 08c5 61647646 		.ascii	"advFilterPolicy\000"
 4771      696C7465 
 4771      72506F6C 
 4771      69637900 
 4772              	.LASF31:
 4773 08d5 4359424C 		.ascii	"CYBLE_EVT_GAP_AUTH_FAILED\000"
 4773      455F4556 
 4773      545F4741 
 4773      505F4155 
 4773      54485F46 
 4774              	.LASF121:
 4775 08ef 62756666 		.ascii	"bufferSize\000"
 4775      65725369 
 4775      7A6500
ARM GAS  C:\Users\310295~1\AppData\Local\Temp\ccZIm937.s 			page 118


 4776              	.LASF243:
 4777 08fa 4379426C 		.ascii	"CyBle_StackSetFeatureConfig\000"
 4777      655F5374 
 4777      61636B53 
 4777      65744665 
 4777      61747572 
 4778              	.LASF142:
 4779 0916 61647654 		.ascii	"advType\000"
 4779      79706500 
 4780              	.LASF89:
 4781 091e 4359424C 		.ascii	"CYBLE_ERROR_INSUFFICIENT_RESOURCES\000"
 4781      455F4552 
 4781      524F525F 
 4781      494E5355 
 4781      46464943 
 4782              	.LASF5:
 4783 0941 6C6F6E67 		.ascii	"long unsigned int\000"
 4783      20756E73 
 4783      69676E65 
 4783      6420696E 
 4783      7400
 4784              	.LASF109:
 4785 0953 4359424C 		.ascii	"CYBLE_ERROR_UNSUPPORTED_FEATURE_OR_PARAMETER_VALUE\000"
 4785      455F4552 
 4785      524F525F 
 4785      554E5355 
 4785      50504F52 
 4786              	.LASF182:
 4787 0986 43595F42 		.ascii	"CY_BLE_FLASH_STORAGE\000"
 4787      4C455F46 
 4787      4C415348 
 4787      5F53544F 
 4787      52414745 
 4788              	.LASF128:
 4789 099b 7265736F 		.ascii	"resolvingListSize\000"
 4789      6C76696E 
 4789      674C6973 
 4789      7453697A 
 4789      6500
 4790              	.LASF99:
 4791 09ad 4359424C 		.ascii	"CYBLE_ERROR_L2CAP_PSM_ALREADY_REGISTERED\000"
 4791      455F4552 
 4791      524F525F 
 4791      4C324341 
 4791      505F5053 
 4792              	.LASF255:
 4793 09d6 474E5520 		.ascii	"GNU C 4.9.3 20150303 (release) [ARM/embedded-4_9-br"
 4793      4320342E 
 4793      392E3320 
 4793      32303135 
 4793      30333033 
 4794 0a09 616E6368 		.ascii	"anch revision 221220] -mcpu=cortex-m0 -mthumb -g -O"
 4794      20726576 
 4794      6973696F 
 4794      6E203232 
 4794      31323230 
 4795 0a3c 67202D66 		.ascii	"g -ffunction-sections -ffat-lto-objects\000"
ARM GAS  C:\Users\310295~1\AppData\Local\Temp\ccZIm937.s 			page 119


 4795      66756E63 
 4795      74696F6E 
 4795      2D736563 
 4795      74696F6E 
 4796              	.LASF169:
 4797 0a64 61747456 		.ascii	"attValueUuid\000"
 4797      616C7565 
 4797      55756964 
 4797      00
 4798              	.LASF253:
 4799 0a71 4379426C 		.ascii	"CyBle_GappEnterDiscoveryMode\000"
 4799      655F4761 
 4799      7070456E 
 4799      74657244 
 4799      6973636F 
 4800              	.LASF36:
 4801 0a8e 4359424C 		.ascii	"CYBLE_EVT_GAP_CONNECTION_UPDATE_COMPLETE\000"
 4801      455F4556 
 4801      545F4741 
 4801      505F434F 
 4801      4E4E4543 
 4802              	.LASF241:
 4803 0ab7 6379426C 		.ascii	"cyBle_busyStatus\000"
 4803      655F6275 
 4803      73795374 
 4803      61747573 
 4803      00
 4804              	.LASF216:
 4805 0ac8 4379426C 		.ascii	"CyBle_ChangeAdDeviceAddress\000"
 4805      655F4368 
 4805      616E6765 
 4805      41644465 
 4805      76696365 
 4806              	.LASF184:
 4807 0ae4 4359424C 		.ascii	"CYBLE_STATE_INITIALIZING\000"
 4807      455F5354 
 4807      4154455F 
 4807      494E4954 
 4807      49414C49 
 4808              	.LASF76:
 4809 0afd 4359424C 		.ascii	"CYBLE_EVT_L2CAP_CBFC_DISCONN_IND\000"
 4809      455F4556 
 4809      545F4C32 
 4809      4341505F 
 4809      43424643 
 4810              	.LASF205:
 4811 0b1e 4379426C 		.ascii	"CyBle_Stop\000"
 4811      655F5374 
 4811      6F7000
 4812              	.LASF28:
 4813 0b29 4359424C 		.ascii	"CYBLE_EVT_GAP_PASSKEY_ENTRY_REQUEST\000"
 4813      455F4556 
 4813      545F4741 
 4813      505F5041 
 4813      53534B45 
 4814              	.LASF133:
 4815 0b4d 4359424C 		.ascii	"CYBLE_STACK_CONFIG_PARAM_T\000"
ARM GAS  C:\Users\310295~1\AppData\Local\Temp\ccZIm937.s 			page 120


 4815      455F5354 
 4815      41434B5F 
 4815      434F4E46 
 4815      49475F50 
 4816              	.LASF124:
 4817 0b68 646C654D 		.ascii	"dleMaxTxCapability\000"
 4817      61785478 
 4817      43617061 
 4817      62696C69 
 4817      747900
 4818              	.LASF238:
 4819 0b7b 6379426C 		.ascii	"cyBle_flashStorage\000"
 4819      655F666C 
 4819      61736853 
 4819      746F7261 
 4819      676500
 4820              	.LASF256:
 4821 0b8e 2E5C4765 		.ascii	".\\Generated_Source\\PSoC4\\BLE_System.c\000"
 4821      6E657261 
 4821      7465645F 
 4821      536F7572 
 4821      63655C50 
 4822              	.LASF6:
 4823 0bb4 6C6F6E67 		.ascii	"long long int\000"
 4823      206C6F6E 
 4823      6720696E 
 4823      7400
 4824              	.LASF156:
 4825 0bc2 61647650 		.ascii	"advParam\000"
 4825      6172616D 
 4825      00
 4826              	.LASF100:
 4827 0bcb 4359424C 		.ascii	"CYBLE_ERROR_L2CAP_PSM_NOT_REGISTERED\000"
 4827      455F4552 
 4827      524F525F 
 4827      4C324341 
 4827      505F5053 
 4828              	.LASF90:
 4829 0bf0 4359424C 		.ascii	"CYBLE_ERROR_OOB_NOT_AVAILABLE\000"
 4829      455F4552 
 4829      524F525F 
 4829      4F4F425F 
 4829      4E4F545F 
 4830              	.LASF13:
 4831 0c0e 646F7562 		.ascii	"double\000"
 4831      6C6500
 4832              	.LASF105:
 4833 0c15 4359424C 		.ascii	"CYBLE_ERROR_DEVICE_ALREADY_EXISTS\000"
 4833      455F4552 
 4833      524F525F 
 4833      44455649 
 4833      43455F41 
 4834              	.LASF82:
 4835 0c37 4359424C 		.ascii	"CYBLE_EVT_PENDING_FLASH_WRITE\000"
 4835      455F4556 
 4835      545F5045 
 4835      4E44494E 
ARM GAS  C:\Users\310295~1\AppData\Local\Temp\ccZIm937.s 			page 121


 4835      475F464C 
 4836              	.LASF242:
 4837 0c55 6379426C 		.ascii	"cyBle_advertisingIntervalType\000"
 4837      655F6164 
 4837      76657274 
 4837      6973696E 
 4837      67496E74 
 4838              	.LASF144:
 4839 0c73 64697265 		.ascii	"directAddrType\000"
 4839      63744164 
 4839      64725479 
 4839      706500
 4840              	.LASF43:
 4841 0c82 4359424C 		.ascii	"CYBLE_EVT_GAP_ENHANCE_CONN_COMPLETE\000"
 4841      455F4556 
 4841      545F4741 
 4841      505F454E 
 4841      48414E43 
 4842              	.LASF102:
 4843 0ca6 4359424C 		.ascii	"CYBLE_ERROR_L2CAP_CHANNEL_NOT_FOUND\000"
 4843      455F4552 
 4843      524F525F 
 4843      4C324341 
 4843      505F4348 
 4844              	.LASF129:
 4845 0cca 4359424C 		.ascii	"CYBLE_PRIVACY_1_2_CONFIG_PARAM_T\000"
 4845      455F5052 
 4845      49564143 
 4845      595F315F 
 4845      325F434F 
 4846              	.LASF236:
 4847 0ceb 6379426C 		.ascii	"cyBle_gattDB\000"
 4847      655F6761 
 4847      74744442 
 4847      00
 4848              	.LASF93:
 4849 0cf8 4359424C 		.ascii	"CYBLE_ERROR_REPEATED_ATTEMPTS\000"
 4849      455F4552 
 4849      524F525F 
 4849      52455045 
 4849      41544544 
 4850              	.LASF12:
 4851 0d16 666C6F61 		.ascii	"float\000"
 4851      7400
 4852              	.LASF106:
 4853 0d1c 4359424C 		.ascii	"CYBLE_ERROR_FLASH_WRITE_NOT_PERMITED\000"
 4853      455F4552 
 4853      524F525F 
 4853      464C4153 
 4853      485F5752 
 4854              	.LASF69:
 4855 0d41 4359424C 		.ascii	"CYBLE_EVT_GATTS_READ_CHAR_VAL_ACCESS_REQ\000"
 4855      455F4556 
 4855      545F4741 
 4855      5454535F 
 4855      52454144 
 4856              	.LASF209:
ARM GAS  C:\Users\310295~1\AppData\Local\Temp\ccZIm937.s 			page 122


 4857 0d6a 64656661 		.ascii	"defaultValuesCCCD\000"
 4857      756C7456 
 4857      616C7565 
 4857      73434343 
 4857      4400
 4858              	.LASF126:
 4859 0d7c 646C654E 		.ascii	"dleNumTxBuffer\000"
 4859      756D5478 
 4859      42756666 
 4859      657200
 4860              	.LASF8:
 4861 0d8b 756E7369 		.ascii	"unsigned int\000"
 4861      676E6564 
 4861      20696E74 
 4861      00
 4862              	.LASF132:
 4863 0d98 66656174 		.ascii	"feature_mask\000"
 4863      7572655F 
 4863      6D61736B 
 4863      00
 4864              	.LASF61:
 4865 0da5 4359424C 		.ascii	"CYBLE_EVT_GATTS_PREP_WRITE_REQ\000"
 4865      455F4556 
 4865      545F4741 
 4865      5454535F 
 4865      50524550 
 4866              	.LASF174:
 4867 0dc4 61747445 		.ascii	"attEndHandle\000"
 4867      6E644861 
 4867      6E646C65 
 4867      00
 4868              	.LASF191:
 4869 0dd1 666C6167 		.ascii	"flag\000"
 4869      00
 4870              	.LASF221:
 4871 0dd6 4379426C 		.ascii	"CyBle_Set16ByPtr\000"
 4871      655F5365 
 4871      74313642 
 4871      79507472 
 4871      00
 4872              	.LASF98:
 4873 0de7 4359424C 		.ascii	"CYBLE_ERROR_L2CAP_PSM_WRONG_ENCODING\000"
 4873      455F4552 
 4873      524F525F 
 4873      4C324341 
 4873      505F5053 
 4874              	.LASF218:
 4875 0e0c 63686172 		.ascii	"charLen\000"
 4875      4C656E00 
 4876              	.LASF84:
 4877 0e14 4359424C 		.ascii	"CYBLE_EVT_MAX\000"
 4877      455F4556 
 4877      545F4D41 
 4877      5800
 4878              	.LASF37:
 4879 0e22 4359424C 		.ascii	"CYBLE_EVT_GAPC_SCAN_START_STOP\000"
 4879      455F4556 
ARM GAS  C:\Users\310295~1\AppData\Local\Temp\ccZIm937.s 			page 123


 4879      545F4741 
 4879      50435F53 
 4879      43414E5F 
 4880              	.LASF246:
 4881 0e41 4379426C 		.ascii	"CyBle_CustomInit\000"
 4881      655F4375 
 4881      73746F6D 
 4881      496E6974 
 4881      00
 4882              	.LASF139:
 4883 0e52 4359424C 		.ascii	"CYBLE_GAPP_ADV_T\000"
 4883      455F4741 
 4883      50505F41 
 4883      44565F54 
 4883      00
 4884              	.LASF58:
 4885 0e63 4359424C 		.ascii	"CYBLE_EVT_GATTS_WRITE_REQ\000"
 4885      455F4556 
 4885      545F4741 
 4885      5454535F 
 4885      57524954 
 4886              	.LASF149:
 4887 0e7d 61647644 		.ascii	"advData\000"
 4887      61746100 
 4888              	.LASF67:
 4889 0e85 4359424C 		.ascii	"CYBLE_EVT_GATTS_DATA_SIGNED_CMD_REQ\000"
 4889      455F4556 
 4889      545F4741 
 4889      5454535F 
 4889      44415441 
 4890              	.LASF232:
 4891 0ea9 6379426C 		.ascii	"cyBle_scanRspData\000"
 4891      655F7363 
 4891      616E5273 
 4891      70446174 
 4891      6100
 4892              	.LASF257:
 4893 0ebb 433A5C57 		.ascii	"C:\\Work\\BLE_Proximity\\BLE_Proximity01\\BLE_Trans"
 4893      6F726B5C 
 4893      424C455F 
 4893      50726F78 
 4893      696D6974 
 4894 0eea 6665722E 		.ascii	"fer.cydsn\000"
 4894      63796473 
 4894      6E00
 4895              	.LASF29:
 4896 0ef4 4359424C 		.ascii	"CYBLE_EVT_GAP_PASSKEY_DISPLAY_REQUEST\000"
 4896      455F4556 
 4896      545F4741 
 4896      505F5041 
 4896      53534B45 
 4897              	.LASF114:
 4898 0f1a 4359424C 		.ascii	"CYBLE_ERROR_IND_DISABLED\000"
 4898      455F4552 
 4898      524F525F 
 4898      494E445F 
 4898      44495341 
ARM GAS  C:\Users\310295~1\AppData\Local\Temp\ccZIm937.s 			page 124


 4899              	.LASF113:
 4900 0f33 4359424C 		.ascii	"CYBLE_ERROR_NTF_DISABLED\000"
 4900      455F4552 
 4900      524F525F 
 4900      4E54465F 
 4900      44495341 
 4901              	.LASF55:
 4902 0f4c 4359424C 		.ascii	"CYBLE_EVT_GATTC_READ_RSP\000"
 4902      455F4556 
 4902      545F4741 
 4902      5454435F 
 4902      52454144 
 4903              	.LASF135:
 4904 0f65 4359424C 		.ascii	"CYBLE_GAPP_CONNECTABLE_HIGH_DC_DIRECTED_ADV\000"
 4904      455F4741 
 4904      50505F43 
 4904      4F4E4E45 
 4904      43544142 
 4905              	.LASF75:
 4906 0f91 4359424C 		.ascii	"CYBLE_EVT_L2CAP_CBFC_CONN_CNF\000"
 4906      455F4556 
 4906      545F4C32 
 4906      4341505F 
 4906      43424643 
 4907              	.LASF202:
 4908 0faf 70726976 		.ascii	"privacyConfigParams\000"
 4908      61637943 
 4908      6F6E6669 
 4908      67506172 
 4908      616D7300 
 4909              	.LASF164:
 4910 0fc3 4359424C 		.ascii	"CYBLE_GATTS_ATT_GEN_VAL_LEN_T\000"
 4910      455F4741 
 4910      5454535F 
 4910      4154545F 
 4910      47454E5F 
 4911              	.LASF18:
 4912 0fe1 4359424C 		.ascii	"CYBLE_APP_CB_T\000"
 4912      455F4150 
 4912      505F4342 
 4912      5F5400
 4913              	.LASF157:
 4914 0ff0 61647654 		.ascii	"advTo\000"
 4914      6F00
 4915              	.LASF25:
 4916 0ff6 4359424C 		.ascii	"CYBLE_EVT_MEMORY_REQUEST\000"
 4916      455F4556 
 4916      545F4D45 
 4916      4D4F5259 
 4916      5F524551 
 4917              	.LASF220:
 4918 100f 4379426C 		.ascii	"CyBle_Get16ByPtr\000"
 4918      655F4765 
 4918      74313642 
 4918      79507472 
 4918      00
 4919              	.LASF35:
ARM GAS  C:\Users\310295~1\AppData\Local\Temp\ccZIm937.s 			page 125


 4920 1020 4359424C 		.ascii	"CYBLE_EVT_GAP_ENCRYPT_CHANGE\000"
 4920      455F4556 
 4920      545F4741 
 4920      505F454E 
 4920      43525950 
 4921              	.LASF49:
 4922 103d 4359424C 		.ascii	"CYBLE_EVT_GATTS_XCNHG_MTU_REQ\000"
 4922      455F4556 
 4922      545F4741 
 4922      5454535F 
 4922      58434E48 
 4923              	.LASF7:
 4924 105b 6C6F6E67 		.ascii	"long long unsigned int\000"
 4924      206C6F6E 
 4924      6720756E 
 4924      7369676E 
 4924      65642069 
 4925              	.LASF21:
 4926 1072 4359424C 		.ascii	"CYBLE_EVT_TIMEOUT\000"
 4926      455F4556 
 4926      545F5449 
 4926      4D454F55 
 4926      5400
 4927              	.LASF208:
 4928 1084 6973466F 		.ascii	"isForceWrite\000"
 4928      72636557 
 4928      72697465 
 4928      00
 4929              	.LASF116:
 4930 1091 4359424C 		.ascii	"CYBLE_ERROR_INVALID_STATE\000"
 4930      455F4552 
 4930      524F525F 
 4930      494E5641 
 4930      4C49445F 
 4931              	.LASF78:
 4932 10ab 4359424C 		.ascii	"CYBLE_EVT_L2CAP_CBFC_DATA_READ\000"
 4932      455F4556 
 4932      545F4C32 
 4932      4341505F 
 4932      43424643 
 4933              	.LASF222:
 4934 10ca 76616C75 		.ascii	"value\000"
 4934      6500
 4935              	.LASF175:
 4936 10d0 61747456 		.ascii	"attValue\000"
 4936      616C7565 
 4936      00
 4937              	.LASF224:
 4938 10d9 4379426C 		.ascii	"CyBle_ApplCallback\000"
 4938      655F4170 
 4938      706C4361 
 4938      6C6C6261 
 4938      636B00
 4939              	.LASF110:
 4940 10ec 4359424C 		.ascii	"CYBLE_ERROR_FLASH_WRITE\000"
 4940      455F4552 
 4940      524F525F 
ARM GAS  C:\Users\310295~1\AppData\Local\Temp\ccZIm937.s 			page 126


 4940      464C4153 
 4940      485F5752 
 4941              	.LASF120:
 4942 1104 4359424C 		.ascii	"CYBLE_GAP_BD_ADDR_T\000"
 4942      455F4741 
 4942      505F4244 
 4942      5F414444 
 4942      525F5400 
 4943              	.LASF131:
 4944 1118 70726976 		.ascii	"privacyConfig\000"
 4944      61637943 
 4944      6F6E6669 
 4944      6700
 4945              	.LASF162:
 4946 1126 61637475 		.ascii	"actualLength\000"
 4946      616C4C65 
 4946      6E677468 
 4946      00
 4947              	.LASF150:
 4948 1133 61647644 		.ascii	"advDataLen\000"
 4948      6174614C 
 4948      656E00
 4949              	.LASF190:
 4950 113e 64657374 		.ascii	"dest\000"
 4950      00
 4951              	.LASF158:
 4952 1143 4359424C 		.ascii	"CYBLE_GAPP_DISC_MODE_INFO_T\000"
 4952      455F4741 
 4952      50505F44 
 4952      4953435F 
 4952      4D4F4445 
 4953              	.LASF234:
 4954 115f 6379426C 		.ascii	"cyBle_pendingFlashWrite\000"
 4954      655F7065 
 4954      6E64696E 
 4954      67466C61 
 4954      73685772 
 4955              	.LASF53:
 4956 1177 4359424C 		.ascii	"CYBLE_EVT_GATTC_FIND_INFO_RSP\000"
 4956      455F4556 
 4956      545F4741 
 4956      5454435F 
 4956      46494E44 
 4957              	.LASF52:
 4958 1195 4359424C 		.ascii	"CYBLE_EVT_GATTC_READ_BY_TYPE_RSP\000"
 4958      455F4556 
 4958      545F4741 
 4958      5454435F 
 4958      52454144 
 4959              	.LASF252:
 4960 11b6 4379426C 		.ascii	"CyBle_GapRemoveDeviceFromWhiteList\000"
 4960      655F4761 
 4960      7052656D 
 4960      6F766544 
 4960      65766963 
 4961              	.LASF206:
 4962 11d9 4379426C 		.ascii	"CyBle_Start\000"
ARM GAS  C:\Users\310295~1\AppData\Local\Temp\ccZIm937.s 			page 127


 4962      655F5374 
 4962      61727400 
 4963              	.LASF239:
 4964 11e5 6379426C 		.ascii	"cyBle_state\000"
 4964      655F7374 
 4964      61746500 
 4965              	.LASF201:
 4966 11f1 646C6543 		.ascii	"dleConfigParams\000"
 4966      6F6E6669 
 4966      67506172 
 4966      616D7300 
 4967              	.LASF250:
 4968 1201 6D656D63 		.ascii	"memcmp\000"
 4968      6D7000
 4969              	.LASF59:
 4970 1208 4359424C 		.ascii	"CYBLE_EVT_GATTC_WRITE_RSP\000"
 4970      455F4556 
 4970      545F4741 
 4970      5454435F 
 4970      57524954 
 4971              	.LASF187:
 4972 1222 4359424C 		.ascii	"CYBLE_STATE_DISCONNECTED\000"
 4972      455F5354 
 4972      4154455F 
 4972      44495343 
 4972      4F4E4E45 
 4973              	.LASF170:
 4974 123b 4359424C 		.ascii	"CYBLE_GATTS_ATT_VALUE_T\000"
 4974      455F4741 
 4974      5454535F 
 4974      4154545F 
 4974      56414C55 
 4975              	.LASF167:
 4976 1253 4359424C 		.ascii	"CYBLE_GATTS_ATT_PACK_VAL_LEN_T\000"
 4976      455F4741 
 4976      5454535F 
 4976      4154545F 
 4976      5041434B 
 4977              	.LASF32:
 4978 1272 4359424C 		.ascii	"CYBLE_EVT_GAPP_ADVERTISEMENT_START_STOP\000"
 4978      455F4556 
 4978      545F4741 
 4978      50505F41 
 4978      44564552 
 4979              	.LASF154:
 4980 129a 4359424C 		.ascii	"CYBLE_GAPP_SCAN_RSP_DATA_T\000"
 4980      455F4741 
 4980      50505F53 
 4980      43414E5F 
 4980      5253505F 
 4981              	.LASF163:
 4982 12b5 61747447 		.ascii	"attGenericVal\000"
 4982      656E6572 
 4982      69635661 
 4982      6C00
 4983              	.LASF189:
 4984 12c3 6E616D65 		.ascii	"name\000"
ARM GAS  C:\Users\310295~1\AppData\Local\Temp\ccZIm937.s 			page 128


 4984      00
 4985              	.LASF9:
 4986 12c8 75696E74 		.ascii	"uint8\000"
 4986      3800
 4987              	.LASF225:
 4988 12ce 6379426C 		.ascii	"cyBle_initVar\000"
 4988      655F696E 
 4988      69745661 
 4988      7200
 4989              	.LASF40:
 4990 12dc 4359424C 		.ascii	"CYBLE_EVT_GAP_KEYPRESS_NOTIFICATION\000"
 4990      455F4556 
 4990      545F4741 
 4990      505F4B45 
 4990      59505245 
 4991              	.LASF240:
 4992 1300 6379426C 		.ascii	"cyBle_connHandle\000"
 4992      655F636F 
 4992      6E6E4861 
 4992      6E646C65 
 4992      00
 4993              	.LASF2:
 4994 1311 73686F72 		.ascii	"short int\000"
 4994      7420696E 
 4994      7400
 4995              	.LASF217:
 4996 131b 4379426C 		.ascii	"CyBle_GapSetLocalName\000"
 4996      655F4761 
 4996      70536574 
 4996      4C6F6361 
 4996      6C4E616D 
 4997              	.LASF166:
 4998 1331 61747447 		.ascii	"attGenericValLen\000"
 4998      656E6572 
 4998      69635661 
 4998      6C4C656E 
 4998      00
 4999              	.LASF168:
 5000 1342 61747446 		.ascii	"attFormatValue\000"
 5000      6F726D61 
 5000      7456616C 
 5000      756500
 5001              	.LASF153:
 5002 1351 7363616E 		.ascii	"scanRspDataLen\000"
 5002      52737044 
 5002      6174614C 
 5002      656E00
 5003              	.LASF108:
 5004 1360 4359424C 		.ascii	"CYBLE_ERROR_HARDWARE_FAILURE\000"
 5004      455F4552 
 5004      524F525F 
 5004      48415244 
 5004      57415245 
 5005              	.LASF245:
 5006 137d 4379426C 		.ascii	"CyBle_GattsDbRegister\000"
 5006      655F4761 
 5006      74747344 
ARM GAS  C:\Users\310295~1\AppData\Local\Temp\ccZIm937.s 			page 129


 5006      62526567 
 5006      69737465 
 5007              	.LASF46:
 5008 1393 4359424C 		.ascii	"CYBLE_EVT_GATTC_ERROR_RSP\000"
 5008      455F4556 
 5008      545F4741 
 5008      5454435F 
 5008      4552524F 
 5009              	.LASF188:
 5010 13ad 4359424C 		.ascii	"CYBLE_STATE_T\000"
 5010      455F5354 
 5010      4154455F 
 5010      5400
 5011              	.LASF136:
 5012 13bb 4359424C 		.ascii	"CYBLE_GAPP_SCANNABLE_UNDIRECTED_ADV\000"
 5012      455F4741 
 5012      50505F53 
 5012      43414E4E 
 5012      41424C45 
 5013              	.LASF74:
 5014 13df 4359424C 		.ascii	"CYBLE_EVT_L2CAP_CBFC_CONN_IND\000"
 5014      455F4556 
 5014      545F4C32 
 5014      4341505F 
 5014      43424643 
 5015              	.LASF62:
 5016 13fd 4359424C 		.ascii	"CYBLE_EVT_GATTS_EXEC_WRITE_REQ\000"
 5016      455F4556 
 5016      545F4741 
 5016      5454535F 
 5016      45584543 
 5017              	.LASF26:
 5018 141c 4359424C 		.ascii	"CYBLE_EVT_GAPC_SCAN_PROGRESS_RESULT\000"
 5018      455F4556 
 5018      545F4741 
 5018      50435F53 
 5018      43414E5F 
 5019              	.LASF180:
 5020 1440 63636364 		.ascii	"cccdCount\000"
 5020      436F756E 
 5020      7400
 5021              	.LASF233:
 5022 144a 6379426C 		.ascii	"cyBle_discoveryModeInfo\000"
 5022      655F6469 
 5022      73636F76 
 5022      6572794D 
 5022      6F646549 
 5023              	.LASF94:
 5024 1462 4359424C 		.ascii	"CYBLE_ERROR_GAP_ROLE\000"
 5024      455F4552 
 5024      524F525F 
 5024      4741505F 
 5024      524F4C45 
 5025              	.LASF226:
 5026 1477 6379426C 		.ascii	"cyBle_stackMemoryRam\000"
 5026      655F7374 
 5026      61636B4D 
ARM GAS  C:\Users\310295~1\AppData\Local\Temp\ccZIm937.s 			page 130


 5026      656D6F72 
 5026      7952616D 
 5027              	.LASF118:
 5028 148c 62644164 		.ascii	"bdAddr\000"
 5028      647200
 5029              	.LASF227:
 5030 1493 6379426C 		.ascii	"cyBle_eventHandlerFlag\000"
 5030      655F6576 
 5030      656E7448 
 5030      616E646C 
 5030      6572466C 
 5031              	.LASF207:
 5032 14aa 4379426C 		.ascii	"CyBle_StoreBondingData\000"
 5032      655F5374 
 5032      6F726542 
 5032      6F6E6469 
 5032      6E674461 
 5033              	.LASF91:
 5034 14c1 4359424C 		.ascii	"CYBLE_ERROR_NO_CONNECTION\000"
 5034      455F4552 
 5034      524F525F 
 5034      4E4F5F43 
 5034      4F4E4E45 
 5035              	.LASF259:
 5036 14db 6D656D63 		.ascii	"memcpy\000"
 5036      707900
 5037              	.LASF193:
 5038 14e2 62797465 		.ascii	"byteCounter\000"
 5038      436F756E 
 5038      74657200 
 5039              	.LASF83:
 5040 14ee 4359424C 		.ascii	"CYBLE_EVT_LE_PING_AUTH_TIMEOUT\000"
 5040      455F4556 
 5040      545F4C45 
 5040      5F50494E 
 5040      475F4155 
 5041              	.LASF117:
 5042 150d 4359424C 		.ascii	"CYBLE_API_RESULT_T\000"
 5042      455F4150 
 5042      495F5245 
 5042      53554C54 
 5042      5F5400
 5043              	.LASF237:
 5044 1520 6379426C 		.ascii	"cyBle_attValuesCCCD\000"
 5044      655F6174 
 5044      7456616C 
 5044      75657343 
 5044      43434400 
 5045              	.LASF65:
 5046 1534 4359424C 		.ascii	"CYBLE_EVT_GATTC_HANDLE_VALUE_IND\000"
 5046      455F4556 
 5046      545F4741 
 5046      5454435F 
 5046      48414E44 
 5047              	.LASF97:
 5048 1555 4359424C 		.ascii	"CYBLE_ERROR_SEC_FAILED\000"
 5048      455F4552 
ARM GAS  C:\Users\310295~1\AppData\Local\Temp\ccZIm937.s 			page 131


 5048      524F525F 
 5048      5345435F 
 5048      4641494C 
 5049              	.LASF212:
 5050 156c 696E7661 		.ascii	"invalidBdAddr\000"
 5050      6C696442 
 5050      64416464 
 5050      7200
 5051              	.LASF24:
 5052 157a 4359424C 		.ascii	"CYBLE_EVT_STACK_BUSY_STATUS\000"
 5052      455F4556 
 5052      545F5354 
 5052      41434B5F 
 5052      42555359 
 5053              	.LASF38:
 5054 1596 4359424C 		.ascii	"CYBLE_EVT_GAP_KEYINFO_EXCHNGE_CMPLT\000"
 5054      455F4556 
 5054      545F4741 
 5054      505F4B45 
 5054      59494E46 
 5055              	.LASF71:
 5056 15ba 4359424C 		.ascii	"CYBLE_EVT_L2CAP_CONN_PARAM_UPDATE_REQ\000"
 5056      455F4556 
 5056      545F4C32 
 5056      4341505F 
 5056      434F4E4E 
 5057              	.LASF231:
 5058 15e0 6379426C 		.ascii	"cyBle_discoveryData\000"
 5058      655F6469 
 5058      73636F76 
 5058      65727944 
 5058      61746100 
 5059              	.LASF3:
 5060 15f4 73686F72 		.ascii	"short unsigned int\000"
 5060      7420756E 
 5060      7369676E 
 5060      65642069 
 5060      6E7400
 5061              	.LASF145:
 5062 1607 64697265 		.ascii	"directAddr\000"
 5062      63744164 
 5062      647200
 5063              	.LASF185:
 5064 1612 4359424C 		.ascii	"CYBLE_STATE_CONNECTED\000"
 5064      455F5354 
 5064      4154455F 
 5064      434F4E4E 
 5064      45435445 
 5065              	.LASF125:
 5066 1628 646C654D 		.ascii	"dleMaxRxCapability\000"
 5066      61785278 
 5066      43617061 
 5066      62696C69 
 5066      747900
 5067              	.LASF146:
 5068 163b 61647643 		.ascii	"advChannelMap\000"
 5068      68616E6E 
ARM GAS  C:\Users\310295~1\AppData\Local\Temp\ccZIm937.s 			page 132


 5068      656C4D61 
 5068      7000
 5069              	.LASF134:
 5070 1649 4359424C 		.ascii	"CYBLE_GAPP_CONNECTABLE_UNDIRECTED_ADV\000"
 5070      455F4741 
 5070      50505F43 
 5070      4F4E4E45 
 5070      43544142 
 5071              	.LASF160:
 5072 166f 61747449 		.ascii	"attId\000"
 5072      6400
 5073              	.LASF87:
 5074 1675 4359424C 		.ascii	"CYBLE_ERROR_INVALID_OPERATION\000"
 5074      455F4552 
 5074      524F525F 
 5074      494E5641 
 5074      4C49445F 
 5075              	.LASF192:
 5076 1693 61644C65 		.ascii	"adLength\000"
 5076      6E677468 
 5076      00
 5077              	.LASF23:
 5078 169c 4359424C 		.ascii	"CYBLE_EVT_HCI_STATUS\000"
 5078      455F4556 
 5078      545F4843 
 5078      495F5354 
 5078      41545553 
 5079              	.LASF48:
 5080 16b1 4359424C 		.ascii	"CYBLE_EVT_GATT_DISCONNECT_IND\000"
 5080      455F4556 
 5080      545F4741 
 5080      54545F44 
 5080      4953434F 
 5081              	.LASF81:
 5082 16cf 4359424C 		.ascii	"CYBLE_EVT_L2CAP_CBFC_DATA_WRITE_IND\000"
 5082      455F4556 
 5082      545F4C32 
 5082      4341505F 
 5082      43424643 
 5083              	.LASF70:
 5084 16f3 4359424C 		.ascii	"CYBLE_EVT_GATTC_LONG_PROCEDURE_END\000"
 5084      455F4556 
 5084      545F4741 
 5084      5454435F 
 5084      4C4F4E47 
 5085              	.LASF34:
 5086 1716 4359424C 		.ascii	"CYBLE_EVT_GAP_DEVICE_DISCONNECTED\000"
 5086      455F4556 
 5086      545F4741 
 5086      505F4445 
 5086      56494345 
 5087              	.LASF66:
 5088 1738 4359424C 		.ascii	"CYBLE_EVT_GATTS_HANDLE_VALUE_CNF\000"
 5088      455F4556 
 5088      545F4741 
 5088      5454535F 
 5088      48414E44 
ARM GAS  C:\Users\310295~1\AppData\Local\Temp\ccZIm937.s 			page 133


 5089              	.LASF10:
 5090 1759 75696E74 		.ascii	"uint16\000"
 5090      313600
 5091              	.LASF143:
 5092 1760 6F776E41 		.ascii	"ownAddrType\000"
 5092      64647254 
 5092      79706500 
 5093              	.LASF95:
 5094 176c 4359424C 		.ascii	"CYBLE_ERROR_TX_POWER_READ\000"
 5094      455F4552 
 5094      524F525F 
 5094      54585F50 
 5094      4F574552 
 5095              	.LASF141:
 5096 1786 61647649 		.ascii	"advIntvMax\000"
 5096      6E74764D 
 5096      617800
 5097              		.ident	"GCC: (GNU Tools for ARM Embedded Processors) 4.9.3 20150303 (release) [ARM/embedded-4_9-br
