ARM GAS  C:\Users\310295~1\AppData\Local\Temp\ccw2lzqi.s 			page 1


   1              		.cpu cortex-m0
   2              		.fpu softvfp
   3              		.eabi_attribute 20, 1
   4              		.eabi_attribute 21, 1
   5              		.eabi_attribute 23, 3
   6              		.eabi_attribute 24, 1
   7              		.eabi_attribute 25, 1
   8              		.eabi_attribute 26, 1
   9              		.eabi_attribute 30, 1
  10              		.eabi_attribute 34, 0
  11              		.eabi_attribute 18, 4
  12              		.code	16
  13              		.file	"BLE_System_HAL_PVT.c"
  14              		.text
  15              	.Ltext0:
  16              		.cfi_sections	.debug_frame
  17              		.section	.text.CyBLE_Nvram_Write,"ax",%progbits
  18              		.align	2
  19              		.global	CyBLE_Nvram_Write
  20              		.code	16
  21              		.thumb_func
  22              		.type	CyBLE_Nvram_Write, %function
  23              	CyBLE_Nvram_Write:
  24              	.LFB2:
  25              		.file 1 ".\\Generated_Source\\PSoC4\\BLE_System_HAL_PVT.c"
   1:.\Generated_Source\PSoC4/BLE_System_HAL_PVT.c **** /***************************************************************************//**
   2:.\Generated_Source\PSoC4/BLE_System_HAL_PVT.c **** * \file CYBLE_HAL_PVT.c
   3:.\Generated_Source\PSoC4/BLE_System_HAL_PVT.c **** * \version 3.10
   4:.\Generated_Source\PSoC4/BLE_System_HAL_PVT.c **** *
   5:.\Generated_Source\PSoC4/BLE_System_HAL_PVT.c **** * \brief
   6:.\Generated_Source\PSoC4/BLE_System_HAL_PVT.c **** *  This file contains the source code for the HAL section of the BLE component
   7:.\Generated_Source\PSoC4/BLE_System_HAL_PVT.c **** *
   8:.\Generated_Source\PSoC4/BLE_System_HAL_PVT.c **** ********************************************************************************
   9:.\Generated_Source\PSoC4/BLE_System_HAL_PVT.c **** * \copyright
  10:.\Generated_Source\PSoC4/BLE_System_HAL_PVT.c **** * Copyright 2014-2016, Cypress Semiconductor Corporation.  All rights reserved.
  11:.\Generated_Source\PSoC4/BLE_System_HAL_PVT.c **** * You may use this file only in accordance with the license, terms, conditions,
  12:.\Generated_Source\PSoC4/BLE_System_HAL_PVT.c **** * disclaimers, and limitations in the end user license agreement accompanying
  13:.\Generated_Source\PSoC4/BLE_System_HAL_PVT.c **** * the software package with which this file was provided.
  14:.\Generated_Source\PSoC4/BLE_System_HAL_PVT.c **** *******************************************************************************/
  15:.\Generated_Source\PSoC4/BLE_System_HAL_PVT.c **** 
  16:.\Generated_Source\PSoC4/BLE_System_HAL_PVT.c **** #include "BLE_System_HAL_PVT.h"
  17:.\Generated_Source\PSoC4/BLE_System_HAL_PVT.c **** 
  18:.\Generated_Source\PSoC4/BLE_System_HAL_PVT.c **** 
  19:.\Generated_Source\PSoC4/BLE_System_HAL_PVT.c **** #if(CYBLE_MODE == CYBLE_HCI)
  20:.\Generated_Source\PSoC4/BLE_System_HAL_PVT.c **** 
  21:.\Generated_Source\PSoC4/BLE_System_HAL_PVT.c **** 
  22:.\Generated_Source\PSoC4/BLE_System_HAL_PVT.c **** /*******************************************************************************
  23:.\Generated_Source\PSoC4/BLE_System_HAL_PVT.c **** * Function Name: CyBLE_Uart_Start
  24:.\Generated_Source\PSoC4/BLE_System_HAL_PVT.c **** ****************************************************************************//**
  25:.\Generated_Source\PSoC4/BLE_System_HAL_PVT.c **** *
  26:.\Generated_Source\PSoC4/BLE_System_HAL_PVT.c **** *  Enables the platform UART Tx and RX interrupts and then enables the UART
  27:.\Generated_Source\PSoC4/BLE_System_HAL_PVT.c **** *  component.
  28:.\Generated_Source\PSoC4/BLE_System_HAL_PVT.c **** *
  29:.\Generated_Source\PSoC4/BLE_System_HAL_PVT.c **** * \return
  30:.\Generated_Source\PSoC4/BLE_System_HAL_PVT.c **** *  None
  31:.\Generated_Source\PSoC4/BLE_System_HAL_PVT.c **** *
  32:.\Generated_Source\PSoC4/BLE_System_HAL_PVT.c **** *******************************************************************************/
ARM GAS  C:\Users\310295~1\AppData\Local\Temp\ccw2lzqi.s 			page 2


  33:.\Generated_Source\PSoC4/BLE_System_HAL_PVT.c **** void CyBLE_Uart_Start (void)
  34:.\Generated_Source\PSoC4/BLE_System_HAL_PVT.c **** {
  35:.\Generated_Source\PSoC4/BLE_System_HAL_PVT.c ****     /* Setup ISR */
  36:.\Generated_Source\PSoC4/BLE_System_HAL_PVT.c ****     BLE_System_uart_isr_StartEx(&CyBLE_Uart_Interrupt);
  37:.\Generated_Source\PSoC4/BLE_System_HAL_PVT.c **** 
  38:.\Generated_Source\PSoC4/BLE_System_HAL_PVT.c ****     BLE_System_HAL_Uart_Start();
  39:.\Generated_Source\PSoC4/BLE_System_HAL_PVT.c **** }
  40:.\Generated_Source\PSoC4/BLE_System_HAL_PVT.c **** 
  41:.\Generated_Source\PSoC4/BLE_System_HAL_PVT.c **** 
  42:.\Generated_Source\PSoC4/BLE_System_HAL_PVT.c **** /*******************************************************************************
  43:.\Generated_Source\PSoC4/BLE_System_HAL_PVT.c **** * Function Name: CyBLE_Uart_Stop
  44:.\Generated_Source\PSoC4/BLE_System_HAL_PVT.c **** ****************************************************************************//**
  45:.\Generated_Source\PSoC4/BLE_System_HAL_PVT.c **** *
  46:.\Generated_Source\PSoC4/BLE_System_HAL_PVT.c **** *  Disables the UART, clears all pending interrupts and disables the UART Tx
  47:.\Generated_Source\PSoC4/BLE_System_HAL_PVT.c **** *  and RX interrupts. This will also empty out the FIFOs.
  48:.\Generated_Source\PSoC4/BLE_System_HAL_PVT.c **** *
  49:.\Generated_Source\PSoC4/BLE_System_HAL_PVT.c **** * \return
  50:.\Generated_Source\PSoC4/BLE_System_HAL_PVT.c **** *  None
  51:.\Generated_Source\PSoC4/BLE_System_HAL_PVT.c **** *
  52:.\Generated_Source\PSoC4/BLE_System_HAL_PVT.c **** *******************************************************************************/
  53:.\Generated_Source\PSoC4/BLE_System_HAL_PVT.c **** void CyBLE_Uart_Stop (void)
  54:.\Generated_Source\PSoC4/BLE_System_HAL_PVT.c **** {
  55:.\Generated_Source\PSoC4/BLE_System_HAL_PVT.c ****     /* Stop interrupt and UART */
  56:.\Generated_Source\PSoC4/BLE_System_HAL_PVT.c ****     BLE_System_uart_isr_Stop();
  57:.\Generated_Source\PSoC4/BLE_System_HAL_PVT.c **** 
  58:.\Generated_Source\PSoC4/BLE_System_HAL_PVT.c ****     BLE_System_HAL_Uart_Stop();
  59:.\Generated_Source\PSoC4/BLE_System_HAL_PVT.c **** }
  60:.\Generated_Source\PSoC4/BLE_System_HAL_PVT.c **** 
  61:.\Generated_Source\PSoC4/BLE_System_HAL_PVT.c **** 
  62:.\Generated_Source\PSoC4/BLE_System_HAL_PVT.c **** /*******************************************************************************
  63:.\Generated_Source\PSoC4/BLE_System_HAL_PVT.c **** * Function Name: CyBLE_Uart_Transmit
  64:.\Generated_Source\PSoC4/BLE_System_HAL_PVT.c **** ****************************************************************************//**
  65:.\Generated_Source\PSoC4/BLE_System_HAL_PVT.c **** *
  66:.\Generated_Source\PSoC4/BLE_System_HAL_PVT.c **** *  Sends the data to Uart Tx FIFO. The API handles data length up to the 
  67:.\Generated_Source\PSoC4/BLE_System_HAL_PVT.c **** *  supported Tx FIFO length of the uart hardware module.
  68:.\Generated_Source\PSoC4/BLE_System_HAL_PVT.c **** *
  69:.\Generated_Source\PSoC4/BLE_System_HAL_PVT.c **** *  \param data: Pointer to the data to send through the UART
  70:.\Generated_Source\PSoC4/BLE_System_HAL_PVT.c **** *  \param length: the length of data to transmit in bytes
  71:.\Generated_Source\PSoC4/BLE_System_HAL_PVT.c **** *
  72:.\Generated_Source\PSoC4/BLE_System_HAL_PVT.c **** * \return
  73:.\Generated_Source\PSoC4/BLE_System_HAL_PVT.c **** *  None
  74:.\Generated_Source\PSoC4/BLE_System_HAL_PVT.c **** *
  75:.\Generated_Source\PSoC4/BLE_System_HAL_PVT.c **** *******************************************************************************/
  76:.\Generated_Source\PSoC4/BLE_System_HAL_PVT.c **** void CyBLE_Uart_Transmit (const uint8 *dataBuf, uint8 length)
  77:.\Generated_Source\PSoC4/BLE_System_HAL_PVT.c **** {
  78:.\Generated_Source\PSoC4/BLE_System_HAL_PVT.c ****     BLE_System_HAL_Uart_SpiUartPutArray(dataBuf, (uint32)length);
  79:.\Generated_Source\PSoC4/BLE_System_HAL_PVT.c **** }
  80:.\Generated_Source\PSoC4/BLE_System_HAL_PVT.c **** 
  81:.\Generated_Source\PSoC4/BLE_System_HAL_PVT.c **** #endif /* (CYBLE_MODE == CYBLE_HCI) */
  82:.\Generated_Source\PSoC4/BLE_System_HAL_PVT.c **** 
  83:.\Generated_Source\PSoC4/BLE_System_HAL_PVT.c **** 
  84:.\Generated_Source\PSoC4/BLE_System_HAL_PVT.c **** /*******************************************************************************
  85:.\Generated_Source\PSoC4/BLE_System_HAL_PVT.c **** * Function Name: CyBLE_Nvram_Write
  86:.\Generated_Source\PSoC4/BLE_System_HAL_PVT.c **** ****************************************************************************//**
  87:.\Generated_Source\PSoC4/BLE_System_HAL_PVT.c **** *
  88:.\Generated_Source\PSoC4/BLE_System_HAL_PVT.c **** *  This API writes the data to the NVRAM store. It will check the appropriate
  89:.\Generated_Source\PSoC4/BLE_System_HAL_PVT.c **** *  alignment of a start address and also perform an address range check based
ARM GAS  C:\Users\310295~1\AppData\Local\Temp\ccw2lzqi.s 			page 3


  90:.\Generated_Source\PSoC4/BLE_System_HAL_PVT.c **** *  on the length before performing the write operation.
  91:.\Generated_Source\PSoC4/BLE_System_HAL_PVT.c **** *  This function performs memory compare and writes only row where there are new
  92:.\Generated_Source\PSoC4/BLE_System_HAL_PVT.c **** *  data to write.
  93:.\Generated_Source\PSoC4/BLE_System_HAL_PVT.c **** *
  94:.\Generated_Source\PSoC4/BLE_System_HAL_PVT.c **** *  \param buffer:   Pointer to the buffer containing the data to be stored.
  95:.\Generated_Source\PSoC4/BLE_System_HAL_PVT.c **** *  \param varFlash: Pointer to the array or variable in the flash.
  96:.\Generated_Source\PSoC4/BLE_System_HAL_PVT.c **** *  \param length:    The length of the data in bytes.
  97:.\Generated_Source\PSoC4/BLE_System_HAL_PVT.c **** *
  98:.\Generated_Source\PSoC4/BLE_System_HAL_PVT.c **** * \return
  99:.\Generated_Source\PSoC4/BLE_System_HAL_PVT.c **** *  CYRET_SUCCESS    a successful write
 100:.\Generated_Source\PSoC4/BLE_System_HAL_PVT.c **** *  CYRET_BAD_PARAM  A request to write outside the flash boundary.
 101:.\Generated_Source\PSoC4/BLE_System_HAL_PVT.c **** *  CYRET_UNKNOWN    Other errors in writing the flash
 102:.\Generated_Source\PSoC4/BLE_System_HAL_PVT.c **** *
 103:.\Generated_Source\PSoC4/BLE_System_HAL_PVT.c **** * \sideeffect
 104:.\Generated_Source\PSoC4/BLE_System_HAL_PVT.c **** *  For BLE devices with 128K of Flash memory this API will automatically 
 105:.\Generated_Source\PSoC4/BLE_System_HAL_PVT.c **** *  modify the clock settings for the device.
 106:.\Generated_Source\PSoC4/BLE_System_HAL_PVT.c **** *  Writing to flash requires changes to be done to the IMO (set to 48 MHz)
 107:.\Generated_Source\PSoC4/BLE_System_HAL_PVT.c **** *  and HFCLK (source set to IMO) settings. The configuration is restored before
 108:.\Generated_Source\PSoC4/BLE_System_HAL_PVT.c **** *  returning. This will impact the operation of most of the hardware in the
 109:.\Generated_Source\PSoC4/BLE_System_HAL_PVT.c **** *  device.
 110:.\Generated_Source\PSoC4/BLE_System_HAL_PVT.c **** *
 111:.\Generated_Source\PSoC4/BLE_System_HAL_PVT.c **** *******************************************************************************/
 112:.\Generated_Source\PSoC4/BLE_System_HAL_PVT.c **** cystatus CyBLE_Nvram_Write (const uint8 buffer[], const uint8 varFlash[], uint16 length)
 113:.\Generated_Source\PSoC4/BLE_System_HAL_PVT.c **** {
  26              		.loc 1 113 0
  27              		.cfi_startproc
  28              	.LVL0:
  29 0000 F0B5     		push	{r4, r5, r6, r7, lr}
  30              		.cfi_def_cfa_offset 20
  31              		.cfi_offset 4, -20
  32              		.cfi_offset 5, -16
  33              		.cfi_offset 6, -12
  34              		.cfi_offset 7, -8
  35              		.cfi_offset 14, -4
  36 0002 5746     		mov	r7, r10
  37 0004 4E46     		mov	r6, r9
  38 0006 4546     		mov	r5, r8
  39 0008 E0B4     		push	{r5, r6, r7}
  40              		.cfi_def_cfa_offset 32
  41              		.cfi_offset 8, -32
  42              		.cfi_offset 9, -28
  43              		.cfi_offset 10, -24
  44 000a A0B0     		sub	sp, sp, #128
  45              		.cfi_def_cfa_offset 160
  46              	.LVL1:
 114:.\Generated_Source\PSoC4/BLE_System_HAL_PVT.c ****     uint8 writeBuffer[CY_FLASH_SIZEOF_ROW];
 115:.\Generated_Source\PSoC4/BLE_System_HAL_PVT.c ****     uint32 rowId;
 116:.\Generated_Source\PSoC4/BLE_System_HAL_PVT.c ****     uint32 dstIndex;
 117:.\Generated_Source\PSoC4/BLE_System_HAL_PVT.c ****     uint32 srcIndex = 0u;
 118:.\Generated_Source\PSoC4/BLE_System_HAL_PVT.c ****     cystatus rc = CYRET_SUCCESS;
 119:.\Generated_Source\PSoC4/BLE_System_HAL_PVT.c ****     uint32 eeOffset;
 120:.\Generated_Source\PSoC4/BLE_System_HAL_PVT.c ****     uint32 byteOffset;
 121:.\Generated_Source\PSoC4/BLE_System_HAL_PVT.c ****     uint32 rowsNotEqual;
 122:.\Generated_Source\PSoC4/BLE_System_HAL_PVT.c **** 
 123:.\Generated_Source\PSoC4/BLE_System_HAL_PVT.c ****     eeOffset = (uint32)varFlash;
  47              		.loc 1 123 0
  48 000c 0E1C     		mov	r6, r1
ARM GAS  C:\Users\310295~1\AppData\Local\Temp\ccw2lzqi.s 			page 4


  49              	.LVL2:
 124:.\Generated_Source\PSoC4/BLE_System_HAL_PVT.c **** 
 125:.\Generated_Source\PSoC4/BLE_System_HAL_PVT.c ****     /* Make sure, that varFlash[] points to Flash */
 126:.\Generated_Source\PSoC4/BLE_System_HAL_PVT.c ****     if ((eeOffset + length) < CYBLE_HAL_FLASH_END_ADDR)
  50              		.loc 1 126 0
  51 000e 171C     		mov	r7, r2
  52 0010 8A18     		add	r2, r1, r2
  53              	.LVL3:
  54 0012 214B     		ldr	r3, .L15
  55 0014 9A42     		cmp	r2, r3
  56 0016 30D8     		bhi	.L11
  57 0018 8046     		mov	r8, r0
 127:.\Generated_Source\PSoC4/BLE_System_HAL_PVT.c ****     {
 128:.\Generated_Source\PSoC4/BLE_System_HAL_PVT.c ****         rowId = eeOffset / CY_FLASH_SIZEOF_ROW;
  58              		.loc 1 128 0
  59 001a CB09     		lsr	r3, r1, #7
  60 001c 9946     		mov	r9, r3
  61              	.LVL4:
 129:.\Generated_Source\PSoC4/BLE_System_HAL_PVT.c ****         byteOffset = CY_FLASH_SIZEOF_ROW * rowId;
  62              		.loc 1 129 0
  63 001e DC01     		lsl	r4, r3, #7
  64              	.LVL5:
 118:.\Generated_Source\PSoC4/BLE_System_HAL_PVT.c ****     uint32 eeOffset;
  65              		.loc 1 118 0
  66 0020 0023     		mov	r3, #0
  67              	.LVL6:
  68 0022 9C46     		mov	ip, r3
 117:.\Generated_Source\PSoC4/BLE_System_HAL_PVT.c ****     cystatus rc = CYRET_SUCCESS;
  69              		.loc 1 117 0
  70 0024 0025     		mov	r5, #0
 130:.\Generated_Source\PSoC4/BLE_System_HAL_PVT.c **** 
 131:.\Generated_Source\PSoC4/BLE_System_HAL_PVT.c ****         while ((srcIndex < length) && (CYRET_SUCCESS == rc))
  71              		.loc 1 131 0
  72 0026 22E0     		b	.L3
  73              	.LVL7:
  74              	.L7:
 132:.\Generated_Source\PSoC4/BLE_System_HAL_PVT.c ****         {
 133:.\Generated_Source\PSoC4/BLE_System_HAL_PVT.c ****             rowsNotEqual = 0u;
 134:.\Generated_Source\PSoC4/BLE_System_HAL_PVT.c ****             /* Copy data to the write buffer either from the source buffer or from the flash */
 135:.\Generated_Source\PSoC4/BLE_System_HAL_PVT.c ****             for (dstIndex = 0u; dstIndex < CY_FLASH_SIZEOF_ROW; dstIndex++)
 136:.\Generated_Source\PSoC4/BLE_System_HAL_PVT.c ****             {
 137:.\Generated_Source\PSoC4/BLE_System_HAL_PVT.c ****                 if ((byteOffset >= eeOffset) && (srcIndex < length))
  75              		.loc 1 137 0
  76 0028 B442     		cmp	r4, r6
  77 002a 0CD3     		bcc	.L4
  78              		.loc 1 137 0 is_stmt 0 discriminator 1
  79 002c BD42     		cmp	r5, r7
  80 002e 0AD2     		bcs	.L4
 138:.\Generated_Source\PSoC4/BLE_System_HAL_PVT.c ****                 {
 139:.\Generated_Source\PSoC4/BLE_System_HAL_PVT.c ****                     writeBuffer[dstIndex] = buffer[srcIndex];
  81              		.loc 1 139 0 is_stmt 1
  82 0030 4246     		mov	r2, r8
  83 0032 515D     		ldrb	r1, [r2, r5]
  84 0034 6A46     		mov	r2, sp
  85 0036 D154     		strb	r1, [r2, r3]
 140:.\Generated_Source\PSoC4/BLE_System_HAL_PVT.c ****                     /* Detect that row programming is required */
 141:.\Generated_Source\PSoC4/BLE_System_HAL_PVT.c ****                     if(CY_GET_XTND_REG8(CYDEV_FLASH_BASE + byteOffset) != buffer[srcIndex])
ARM GAS  C:\Users\310295~1\AppData\Local\Temp\ccw2lzqi.s 			page 5


  86              		.loc 1 141 0
  87 0038 2278     		ldrb	r2, [r4]
  88 003a D2B2     		uxtb	r2, r2
  89 003c 8A42     		cmp	r2, r1
  90 003e 00D0     		beq	.L5
 142:.\Generated_Source\PSoC4/BLE_System_HAL_PVT.c ****                     {
 143:.\Generated_Source\PSoC4/BLE_System_HAL_PVT.c ****                         rowsNotEqual = 1u;  
  91              		.loc 1 143 0
  92 0040 0120     		mov	r0, #1
  93              	.LVL8:
  94              	.L5:
 144:.\Generated_Source\PSoC4/BLE_System_HAL_PVT.c ****                     }
 145:.\Generated_Source\PSoC4/BLE_System_HAL_PVT.c ****                     srcIndex++;
  95              		.loc 1 145 0
  96 0042 0135     		add	r5, r5, #1
  97              	.LVL9:
  98 0044 02E0     		b	.L6
  99              	.L4:
 146:.\Generated_Source\PSoC4/BLE_System_HAL_PVT.c ****                 }
 147:.\Generated_Source\PSoC4/BLE_System_HAL_PVT.c ****                 else
 148:.\Generated_Source\PSoC4/BLE_System_HAL_PVT.c ****                 {
 149:.\Generated_Source\PSoC4/BLE_System_HAL_PVT.c ****                     writeBuffer[dstIndex] = CY_GET_XTND_REG8(CYDEV_FLASH_BASE + byteOffset);
 100              		.loc 1 149 0
 101 0046 2278     		ldrb	r2, [r4]
 102 0048 6946     		mov	r1, sp
 103 004a CA54     		strb	r2, [r1, r3]
 104              	.L6:
 150:.\Generated_Source\PSoC4/BLE_System_HAL_PVT.c ****                 }
 151:.\Generated_Source\PSoC4/BLE_System_HAL_PVT.c ****                 byteOffset++;
 105              		.loc 1 151 0 discriminator 2
 106 004c 0134     		add	r4, r4, #1
 107              	.LVL10:
 135:.\Generated_Source\PSoC4/BLE_System_HAL_PVT.c ****             {
 108              		.loc 1 135 0 discriminator 2
 109 004e 0133     		add	r3, r3, #1
 110              	.LVL11:
 111 0050 01E0     		b	.L9
 112              	.LVL12:
 113              	.L13:
 114 0052 0020     		mov	r0, #0
 115 0054 0023     		mov	r3, #0
 116              	.LVL13:
 117              	.L9:
 135:.\Generated_Source\PSoC4/BLE_System_HAL_PVT.c ****             {
 118              		.loc 1 135 0 is_stmt 0 discriminator 1
 119 0056 7F2B     		cmp	r3, #127
 120 0058 E6D9     		bls	.L7
 152:.\Generated_Source\PSoC4/BLE_System_HAL_PVT.c ****             }
 153:.\Generated_Source\PSoC4/BLE_System_HAL_PVT.c **** 
 154:.\Generated_Source\PSoC4/BLE_System_HAL_PVT.c ****             if(rowsNotEqual != 0u)
 121              		.loc 1 154 0 is_stmt 1
 122 005a 0028     		cmp	r0, #0
 123 005c 04D0     		beq	.L8
 155:.\Generated_Source\PSoC4/BLE_System_HAL_PVT.c ****             {
 156:.\Generated_Source\PSoC4/BLE_System_HAL_PVT.c ****                 /* Write flash row */
 157:.\Generated_Source\PSoC4/BLE_System_HAL_PVT.c ****                 rc = CySysFlashWriteRow(rowId, writeBuffer);
 124              		.loc 1 157 0
ARM GAS  C:\Users\310295~1\AppData\Local\Temp\ccw2lzqi.s 			page 6


 125 005e 4846     		mov	r0, r9
 126              	.LVL14:
 127 0060 6946     		mov	r1, sp
 128 0062 FFF7FEFF 		bl	CySysFlashWriteRow
 129              	.LVL15:
 130 0066 8446     		mov	ip, r0
 131              	.LVL16:
 132              	.L8:
 158:.\Generated_Source\PSoC4/BLE_System_HAL_PVT.c ****             }
 159:.\Generated_Source\PSoC4/BLE_System_HAL_PVT.c **** 
 160:.\Generated_Source\PSoC4/BLE_System_HAL_PVT.c ****             /* Go to the next row */
 161:.\Generated_Source\PSoC4/BLE_System_HAL_PVT.c ****             rowId++;
 133              		.loc 1 161 0
 134 0068 0123     		mov	r3, #1
 135 006a 9A46     		mov	r10, r3
 136 006c D144     		add	r9, r9, r10
 137              	.LVL17:
 138              	.L3:
 131:.\Generated_Source\PSoC4/BLE_System_HAL_PVT.c ****         {
 139              		.loc 1 131 0
 140 006e BD42     		cmp	r5, r7
 141 0070 05D2     		bcs	.L2
 131:.\Generated_Source\PSoC4/BLE_System_HAL_PVT.c ****         {
 142              		.loc 1 131 0 is_stmt 0 discriminator 1
 143 0072 6346     		mov	r3, ip
 144 0074 002B     		cmp	r3, #0
 145 0076 ECD0     		beq	.L13
 146 0078 01E0     		b	.L2
 147              	.LVL18:
 148              	.L11:
 162:.\Generated_Source\PSoC4/BLE_System_HAL_PVT.c ****         }
 163:.\Generated_Source\PSoC4/BLE_System_HAL_PVT.c ****     }
 164:.\Generated_Source\PSoC4/BLE_System_HAL_PVT.c ****     else
 165:.\Generated_Source\PSoC4/BLE_System_HAL_PVT.c ****     {
 166:.\Generated_Source\PSoC4/BLE_System_HAL_PVT.c ****         rc = CYRET_BAD_PARAM;
 149              		.loc 1 166 0 is_stmt 1
 150 007a 0123     		mov	r3, #1
 151 007c 9C46     		mov	ip, r3
 152              	.LVL19:
 153              	.L2:
 167:.\Generated_Source\PSoC4/BLE_System_HAL_PVT.c ****     }
 168:.\Generated_Source\PSoC4/BLE_System_HAL_PVT.c **** 
 169:.\Generated_Source\PSoC4/BLE_System_HAL_PVT.c ****     /* Mask return codes from flash, if they are not supported */
 170:.\Generated_Source\PSoC4/BLE_System_HAL_PVT.c ****     if ((CYRET_SUCCESS != rc) && (CYRET_BAD_PARAM != rc))
 154              		.loc 1 170 0
 155 007e 6346     		mov	r3, ip
 156 0080 012B     		cmp	r3, #1
 157 0082 02D9     		bls	.L10
 171:.\Generated_Source\PSoC4/BLE_System_HAL_PVT.c ****     {
 172:.\Generated_Source\PSoC4/BLE_System_HAL_PVT.c ****         rc = CYRET_UNKNOWN;
 158              		.loc 1 172 0
 159 0084 0123     		mov	r3, #1
 160 0086 5B42     		neg	r3, r3
 161 0088 9C46     		mov	ip, r3
 162              	.LVL20:
 163              	.L10:
 173:.\Generated_Source\PSoC4/BLE_System_HAL_PVT.c ****     }
ARM GAS  C:\Users\310295~1\AppData\Local\Temp\ccw2lzqi.s 			page 7


 174:.\Generated_Source\PSoC4/BLE_System_HAL_PVT.c ****     
 175:.\Generated_Source\PSoC4/BLE_System_HAL_PVT.c ****     return (rc);
 176:.\Generated_Source\PSoC4/BLE_System_HAL_PVT.c **** }
 164              		.loc 1 176 0
 165 008a 6046     		mov	r0, ip
 166 008c 20B0     		add	sp, sp, #128
 167              		@ sp needed
 168              	.LVL21:
 169 008e 1CBC     		pop	{r2, r3, r4}
 170 0090 9046     		mov	r8, r2
 171 0092 9946     		mov	r9, r3
 172 0094 A246     		mov	r10, r4
 173 0096 F0BD     		pop	{r4, r5, r6, r7, pc}
 174              	.L16:
 175              		.align	2
 176              	.L15:
 177 0098 FFFF0100 		.word	131071
 178              		.cfi_endproc
 179              	.LFE2:
 180              		.size	CyBLE_Nvram_Write, .-CyBLE_Nvram_Write
 181              		.section	.text.CyBLE_Nvram_Erase,"ax",%progbits
 182              		.align	2
 183              		.global	CyBLE_Nvram_Erase
 184              		.code	16
 185              		.thumb_func
 186              		.type	CyBLE_Nvram_Erase, %function
 187              	CyBLE_Nvram_Erase:
 188              	.LFB3:
 177:.\Generated_Source\PSoC4/BLE_System_HAL_PVT.c **** 
 178:.\Generated_Source\PSoC4/BLE_System_HAL_PVT.c **** /*******************************************************************************
 179:.\Generated_Source\PSoC4/BLE_System_HAL_PVT.c **** * Function Name: CyBLE_Nvram_Erase
 180:.\Generated_Source\PSoC4/BLE_System_HAL_PVT.c **** ****************************************************************************//**
 181:.\Generated_Source\PSoC4/BLE_System_HAL_PVT.c **** *
 182:.\Generated_Source\PSoC4/BLE_System_HAL_PVT.c **** *  This API erases the data from the NVRAM store. This API will perform an 
 183:.\Generated_Source\PSoC4/BLE_System_HAL_PVT.c **** *  address range check based on the length before performing erase operation.
 184:.\Generated_Source\PSoC4/BLE_System_HAL_PVT.c **** *
 185:.\Generated_Source\PSoC4/BLE_System_HAL_PVT.c **** *  \param varFlash: the pointer to the array or variable in the flash.
 186:.\Generated_Source\PSoC4/BLE_System_HAL_PVT.c **** *  \param length:    the length of the data in bytes.
 187:.\Generated_Source\PSoC4/BLE_System_HAL_PVT.c **** *
 188:.\Generated_Source\PSoC4/BLE_System_HAL_PVT.c **** * \return
 189:.\Generated_Source\PSoC4/BLE_System_HAL_PVT.c **** *  CYRET_SUCCESS    a successful write
 190:.\Generated_Source\PSoC4/BLE_System_HAL_PVT.c **** *  CYRET_BAD_PARAM  A request to write outside the flash boundary.
 191:.\Generated_Source\PSoC4/BLE_System_HAL_PVT.c **** *  CYRET_UNKNOWN    Other errors in writing the flash
 192:.\Generated_Source\PSoC4/BLE_System_HAL_PVT.c **** *
 193:.\Generated_Source\PSoC4/BLE_System_HAL_PVT.c **** *******************************************************************************/
 194:.\Generated_Source\PSoC4/BLE_System_HAL_PVT.c **** cystatus CyBLE_Nvram_Erase (const uint8 *varFlash, uint16 length)
 195:.\Generated_Source\PSoC4/BLE_System_HAL_PVT.c **** {
 189              		.loc 1 195 0
 190              		.cfi_startproc
 191              	.LVL22:
 192 0000 70B5     		push	{r4, r5, r6, lr}
 193              		.cfi_def_cfa_offset 16
 194              		.cfi_offset 4, -16
 195              		.cfi_offset 5, -12
 196              		.cfi_offset 6, -8
 197              		.cfi_offset 14, -4
 198 0002 A0B0     		sub	sp, sp, #128
ARM GAS  C:\Users\310295~1\AppData\Local\Temp\ccw2lzqi.s 			page 8


 199              		.cfi_def_cfa_offset 144
 200 0004 051C     		mov	r5, r0
 201 0006 0C1C     		mov	r4, r1
 196:.\Generated_Source\PSoC4/BLE_System_HAL_PVT.c ****     const uint8 *tempFlash;
 197:.\Generated_Source\PSoC4/BLE_System_HAL_PVT.c ****     uint8 flashBuffer[CY_FLASH_SIZEOF_ROW] = {0u};
 202              		.loc 1 197 0
 203 0008 6846     		mov	r0, sp
 204              	.LVL23:
 205 000a 0021     		mov	r1, #0
 206              	.LVL24:
 207 000c 8022     		mov	r2, #128
 208 000e FFF7FEFF 		bl	memset
 209              	.LVL25:
 198:.\Generated_Source\PSoC4/BLE_System_HAL_PVT.c ****     uint16 lengthFlash;
 199:.\Generated_Source\PSoC4/BLE_System_HAL_PVT.c ****     uint16 lengthRemaining;
 200:.\Generated_Source\PSoC4/BLE_System_HAL_PVT.c ****     cystatus rc = CYRET_UNKNOWN;
 210              		.loc 1 200 0
 211 0012 0120     		mov	r0, #1
 212 0014 4042     		neg	r0, r0
 201:.\Generated_Source\PSoC4/BLE_System_HAL_PVT.c **** 
 202:.\Generated_Source\PSoC4/BLE_System_HAL_PVT.c ****     tempFlash = varFlash;
 203:.\Generated_Source\PSoC4/BLE_System_HAL_PVT.c ****     lengthRemaining = length;
 204:.\Generated_Source\PSoC4/BLE_System_HAL_PVT.c **** 
 205:.\Generated_Source\PSoC4/BLE_System_HAL_PVT.c ****     while(lengthRemaining > 0u)
 213              		.loc 1 205 0
 214 0016 0EE0     		b	.L18
 215              	.LVL26:
 216              	.L21:
 206:.\Generated_Source\PSoC4/BLE_System_HAL_PVT.c ****     {
 207:.\Generated_Source\PSoC4/BLE_System_HAL_PVT.c ****         if(lengthRemaining < CY_FLASH_SIZEOF_ROW)
 217              		.loc 1 207 0
 218 0018 7F2C     		cmp	r4, #127
 219 001a 01D9     		bls	.L22
 208:.\Generated_Source\PSoC4/BLE_System_HAL_PVT.c ****         {
 209:.\Generated_Source\PSoC4/BLE_System_HAL_PVT.c ****             lengthFlash = lengthRemaining;
 210:.\Generated_Source\PSoC4/BLE_System_HAL_PVT.c ****         }
 211:.\Generated_Source\PSoC4/BLE_System_HAL_PVT.c ****         else
 212:.\Generated_Source\PSoC4/BLE_System_HAL_PVT.c ****         {
 213:.\Generated_Source\PSoC4/BLE_System_HAL_PVT.c ****             lengthFlash = CY_FLASH_SIZEOF_ROW;
 220              		.loc 1 213 0
 221 001c 8026     		mov	r6, #128
 222 001e 00E0     		b	.L19
 223              	.L22:
 209:.\Generated_Source\PSoC4/BLE_System_HAL_PVT.c ****         }
 224              		.loc 1 209 0
 225 0020 261C     		mov	r6, r4
 226              	.L19:
 227              	.LVL27:
 214:.\Generated_Source\PSoC4/BLE_System_HAL_PVT.c ****         }
 215:.\Generated_Source\PSoC4/BLE_System_HAL_PVT.c ****         rc = CyBLE_Nvram_Write(flashBuffer, tempFlash, lengthFlash);
 228              		.loc 1 215 0
 229 0022 6846     		mov	r0, sp
 230              	.LVL28:
 231 0024 291C     		mov	r1, r5
 232 0026 321C     		mov	r2, r6
 233 0028 FFF7FEFF 		bl	CyBLE_Nvram_Write
 234              	.LVL29:
ARM GAS  C:\Users\310295~1\AppData\Local\Temp\ccw2lzqi.s 			page 9


 216:.\Generated_Source\PSoC4/BLE_System_HAL_PVT.c ****         if(rc != CYRET_SUCCESS)
 235              		.loc 1 216 0
 236 002c 0028     		cmp	r0, #0
 237 002e 04D1     		bne	.L20
 217:.\Generated_Source\PSoC4/BLE_System_HAL_PVT.c ****         {
 218:.\Generated_Source\PSoC4/BLE_System_HAL_PVT.c ****             break;
 219:.\Generated_Source\PSoC4/BLE_System_HAL_PVT.c ****         }
 220:.\Generated_Source\PSoC4/BLE_System_HAL_PVT.c ****         tempFlash += CY_FLASH_SIZEOF_ROW;
 238              		.loc 1 220 0
 239 0030 8035     		add	r5, r5, #128
 240              	.LVL30:
 221:.\Generated_Source\PSoC4/BLE_System_HAL_PVT.c ****         lengthRemaining -= lengthFlash;
 241              		.loc 1 221 0
 242 0032 A41B     		sub	r4, r4, r6
 243              	.LVL31:
 244 0034 A4B2     		uxth	r4, r4
 245              	.LVL32:
 246              	.L18:
 205:.\Generated_Source\PSoC4/BLE_System_HAL_PVT.c ****     {
 247              		.loc 1 205 0
 248 0036 002C     		cmp	r4, #0
 249 0038 EED1     		bne	.L21
 250              	.L20:
 222:.\Generated_Source\PSoC4/BLE_System_HAL_PVT.c ****     }
 223:.\Generated_Source\PSoC4/BLE_System_HAL_PVT.c **** 
 224:.\Generated_Source\PSoC4/BLE_System_HAL_PVT.c ****     return rc;
 225:.\Generated_Source\PSoC4/BLE_System_HAL_PVT.c **** }
 251              		.loc 1 225 0
 252 003a 20B0     		add	sp, sp, #128
 253              		@ sp needed
 254              	.LVL33:
 255              	.LVL34:
 256 003c 70BD     		pop	{r4, r5, r6, pc}
 257              		.cfi_endproc
 258              	.LFE3:
 259              		.size	CyBLE_Nvram_Erase, .-CyBLE_Nvram_Erase
 260 003e C046     		.section	.text.CyBLE_Bless_LlRegRead,"ax",%progbits
 261              		.align	2
 262              		.global	CyBLE_Bless_LlRegRead
 263              		.code	16
 264              		.thumb_func
 265              		.type	CyBLE_Bless_LlRegRead, %function
 266              	CyBLE_Bless_LlRegRead:
 267              	.LFB4:
 226:.\Generated_Source\PSoC4/BLE_System_HAL_PVT.c **** 
 227:.\Generated_Source\PSoC4/BLE_System_HAL_PVT.c **** 
 228:.\Generated_Source\PSoC4/BLE_System_HAL_PVT.c **** /*******************************************************************************
 229:.\Generated_Source\PSoC4/BLE_System_HAL_PVT.c **** * Function Name: CyBLE_Bless_LlRegRead
 230:.\Generated_Source\PSoC4/BLE_System_HAL_PVT.c **** ****************************************************************************//**
 231:.\Generated_Source\PSoC4/BLE_System_HAL_PVT.c **** *
 232:.\Generated_Source\PSoC4/BLE_System_HAL_PVT.c **** *  This API reads the content of the BLESS Link Layer register from the stack.
 233:.\Generated_Source\PSoC4/BLE_System_HAL_PVT.c **** *
 234:.\Generated_Source\PSoC4/BLE_System_HAL_PVT.c **** *  \param blessAddr: the pointer to the BLESS link layer address.
 235:.\Generated_Source\PSoC4/BLE_System_HAL_PVT.c **** *  \param regValue: the pointer to the buffer space to copy the read value.
 236:.\Generated_Source\PSoC4/BLE_System_HAL_PVT.c **** *
 237:.\Generated_Source\PSoC4/BLE_System_HAL_PVT.c **** * \return
 238:.\Generated_Source\PSoC4/BLE_System_HAL_PVT.c **** *  None
ARM GAS  C:\Users\310295~1\AppData\Local\Temp\ccw2lzqi.s 			page 10


 239:.\Generated_Source\PSoC4/BLE_System_HAL_PVT.c **** *
 240:.\Generated_Source\PSoC4/BLE_System_HAL_PVT.c **** *******************************************************************************/
 241:.\Generated_Source\PSoC4/BLE_System_HAL_PVT.c **** void CyBLE_Bless_LlRegRead (const reg32 *blessAddr, uint16 *regValue)
 242:.\Generated_Source\PSoC4/BLE_System_HAL_PVT.c **** {
 268              		.loc 1 242 0
 269              		.cfi_startproc
 270              	.LVL35:
 243:.\Generated_Source\PSoC4/BLE_System_HAL_PVT.c ****     *regValue = (uint16)CY_GET_REG32(blessAddr);
 271              		.loc 1 243 0
 272 0000 0368     		ldr	r3, [r0]
 273 0002 0B80     		strh	r3, [r1]
 244:.\Generated_Source\PSoC4/BLE_System_HAL_PVT.c **** }
 274              		.loc 1 244 0
 275              		@ sp needed
 276 0004 7047     		bx	lr
 277              		.cfi_endproc
 278              	.LFE4:
 279              		.size	CyBLE_Bless_LlRegRead, .-CyBLE_Bless_LlRegRead
 280 0006 C046     		.section	.text.CyBLE_Bless_LlRegWrite,"ax",%progbits
 281              		.align	2
 282              		.global	CyBLE_Bless_LlRegWrite
 283              		.code	16
 284              		.thumb_func
 285              		.type	CyBLE_Bless_LlRegWrite, %function
 286              	CyBLE_Bless_LlRegWrite:
 287              	.LFB5:
 245:.\Generated_Source\PSoC4/BLE_System_HAL_PVT.c **** 
 246:.\Generated_Source\PSoC4/BLE_System_HAL_PVT.c **** 
 247:.\Generated_Source\PSoC4/BLE_System_HAL_PVT.c **** /*******************************************************************************
 248:.\Generated_Source\PSoC4/BLE_System_HAL_PVT.c **** * Function Name: CyBLE_Bless_LlRegWrite
 249:.\Generated_Source\PSoC4/BLE_System_HAL_PVT.c **** ****************************************************************************//**
 250:.\Generated_Source\PSoC4/BLE_System_HAL_PVT.c **** *
 251:.\Generated_Source\PSoC4/BLE_System_HAL_PVT.c **** *  This API writes to the BLESS Link Layer register from the stack.
 252:.\Generated_Source\PSoC4/BLE_System_HAL_PVT.c **** *
 253:.\Generated_Source\PSoC4/BLE_System_HAL_PVT.c **** *  \param blessAddr: the pointer to the BLESS link layer address.
 254:.\Generated_Source\PSoC4/BLE_System_HAL_PVT.c **** *  \param regValue: the pointer to the value to be written to the BLESS LL reg.
 255:.\Generated_Source\PSoC4/BLE_System_HAL_PVT.c **** *
 256:.\Generated_Source\PSoC4/BLE_System_HAL_PVT.c **** * \return
 257:.\Generated_Source\PSoC4/BLE_System_HAL_PVT.c **** *  None
 258:.\Generated_Source\PSoC4/BLE_System_HAL_PVT.c **** *
 259:.\Generated_Source\PSoC4/BLE_System_HAL_PVT.c **** *******************************************************************************/
 260:.\Generated_Source\PSoC4/BLE_System_HAL_PVT.c **** void CyBLE_Bless_LlRegWrite (reg32 *blessAddr, const uint16 regValue)
 261:.\Generated_Source\PSoC4/BLE_System_HAL_PVT.c **** {
 288              		.loc 1 261 0
 289              		.cfi_startproc
 290              	.LVL36:
 262:.\Generated_Source\PSoC4/BLE_System_HAL_PVT.c ****     CY_SET_REG32(blessAddr, regValue);
 291              		.loc 1 262 0
 292 0000 0160     		str	r1, [r0]
 263:.\Generated_Source\PSoC4/BLE_System_HAL_PVT.c **** }
 293              		.loc 1 263 0
 294              		@ sp needed
 295 0002 7047     		bx	lr
 296              		.cfi_endproc
 297              	.LFE5:
 298              		.size	CyBLE_Bless_LlRegWrite, .-CyBLE_Bless_LlRegWrite
 299              		.section	.text.CyBLE_Bless_RfRegRead,"ax",%progbits
ARM GAS  C:\Users\310295~1\AppData\Local\Temp\ccw2lzqi.s 			page 11


 300              		.align	2
 301              		.global	CyBLE_Bless_RfRegRead
 302              		.code	16
 303              		.thumb_func
 304              		.type	CyBLE_Bless_RfRegRead, %function
 305              	CyBLE_Bless_RfRegRead:
 306              	.LFB6:
 264:.\Generated_Source\PSoC4/BLE_System_HAL_PVT.c **** 
 265:.\Generated_Source\PSoC4/BLE_System_HAL_PVT.c **** 
 266:.\Generated_Source\PSoC4/BLE_System_HAL_PVT.c **** /*******************************************************************************
 267:.\Generated_Source\PSoC4/BLE_System_HAL_PVT.c **** * Function Name: CyBLE_Bless_RfRegRead
 268:.\Generated_Source\PSoC4/BLE_System_HAL_PVT.c **** ****************************************************************************//**
 269:.\Generated_Source\PSoC4/BLE_System_HAL_PVT.c **** *
 270:.\Generated_Source\PSoC4/BLE_System_HAL_PVT.c **** *  This API reads the content of the BLESS RF register from the stack.
 271:.\Generated_Source\PSoC4/BLE_System_HAL_PVT.c **** *
 272:.\Generated_Source\PSoC4/BLE_System_HAL_PVT.c **** *  \param blessAddr: the pointer to BLESS RF register address.
 273:.\Generated_Source\PSoC4/BLE_System_HAL_PVT.c **** *  \param regValue: the pointer to the buffer space to copy the read value.
 274:.\Generated_Source\PSoC4/BLE_System_HAL_PVT.c **** *
 275:.\Generated_Source\PSoC4/BLE_System_HAL_PVT.c **** * \return
 276:.\Generated_Source\PSoC4/BLE_System_HAL_PVT.c **** *  None
 277:.\Generated_Source\PSoC4/BLE_System_HAL_PVT.c **** *
 278:.\Generated_Source\PSoC4/BLE_System_HAL_PVT.c **** *******************************************************************************/
 279:.\Generated_Source\PSoC4/BLE_System_HAL_PVT.c **** void CyBLE_Bless_RfRegRead (const reg32 *blessAddr, uint16 *regValue)
 280:.\Generated_Source\PSoC4/BLE_System_HAL_PVT.c **** {
 307              		.loc 1 280 0
 308              		.cfi_startproc
 309              	.LVL37:
 281:.\Generated_Source\PSoC4/BLE_System_HAL_PVT.c ****     *regValue = (uint16)CY_GET_REG32(blessAddr);
 310              		.loc 1 281 0
 311 0000 0368     		ldr	r3, [r0]
 312 0002 0B80     		strh	r3, [r1]
 282:.\Generated_Source\PSoC4/BLE_System_HAL_PVT.c **** }
 313              		.loc 1 282 0
 314              		@ sp needed
 315 0004 7047     		bx	lr
 316              		.cfi_endproc
 317              	.LFE6:
 318              		.size	CyBLE_Bless_RfRegRead, .-CyBLE_Bless_RfRegRead
 319 0006 C046     		.section	.text.CyBLE_Bless_RfRegWrite,"ax",%progbits
 320              		.align	2
 321              		.global	CyBLE_Bless_RfRegWrite
 322              		.code	16
 323              		.thumb_func
 324              		.type	CyBLE_Bless_RfRegWrite, %function
 325              	CyBLE_Bless_RfRegWrite:
 326              	.LFB7:
 283:.\Generated_Source\PSoC4/BLE_System_HAL_PVT.c **** 
 284:.\Generated_Source\PSoC4/BLE_System_HAL_PVT.c **** 
 285:.\Generated_Source\PSoC4/BLE_System_HAL_PVT.c **** /*******************************************************************************
 286:.\Generated_Source\PSoC4/BLE_System_HAL_PVT.c **** * Function Name: CyBLE_Bless_RfRegWrite
 287:.\Generated_Source\PSoC4/BLE_System_HAL_PVT.c **** ****************************************************************************//**
 288:.\Generated_Source\PSoC4/BLE_System_HAL_PVT.c **** *
 289:.\Generated_Source\PSoC4/BLE_System_HAL_PVT.c **** *  This API writes to the BLESS RF register from the stack.
 290:.\Generated_Source\PSoC4/BLE_System_HAL_PVT.c **** *
 291:.\Generated_Source\PSoC4/BLE_System_HAL_PVT.c **** *  \param blessAddr: the pointer to the BLESS RF address.
 292:.\Generated_Source\PSoC4/BLE_System_HAL_PVT.c **** *  \param regValue: the pointer to the value to be written to the BLESS RF reg.
 293:.\Generated_Source\PSoC4/BLE_System_HAL_PVT.c **** *
ARM GAS  C:\Users\310295~1\AppData\Local\Temp\ccw2lzqi.s 			page 12


 294:.\Generated_Source\PSoC4/BLE_System_HAL_PVT.c **** * \return
 295:.\Generated_Source\PSoC4/BLE_System_HAL_PVT.c **** *  None
 296:.\Generated_Source\PSoC4/BLE_System_HAL_PVT.c **** *
 297:.\Generated_Source\PSoC4/BLE_System_HAL_PVT.c **** *******************************************************************************/
 298:.\Generated_Source\PSoC4/BLE_System_HAL_PVT.c **** void CyBLE_Bless_RfRegWrite (reg32 *blessAddr, const uint16 regValue)
 299:.\Generated_Source\PSoC4/BLE_System_HAL_PVT.c **** {
 327              		.loc 1 299 0
 328              		.cfi_startproc
 329              	.LVL38:
 300:.\Generated_Source\PSoC4/BLE_System_HAL_PVT.c ****      CY_SET_REG32(blessAddr, regValue);
 330              		.loc 1 300 0
 331 0000 0160     		str	r1, [r0]
 301:.\Generated_Source\PSoC4/BLE_System_HAL_PVT.c **** }
 332              		.loc 1 301 0
 333              		@ sp needed
 334 0002 7047     		bx	lr
 335              		.cfi_endproc
 336              	.LFE7:
 337              		.size	CyBLE_Bless_RfRegWrite, .-CyBLE_Bless_RfRegWrite
 338              		.section	.text.CyBLE_BlessDeviceConfig,"ax",%progbits
 339              		.align	2
 340              		.global	CyBLE_BlessDeviceConfig
 341              		.code	16
 342              		.thumb_func
 343              		.type	CyBLE_BlessDeviceConfig, %function
 344              	CyBLE_BlessDeviceConfig:
 345              	.LFB8:
 302:.\Generated_Source\PSoC4/BLE_System_HAL_PVT.c **** 
 303:.\Generated_Source\PSoC4/BLE_System_HAL_PVT.c **** /*******************************************************************************
 304:.\Generated_Source\PSoC4/BLE_System_HAL_PVT.c **** * Function Name: CyBLE_BlessDeviceConfig
 305:.\Generated_Source\PSoC4/BLE_System_HAL_PVT.c **** ****************************************************************************//**
 306:.\Generated_Source\PSoC4/BLE_System_HAL_PVT.c **** *
 307:.\Generated_Source\PSoC4/BLE_System_HAL_PVT.c **** *  This function configures BLESS registers by trimmed values stored in SFLASH.
 308:.\Generated_Source\PSoC4/BLE_System_HAL_PVT.c **** *
 309:.\Generated_Source\PSoC4/BLE_System_HAL_PVT.c **** * \return
 310:.\Generated_Source\PSoC4/BLE_System_HAL_PVT.c **** *  None
 311:.\Generated_Source\PSoC4/BLE_System_HAL_PVT.c **** *
 312:.\Generated_Source\PSoC4/BLE_System_HAL_PVT.c **** *******************************************************************************/
 313:.\Generated_Source\PSoC4/BLE_System_HAL_PVT.c **** void CyBLE_BlessDeviceConfig(void)
 314:.\Generated_Source\PSoC4/BLE_System_HAL_PVT.c **** {
 346              		.loc 1 314 0
 347              		.cfi_startproc
 315:.\Generated_Source\PSoC4/BLE_System_HAL_PVT.c ****     uint32 trimRegValue;
 316:.\Generated_Source\PSoC4/BLE_System_HAL_PVT.c ****     uint32 ldo;
 317:.\Generated_Source\PSoC4/BLE_System_HAL_PVT.c ****     uint32 siliconRev;
 318:.\Generated_Source\PSoC4/BLE_System_HAL_PVT.c ****     uint16 trimRef34Val;
 319:.\Generated_Source\PSoC4/BLE_System_HAL_PVT.c ****     uint16 trimRef38Val;
 320:.\Generated_Source\PSoC4/BLE_System_HAL_PVT.c **** 
 321:.\Generated_Source\PSoC4/BLE_System_HAL_PVT.c ****     trimRegValue = ((uint32)CYBLE_SFLASH_BLESS_BB_BUMP2_HIGH_REG << 8u) | CYBLE_SFLASH_BLESS_BB_BUM
 348              		.loc 1 321 0
 349 0000 324B     		ldr	r3, .L40
 350 0002 1A78     		ldrb	r2, [r3]
 351 0004 1202     		lsl	r2, r2, #8
 352 0006 324B     		ldr	r3, .L40+4
 353 0008 1B78     		ldrb	r3, [r3]
 354 000a 1A43     		orr	r2, r3
 355              	.LVL39:
ARM GAS  C:\Users\310295~1\AppData\Local\Temp\ccw2lzqi.s 			page 13


 322:.\Generated_Source\PSoC4/BLE_System_HAL_PVT.c ****     ldo = ((uint32)CYBLE_SFLASH_BLESS_LDO_HIGH_REG << 8u) | CYBLE_SFLASH_BLESS_LDO_LOW_REG;
 356              		.loc 1 322 0
 357 000c 314B     		ldr	r3, .L40+8
 358 000e 1B78     		ldrb	r3, [r3]
 359 0010 1B02     		lsl	r3, r3, #8
 360 0012 3149     		ldr	r1, .L40+12
 361 0014 0978     		ldrb	r1, [r1]
 362 0016 0B43     		orr	r3, r1
 363              	.LVL40:
 323:.\Generated_Source\PSoC4/BLE_System_HAL_PVT.c **** 
 324:.\Generated_Source\PSoC4/BLE_System_HAL_PVT.c ****     if ((ldo == CYBLE_SFLASH_BLERD_LDO_REG_VAL1) && (trimRegValue == CYBLE_SFLASH_BLERD_BB_BUMP2_RE
 364              		.loc 1 324 0
 365 0018 3049     		ldr	r1, .L40+16
 366 001a 8B42     		cmp	r3, r1
 367 001c 01D1     		bne	.L28
 368              		.loc 1 324 0 is_stmt 0 discriminator 1
 369 001e 072A     		cmp	r2, #7
 370 0020 06D0     		beq	.L33
 371              	.L28:
 325:.\Generated_Source\PSoC4/BLE_System_HAL_PVT.c ****     {
 326:.\Generated_Source\PSoC4/BLE_System_HAL_PVT.c ****         ldo = CYBLE_BLERD_LDO_REG_VAL_FINAL;
 327:.\Generated_Source\PSoC4/BLE_System_HAL_PVT.c ****         trimRegValue = CYBLE_BLERD_BB_BUMP2_REG_VAL_FINAL;
 328:.\Generated_Source\PSoC4/BLE_System_HAL_PVT.c ****     }
 329:.\Generated_Source\PSoC4/BLE_System_HAL_PVT.c ****     else if ((ldo == CYBLE_SFLASH_BLERD_LDO_REG_VAL2) && (trimRegValue == CYBLE_BLERD_BB_BUMP2_REG_
 372              		.loc 1 329 0 is_stmt 1
 373 0022 D421     		mov	r1, #212
 374 0024 0901     		lsl	r1, r1, #4
 375 0026 8B42     		cmp	r3, r1
 376 0028 06D1     		bne	.L29
 377              		.loc 1 329 0 is_stmt 0 discriminator 1
 378 002a 042A     		cmp	r2, #4
 379 002c 04D1     		bne	.L29
 380 002e 02E0     		b	.L34
 381              	.L33:
 326:.\Generated_Source\PSoC4/BLE_System_HAL_PVT.c ****         trimRegValue = CYBLE_BLERD_BB_BUMP2_REG_VAL_FINAL;
 382              		.loc 1 326 0 is_stmt 1
 383 0030 2B4B     		ldr	r3, .L40+20
 384              	.LVL41:
 327:.\Generated_Source\PSoC4/BLE_System_HAL_PVT.c ****     }
 385              		.loc 1 327 0
 386 0032 0422     		mov	r2, #4
 387              	.LVL42:
 388 0034 00E0     		b	.L29
 389              	.LVL43:
 390              	.L34:
 330:.\Generated_Source\PSoC4/BLE_System_HAL_PVT.c ****     {
 331:.\Generated_Source\PSoC4/BLE_System_HAL_PVT.c ****         ldo = CYBLE_BLERD_LDO_REG_VAL_FINAL;
 391              		.loc 1 331 0
 392 0036 2A4B     		ldr	r3, .L40+20
 393              	.LVL44:
 394              	.L29:
 332:.\Generated_Source\PSoC4/BLE_System_HAL_PVT.c ****     }
 333:.\Generated_Source\PSoC4/BLE_System_HAL_PVT.c ****     else
 334:.\Generated_Source\PSoC4/BLE_System_HAL_PVT.c ****     {
 335:.\Generated_Source\PSoC4/BLE_System_HAL_PVT.c ****     }
 336:.\Generated_Source\PSoC4/BLE_System_HAL_PVT.c **** 
 337:.\Generated_Source\PSoC4/BLE_System_HAL_PVT.c ****     CYBLE_BLE_BLERD_LDO_REG = ldo;
ARM GAS  C:\Users\310295~1\AppData\Local\Temp\ccw2lzqi.s 			page 14


 395              		.loc 1 337 0
 396 0038 2A49     		ldr	r1, .L40+24
 397 003a 0B60     		str	r3, [r1]
 338:.\Generated_Source\PSoC4/BLE_System_HAL_PVT.c ****     CYBLE_BLE_BLERD_BB_BUMP2_REG = trimRegValue;
 398              		.loc 1 338 0
 399 003c 2A4B     		ldr	r3, .L40+28
 400              	.LVL45:
 401 003e 1A60     		str	r2, [r3]
 402              	.LVL46:
 339:.\Generated_Source\PSoC4/BLE_System_HAL_PVT.c **** 
 340:.\Generated_Source\PSoC4/BLE_System_HAL_PVT.c ****     /* Edit only XTAL fast charge bit */
 341:.\Generated_Source\PSoC4/BLE_System_HAL_PVT.c ****     trimRegValue = ((uint32)CYBLE_SFLASH_BLESS_BB_XO_HIGH_REG << 8u) | CYBLE_SFLASH_BLESS_BB_XO_LOW
 403              		.loc 1 341 0
 404 0040 2A4B     		ldr	r3, .L40+32
 405 0042 1B78     		ldrb	r3, [r3]
 406 0044 1B02     		lsl	r3, r3, #8
 407 0046 2A4A     		ldr	r2, .L40+36
 408              	.LVL47:
 409 0048 1278     		ldrb	r2, [r2]
 410 004a 1343     		orr	r3, r2
 411              	.LVL48:
 342:.\Generated_Source\PSoC4/BLE_System_HAL_PVT.c **** 
 343:.\Generated_Source\PSoC4/BLE_System_HAL_PVT.c ****     if ((trimRegValue == CYBLE_SFLASH_BLERD_BB_XO_REG_VAL1) || (trimRegValue == CYBLE_SFLASH_BLERD_
 412              		.loc 1 343 0
 413 004c 8022     		mov	r2, #128
 414 004e 9201     		lsl	r2, r2, #6
 415 0050 9342     		cmp	r3, r2
 416 0052 02D0     		beq	.L35
 417              		.loc 1 343 0 is_stmt 0 discriminator 1
 418 0054 002B     		cmp	r3, #0
 419 0056 02D0     		beq	.L36
 420 0058 02E0     		b	.L30
 421              	.L35:
 344:.\Generated_Source\PSoC4/BLE_System_HAL_PVT.c ****     {
 345:.\Generated_Source\PSoC4/BLE_System_HAL_PVT.c ****         trimRegValue = CYBLE_BLERD_BB_XO_REG_VAL_FINAL;
 422              		.loc 1 345 0 is_stmt 1
 423 005a 264B     		ldr	r3, .L40+40
 424              	.LVL49:
 425 005c 00E0     		b	.L30
 426              	.LVL50:
 427              	.L36:
 428 005e 254B     		ldr	r3, .L40+40
 429              	.LVL51:
 430              	.L30:
 346:.\Generated_Source\PSoC4/BLE_System_HAL_PVT.c ****     }
 347:.\Generated_Source\PSoC4/BLE_System_HAL_PVT.c ****     
 348:.\Generated_Source\PSoC4/BLE_System_HAL_PVT.c ****     CYBLE_BLE_BLERD_BB_XO_REG = trimRegValue;
 431              		.loc 1 348 0
 432 0060 254A     		ldr	r2, .L40+44
 433 0062 1360     		str	r3, [r2]
 349:.\Generated_Source\PSoC4/BLE_System_HAL_PVT.c ****     
 350:.\Generated_Source\PSoC4/BLE_System_HAL_PVT.c ****     trimRegValue = ((uint32)CYBLE_SFLASH_BLESS_SY_BUMP1_HIGH_REG << 8u) | CYBLE_SFLASH_BLESS_SY_BUM
 434              		.loc 1 350 0
 435 0064 254B     		ldr	r3, .L40+48
 436              	.LVL52:
 437 0066 1B78     		ldrb	r3, [r3]
 438 0068 1B02     		lsl	r3, r3, #8
ARM GAS  C:\Users\310295~1\AppData\Local\Temp\ccw2lzqi.s 			page 15


 439 006a 254A     		ldr	r2, .L40+52
 440              	.LVL53:
 441 006c 1278     		ldrb	r2, [r2]
 442 006e 1343     		orr	r3, r2
 443              	.LVL54:
 351:.\Generated_Source\PSoC4/BLE_System_HAL_PVT.c **** 
 352:.\Generated_Source\PSoC4/BLE_System_HAL_PVT.c ****     if ((trimRegValue == CYBLE_SFLASH_BLERD_SY_BUMP1_REG_VAL1) || 
 444              		.loc 1 352 0
 445 0070 244A     		ldr	r2, .L40+56
 446 0072 9342     		cmp	r3, r2
 447 0074 05D0     		beq	.L37
 448              		.loc 1 352 0 is_stmt 0 discriminator 1
 449 0076 244A     		ldr	r2, .L40+60
 450 0078 9342     		cmp	r3, r2
 451 007a 04D0     		beq	.L38
 353:.\Generated_Source\PSoC4/BLE_System_HAL_PVT.c ****         (trimRegValue == CYBLE_SFLASH_BLERD_SY_BUMP1_REG_VAL2) ||  
 452              		.loc 1 353 0 is_stmt 1
 453 007c 052B     		cmp	r3, #5
 454 007e 05D1     		bne	.L31
 455 0080 03E0     		b	.L39
 456              	.L37:
 354:.\Generated_Source\PSoC4/BLE_System_HAL_PVT.c ****         (trimRegValue == CYBLE_SFLASH_BLERD_SY_BUMP1_REG_VAL3))
 355:.\Generated_Source\PSoC4/BLE_System_HAL_PVT.c ****     {
 356:.\Generated_Source\PSoC4/BLE_System_HAL_PVT.c ****         trimRegValue = CYBLE_BLERD_SY_BUMP1_REG_VAL_FINAL;
 457              		.loc 1 356 0
 458 0082 224B     		ldr	r3, .L40+64
 459              	.LVL55:
 460 0084 02E0     		b	.L31
 461              	.LVL56:
 462              	.L38:
 463 0086 214B     		ldr	r3, .L40+64
 464              	.LVL57:
 465 0088 00E0     		b	.L31
 466              	.LVL58:
 467              	.L39:
 468 008a 204B     		ldr	r3, .L40+64
 469              	.LVL59:
 470              	.L31:
 357:.\Generated_Source\PSoC4/BLE_System_HAL_PVT.c ****     }
 358:.\Generated_Source\PSoC4/BLE_System_HAL_PVT.c ****     CYBLE_BLE_BLERD_SY_BUMP1_REG = trimRegValue;
 471              		.loc 1 358 0
 472 008c 204A     		ldr	r2, .L40+68
 473 008e 1360     		str	r3, [r2]
 359:.\Generated_Source\PSoC4/BLE_System_HAL_PVT.c **** 
 360:.\Generated_Source\PSoC4/BLE_System_HAL_PVT.c ****     /* Following code is for F02FN trimming */
 361:.\Generated_Source\PSoC4/BLE_System_HAL_PVT.c ****     siliconRev = (CYBLE_BLE_SILICON_REV_REG >> 4u);
 474              		.loc 1 361 0
 475 0090 204B     		ldr	r3, .L40+72
 476              	.LVL60:
 477 0092 1B68     		ldr	r3, [r3]
 478 0094 1B09     		lsr	r3, r3, #4
 479              	.LVL61:
 362:.\Generated_Source\PSoC4/BLE_System_HAL_PVT.c ****     
 363:.\Generated_Source\PSoC4/BLE_System_HAL_PVT.c ****     if((CYBLE_BLE_FAMILY_ID_REG == CYBLE_PSOC4A_BLE256DMA_FID) && (siliconRev >= 0x02u) &&
 480              		.loc 1 363 0
 481 0096 204A     		ldr	r2, .L40+76
 482              	.LVL62:
ARM GAS  C:\Users\310295~1\AppData\Local\Temp\ccw2lzqi.s 			page 16


 483 0098 1268     		ldr	r2, [r2]
 484 009a AA2A     		cmp	r2, #170
 485 009c 15D1     		bne	.L27
 486              		.loc 1 363 0 is_stmt 0 discriminator 1
 487 009e 012B     		cmp	r3, #1
 488 00a0 13D9     		bls	.L27
 364:.\Generated_Source\PSoC4/BLE_System_HAL_PVT.c ****         (CYBLE_SFLASH_BLESS_SY_BUMP1_HIGH_REG == 0x0Eu))
 489              		.loc 1 364 0 is_stmt 1 discriminator 2
 490 00a2 164B     		ldr	r3, .L40+48
 491              	.LVL63:
 492 00a4 1B78     		ldrb	r3, [r3]
 363:.\Generated_Source\PSoC4/BLE_System_HAL_PVT.c ****         (CYBLE_SFLASH_BLESS_SY_BUMP1_HIGH_REG == 0x0Eu))
 493              		.loc 1 363 0 discriminator 2
 494 00a6 0E2B     		cmp	r3, #14
 495 00a8 0FD1     		bne	.L27
 365:.\Generated_Source\PSoC4/BLE_System_HAL_PVT.c **** 	{
 366:.\Generated_Source\PSoC4/BLE_System_HAL_PVT.c **** 		trimRef34Val = ((uint16)(((uint16) CYBLE_BLE_BLESS_REG34_TRIM_HIGH_REG) << 8u)) |
 496              		.loc 1 366 0
 497 00aa 1C4B     		ldr	r3, .L40+80
 498 00ac 1B78     		ldrb	r3, [r3]
 499 00ae 1B02     		lsl	r3, r3, #8
 367:.\Generated_Source\PSoC4/BLE_System_HAL_PVT.c ****                         ((uint16)CYBLE_BLE_BLESS_REG34_TRIM_LOW_REG);
 500              		.loc 1 367 0
 501 00b0 1B4A     		ldr	r2, .L40+84
 502 00b2 1278     		ldrb	r2, [r2]
 366:.\Generated_Source\PSoC4/BLE_System_HAL_PVT.c ****                         ((uint16)CYBLE_BLE_BLESS_REG34_TRIM_LOW_REG);
 503              		.loc 1 366 0
 504 00b4 1343     		orr	r3, r2
 505              	.LVL64:
 368:.\Generated_Source\PSoC4/BLE_System_HAL_PVT.c **** 		CYBLE_BLERD_SY_BUMP2_REG = trimRef34Val;
 506              		.loc 1 368 0
 507 00b6 1B4A     		ldr	r2, .L40+88
 508 00b8 1360     		str	r3, [r2]
 509              	.LVL65:
 369:.\Generated_Source\PSoC4/BLE_System_HAL_PVT.c **** 	
 370:.\Generated_Source\PSoC4/BLE_System_HAL_PVT.c **** 		trimRef38Val = ((uint16)(((uint16)CYBLE_BLE_BLESS_REG38_TRIM_HIGH_REG) << 8u)) |
 510              		.loc 1 370 0
 511 00ba 1B4B     		ldr	r3, .L40+92
 512              	.LVL66:
 513 00bc 1B78     		ldrb	r3, [r3]
 514 00be 1B02     		lsl	r3, r3, #8
 371:.\Generated_Source\PSoC4/BLE_System_HAL_PVT.c ****             ((uint16) CYBLE_BLE_BLESS_REG38_TRIM_LOW_REG);
 515              		.loc 1 371 0
 516 00c0 1A4A     		ldr	r2, .L40+96
 517              	.LVL67:
 518 00c2 1278     		ldrb	r2, [r2]
 370:.\Generated_Source\PSoC4/BLE_System_HAL_PVT.c ****             ((uint16) CYBLE_BLE_BLESS_REG38_TRIM_LOW_REG);
 519              		.loc 1 370 0
 520 00c4 1343     		orr	r3, r2
 521              	.LVL68:
 372:.\Generated_Source\PSoC4/BLE_System_HAL_PVT.c **** 		CYBLE_BLERD_RX_BUMP2_REG = trimRef38Val;
 522              		.loc 1 372 0
 523 00c6 1A4A     		ldr	r2, .L40+100
 524 00c8 1360     		str	r3, [r2]
 525              	.LVL69:
 526              	.L27:
 373:.\Generated_Source\PSoC4/BLE_System_HAL_PVT.c **** 	}
ARM GAS  C:\Users\310295~1\AppData\Local\Temp\ccw2lzqi.s 			page 17


 374:.\Generated_Source\PSoC4/BLE_System_HAL_PVT.c **** }
 527              		.loc 1 374 0
 528              		@ sp needed
 529 00ca 7047     		bx	lr
 530              	.L41:
 531              		.align	2
 532              	.L40:
 533 00cc D9F0FF0F 		.word	268431577
 534 00d0 D8F0FF0F 		.word	268431576
 535 00d4 DFF0FF0F 		.word	268431583
 536 00d8 DEF0FF0F 		.word	268431582
 537 00dc 580B0000 		.word	2904
 538 00e0 580D0000 		.word	3416
 539 00e4 6C002E40 		.word	1076756588
 540 00e8 74002E40 		.word	1076756596
 541 00ec DBF0FF0F 		.word	268431579
 542 00f0 DAF0FF0F 		.word	268431578
 543 00f4 02200000 		.word	8194
 544 00f8 78002E40 		.word	1076756600
 545 00fc DDF0FF0F 		.word	268431581
 546 0100 DCF0FF0F 		.word	268431580
 547 0104 0F0F0000 		.word	3855
 548 0108 05050000 		.word	1285
 549 010c 050F0000 		.word	3845
 550 0110 80002E40 		.word	1076756608
 551 0114 EC0F00F0 		.word	-268431380
 552 0118 E00F00F0 		.word	-268431392
 553 011c 6DF2FF0F 		.word	268431981
 554 0120 6CF2FF0F 		.word	268431980
 555 0124 84002E40 		.word	1076756612
 556 0128 6FF2FF0F 		.word	268431983
 557 012c 6EF2FF0F 		.word	268431982
 558 0130 94002E40 		.word	1076756628
 559              		.cfi_endproc
 560              	.LFE8:
 561              		.size	CyBLE_BlessDeviceConfig, .-CyBLE_BlessDeviceConfig
 562              		.section	.text.CyBleHal_DelayUs,"ax",%progbits
 563              		.align	2
 564              		.global	CyBleHal_DelayUs
 565              		.code	16
 566              		.thumb_func
 567              		.type	CyBleHal_DelayUs, %function
 568              	CyBleHal_DelayUs:
 569              	.LFB9:
 375:.\Generated_Source\PSoC4/BLE_System_HAL_PVT.c **** 
 376:.\Generated_Source\PSoC4/BLE_System_HAL_PVT.c **** /* Interface to CyDelayUs function */
 377:.\Generated_Source\PSoC4/BLE_System_HAL_PVT.c **** void CyBleHal_DelayUs(uint16 delayVal)
 378:.\Generated_Source\PSoC4/BLE_System_HAL_PVT.c **** {
 570              		.loc 1 378 0
 571              		.cfi_startproc
 572              	.LVL70:
 573 0000 08B5     		push	{r3, lr}
 574              		.cfi_def_cfa_offset 8
 575              		.cfi_offset 3, -8
 576              		.cfi_offset 14, -4
 379:.\Generated_Source\PSoC4/BLE_System_HAL_PVT.c ****     CyDelayUs(delayVal);
 577              		.loc 1 379 0
ARM GAS  C:\Users\310295~1\AppData\Local\Temp\ccw2lzqi.s 			page 18


 578 0002 FFF7FEFF 		bl	CyDelayUs
 579              	.LVL71:
 380:.\Generated_Source\PSoC4/BLE_System_HAL_PVT.c **** }
 580              		.loc 1 380 0
 581              		@ sp needed
 582 0006 08BD     		pop	{r3, pc}
 583              		.cfi_endproc
 584              	.LFE9:
 585              		.size	CyBleHal_DelayUs, .-CyBleHal_DelayUs
 586              		.section	.text.CyBleHal_DelayMs,"ax",%progbits
 587              		.align	2
 588              		.global	CyBleHal_DelayMs
 589              		.code	16
 590              		.thumb_func
 591              		.type	CyBleHal_DelayMs, %function
 592              	CyBleHal_DelayMs:
 593              	.LFB10:
 381:.\Generated_Source\PSoC4/BLE_System_HAL_PVT.c **** 
 382:.\Generated_Source\PSoC4/BLE_System_HAL_PVT.c **** /* Interface to CyDelay function */
 383:.\Generated_Source\PSoC4/BLE_System_HAL_PVT.c **** void CyBleHal_DelayMs(uint32 delayVal)
 384:.\Generated_Source\PSoC4/BLE_System_HAL_PVT.c **** {
 594              		.loc 1 384 0
 595              		.cfi_startproc
 596              	.LVL72:
 597 0000 08B5     		push	{r3, lr}
 598              		.cfi_def_cfa_offset 8
 599              		.cfi_offset 3, -8
 600              		.cfi_offset 14, -4
 385:.\Generated_Source\PSoC4/BLE_System_HAL_PVT.c ****     CyDelay(delayVal);
 601              		.loc 1 385 0
 602 0002 FFF7FEFF 		bl	CyDelay
 603              	.LVL73:
 386:.\Generated_Source\PSoC4/BLE_System_HAL_PVT.c **** }
 604              		.loc 1 386 0
 605              		@ sp needed
 606 0006 08BD     		pop	{r3, pc}
 607              		.cfi_endproc
 608              	.LFE10:
 609              		.size	CyBleHal_DelayMs, .-CyBleHal_DelayMs
 610              		.section	.text.CyBleHal_EnableGlobalInterrupts,"ax",%progbits
 611              		.align	2
 612              		.global	CyBleHal_EnableGlobalInterrupts
 613              		.code	16
 614              		.thumb_func
 615              		.type	CyBleHal_EnableGlobalInterrupts, %function
 616              	CyBleHal_EnableGlobalInterrupts:
 617              	.LFB11:
 387:.\Generated_Source\PSoC4/BLE_System_HAL_PVT.c **** 
 388:.\Generated_Source\PSoC4/BLE_System_HAL_PVT.c **** /* Interface to BLE_System_bless_isr_Enable function */
 389:.\Generated_Source\PSoC4/BLE_System_HAL_PVT.c **** void CyBleHal_EnableGlobalInterrupts(void)
 390:.\Generated_Source\PSoC4/BLE_System_HAL_PVT.c **** {
 618              		.loc 1 390 0
 619              		.cfi_startproc
 620 0000 08B5     		push	{r3, lr}
 621              		.cfi_def_cfa_offset 8
 622              		.cfi_offset 3, -8
 623              		.cfi_offset 14, -4
ARM GAS  C:\Users\310295~1\AppData\Local\Temp\ccw2lzqi.s 			page 19


 391:.\Generated_Source\PSoC4/BLE_System_HAL_PVT.c ****     BLE_System_bless_isr_Enable();
 624              		.loc 1 391 0
 625 0002 FFF7FEFF 		bl	BLE_System_bless_isr_Enable
 626              	.LVL74:
 392:.\Generated_Source\PSoC4/BLE_System_HAL_PVT.c **** }
 627              		.loc 1 392 0
 628              		@ sp needed
 629 0006 08BD     		pop	{r3, pc}
 630              		.cfi_endproc
 631              	.LFE11:
 632              		.size	CyBleHal_EnableGlobalInterrupts, .-CyBleHal_EnableGlobalInterrupts
 633              		.section	.text.CyBleHal_DisableGlobalInterrupts,"ax",%progbits
 634              		.align	2
 635              		.global	CyBleHal_DisableGlobalInterrupts
 636              		.code	16
 637              		.thumb_func
 638              		.type	CyBleHal_DisableGlobalInterrupts, %function
 639              	CyBleHal_DisableGlobalInterrupts:
 640              	.LFB12:
 393:.\Generated_Source\PSoC4/BLE_System_HAL_PVT.c **** 
 394:.\Generated_Source\PSoC4/BLE_System_HAL_PVT.c **** /* Interface to BLE_System_bless_isr_Disable function */
 395:.\Generated_Source\PSoC4/BLE_System_HAL_PVT.c **** void CyBleHal_DisableGlobalInterrupts(void)
 396:.\Generated_Source\PSoC4/BLE_System_HAL_PVT.c **** {
 641              		.loc 1 396 0
 642              		.cfi_startproc
 643 0000 08B5     		push	{r3, lr}
 644              		.cfi_def_cfa_offset 8
 645              		.cfi_offset 3, -8
 646              		.cfi_offset 14, -4
 397:.\Generated_Source\PSoC4/BLE_System_HAL_PVT.c ****     BLE_System_bless_isr_Disable();
 647              		.loc 1 397 0
 648 0002 FFF7FEFF 		bl	BLE_System_bless_isr_Disable
 649              	.LVL75:
 398:.\Generated_Source\PSoC4/BLE_System_HAL_PVT.c **** }
 650              		.loc 1 398 0
 651              		@ sp needed
 652 0006 08BD     		pop	{r3, pc}
 653              		.cfi_endproc
 654              	.LFE12:
 655              		.size	CyBleHal_DisableGlobalInterrupts, .-CyBleHal_DisableGlobalInterrupts
 656              		.section	.text.CyBle_HalInit,"ax",%progbits
 657              		.align	2
 658              		.global	CyBle_HalInit
 659              		.code	16
 660              		.thumb_func
 661              		.type	CyBle_HalInit, %function
 662              	CyBle_HalInit:
 663              	.LFB13:
 399:.\Generated_Source\PSoC4/BLE_System_HAL_PVT.c **** 
 400:.\Generated_Source\PSoC4/BLE_System_HAL_PVT.c **** /*******************************************************************************
 401:.\Generated_Source\PSoC4/BLE_System_HAL_PVT.c **** * Function Name: CyBle_HalInit
 402:.\Generated_Source\PSoC4/BLE_System_HAL_PVT.c **** ****************************************************************************//**
 403:.\Generated_Source\PSoC4/BLE_System_HAL_PVT.c **** *
 404:.\Generated_Source\PSoC4/BLE_System_HAL_PVT.c **** *  Initializes the BLESS interrupt.
 405:.\Generated_Source\PSoC4/BLE_System_HAL_PVT.c **** *
 406:.\Generated_Source\PSoC4/BLE_System_HAL_PVT.c **** * \return
 407:.\Generated_Source\PSoC4/BLE_System_HAL_PVT.c **** *  None
ARM GAS  C:\Users\310295~1\AppData\Local\Temp\ccw2lzqi.s 			page 20


 408:.\Generated_Source\PSoC4/BLE_System_HAL_PVT.c **** *
 409:.\Generated_Source\PSoC4/BLE_System_HAL_PVT.c **** *******************************************************************************/
 410:.\Generated_Source\PSoC4/BLE_System_HAL_PVT.c **** void CyBle_HalInit(void)
 411:.\Generated_Source\PSoC4/BLE_System_HAL_PVT.c **** {
 664              		.loc 1 411 0
 665              		.cfi_startproc
 666 0000 08B5     		push	{r3, lr}
 667              		.cfi_def_cfa_offset 8
 668              		.cfi_offset 3, -8
 669              		.cfi_offset 14, -4
 412:.\Generated_Source\PSoC4/BLE_System_HAL_PVT.c ****     /* For all we know the interrupt is active. */
 413:.\Generated_Source\PSoC4/BLE_System_HAL_PVT.c ****     BLE_System_bless_isr_Disable();
 670              		.loc 1 413 0
 671 0002 FFF7FEFF 		bl	BLE_System_bless_isr_Disable
 672              	.LVL76:
 414:.\Generated_Source\PSoC4/BLE_System_HAL_PVT.c **** 
 415:.\Generated_Source\PSoC4/BLE_System_HAL_PVT.c ****     /* Set the ISR to point to the BLE_bless_isr Interrupt. */
 416:.\Generated_Source\PSoC4/BLE_System_HAL_PVT.c ****     BLE_System_bless_isr_SetVector(&CyBLE_Bless_Interrupt);
 673              		.loc 1 416 0
 674 0006 0348     		ldr	r0, .L47
 675 0008 FFF7FEFF 		bl	BLE_System_bless_isr_SetVector
 676              	.LVL77:
 417:.\Generated_Source\PSoC4/BLE_System_HAL_PVT.c **** 
 418:.\Generated_Source\PSoC4/BLE_System_HAL_PVT.c ****     /* Set the priority. */
 419:.\Generated_Source\PSoC4/BLE_System_HAL_PVT.c ****     BLE_System_bless_isr_SetPriority((uint8)BLE_System_bless_isr_INTC_PRIOR_NUMBER);
 677              		.loc 1 419 0
 678 000c 0320     		mov	r0, #3
 679 000e FFF7FEFF 		bl	BLE_System_bless_isr_SetPriority
 680              	.LVL78:
 420:.\Generated_Source\PSoC4/BLE_System_HAL_PVT.c **** }
 681              		.loc 1 420 0
 682              		@ sp needed
 683 0012 08BD     		pop	{r3, pc}
 684              	.L48:
 685              		.align	2
 686              	.L47:
 687 0014 00000000 		.word	CyBLE_Bless_Interrupt
 688              		.cfi_endproc
 689              	.LFE13:
 690              		.size	CyBle_HalInit, .-CyBle_HalInit
 691              		.section	.text.CYBLE_BlessStart,"ax",%progbits
 692              		.align	2
 693              		.global	CYBLE_BlessStart
 694              		.code	16
 695              		.thumb_func
 696              		.type	CYBLE_BlessStart, %function
 697              	CYBLE_BlessStart:
 698              	.LFB14:
 421:.\Generated_Source\PSoC4/BLE_System_HAL_PVT.c **** 
 422:.\Generated_Source\PSoC4/BLE_System_HAL_PVT.c **** 
 423:.\Generated_Source\PSoC4/BLE_System_HAL_PVT.c **** /*******************************************************************************
 424:.\Generated_Source\PSoC4/BLE_System_HAL_PVT.c **** * Function Name: CYBLE_BlessStart
 425:.\Generated_Source\PSoC4/BLE_System_HAL_PVT.c **** ****************************************************************************//**
 426:.\Generated_Source\PSoC4/BLE_System_HAL_PVT.c **** *
 427:.\Generated_Source\PSoC4/BLE_System_HAL_PVT.c **** *  Start Interrupt Controller API.
 428:.\Generated_Source\PSoC4/BLE_System_HAL_PVT.c **** *
 429:.\Generated_Source\PSoC4/BLE_System_HAL_PVT.c **** * \return
ARM GAS  C:\Users\310295~1\AppData\Local\Temp\ccw2lzqi.s 			page 21


 430:.\Generated_Source\PSoC4/BLE_System_HAL_PVT.c **** *  None
 431:.\Generated_Source\PSoC4/BLE_System_HAL_PVT.c **** *
 432:.\Generated_Source\PSoC4/BLE_System_HAL_PVT.c **** *******************************************************************************/
 433:.\Generated_Source\PSoC4/BLE_System_HAL_PVT.c **** void CYBLE_BlessStart(void)
 434:.\Generated_Source\PSoC4/BLE_System_HAL_PVT.c **** {
 699              		.loc 1 434 0
 700              		.cfi_startproc
 701 0000 08B5     		push	{r3, lr}
 702              		.cfi_def_cfa_offset 8
 703              		.cfi_offset 3, -8
 704              		.cfi_offset 14, -4
 435:.\Generated_Source\PSoC4/BLE_System_HAL_PVT.c ****     BLE_System_bless_isr_StartEx(&CyBLE_Bless_Interrupt);
 705              		.loc 1 435 0
 706 0002 0248     		ldr	r0, .L50
 707 0004 FFF7FEFF 		bl	BLE_System_bless_isr_StartEx
 708              	.LVL79:
 436:.\Generated_Source\PSoC4/BLE_System_HAL_PVT.c **** }
 709              		.loc 1 436 0
 710              		@ sp needed
 711 0008 08BD     		pop	{r3, pc}
 712              	.L51:
 713 000a C046     		.align	2
 714              	.L50:
 715 000c 00000000 		.word	CyBLE_Bless_Interrupt
 716              		.cfi_endproc
 717              	.LFE14:
 718              		.size	CYBLE_BlessStart, .-CYBLE_BlessStart
 719              		.section	.text.CyBLE_GetIpBlockVersion,"ax",%progbits
 720              		.align	2
 721              		.global	CyBLE_GetIpBlockVersion
 722              		.code	16
 723              		.thumb_func
 724              		.type	CyBLE_GetIpBlockVersion, %function
 725              	CyBLE_GetIpBlockVersion:
 726              	.LFB15:
 437:.\Generated_Source\PSoC4/BLE_System_HAL_PVT.c **** 
 438:.\Generated_Source\PSoC4/BLE_System_HAL_PVT.c **** 
 439:.\Generated_Source\PSoC4/BLE_System_HAL_PVT.c **** /*******************************************************************************
 440:.\Generated_Source\PSoC4/BLE_System_HAL_PVT.c **** * Function Name: CyBLE_GetIpBlockVersion
 441:.\Generated_Source\PSoC4/BLE_System_HAL_PVT.c **** ****************************************************************************//**
 442:.\Generated_Source\PSoC4/BLE_System_HAL_PVT.c **** *
 443:.\Generated_Source\PSoC4/BLE_System_HAL_PVT.c **** * This API returns the version of m0s8bless ip block.
 444:.\Generated_Source\PSoC4/BLE_System_HAL_PVT.c **** *
 445:.\Generated_Source\PSoC4/BLE_System_HAL_PVT.c **** * \return
 446:.\Generated_Source\PSoC4/BLE_System_HAL_PVT.c **** * uint32 bits:
 447:.\Generated_Source\PSoC4/BLE_System_HAL_PVT.c **** * 7:0 - ip version ( 1 - BLE_ver1, 2 - BLE_ver2, 3 - BLE_ver3 )
 448:.\Generated_Source\PSoC4/BLE_System_HAL_PVT.c **** * 15:8 - flash size ( 0 - 128k, 1 - 256k )
 449:.\Generated_Source\PSoC4/BLE_System_HAL_PVT.c **** * 16 - PSVP device
 450:.\Generated_Source\PSoC4/BLE_System_HAL_PVT.c **** * 31:17 - reserved for future usage
 451:.\Generated_Source\PSoC4/BLE_System_HAL_PVT.c **** *
 452:.\Generated_Source\PSoC4/BLE_System_HAL_PVT.c **** *******************************************************************************/
 453:.\Generated_Source\PSoC4/BLE_System_HAL_PVT.c **** uint32 CyBLE_GetIpBlockVersion(void)
 454:.\Generated_Source\PSoC4/BLE_System_HAL_PVT.c **** {
 727              		.loc 1 454 0
 728              		.cfi_startproc
 455:.\Generated_Source\PSoC4/BLE_System_HAL_PVT.c ****     return(((uint32)CYBLE_M0S8BLESS_VERSION) | ((uint32)((uint32)CYBLE_FLASH_SIZE) << 8u) |
 456:.\Generated_Source\PSoC4/BLE_System_HAL_PVT.c ****         ((uint32)(((uint32)CYBLE_PSVP_DEVICE)) << 16u));
ARM GAS  C:\Users\310295~1\AppData\Local\Temp\ccw2lzqi.s 			page 22


 457:.\Generated_Source\PSoC4/BLE_System_HAL_PVT.c **** }
 729              		.loc 1 457 0
 730 0000 0220     		mov	r0, #2
 731 0002 FF30     		add	r0, r0, #255
 732              		@ sp needed
 733 0004 7047     		bx	lr
 734              		.cfi_endproc
 735              	.LFE15:
 736              		.size	CyBLE_GetIpBlockVersion, .-CyBLE_GetIpBlockVersion
 737 0006 C046     		.section	.text.CyBle_Hal_pairing_local_public_key_handler,"ax",%progbits
 738              		.align	2
 739              		.global	CyBle_Hal_pairing_local_public_key_handler
 740              		.code	16
 741              		.thumb_func
 742              		.type	CyBle_Hal_pairing_local_public_key_handler, %function
 743              	CyBle_Hal_pairing_local_public_key_handler:
 744              	.LFB16:
 458:.\Generated_Source\PSoC4/BLE_System_HAL_PVT.c **** 
 459:.\Generated_Source\PSoC4/BLE_System_HAL_PVT.c **** /* Mapping functions for stack size optimization */
 460:.\Generated_Source\PSoC4/BLE_System_HAL_PVT.c **** #if(CYBLE_MODE_PROFILE)
 461:.\Generated_Source\PSoC4/BLE_System_HAL_PVT.c ****     
 462:.\Generated_Source\PSoC4/BLE_System_HAL_PVT.c **** #if(CYBLE_SECURE_CONN_FEATURE_ENABLED)
 463:.\Generated_Source\PSoC4/BLE_System_HAL_PVT.c ****     
 464:.\Generated_Source\PSoC4/BLE_System_HAL_PVT.c ****     CYBLE_API_RESULT_T CyBle_Hal_pairing_local_public_key_handler(void *param)
 465:.\Generated_Source\PSoC4/BLE_System_HAL_PVT.c ****     {
 466:.\Generated_Source\PSoC4/BLE_System_HAL_PVT.c ****         return (CyBle_Hal_mapping_pairing_local_public_key_handler(param));
 467:.\Generated_Source\PSoC4/BLE_System_HAL_PVT.c ****     }
 468:.\Generated_Source\PSoC4/BLE_System_HAL_PVT.c ****      
 469:.\Generated_Source\PSoC4/BLE_System_HAL_PVT.c ****     CYBLE_API_RESULT_T CyBle_Hal_pairing_remote_key_handler(void *param)
 470:.\Generated_Source\PSoC4/BLE_System_HAL_PVT.c ****     {
 471:.\Generated_Source\PSoC4/BLE_System_HAL_PVT.c ****         return (CyBle_Hal_mapping_pairing_remote_key_handler(param));
 472:.\Generated_Source\PSoC4/BLE_System_HAL_PVT.c ****     }
 473:.\Generated_Source\PSoC4/BLE_System_HAL_PVT.c ****      
 474:.\Generated_Source\PSoC4/BLE_System_HAL_PVT.c ****     CYBLE_API_RESULT_T CyBle_Hal_pairing_dhkey_handler(void *param)
 475:.\Generated_Source\PSoC4/BLE_System_HAL_PVT.c ****     {
 476:.\Generated_Source\PSoC4/BLE_System_HAL_PVT.c ****         return (CyBle_Hal_mapping_pairing_dhkey_handler(param));
 477:.\Generated_Source\PSoC4/BLE_System_HAL_PVT.c ****     }
 478:.\Generated_Source\PSoC4/BLE_System_HAL_PVT.c **** 
 479:.\Generated_Source\PSoC4/BLE_System_HAL_PVT.c ****     CYBLE_API_RESULT_T CyBle_Hal_pairing_dhkey_check_handler(void *param)
 480:.\Generated_Source\PSoC4/BLE_System_HAL_PVT.c ****     {
 481:.\Generated_Source\PSoC4/BLE_System_HAL_PVT.c ****         return (CyBle_Hal_mapping_pairing_dhkey_check_handler(param));
 482:.\Generated_Source\PSoC4/BLE_System_HAL_PVT.c ****     }
 483:.\Generated_Source\PSoC4/BLE_System_HAL_PVT.c **** 
 484:.\Generated_Source\PSoC4/BLE_System_HAL_PVT.c ****     CYBLE_API_RESULT_T CyBle_Hal_pairing_keypress_notification_handler(void *param)
 485:.\Generated_Source\PSoC4/BLE_System_HAL_PVT.c ****     {
 486:.\Generated_Source\PSoC4/BLE_System_HAL_PVT.c ****         return (CyBle_Hal_mapping_pairing_keypress_notification_handler(param));
 487:.\Generated_Source\PSoC4/BLE_System_HAL_PVT.c ****     }
 488:.\Generated_Source\PSoC4/BLE_System_HAL_PVT.c **** 
 489:.\Generated_Source\PSoC4/BLE_System_HAL_PVT.c ****     CYBLE_API_RESULT_T CyBle_Hal_pairing_rand_handler(void *param)
 490:.\Generated_Source\PSoC4/BLE_System_HAL_PVT.c ****     {
 491:.\Generated_Source\PSoC4/BLE_System_HAL_PVT.c ****         return (CyBle_Hal_mapping_pairing_rand_handler(param));
 492:.\Generated_Source\PSoC4/BLE_System_HAL_PVT.c ****     }
 493:.\Generated_Source\PSoC4/BLE_System_HAL_PVT.c **** 
 494:.\Generated_Source\PSoC4/BLE_System_HAL_PVT.c ****     CYBLE_API_RESULT_T CyBle_Hal_pairing_confirm_handler(void *param)
 495:.\Generated_Source\PSoC4/BLE_System_HAL_PVT.c ****     {
 496:.\Generated_Source\PSoC4/BLE_System_HAL_PVT.c ****         return (CyBle_Hal_mapping_pairing_confirm_handler(param));
 497:.\Generated_Source\PSoC4/BLE_System_HAL_PVT.c ****     }
ARM GAS  C:\Users\310295~1\AppData\Local\Temp\ccw2lzqi.s 			page 23


 498:.\Generated_Source\PSoC4/BLE_System_HAL_PVT.c **** 
 499:.\Generated_Source\PSoC4/BLE_System_HAL_PVT.c ****     CYBLE_API_RESULT_T CyBle_Hal_pairing_lr_confirming_handler(void *param)
 500:.\Generated_Source\PSoC4/BLE_System_HAL_PVT.c ****     {
 501:.\Generated_Source\PSoC4/BLE_System_HAL_PVT.c ****         return (CyBle_Hal_mapping_pairing_lr_confirming_handler(param));
 502:.\Generated_Source\PSoC4/BLE_System_HAL_PVT.c ****     }
 503:.\Generated_Source\PSoC4/BLE_System_HAL_PVT.c ****     
 504:.\Generated_Source\PSoC4/BLE_System_HAL_PVT.c ****     CYBLE_API_RESULT_T CyBle_Hal_pairing_sc_tbx_dhkey_generate_complete(void* param)
 505:.\Generated_Source\PSoC4/BLE_System_HAL_PVT.c ****     {
 506:.\Generated_Source\PSoC4/BLE_System_HAL_PVT.c ****         CyBle_Hal_mapping_tbx_dhkey_generate_complete(param);
 507:.\Generated_Source\PSoC4/BLE_System_HAL_PVT.c ****         return (CYBLE_ERROR_OK);
 508:.\Generated_Source\PSoC4/BLE_System_HAL_PVT.c ****     }
 509:.\Generated_Source\PSoC4/BLE_System_HAL_PVT.c **** 
 510:.\Generated_Source\PSoC4/BLE_System_HAL_PVT.c ****     CYBLE_API_RESULT_T CyBle_Hal_pairing_sc_tbx_local_pubkey_generate_complete(void)
 511:.\Generated_Source\PSoC4/BLE_System_HAL_PVT.c ****     {
 512:.\Generated_Source\PSoC4/BLE_System_HAL_PVT.c ****         CyBle_Hal_mapping_tbx_local_pubkey_generate_complete();
 513:.\Generated_Source\PSoC4/BLE_System_HAL_PVT.c ****         return (CYBLE_ERROR_OK);
 514:.\Generated_Source\PSoC4/BLE_System_HAL_PVT.c ****     }
 515:.\Generated_Source\PSoC4/BLE_System_HAL_PVT.c **** 
 516:.\Generated_Source\PSoC4/BLE_System_HAL_PVT.c ****     CYBLE_API_RESULT_T CyBle_Hal_pairing_sc_tbx_generate_local_P256_public_key(uint8 param)
 517:.\Generated_Source\PSoC4/BLE_System_HAL_PVT.c ****     {
 518:.\Generated_Source\PSoC4/BLE_System_HAL_PVT.c ****         return (CyBle_Hal_mapping_tbx_generate_local_P256_public_key(param));
 519:.\Generated_Source\PSoC4/BLE_System_HAL_PVT.c ****     }
 520:.\Generated_Source\PSoC4/BLE_System_HAL_PVT.c **** 
 521:.\Generated_Source\PSoC4/BLE_System_HAL_PVT.c ****     CYBLE_API_RESULT_T CyBle_Hal_pairing_sc_tbx_generate_DHkey(void  * param1, void  * param2)
 522:.\Generated_Source\PSoC4/BLE_System_HAL_PVT.c ****     {
 523:.\Generated_Source\PSoC4/BLE_System_HAL_PVT.c ****         return (CyBle_Hal_mapping_tbx_generate_DHkey(param1, param2));
 524:.\Generated_Source\PSoC4/BLE_System_HAL_PVT.c ****     }
 525:.\Generated_Source\PSoC4/BLE_System_HAL_PVT.c **** 
 526:.\Generated_Source\PSoC4/BLE_System_HAL_PVT.c ****     void CyBle_Hal_smp_sc_cmac_complete(void)
 527:.\Generated_Source\PSoC4/BLE_System_HAL_PVT.c ****     {
 528:.\Generated_Source\PSoC4/BLE_System_HAL_PVT.c ****        CyBle_Hal_Mapping_smp_sc_cmac_complete();
 529:.\Generated_Source\PSoC4/BLE_System_HAL_PVT.c ****     }
 530:.\Generated_Source\PSoC4/BLE_System_HAL_PVT.c **** 
 531:.\Generated_Source\PSoC4/BLE_System_HAL_PVT.c ****     CYBLE_API_RESULT_T CyBle_Hal_se_smp_sc_user_passkey_handler(void *param1, void *param2)
 532:.\Generated_Source\PSoC4/BLE_System_HAL_PVT.c ****     {
 533:.\Generated_Source\PSoC4/BLE_System_HAL_PVT.c ****         return (CyBle_Hal_mapping_se_smp_sc_user_passkey_handler(param1, param2));
 534:.\Generated_Source\PSoC4/BLE_System_HAL_PVT.c ****     }
 535:.\Generated_Source\PSoC4/BLE_System_HAL_PVT.c **** 
 536:.\Generated_Source\PSoC4/BLE_System_HAL_PVT.c ****     void CyBle_Hal_EccPointMult(void)
 537:.\Generated_Source\PSoC4/BLE_System_HAL_PVT.c ****     {
 538:.\Generated_Source\PSoC4/BLE_System_HAL_PVT.c ****         CyBle_Hal_Mapping_EccPointMult();
 539:.\Generated_Source\PSoC4/BLE_System_HAL_PVT.c ****     }
 540:.\Generated_Source\PSoC4/BLE_System_HAL_PVT.c ****     
 541:.\Generated_Source\PSoC4/BLE_System_HAL_PVT.c **** #else     /* If feature is not required, return error. */
 542:.\Generated_Source\PSoC4/BLE_System_HAL_PVT.c ****     
 543:.\Generated_Source\PSoC4/BLE_System_HAL_PVT.c ****     CYBLE_API_RESULT_T CyBle_Hal_pairing_local_public_key_handler(void *param CYBLE_UNUSED_ATTR)
 544:.\Generated_Source\PSoC4/BLE_System_HAL_PVT.c ****     {
 745              		.loc 1 544 0
 746              		.cfi_startproc
 747              	.LVL80:
 545:.\Generated_Source\PSoC4/BLE_System_HAL_PVT.c ****         return (CYBLE_ERROR_UNSUPPORTED_FEATURE_OR_PARAMETER_VALUE);
 546:.\Generated_Source\PSoC4/BLE_System_HAL_PVT.c ****     }
 748              		.loc 1 546 0
 749 0000 2B20     		mov	r0, #43
 750              	.LVL81:
 751              		@ sp needed
 752 0002 7047     		bx	lr
ARM GAS  C:\Users\310295~1\AppData\Local\Temp\ccw2lzqi.s 			page 24


 753              		.cfi_endproc
 754              	.LFE16:
 755              		.size	CyBle_Hal_pairing_local_public_key_handler, .-CyBle_Hal_pairing_local_public_key_handler
 756              		.section	.text.CyBle_Hal_pairing_remote_key_handler,"ax",%progbits
 757              		.align	2
 758              		.global	CyBle_Hal_pairing_remote_key_handler
 759              		.code	16
 760              		.thumb_func
 761              		.type	CyBle_Hal_pairing_remote_key_handler, %function
 762              	CyBle_Hal_pairing_remote_key_handler:
 763              	.LFB17:
 547:.\Generated_Source\PSoC4/BLE_System_HAL_PVT.c ****      
 548:.\Generated_Source\PSoC4/BLE_System_HAL_PVT.c ****     CYBLE_API_RESULT_T CyBle_Hal_pairing_remote_key_handler(void *param CYBLE_UNUSED_ATTR)
 549:.\Generated_Source\PSoC4/BLE_System_HAL_PVT.c ****     {
 764              		.loc 1 549 0
 765              		.cfi_startproc
 766              	.LVL82:
 550:.\Generated_Source\PSoC4/BLE_System_HAL_PVT.c ****         return (CYBLE_ERROR_UNSUPPORTED_FEATURE_OR_PARAMETER_VALUE);
 551:.\Generated_Source\PSoC4/BLE_System_HAL_PVT.c ****     }
 767              		.loc 1 551 0
 768 0000 2B20     		mov	r0, #43
 769              	.LVL83:
 770              		@ sp needed
 771 0002 7047     		bx	lr
 772              		.cfi_endproc
 773              	.LFE17:
 774              		.size	CyBle_Hal_pairing_remote_key_handler, .-CyBle_Hal_pairing_remote_key_handler
 775              		.section	.text.CyBle_Hal_pairing_dhkey_handler,"ax",%progbits
 776              		.align	2
 777              		.global	CyBle_Hal_pairing_dhkey_handler
 778              		.code	16
 779              		.thumb_func
 780              		.type	CyBle_Hal_pairing_dhkey_handler, %function
 781              	CyBle_Hal_pairing_dhkey_handler:
 782              	.LFB18:
 552:.\Generated_Source\PSoC4/BLE_System_HAL_PVT.c ****      
 553:.\Generated_Source\PSoC4/BLE_System_HAL_PVT.c ****     CYBLE_API_RESULT_T CyBle_Hal_pairing_dhkey_handler(void *param CYBLE_UNUSED_ATTR)
 554:.\Generated_Source\PSoC4/BLE_System_HAL_PVT.c ****     {
 783              		.loc 1 554 0
 784              		.cfi_startproc
 785              	.LVL84:
 555:.\Generated_Source\PSoC4/BLE_System_HAL_PVT.c ****         return (CYBLE_ERROR_UNSUPPORTED_FEATURE_OR_PARAMETER_VALUE);
 556:.\Generated_Source\PSoC4/BLE_System_HAL_PVT.c ****     }
 786              		.loc 1 556 0
 787 0000 2B20     		mov	r0, #43
 788              	.LVL85:
 789              		@ sp needed
 790 0002 7047     		bx	lr
 791              		.cfi_endproc
 792              	.LFE18:
 793              		.size	CyBle_Hal_pairing_dhkey_handler, .-CyBle_Hal_pairing_dhkey_handler
 794              		.section	.text.CyBle_Hal_pairing_dhkey_check_handler,"ax",%progbits
 795              		.align	2
 796              		.global	CyBle_Hal_pairing_dhkey_check_handler
 797              		.code	16
 798              		.thumb_func
 799              		.type	CyBle_Hal_pairing_dhkey_check_handler, %function
ARM GAS  C:\Users\310295~1\AppData\Local\Temp\ccw2lzqi.s 			page 25


 800              	CyBle_Hal_pairing_dhkey_check_handler:
 801              	.LFB19:
 557:.\Generated_Source\PSoC4/BLE_System_HAL_PVT.c **** 
 558:.\Generated_Source\PSoC4/BLE_System_HAL_PVT.c ****     CYBLE_API_RESULT_T CyBle_Hal_pairing_dhkey_check_handler(void *param CYBLE_UNUSED_ATTR)
 559:.\Generated_Source\PSoC4/BLE_System_HAL_PVT.c ****     {
 802              		.loc 1 559 0
 803              		.cfi_startproc
 804              	.LVL86:
 560:.\Generated_Source\PSoC4/BLE_System_HAL_PVT.c ****         return (CYBLE_ERROR_UNSUPPORTED_FEATURE_OR_PARAMETER_VALUE);
 561:.\Generated_Source\PSoC4/BLE_System_HAL_PVT.c ****     }
 805              		.loc 1 561 0
 806 0000 2B20     		mov	r0, #43
 807              	.LVL87:
 808              		@ sp needed
 809 0002 7047     		bx	lr
 810              		.cfi_endproc
 811              	.LFE19:
 812              		.size	CyBle_Hal_pairing_dhkey_check_handler, .-CyBle_Hal_pairing_dhkey_check_handler
 813              		.section	.text.CyBle_Hal_pairing_keypress_notification_handler,"ax",%progbits
 814              		.align	2
 815              		.global	CyBle_Hal_pairing_keypress_notification_handler
 816              		.code	16
 817              		.thumb_func
 818              		.type	CyBle_Hal_pairing_keypress_notification_handler, %function
 819              	CyBle_Hal_pairing_keypress_notification_handler:
 820              	.LFB20:
 562:.\Generated_Source\PSoC4/BLE_System_HAL_PVT.c **** 
 563:.\Generated_Source\PSoC4/BLE_System_HAL_PVT.c ****     CYBLE_API_RESULT_T CyBle_Hal_pairing_keypress_notification_handler(void *param CYBLE_UNUSED_ATT
 564:.\Generated_Source\PSoC4/BLE_System_HAL_PVT.c ****     {
 821              		.loc 1 564 0
 822              		.cfi_startproc
 823              	.LVL88:
 565:.\Generated_Source\PSoC4/BLE_System_HAL_PVT.c ****         return (CYBLE_ERROR_UNSUPPORTED_FEATURE_OR_PARAMETER_VALUE);
 566:.\Generated_Source\PSoC4/BLE_System_HAL_PVT.c ****     }
 824              		.loc 1 566 0
 825 0000 2B20     		mov	r0, #43
 826              	.LVL89:
 827              		@ sp needed
 828 0002 7047     		bx	lr
 829              		.cfi_endproc
 830              	.LFE20:
 831              		.size	CyBle_Hal_pairing_keypress_notification_handler, .-CyBle_Hal_pairing_keypress_notification_h
 832              		.section	.text.CyBle_Hal_pairing_rand_handler,"ax",%progbits
 833              		.align	2
 834              		.global	CyBle_Hal_pairing_rand_handler
 835              		.code	16
 836              		.thumb_func
 837              		.type	CyBle_Hal_pairing_rand_handler, %function
 838              	CyBle_Hal_pairing_rand_handler:
 839              	.LFB21:
 567:.\Generated_Source\PSoC4/BLE_System_HAL_PVT.c **** 
 568:.\Generated_Source\PSoC4/BLE_System_HAL_PVT.c ****     CYBLE_API_RESULT_T CyBle_Hal_pairing_rand_handler(void *param CYBLE_UNUSED_ATTR)
 569:.\Generated_Source\PSoC4/BLE_System_HAL_PVT.c ****     {
 840              		.loc 1 569 0
 841              		.cfi_startproc
 842              	.LVL90:
 570:.\Generated_Source\PSoC4/BLE_System_HAL_PVT.c ****         return (CYBLE_ERROR_UNSUPPORTED_FEATURE_OR_PARAMETER_VALUE);
ARM GAS  C:\Users\310295~1\AppData\Local\Temp\ccw2lzqi.s 			page 26


 571:.\Generated_Source\PSoC4/BLE_System_HAL_PVT.c ****     }
 843              		.loc 1 571 0
 844 0000 2B20     		mov	r0, #43
 845              	.LVL91:
 846              		@ sp needed
 847 0002 7047     		bx	lr
 848              		.cfi_endproc
 849              	.LFE21:
 850              		.size	CyBle_Hal_pairing_rand_handler, .-CyBle_Hal_pairing_rand_handler
 851              		.section	.text.CyBle_Hal_pairing_confirm_handler,"ax",%progbits
 852              		.align	2
 853              		.global	CyBle_Hal_pairing_confirm_handler
 854              		.code	16
 855              		.thumb_func
 856              		.type	CyBle_Hal_pairing_confirm_handler, %function
 857              	CyBle_Hal_pairing_confirm_handler:
 858              	.LFB22:
 572:.\Generated_Source\PSoC4/BLE_System_HAL_PVT.c ****     
 573:.\Generated_Source\PSoC4/BLE_System_HAL_PVT.c ****     CYBLE_API_RESULT_T CyBle_Hal_pairing_confirm_handler(void *param CYBLE_UNUSED_ATTR)
 574:.\Generated_Source\PSoC4/BLE_System_HAL_PVT.c ****     {
 859              		.loc 1 574 0
 860              		.cfi_startproc
 861              	.LVL92:
 575:.\Generated_Source\PSoC4/BLE_System_HAL_PVT.c ****         return (CYBLE_ERROR_UNSUPPORTED_FEATURE_OR_PARAMETER_VALUE);
 576:.\Generated_Source\PSoC4/BLE_System_HAL_PVT.c ****     }
 862              		.loc 1 576 0
 863 0000 2B20     		mov	r0, #43
 864              	.LVL93:
 865              		@ sp needed
 866 0002 7047     		bx	lr
 867              		.cfi_endproc
 868              	.LFE22:
 869              		.size	CyBle_Hal_pairing_confirm_handler, .-CyBle_Hal_pairing_confirm_handler
 870              		.section	.text.CyBle_Hal_pairing_lr_confirming_handler,"ax",%progbits
 871              		.align	2
 872              		.global	CyBle_Hal_pairing_lr_confirming_handler
 873              		.code	16
 874              		.thumb_func
 875              		.type	CyBle_Hal_pairing_lr_confirming_handler, %function
 876              	CyBle_Hal_pairing_lr_confirming_handler:
 877              	.LFB23:
 577:.\Generated_Source\PSoC4/BLE_System_HAL_PVT.c **** 
 578:.\Generated_Source\PSoC4/BLE_System_HAL_PVT.c ****     CYBLE_API_RESULT_T CyBle_Hal_pairing_lr_confirming_handler(void *param CYBLE_UNUSED_ATTR)
 579:.\Generated_Source\PSoC4/BLE_System_HAL_PVT.c ****     {
 878              		.loc 1 579 0
 879              		.cfi_startproc
 880              	.LVL94:
 580:.\Generated_Source\PSoC4/BLE_System_HAL_PVT.c ****         return (CYBLE_ERROR_UNSUPPORTED_FEATURE_OR_PARAMETER_VALUE);
 581:.\Generated_Source\PSoC4/BLE_System_HAL_PVT.c ****     }
 881              		.loc 1 581 0
 882 0000 2B20     		mov	r0, #43
 883              	.LVL95:
 884              		@ sp needed
 885 0002 7047     		bx	lr
 886              		.cfi_endproc
 887              	.LFE23:
 888              		.size	CyBle_Hal_pairing_lr_confirming_handler, .-CyBle_Hal_pairing_lr_confirming_handler
ARM GAS  C:\Users\310295~1\AppData\Local\Temp\ccw2lzqi.s 			page 27


 889              		.section	.text.CyBle_Hal_pairing_sc_tbx_dhkey_generate_complete,"ax",%progbits
 890              		.align	2
 891              		.global	CyBle_Hal_pairing_sc_tbx_dhkey_generate_complete
 892              		.code	16
 893              		.thumb_func
 894              		.type	CyBle_Hal_pairing_sc_tbx_dhkey_generate_complete, %function
 895              	CyBle_Hal_pairing_sc_tbx_dhkey_generate_complete:
 896              	.LFB24:
 582:.\Generated_Source\PSoC4/BLE_System_HAL_PVT.c ****     
 583:.\Generated_Source\PSoC4/BLE_System_HAL_PVT.c ****     CYBLE_API_RESULT_T CyBle_Hal_pairing_sc_tbx_dhkey_generate_complete(void* param CYBLE_UNUSED_AT
 584:.\Generated_Source\PSoC4/BLE_System_HAL_PVT.c ****     {
 897              		.loc 1 584 0
 898              		.cfi_startproc
 899              	.LVL96:
 585:.\Generated_Source\PSoC4/BLE_System_HAL_PVT.c ****         return (CYBLE_ERROR_UNSUPPORTED_FEATURE_OR_PARAMETER_VALUE);
 586:.\Generated_Source\PSoC4/BLE_System_HAL_PVT.c ****     }
 900              		.loc 1 586 0
 901 0000 2B20     		mov	r0, #43
 902              	.LVL97:
 903              		@ sp needed
 904 0002 7047     		bx	lr
 905              		.cfi_endproc
 906              	.LFE24:
 907              		.size	CyBle_Hal_pairing_sc_tbx_dhkey_generate_complete, .-CyBle_Hal_pairing_sc_tbx_dhkey_generate_
 908              		.section	.text.CyBle_Hal_pairing_sc_tbx_local_pubkey_generate_complete,"ax",%progbits
 909              		.align	2
 910              		.global	CyBle_Hal_pairing_sc_tbx_local_pubkey_generate_complete
 911              		.code	16
 912              		.thumb_func
 913              		.type	CyBle_Hal_pairing_sc_tbx_local_pubkey_generate_complete, %function
 914              	CyBle_Hal_pairing_sc_tbx_local_pubkey_generate_complete:
 915              	.LFB25:
 587:.\Generated_Source\PSoC4/BLE_System_HAL_PVT.c **** 
 588:.\Generated_Source\PSoC4/BLE_System_HAL_PVT.c ****     CYBLE_API_RESULT_T CyBle_Hal_pairing_sc_tbx_local_pubkey_generate_complete(void)
 589:.\Generated_Source\PSoC4/BLE_System_HAL_PVT.c ****     {
 916              		.loc 1 589 0
 917              		.cfi_startproc
 590:.\Generated_Source\PSoC4/BLE_System_HAL_PVT.c ****         return (CYBLE_ERROR_UNSUPPORTED_FEATURE_OR_PARAMETER_VALUE);
 591:.\Generated_Source\PSoC4/BLE_System_HAL_PVT.c ****     }
 918              		.loc 1 591 0
 919 0000 2B20     		mov	r0, #43
 920              		@ sp needed
 921 0002 7047     		bx	lr
 922              		.cfi_endproc
 923              	.LFE25:
 924              		.size	CyBle_Hal_pairing_sc_tbx_local_pubkey_generate_complete, .-CyBle_Hal_pairing_sc_tbx_local_pu
 925              		.section	.text.CyBle_Hal_pairing_sc_tbx_generate_local_P256_public_key,"ax",%progbits
 926              		.align	2
 927              		.global	CyBle_Hal_pairing_sc_tbx_generate_local_P256_public_key
 928              		.code	16
 929              		.thumb_func
 930              		.type	CyBle_Hal_pairing_sc_tbx_generate_local_P256_public_key, %function
 931              	CyBle_Hal_pairing_sc_tbx_generate_local_P256_public_key:
 932              	.LFB26:
 592:.\Generated_Source\PSoC4/BLE_System_HAL_PVT.c **** 
 593:.\Generated_Source\PSoC4/BLE_System_HAL_PVT.c ****     CYBLE_API_RESULT_T CyBle_Hal_pairing_sc_tbx_generate_local_P256_public_key(uint8 param CYBLE_UN
 594:.\Generated_Source\PSoC4/BLE_System_HAL_PVT.c ****     {
ARM GAS  C:\Users\310295~1\AppData\Local\Temp\ccw2lzqi.s 			page 28


 933              		.loc 1 594 0
 934              		.cfi_startproc
 935              	.LVL98:
 595:.\Generated_Source\PSoC4/BLE_System_HAL_PVT.c ****         return (CYBLE_ERROR_UNSUPPORTED_FEATURE_OR_PARAMETER_VALUE);
 596:.\Generated_Source\PSoC4/BLE_System_HAL_PVT.c ****     }
 936              		.loc 1 596 0
 937 0000 2B20     		mov	r0, #43
 938              	.LVL99:
 939              		@ sp needed
 940 0002 7047     		bx	lr
 941              		.cfi_endproc
 942              	.LFE26:
 943              		.size	CyBle_Hal_pairing_sc_tbx_generate_local_P256_public_key, .-CyBle_Hal_pairing_sc_tbx_generate
 944              		.section	.text.CyBle_Hal_pairing_sc_tbx_generate_DHkey,"ax",%progbits
 945              		.align	2
 946              		.global	CyBle_Hal_pairing_sc_tbx_generate_DHkey
 947              		.code	16
 948              		.thumb_func
 949              		.type	CyBle_Hal_pairing_sc_tbx_generate_DHkey, %function
 950              	CyBle_Hal_pairing_sc_tbx_generate_DHkey:
 951              	.LFB27:
 597:.\Generated_Source\PSoC4/BLE_System_HAL_PVT.c **** 
 598:.\Generated_Source\PSoC4/BLE_System_HAL_PVT.c ****     CYBLE_API_RESULT_T CyBle_Hal_pairing_sc_tbx_generate_DHkey(void  * param1 CYBLE_UNUSED_ATTR,
 599:.\Generated_Source\PSoC4/BLE_System_HAL_PVT.c ****                                                                void  * param2 CYBLE_UNUSED_ATTR)
 600:.\Generated_Source\PSoC4/BLE_System_HAL_PVT.c ****     {
 952              		.loc 1 600 0
 953              		.cfi_startproc
 954              	.LVL100:
 601:.\Generated_Source\PSoC4/BLE_System_HAL_PVT.c ****         return (CYBLE_ERROR_UNSUPPORTED_FEATURE_OR_PARAMETER_VALUE);
 602:.\Generated_Source\PSoC4/BLE_System_HAL_PVT.c ****     }
 955              		.loc 1 602 0
 956 0000 2B20     		mov	r0, #43
 957              	.LVL101:
 958              		@ sp needed
 959 0002 7047     		bx	lr
 960              		.cfi_endproc
 961              	.LFE27:
 962              		.size	CyBle_Hal_pairing_sc_tbx_generate_DHkey, .-CyBle_Hal_pairing_sc_tbx_generate_DHkey
 963              		.section	.text.CyBle_Hal_smp_sc_cmac_complete,"ax",%progbits
 964              		.align	2
 965              		.global	CyBle_Hal_smp_sc_cmac_complete
 966              		.code	16
 967              		.thumb_func
 968              		.type	CyBle_Hal_smp_sc_cmac_complete, %function
 969              	CyBle_Hal_smp_sc_cmac_complete:
 970              	.LFB28:
 603:.\Generated_Source\PSoC4/BLE_System_HAL_PVT.c **** 
 604:.\Generated_Source\PSoC4/BLE_System_HAL_PVT.c ****     void CyBle_Hal_smp_sc_cmac_complete(void)
 605:.\Generated_Source\PSoC4/BLE_System_HAL_PVT.c ****     {
 971              		.loc 1 605 0
 972              		.cfi_startproc
 606:.\Generated_Source\PSoC4/BLE_System_HAL_PVT.c ****     }
 973              		.loc 1 606 0
 974              		@ sp needed
 975 0000 7047     		bx	lr
 976              		.cfi_endproc
 977              	.LFE28:
ARM GAS  C:\Users\310295~1\AppData\Local\Temp\ccw2lzqi.s 			page 29


 978              		.size	CyBle_Hal_smp_sc_cmac_complete, .-CyBle_Hal_smp_sc_cmac_complete
 979 0002 C046     		.section	.text.CyBle_Hal_se_smp_sc_user_passkey_handler,"ax",%progbits
 980              		.align	2
 981              		.global	CyBle_Hal_se_smp_sc_user_passkey_handler
 982              		.code	16
 983              		.thumb_func
 984              		.type	CyBle_Hal_se_smp_sc_user_passkey_handler, %function
 985              	CyBle_Hal_se_smp_sc_user_passkey_handler:
 986              	.LFB29:
 607:.\Generated_Source\PSoC4/BLE_System_HAL_PVT.c **** 
 608:.\Generated_Source\PSoC4/BLE_System_HAL_PVT.c ****     CYBLE_API_RESULT_T CyBle_Hal_se_smp_sc_user_passkey_handler(void  * param1 CYBLE_UNUSED_ATTR,
 609:.\Generated_Source\PSoC4/BLE_System_HAL_PVT.c ****                                                                 void  * param2 CYBLE_UNUSED_ATTR)
 610:.\Generated_Source\PSoC4/BLE_System_HAL_PVT.c ****     {
 987              		.loc 1 610 0
 988              		.cfi_startproc
 989              	.LVL102:
 611:.\Generated_Source\PSoC4/BLE_System_HAL_PVT.c ****         return (CYBLE_ERROR_UNSUPPORTED_FEATURE_OR_PARAMETER_VALUE);
 612:.\Generated_Source\PSoC4/BLE_System_HAL_PVT.c ****     }
 990              		.loc 1 612 0
 991 0000 2B20     		mov	r0, #43
 992              	.LVL103:
 993              		@ sp needed
 994 0002 7047     		bx	lr
 995              		.cfi_endproc
 996              	.LFE29:
 997              		.size	CyBle_Hal_se_smp_sc_user_passkey_handler, .-CyBle_Hal_se_smp_sc_user_passkey_handler
 998              		.section	.text.CyBle_Hal_EccPointMult,"ax",%progbits
 999              		.align	2
 1000              		.global	CyBle_Hal_EccPointMult
 1001              		.code	16
 1002              		.thumb_func
 1003              		.type	CyBle_Hal_EccPointMult, %function
 1004              	CyBle_Hal_EccPointMult:
 1005              	.LFB30:
 613:.\Generated_Source\PSoC4/BLE_System_HAL_PVT.c **** 
 614:.\Generated_Source\PSoC4/BLE_System_HAL_PVT.c ****     void CyBle_Hal_EccPointMult(void)
 615:.\Generated_Source\PSoC4/BLE_System_HAL_PVT.c ****     {
 1006              		.loc 1 615 0
 1007              		.cfi_startproc
 616:.\Generated_Source\PSoC4/BLE_System_HAL_PVT.c ****     }
 1008              		.loc 1 616 0
 1009              		@ sp needed
 1010 0000 7047     		bx	lr
 1011              		.cfi_endproc
 1012              	.LFE30:
 1013              		.size	CyBle_Hal_EccPointMult, .-CyBle_Hal_EccPointMult
 1014 0002 C046     		.section	.text.BLE_CMP_FTR_API_lec_hci_handle_read_local_P256_public_key_command,"ax",%progbits
 1015              		.align	2
 1016              		.global	BLE_CMP_FTR_API_lec_hci_handle_read_local_P256_public_key_command
 1017              		.code	16
 1018              		.thumb_func
 1019              		.type	BLE_CMP_FTR_API_lec_hci_handle_read_local_P256_public_key_command, %function
 1020              	BLE_CMP_FTR_API_lec_hci_handle_read_local_P256_public_key_command:
 1021              	.LFB31:
 617:.\Generated_Source\PSoC4/BLE_System_HAL_PVT.c ****     
 618:.\Generated_Source\PSoC4/BLE_System_HAL_PVT.c **** #endif /* (CYBLE_SECURE_CONN_FEATURE_ENABLED) */
 619:.\Generated_Source\PSoC4/BLE_System_HAL_PVT.c **** 
ARM GAS  C:\Users\310295~1\AppData\Local\Temp\ccw2lzqi.s 			page 30


 620:.\Generated_Source\PSoC4/BLE_System_HAL_PVT.c **** #endif /* CYBLE_MODE_PROFILE */
 621:.\Generated_Source\PSoC4/BLE_System_HAL_PVT.c **** 
 622:.\Generated_Source\PSoC4/BLE_System_HAL_PVT.c **** #if(CYBLE_SECURE_CONN_FEATURE_ENABLED)
 623:.\Generated_Source\PSoC4/BLE_System_HAL_PVT.c ****     
 624:.\Generated_Source\PSoC4/BLE_System_HAL_PVT.c ****     uint16 BLE_CMP_FTR_API_lec_hci_handle_read_local_P256_public_key_command(void *param)
 625:.\Generated_Source\PSoC4/BLE_System_HAL_PVT.c ****     {
 626:.\Generated_Source\PSoC4/BLE_System_HAL_PVT.c ****         return (BLE_STK_FTR_API_lec_hci_handle_read_local_P256_public_key_command(param));
 627:.\Generated_Source\PSoC4/BLE_System_HAL_PVT.c ****     }
 628:.\Generated_Source\PSoC4/BLE_System_HAL_PVT.c ****     
 629:.\Generated_Source\PSoC4/BLE_System_HAL_PVT.c ****     uint16 BLE_CMP_FTR_API_lec_hci_handle_generate_DHkey_command(void *param)
 630:.\Generated_Source\PSoC4/BLE_System_HAL_PVT.c ****     {
 631:.\Generated_Source\PSoC4/BLE_System_HAL_PVT.c ****         return (BLE_STK_FTR_API_lec_hci_handle_generate_DHkey_command(param));
 632:.\Generated_Source\PSoC4/BLE_System_HAL_PVT.c ****     }
 633:.\Generated_Source\PSoC4/BLE_System_HAL_PVT.c **** 
 634:.\Generated_Source\PSoC4/BLE_System_HAL_PVT.c **** #else     /* If feature is not required, return error. */
 635:.\Generated_Source\PSoC4/BLE_System_HAL_PVT.c ****     
 636:.\Generated_Source\PSoC4/BLE_System_HAL_PVT.c ****     uint16 BLE_CMP_FTR_API_lec_hci_handle_read_local_P256_public_key_command(void *param CYBLE_UNUS
 637:.\Generated_Source\PSoC4/BLE_System_HAL_PVT.c ****     {
 1022              		.loc 1 637 0
 1023              		.cfi_startproc
 1024              	.LVL104:
 638:.\Generated_Source\PSoC4/BLE_System_HAL_PVT.c ****         return (CYBLE_UNKNOWN_HCI_COMMAND_ERROR);
 639:.\Generated_Source\PSoC4/BLE_System_HAL_PVT.c ****     }
 1025              		.loc 1 639 0
 1026 0000 0120     		mov	r0, #1
 1027              	.LVL105:
 1028              		@ sp needed
 1029 0002 7047     		bx	lr
 1030              		.cfi_endproc
 1031              	.LFE31:
 1032              		.size	BLE_CMP_FTR_API_lec_hci_handle_read_local_P256_public_key_command, .-BLE_CMP_FTR_API_lec_hci
 1033              		.section	.text.BLE_CMP_FTR_API_lec_hci_handle_generate_DHkey_command,"ax",%progbits
 1034              		.align	2
 1035              		.global	BLE_CMP_FTR_API_lec_hci_handle_generate_DHkey_command
 1036              		.code	16
 1037              		.thumb_func
 1038              		.type	BLE_CMP_FTR_API_lec_hci_handle_generate_DHkey_command, %function
 1039              	BLE_CMP_FTR_API_lec_hci_handle_generate_DHkey_command:
 1040              	.LFB32:
 640:.\Generated_Source\PSoC4/BLE_System_HAL_PVT.c ****     
 641:.\Generated_Source\PSoC4/BLE_System_HAL_PVT.c ****     uint16 BLE_CMP_FTR_API_lec_hci_handle_generate_DHkey_command(void *param CYBLE_UNUSED_ATTR)
 642:.\Generated_Source\PSoC4/BLE_System_HAL_PVT.c ****     {
 1041              		.loc 1 642 0
 1042              		.cfi_startproc
 1043              	.LVL106:
 643:.\Generated_Source\PSoC4/BLE_System_HAL_PVT.c ****         return (CYBLE_UNKNOWN_HCI_COMMAND_ERROR);
 644:.\Generated_Source\PSoC4/BLE_System_HAL_PVT.c ****     }
 1044              		.loc 1 644 0
 1045 0000 0120     		mov	r0, #1
 1046              	.LVL107:
 1047              		@ sp needed
 1048 0002 7047     		bx	lr
 1049              		.cfi_endproc
 1050              	.LFE32:
 1051              		.size	BLE_CMP_FTR_API_lec_hci_handle_generate_DHkey_command, .-BLE_CMP_FTR_API_lec_hci_handle_gene
 1052              		.text
 1053              	.Letext0:
ARM GAS  C:\Users\310295~1\AppData\Local\Temp\ccw2lzqi.s 			page 31


 1054              		.file 2 ".\\Generated_Source\\PSoC4\\cytypes.h"
 1055              		.file 3 ".\\Generated_Source\\PSoC4\\BLE_System_Stack.h"
 1056              		.file 4 ".\\Generated_Source\\PSoC4\\CyLib.h"
 1057              		.file 5 ".\\Generated_Source\\PSoC4\\BLE_System_bless_isr.h"
 1058              		.file 6 ".\\Generated_Source\\PSoC4\\CyFlash.h"