ARM GAS  C:\Users\310295~1\AppData\Local\Temp\ccIU8zba.s 			page 1


   1              		.cpu cortex-m0
   2              		.fpu softvfp
   3              		.eabi_attribute 20, 1
   4              		.eabi_attribute 21, 1
   5              		.eabi_attribute 23, 3
   6              		.eabi_attribute 24, 1
   7              		.eabi_attribute 25, 1
   8              		.eabi_attribute 26, 1
   9              		.eabi_attribute 30, 1
  10              		.eabi_attribute 34, 0
  11              		.eabi_attribute 18, 4
  12              		.code	16
  13              		.file	"CyLFClk.c"
  14              		.text
  15              	.Ltext0:
  16              		.cfi_sections	.debug_frame
  17              		.section	.text.CySysClkIloEnabled,"ax",%progbits
  18              		.align	2
  19              		.code	16
  20              		.thumb_func
  21              		.type	CySysClkIloEnabled, %function
  22              	CySysClkIloEnabled:
  23              	.LFB7:
  24              		.file 1 ".\\Generated_Source\\PSoC4\\CyLFClk.c"
   1:.\Generated_Source\PSoC4/CyLFClk.c **** /***************************************************************************//**
   2:.\Generated_Source\PSoC4/CyLFClk.c **** * \file .c
   3:.\Generated_Source\PSoC4/CyLFClk.c **** * \version 1.10
   4:.\Generated_Source\PSoC4/CyLFClk.c **** *
   5:.\Generated_Source\PSoC4/CyLFClk.c **** * \brief
   6:.\Generated_Source\PSoC4/CyLFClk.c **** *  This file provides the source code for configuring watchdog timers WDTs, 
   7:.\Generated_Source\PSoC4/CyLFClk.c **** *  low frequency clocks (LFCLK) and the Real-time Clock (RTC) component in
   8:.\Generated_Source\PSoC4/CyLFClk.c **** *  PSoC Creator for the PSoC 4 families.
   9:.\Generated_Source\PSoC4/CyLFClk.c **** *
  10:.\Generated_Source\PSoC4/CyLFClk.c **** ********************************************************************************
  11:.\Generated_Source\PSoC4/CyLFClk.c **** * \copyright
  12:.\Generated_Source\PSoC4/CyLFClk.c **** * Copyright 2008-2016, Cypress Semiconductor Corporation.  All rights reserved.
  13:.\Generated_Source\PSoC4/CyLFClk.c **** * You may use this file only in accordance with the license, terms, conditions,
  14:.\Generated_Source\PSoC4/CyLFClk.c **** * disclaimers, and limitations in the end user license agreement accompanying
  15:.\Generated_Source\PSoC4/CyLFClk.c **** * the software package with which this file was provided.
  16:.\Generated_Source\PSoC4/CyLFClk.c **** *******************************************************************************/
  17:.\Generated_Source\PSoC4/CyLFClk.c **** 
  18:.\Generated_Source\PSoC4/CyLFClk.c **** 
  19:.\Generated_Source\PSoC4/CyLFClk.c **** #include "CyLFClk.h"
  20:.\Generated_Source\PSoC4/CyLFClk.c **** #include "CyLib.h"
  21:.\Generated_Source\PSoC4/CyLFClk.c **** 
  22:.\Generated_Source\PSoC4/CyLFClk.c **** #if (CY_IP_WCO && CY_IP_SRSSV2)
  23:.\Generated_Source\PSoC4/CyLFClk.c ****     static uint32 CySysClkGetLfclkSource(void);
  24:.\Generated_Source\PSoC4/CyLFClk.c **** #endif /* (CY_IP_WCO && CY_IP_SRSSV2) */
  25:.\Generated_Source\PSoC4/CyLFClk.c **** 
  26:.\Generated_Source\PSoC4/CyLFClk.c **** 
  27:.\Generated_Source\PSoC4/CyLFClk.c **** #if(CY_IP_SRSSV2 && (!(CY_PSOC4_4100 || CY_PSOC4_4200)))
  28:.\Generated_Source\PSoC4/CyLFClk.c ****     /* Default Ilo Trim Register value for ILO trimming*/
  29:.\Generated_Source\PSoC4/CyLFClk.c ****     static volatile uint16 defaultIloTrimRegValue = CY_SYS_CLK_ILO_TRIM_DEFAULT_VALUE;
  30:.\Generated_Source\PSoC4/CyLFClk.c **** #endif /* (CY_IP_SRSSV2 && (!(CY_PSOC4_4100 || CY_PSOC4_4200))) */
  31:.\Generated_Source\PSoC4/CyLFClk.c **** 
  32:.\Generated_Source\PSoC4/CyLFClk.c **** #if(CY_IP_SRSSV2)
  33:.\Generated_Source\PSoC4/CyLFClk.c ****     /* CySysClkLfclkPosedgeCatch() / CySysClkLfclkPosedgeRestore() */
ARM GAS  C:\Users\310295~1\AppData\Local\Temp\ccIU8zba.s 			page 2


  34:.\Generated_Source\PSoC4/CyLFClk.c ****     static uint32 lfclkPosedgeWdtCounter0Enabled = 0u;
  35:.\Generated_Source\PSoC4/CyLFClk.c ****     static uint32 lfclkPosedgeWdtCounter0Mode    = CY_SYS_WDT_MODE_NONE;
  36:.\Generated_Source\PSoC4/CyLFClk.c **** 
  37:.\Generated_Source\PSoC4/CyLFClk.c ****     static volatile uint32 disableServicedIsr = 0uL;
  38:.\Generated_Source\PSoC4/CyLFClk.c ****     static volatile uint32 wdtIsrMask = CY_SYS_WDT_COUNTER0_INT |\
  39:.\Generated_Source\PSoC4/CyLFClk.c ****                                         CY_SYS_WDT_COUNTER1_INT |\
  40:.\Generated_Source\PSoC4/CyLFClk.c ****                                         CY_SYS_WDT_COUNTER2_INT;
  41:.\Generated_Source\PSoC4/CyLFClk.c **** 
  42:.\Generated_Source\PSoC4/CyLFClk.c ****     static const uint32 counterIntMaskTbl[CY_WDT_NUM_OF_WDT] = {CY_SYS_WDT_COUNTER0_INT,
  43:.\Generated_Source\PSoC4/CyLFClk.c ****                                                                 CY_SYS_WDT_COUNTER1_INT,
  44:.\Generated_Source\PSoC4/CyLFClk.c ****                                                                 CY_SYS_WDT_COUNTER2_INT};
  45:.\Generated_Source\PSoC4/CyLFClk.c **** 
  46:.\Generated_Source\PSoC4/CyLFClk.c ****     static void CySysClkLfclkPosedgeCatch(void);
  47:.\Generated_Source\PSoC4/CyLFClk.c ****     static void CySysClkLfclkPosedgeRestore(void);
  48:.\Generated_Source\PSoC4/CyLFClk.c **** 
  49:.\Generated_Source\PSoC4/CyLFClk.c ****     static uint32 CySysWdtLocked(void);
  50:.\Generated_Source\PSoC4/CyLFClk.c ****     static uint32 CySysClkIloEnabled(void);
  51:.\Generated_Source\PSoC4/CyLFClk.c **** #endif /* (CY_IP_SRSSV2) */
  52:.\Generated_Source\PSoC4/CyLFClk.c **** 
  53:.\Generated_Source\PSoC4/CyLFClk.c **** #if (CY_IP_SRSSLT && CY_IP_WCO && CY_IP_WCO_WDT_EN)
  54:.\Generated_Source\PSoC4/CyLFClk.c ****     static uint32 CySysClkGetTimerSource(void);
  55:.\Generated_Source\PSoC4/CyLFClk.c ****     static volatile uint32 disableTimerServicedIsr = 0uL;
  56:.\Generated_Source\PSoC4/CyLFClk.c ****     static volatile uint32 timerIsrMask = CY_SYS_TIMER0_INT |\
  57:.\Generated_Source\PSoC4/CyLFClk.c ****                                           CY_SYS_TIMER1_INT |\
  58:.\Generated_Source\PSoC4/CyLFClk.c ****                                           CY_SYS_TIMER2_INT;
  59:.\Generated_Source\PSoC4/CyLFClk.c **** 
  60:.\Generated_Source\PSoC4/CyLFClk.c ****     static const uint32 counterTimerIntMaskTbl[CY_SYS_NUM_OF_TIMERS] = {CY_SYS_TIMER0_INT,
  61:.\Generated_Source\PSoC4/CyLFClk.c ****                                                                         CY_SYS_TIMER1_INT,
  62:.\Generated_Source\PSoC4/CyLFClk.c ****                                                                         CY_SYS_TIMER2_INT};
  63:.\Generated_Source\PSoC4/CyLFClk.c **** 
  64:.\Generated_Source\PSoC4/CyLFClk.c ****     static cyTimerCallback cySysTimerCallback[CY_SYS_NUM_OF_TIMERS] = {(void *)0, (void *)0, (void 
  65:.\Generated_Source\PSoC4/CyLFClk.c **** #endif /* (CY_IP_SRSSLT && CY_IP_WCO && CY_IP_WCO_DWT_EN) */
  66:.\Generated_Source\PSoC4/CyLFClk.c **** 
  67:.\Generated_Source\PSoC4/CyLFClk.c **** #if(CY_IP_SRSSV2)
  68:.\Generated_Source\PSoC4/CyLFClk.c ****     static cyWdtCallback cySysWdtCallback[CY_WDT_NUM_OF_WDT] = {(void *)0, (void *)0, (void *)0};
  69:.\Generated_Source\PSoC4/CyLFClk.c **** #else
  70:.\Generated_Source\PSoC4/CyLFClk.c ****     static cyWdtCallback cySysWdtCallback = (void *)0;
  71:.\Generated_Source\PSoC4/CyLFClk.c **** #endif /* (CY_IP_SRSSV2) */
  72:.\Generated_Source\PSoC4/CyLFClk.c **** 
  73:.\Generated_Source\PSoC4/CyLFClk.c **** 
  74:.\Generated_Source\PSoC4/CyLFClk.c **** /*******************************************************************************
  75:.\Generated_Source\PSoC4/CyLFClk.c **** * Function Name: CySysClkIloStart
  76:.\Generated_Source\PSoC4/CyLFClk.c **** ****************************************************************************//**
  77:.\Generated_Source\PSoC4/CyLFClk.c **** * \brief
  78:.\Generated_Source\PSoC4/CyLFClk.c **** *  Enables ILO.
  79:.\Generated_Source\PSoC4/CyLFClk.c **** *
  80:.\Generated_Source\PSoC4/CyLFClk.c **** *  Refer to the device datasheet for the ILO startup time.
  81:.\Generated_Source\PSoC4/CyLFClk.c **** *
  82:.\Generated_Source\PSoC4/CyLFClk.c **** *******************************************************************************/
  83:.\Generated_Source\PSoC4/CyLFClk.c **** void CySysClkIloStart(void)
  84:.\Generated_Source\PSoC4/CyLFClk.c **** {
  85:.\Generated_Source\PSoC4/CyLFClk.c ****     CY_SYS_CLK_ILO_CONFIG_REG |= CY_SYS_CLK_ILO_CONFIG_ENABLE;
  86:.\Generated_Source\PSoC4/CyLFClk.c **** }
  87:.\Generated_Source\PSoC4/CyLFClk.c **** 
  88:.\Generated_Source\PSoC4/CyLFClk.c **** 
  89:.\Generated_Source\PSoC4/CyLFClk.c **** /*******************************************************************************
  90:.\Generated_Source\PSoC4/CyLFClk.c **** * Function Name: CySysClkIloStop
ARM GAS  C:\Users\310295~1\AppData\Local\Temp\ccIU8zba.s 			page 3


  91:.\Generated_Source\PSoC4/CyLFClk.c **** ****************************************************************************//**
  92:.\Generated_Source\PSoC4/CyLFClk.c **** * \brief
  93:.\Generated_Source\PSoC4/CyLFClk.c **** *  Disables the ILO.
  94:.\Generated_Source\PSoC4/CyLFClk.c **** *
  95:.\Generated_Source\PSoC4/CyLFClk.c **** *  This function has no effect if WDT is locked (CySysWdtLock() is
  96:.\Generated_Source\PSoC4/CyLFClk.c **** *  called). Call CySysWdtUnlock() to unlock WDT and stop ILO.
  97:.\Generated_Source\PSoC4/CyLFClk.c **** *
  98:.\Generated_Source\PSoC4/CyLFClk.c **** *  PSoC 4100 / PSoC 4200: Note that ILO is required for WDT's operation.
  99:.\Generated_Source\PSoC4/CyLFClk.c **** *
 100:.\Generated_Source\PSoC4/CyLFClk.c **** *  PSoC 4100 BLE / PSoC 4200 BLE / PSoC 4200L / PSoC 4100M / 
 101:.\Generated_Source\PSoC4/CyLFClk.c **** *  PSoC 4200M:
 102:.\Generated_Source\PSoC4/CyLFClk.c **** *  Stopping ILO affects the peripheral clocked by LFCLK, if
 103:.\Generated_Source\PSoC4/CyLFClk.c **** *  LFCLK is configured to be sourced by ILO.
 104:.\Generated_Source\PSoC4/CyLFClk.c **** *
 105:.\Generated_Source\PSoC4/CyLFClk.c **** *  If the ILO is disabled, all blocks run by ILO will stop functioning.
 106:.\Generated_Source\PSoC4/CyLFClk.c **** *
 107:.\Generated_Source\PSoC4/CyLFClk.c **** *******************************************************************************/
 108:.\Generated_Source\PSoC4/CyLFClk.c **** void CySysClkIloStop(void)
 109:.\Generated_Source\PSoC4/CyLFClk.c **** {
 110:.\Generated_Source\PSoC4/CyLFClk.c ****     #if(CY_IP_SRSSV2)
 111:.\Generated_Source\PSoC4/CyLFClk.c ****         uint8  interruptState;
 112:.\Generated_Source\PSoC4/CyLFClk.c **** 
 113:.\Generated_Source\PSoC4/CyLFClk.c ****         /* Do nothing if WDT is locked or ILO is disabled */
 114:.\Generated_Source\PSoC4/CyLFClk.c ****         if (0u == CySysWdtLocked())
 115:.\Generated_Source\PSoC4/CyLFClk.c ****         {
 116:.\Generated_Source\PSoC4/CyLFClk.c ****             if (0u != CySysClkIloEnabled())
 117:.\Generated_Source\PSoC4/CyLFClk.c ****             {
 118:.\Generated_Source\PSoC4/CyLFClk.c **** 
 119:.\Generated_Source\PSoC4/CyLFClk.c ****             #if (CY_IP_WCO)
 120:.\Generated_Source\PSoC4/CyLFClk.c ****                 if (CY_SYS_CLK_LFCLK_SRC_ILO == CySysClkGetLfclkSource())
 121:.\Generated_Source\PSoC4/CyLFClk.c ****                 {
 122:.\Generated_Source\PSoC4/CyLFClk.c ****             #endif /* (CY_IP_WCO) */
 123:.\Generated_Source\PSoC4/CyLFClk.c **** 
 124:.\Generated_Source\PSoC4/CyLFClk.c ****                 interruptState = CyEnterCriticalSection();
 125:.\Generated_Source\PSoC4/CyLFClk.c ****                 CySysClkLfclkPosedgeCatch();
 126:.\Generated_Source\PSoC4/CyLFClk.c ****                 CY_SYS_CLK_ILO_CONFIG_REG &= (uint32) ( ~(uint32)CY_SYS_CLK_ILO_CONFIG_ENABLE);
 127:.\Generated_Source\PSoC4/CyLFClk.c ****                 CySysClkLfclkPosedgeRestore();
 128:.\Generated_Source\PSoC4/CyLFClk.c ****                 CyExitCriticalSection(interruptState);
 129:.\Generated_Source\PSoC4/CyLFClk.c **** 
 130:.\Generated_Source\PSoC4/CyLFClk.c ****             #if (CY_IP_WCO)
 131:.\Generated_Source\PSoC4/CyLFClk.c ****                 }
 132:.\Generated_Source\PSoC4/CyLFClk.c ****                 else /* Safe to disable - shortened pulse does not impact peripheral */
 133:.\Generated_Source\PSoC4/CyLFClk.c ****                 {
 134:.\Generated_Source\PSoC4/CyLFClk.c ****                     CY_SYS_CLK_ILO_CONFIG_REG &= (uint32) ( ~(uint32)CY_SYS_CLK_ILO_CONFIG_ENABLE);
 135:.\Generated_Source\PSoC4/CyLFClk.c ****                 }
 136:.\Generated_Source\PSoC4/CyLFClk.c ****             #endif /* (CY_IP_WCO) */
 137:.\Generated_Source\PSoC4/CyLFClk.c **** 
 138:.\Generated_Source\PSoC4/CyLFClk.c ****             }
 139:.\Generated_Source\PSoC4/CyLFClk.c ****         }
 140:.\Generated_Source\PSoC4/CyLFClk.c ****     #else
 141:.\Generated_Source\PSoC4/CyLFClk.c ****         CY_SYS_CLK_ILO_CONFIG_REG &= ( uint32 ) ( ~( uint32 )CY_SYS_CLK_ILO_CONFIG_ENABLE);
 142:.\Generated_Source\PSoC4/CyLFClk.c ****     #endif /* (CY_IP_SRSSV2) */
 143:.\Generated_Source\PSoC4/CyLFClk.c **** }
 144:.\Generated_Source\PSoC4/CyLFClk.c **** 
 145:.\Generated_Source\PSoC4/CyLFClk.c **** 
 146:.\Generated_Source\PSoC4/CyLFClk.c **** /******************************************************************************
 147:.\Generated_Source\PSoC4/CyLFClk.c **** * Function Name: CySysClkIloStartMeasurement
ARM GAS  C:\Users\310295~1\AppData\Local\Temp\ccIU8zba.s 			page 4


 148:.\Generated_Source\PSoC4/CyLFClk.c **** ***************************************************************************//**
 149:.\Generated_Source\PSoC4/CyLFClk.c **** * \brief
 150:.\Generated_Source\PSoC4/CyLFClk.c **** * Starts the ILO accuracy measurement.
 151:.\Generated_Source\PSoC4/CyLFClk.c **** *
 152:.\Generated_Source\PSoC4/CyLFClk.c **** * This function is non-blocking and needs to be called before using the 
 153:.\Generated_Source\PSoC4/CyLFClk.c **** * CySysClkIloTrim() and CySysClkIloCompensate() API.
 154:.\Generated_Source\PSoC4/CyLFClk.c **** *
 155:.\Generated_Source\PSoC4/CyLFClk.c **** * This API configures measurement counters to be sourced by SysClk (Counter 1)
 156:.\Generated_Source\PSoC4/CyLFClk.c **** * and ILO (Counter 2). 
 157:.\Generated_Source\PSoC4/CyLFClk.c **** *
 158:.\Generated_Source\PSoC4/CyLFClk.c **** * \note SysClk should be sourced by IMO. Otherwise CySysClkIloTrim() and 
 159:.\Generated_Source\PSoC4/CyLFClk.c **** * CySysClkIloCompensate() API can give incorrect results.
 160:.\Generated_Source\PSoC4/CyLFClk.c **** *
 161:.\Generated_Source\PSoC4/CyLFClk.c **** * In addition, this API stores the factory ILO trim settings on the first call 
 162:.\Generated_Source\PSoC4/CyLFClk.c **** * after reset. This stored factory setting is used by the 
 163:.\Generated_Source\PSoC4/CyLFClk.c **** * CySysClkIloRestoreFactoryTrim() API to restore the ILO factory trim. 
 164:.\Generated_Source\PSoC4/CyLFClk.c **** * Hence, it is important to call this API before restoring the ILO 
 165:.\Generated_Source\PSoC4/CyLFClk.c **** * factory trim settings.
 166:.\Generated_Source\PSoC4/CyLFClk.c **** *
 167:.\Generated_Source\PSoC4/CyLFClk.c **** ******************************************************************************/
 168:.\Generated_Source\PSoC4/CyLFClk.c **** void CySysClkIloStartMeasurement(void)
 169:.\Generated_Source\PSoC4/CyLFClk.c **** {
 170:.\Generated_Source\PSoC4/CyLFClk.c **** #if(CY_IP_SRSSV2 && (!(CY_PSOC4_4100 || CY_PSOC4_4200)))
 171:.\Generated_Source\PSoC4/CyLFClk.c ****     static uint8 iloTrimTrig = 0u;
 172:.\Generated_Source\PSoC4/CyLFClk.c **** 
 173:.\Generated_Source\PSoC4/CyLFClk.c ****     /* Write default ILO trim value while ILO starting ( Cypress ID 225244 )*/
 174:.\Generated_Source\PSoC4/CyLFClk.c ****     if (0u == iloTrimTrig)
 175:.\Generated_Source\PSoC4/CyLFClk.c ****     {
 176:.\Generated_Source\PSoC4/CyLFClk.c ****         defaultIloTrimRegValue = ((uint8)(CY_SYS_CLK_ILO_TRIM_REG & CY_SYS_CLK_ILO_TRIM_MASK));
 177:.\Generated_Source\PSoC4/CyLFClk.c ****         iloTrimTrig = 1u;
 178:.\Generated_Source\PSoC4/CyLFClk.c ****     }
 179:.\Generated_Source\PSoC4/CyLFClk.c **** #endif /* (CY_IP_SRSSV2 && (!(CY_PSOC4_4100 || CY_PSOC4_4200))) */
 180:.\Generated_Source\PSoC4/CyLFClk.c **** 
 181:.\Generated_Source\PSoC4/CyLFClk.c ****     /* Configure measurement counters to source by SysClk (Counter 1) and ILO (Counter 2)*/
 182:.\Generated_Source\PSoC4/CyLFClk.c ****     CY_SYS_CLK_DFT_REG = (CY_SYS_CLK_DFT_REG & (uint32) ~CY_SYS_CLK_DFT_SELECT_DEFAULT_MASK) |
 183:.\Generated_Source\PSoC4/CyLFClk.c ****                             CY_SYS_CLK_SEL_ILO_DFT_SOURCE; 
 184:.\Generated_Source\PSoC4/CyLFClk.c **** 
 185:.\Generated_Source\PSoC4/CyLFClk.c ****     CY_SYS_TST_DDFT_CTRL_REG = (CY_SYS_TST_DDFT_CTRL_REG & (uint32) ~ CY_SYS_TST_DDFT_CTRL_REG_DEFA
 186:.\Generated_Source\PSoC4/CyLFClk.c ****                             CY_SYS_TST_DDFT_CTRL_REG_SEL2_CLK1;
 187:.\Generated_Source\PSoC4/CyLFClk.c **** }
 188:.\Generated_Source\PSoC4/CyLFClk.c **** 
 189:.\Generated_Source\PSoC4/CyLFClk.c **** 
 190:.\Generated_Source\PSoC4/CyLFClk.c **** /******************************************************************************
 191:.\Generated_Source\PSoC4/CyLFClk.c **** * Function Name: CySysClkIloStopMeasurement
 192:.\Generated_Source\PSoC4/CyLFClk.c **** ***************************************************************************//**
 193:.\Generated_Source\PSoC4/CyLFClk.c **** * \brief
 194:.\Generated_Source\PSoC4/CyLFClk.c **** * Stops the ILO accuracy measurement.
 195:.\Generated_Source\PSoC4/CyLFClk.c **** *
 196:.\Generated_Source\PSoC4/CyLFClk.c **** * Calling this function immediately stops the the ILO frequency measurement.
 197:.\Generated_Source\PSoC4/CyLFClk.c **** * This function should be called before placing the device to deepsleep, if 
 198:.\Generated_Source\PSoC4/CyLFClk.c **** * CySysClkIloStartMeasurement() API was called before. 
 199:.\Generated_Source\PSoC4/CyLFClk.c **** *
 200:.\Generated_Source\PSoC4/CyLFClk.c **** ******************************************************************************/
 201:.\Generated_Source\PSoC4/CyLFClk.c **** void CySysClkIloStopMeasurement(void)
 202:.\Generated_Source\PSoC4/CyLFClk.c **** {
 203:.\Generated_Source\PSoC4/CyLFClk.c ****     /* Set default configurations in 11...8 DFT register bits to zero */
 204:.\Generated_Source\PSoC4/CyLFClk.c ****     CY_SYS_CLK_DFT_REG &= ~CY_SYS_CLK_DFT_SELECT_DEFAULT_MASK;
ARM GAS  C:\Users\310295~1\AppData\Local\Temp\ccIU8zba.s 			page 5


 205:.\Generated_Source\PSoC4/CyLFClk.c ****     #if(CY_IP_SRSSLT)
 206:.\Generated_Source\PSoC4/CyLFClk.c ****         CY_SYS_TST_DDFT_CTRL_REG &= ((uint32) CY_SYS_TST_DDFT_CTRL_REG_DEFAULT_MASK);
 207:.\Generated_Source\PSoC4/CyLFClk.c ****     #endif /* (CY_IP_SRSSLT) */
 208:.\Generated_Source\PSoC4/CyLFClk.c **** }
 209:.\Generated_Source\PSoC4/CyLFClk.c **** 
 210:.\Generated_Source\PSoC4/CyLFClk.c **** 
 211:.\Generated_Source\PSoC4/CyLFClk.c **** /******************************************************************************
 212:.\Generated_Source\PSoC4/CyLFClk.c **** * Function Name: CySysClkIloCompensate
 213:.\Generated_Source\PSoC4/CyLFClk.c **** ***************************************************************************//**
 214:.\Generated_Source\PSoC4/CyLFClk.c **** * \brief
 215:.\Generated_Source\PSoC4/CyLFClk.c **** * This API measures the current ILO accuracy.
 216:.\Generated_Source\PSoC4/CyLFClk.c **** *
 217:.\Generated_Source\PSoC4/CyLFClk.c **** * Basing on the measured frequency the required number of ILO cycles for a 
 218:.\Generated_Source\PSoC4/CyLFClk.c **** * given delay (in microseconds) is obtained. The desired delay that needs to 
 219:.\Generated_Source\PSoC4/CyLFClk.c **** * be compensated is passed through the desiredDelay parameter. The compensated 
 220:.\Generated_Source\PSoC4/CyLFClk.c **** * cycle count is returned through the compesatedCycles pointer.
 221:.\Generated_Source\PSoC4/CyLFClk.c **** * The compensated ILO cycles can then be used to define the WDT period value, 
 222:.\Generated_Source\PSoC4/CyLFClk.c **** * effectively compensating for the ILO inaccuracy and allowing a more 
 223:.\Generated_Source\PSoC4/CyLFClk.c **** * accurate WDT interrupt generation.
 224:.\Generated_Source\PSoC4/CyLFClk.c **** *
 225:.\Generated_Source\PSoC4/CyLFClk.c **** * CySysClkIloStartMeasurement() API should be called prior to calling this API. 
 226:.\Generated_Source\PSoC4/CyLFClk.c **** *
 227:.\Generated_Source\PSoC4/CyLFClk.c **** * \note SysClk should be sourced by IMO. Otherwise CySysClkIloTrim() and 
 228:.\Generated_Source\PSoC4/CyLFClk.c **** * CySysClkIloCompensate() API can give incorrect results.
 229:.\Generated_Source\PSoC4/CyLFClk.c **** *
 230:.\Generated_Source\PSoC4/CyLFClk.c **** * \note If the System clock frequency is changed in runtime, the CyDelayFreq() 
 231:.\Generated_Source\PSoC4/CyLFClk.c **** * with the appropriate parameter (Frequency of bus clock in Hertz) should be 
 232:.\Generated_Source\PSoC4/CyLFClk.c **** * called before calling a next CySysClkIloCompensate().
 233:.\Generated_Source\PSoC4/CyLFClk.c **** *
 234:.\Generated_Source\PSoC4/CyLFClk.c **** * \warning Do not enter deep sleep mode until the function returns CYRET_SUCCESS.
 235:.\Generated_Source\PSoC4/CyLFClk.c **** *
 236:.\Generated_Source\PSoC4/CyLFClk.c **** * \param desiredDelay Required delay in microseconds.
 237:.\Generated_Source\PSoC4/CyLFClk.c **** *
 238:.\Generated_Source\PSoC4/CyLFClk.c **** * \param *compensatedCycles The pointer to the variable in which the required
 239:.\Generated_Source\PSoC4/CyLFClk.c **** * number of ILO cycles for the given delay will be returned.
 240:.\Generated_Source\PSoC4/CyLFClk.c **** *
 241:.\Generated_Source\PSoC4/CyLFClk.c **** * \details
 242:.\Generated_Source\PSoC4/CyLFClk.c **** * The value returned in *compensatedCycles pointer is not valid until the 
 243:.\Generated_Source\PSoC4/CyLFClk.c **** * function returns CYRET_SUCCESS.
 244:.\Generated_Source\PSoC4/CyLFClk.c **** *
 245:.\Generated_Source\PSoC4/CyLFClk.c **** * The desiredDelay parameter value should be in next range: <br>From 100 to 
 246:.\Generated_Source\PSoC4/CyLFClk.c **** * 2 000 000 microseconds for PSoC 4000 / PSoC 4000S / PSoC 4100S / PSoC Analog 
 247:.\Generated_Source\PSoC4/CyLFClk.c **** * Coprocessor devices.<br>From 100 to 4 000 000 000 microseconds for 
 248:.\Generated_Source\PSoC4/CyLFClk.c **** * PSoC 4100 / PSoC 4200 / PSoC 4100 BLE / PSoC 4200 BLE / PRoC BLE /
 249:.\Generated_Source\PSoC4/CyLFClk.c **** * PSoC 4200L / PSoC 4100M /PSoC 4200M devices.
 250:.\Generated_Source\PSoC4/CyLFClk.c **** *
 251:.\Generated_Source\PSoC4/CyLFClk.c **** * \return CYRET_SUCCESS - The compensation process is complete and the 
 252:.\Generated_Source\PSoC4/CyLFClk.c **** * compensated cycles value is returned in the compensatedCycles pointer.
 253:.\Generated_Source\PSoC4/CyLFClk.c **** *
 254:.\Generated_Source\PSoC4/CyLFClk.c **** * \return CYRET_STARTED - Indicates measurement is in progress. It is 
 255:.\Generated_Source\PSoC4/CyLFClk.c **** * strongly recommended to do not make pauses between API calling. The 
 256:.\Generated_Source\PSoC4/CyLFClk.c **** * function should be called repeatedly until the API returns CYRET_SUCCESS.
 257:.\Generated_Source\PSoC4/CyLFClk.c **** *
 258:.\Generated_Source\PSoC4/CyLFClk.c **** * \return CYRET_INVALID_STATE - Indicates that measurement not started. 
 259:.\Generated_Source\PSoC4/CyLFClk.c **** * The user should call CySysClkIloStartMeasurement() API before calling 
 260:.\Generated_Source\PSoC4/CyLFClk.c **** * this API.
 261:.\Generated_Source\PSoC4/CyLFClk.c **** *
ARM GAS  C:\Users\310295~1\AppData\Local\Temp\ccIU8zba.s 			page 6


 262:.\Generated_Source\PSoC4/CyLFClk.c **** * \note For a correct WDT or DeepSleep Timers functioning with ILO compensating 
 263:.\Generated_Source\PSoC4/CyLFClk.c **** * the CySysClkIloCompensate() should be called before WDT or DeepSleep Timers 
 264:.\Generated_Source\PSoC4/CyLFClk.c **** * enabling.
 265:.\Generated_Source\PSoC4/CyLFClk.c **** *
 266:.\Generated_Source\PSoC4/CyLFClk.c **** *******************************************************************************/
 267:.\Generated_Source\PSoC4/CyLFClk.c **** cystatus CySysClkIloCompensate(uint32 desiredDelay , uint32* compensatedCycles)
 268:.\Generated_Source\PSoC4/CyLFClk.c **** {
 269:.\Generated_Source\PSoC4/CyLFClk.c ****     uint32 iloCompensatedCycles;
 270:.\Generated_Source\PSoC4/CyLFClk.c ****     uint32 desiredDelayInCounts;
 271:.\Generated_Source\PSoC4/CyLFClk.c ****     static uint32 compensateRunningStatus = CY_SYS_CLK_TRIM_OR_COMP_FINISHED;
 272:.\Generated_Source\PSoC4/CyLFClk.c ****     uint32 checkStatus;
 273:.\Generated_Source\PSoC4/CyLFClk.c ****     cystatus returnStatus;
 274:.\Generated_Source\PSoC4/CyLFClk.c **** 
 275:.\Generated_Source\PSoC4/CyLFClk.c ****     checkStatus = (uint32) (CY_SYS_CLK_DFT_REG & (uint32) CY_SYS_TST_DDFT_CTRL_REG_DEFAULT_MASK);
 276:.\Generated_Source\PSoC4/CyLFClk.c **** 
 277:.\Generated_Source\PSoC4/CyLFClk.c ****     /* Check if CySysStartMeasurement was called before */
 278:.\Generated_Source\PSoC4/CyLFClk.c ****     if((checkStatus == CY_SYS_CLK_SEL_ILO_DFT_SOURCE) && 
 279:.\Generated_Source\PSoC4/CyLFClk.c ****        (CY_SYS_TST_DDFT_CTRL_REG == CY_SYS_TST_DDFT_CTRL_REG_SEL2_CLK1) &&
 280:.\Generated_Source\PSoC4/CyLFClk.c ****        (CY_SYS_CLK_MAX_DELAY_US >= desiredDelay) &&
 281:.\Generated_Source\PSoC4/CyLFClk.c ****        (CY_SYS_CLK_MIN_DELAY_US <= desiredDelay) &&
 282:.\Generated_Source\PSoC4/CyLFClk.c ****        (compensatedCycles !=  NULL))
 283:.\Generated_Source\PSoC4/CyLFClk.c ****     {
 284:.\Generated_Source\PSoC4/CyLFClk.c ****         if(CY_SYS_CLK_TRIM_OR_COMP_FINISHED != compensateRunningStatus)
 285:.\Generated_Source\PSoC4/CyLFClk.c ****         {
 286:.\Generated_Source\PSoC4/CyLFClk.c ****             /* Wait until counter 1 stopped counting and after it calculate compensated cycles */
 287:.\Generated_Source\PSoC4/CyLFClk.c ****             if(0u != (CY_SYS_CNT_REG1_REG & CY_SYS_CLK_ILO_CALIBR_COMPLETE_MASK))
 288:.\Generated_Source\PSoC4/CyLFClk.c ****             {
 289:.\Generated_Source\PSoC4/CyLFClk.c ****                 if (0u != CY_SYS_CNT_REG2_REG)
 290:.\Generated_Source\PSoC4/CyLFClk.c ****                 {
 291:.\Generated_Source\PSoC4/CyLFClk.c ****                     /* Calculate required number of ILO cycles for given delay */
 292:.\Generated_Source\PSoC4/CyLFClk.c ****                     #if(CY_IP_SRSSV2)
 293:.\Generated_Source\PSoC4/CyLFClk.c ****                         if (CY_SYS_CLK_DELAY_COUNTS_LIMIT < desiredDelay)
 294:.\Generated_Source\PSoC4/CyLFClk.c ****                         {
 295:.\Generated_Source\PSoC4/CyLFClk.c ****                             desiredDelayInCounts = (desiredDelay / CY_SYS_CLK_ILO_PERIOD);
 296:.\Generated_Source\PSoC4/CyLFClk.c ****                             iloCompensatedCycles = 
 297:.\Generated_Source\PSoC4/CyLFClk.c ****                             (((CY_SYS_CNT_REG2_REG * cydelayFreqHz) / (cydelayFreqHz >> CY_SYS_CLK_
 298:.\Generated_Source\PSoC4/CyLFClk.c ****                                 CY_SYS_CLK_ILO_FREQ_2MSB) * (desiredDelayInCounts / CY_SYS_CLK_ILO_
 299:.\Generated_Source\PSoC4/CyLFClk.c ****                         }
 300:.\Generated_Source\PSoC4/CyLFClk.c ****                         else
 301:.\Generated_Source\PSoC4/CyLFClk.c ****                         {
 302:.\Generated_Source\PSoC4/CyLFClk.c ****                             desiredDelayInCounts = ((desiredDelay * CY_SYS_CLK_COEF_PHUNDRED) + 
 303:.\Generated_Source\PSoC4/CyLFClk.c ****                                                      CY_SYS_CLK_HALF_OF_CLOCK) / CY_SYS_CLK_ILO_PER
 304:.\Generated_Source\PSoC4/CyLFClk.c **** 
 305:.\Generated_Source\PSoC4/CyLFClk.c ****                             iloCompensatedCycles = (((CY_SYS_CNT_REG2_REG * cydelayFreqHz) / 
 306:.\Generated_Source\PSoC4/CyLFClk.c ****                                                      (cydelayFreqHz >> CY_SYS_CLK_SYS_CLK_DEVIDER))
 307:.\Generated_Source\PSoC4/CyLFClk.c ****                                                      desiredDelayInCounts) / CY_SYS_CLK_ILO_DESIRED
 308:.\Generated_Source\PSoC4/CyLFClk.c ****                         }
 309:.\Generated_Source\PSoC4/CyLFClk.c ****                     #else /* (CY_IP_SRSSLT) */
 310:.\Generated_Source\PSoC4/CyLFClk.c ****                         desiredDelayInCounts = ((desiredDelay * CY_SYS_CLK_COEF_PHUNDRED) + CY_SYS_
 311:.\Generated_Source\PSoC4/CyLFClk.c ****                                                                                            CY_SYS_C
 312:.\Generated_Source\PSoC4/CyLFClk.c ****                         if(CY_SYS_CLK_MAX_LITE_NUMBER < desiredDelayInCounts)
 313:.\Generated_Source\PSoC4/CyLFClk.c ****                         {
 314:.\Generated_Source\PSoC4/CyLFClk.c ****                             iloCompensatedCycles = (((CY_SYS_CNT_REG2_REG * cydelayFreqHz) / (cydel
 315:.\Generated_Source\PSoC4/CyLFClk.c ****                                                    CY_SYS_CLK_SYS_CLK_DEVIDER)) / CY_SYS_CLK_ILO_FR
 316:.\Generated_Source\PSoC4/CyLFClk.c ****                                                    (desiredDelayInCounts / CY_SYS_CLK_ILO_FREQ_3LSB
 317:.\Generated_Source\PSoC4/CyLFClk.c ****                         }
 318:.\Generated_Source\PSoC4/CyLFClk.c ****                         else
ARM GAS  C:\Users\310295~1\AppData\Local\Temp\ccIU8zba.s 			page 7


 319:.\Generated_Source\PSoC4/CyLFClk.c ****                         {
 320:.\Generated_Source\PSoC4/CyLFClk.c ****                             iloCompensatedCycles = (((CY_SYS_CNT_REG2_REG * cydelayFreqHz) / 
 321:.\Generated_Source\PSoC4/CyLFClk.c ****                                                      (cydelayFreqHz >> CY_SYS_CLK_SYS_CLK_DEVIDER))
 322:.\Generated_Source\PSoC4/CyLFClk.c ****                                                      desiredDelayInCounts) / CY_SYS_CLK_ILO_DESIRED
 323:.\Generated_Source\PSoC4/CyLFClk.c ****                         }
 324:.\Generated_Source\PSoC4/CyLFClk.c ****                     #endif /* (CY_IP_SRSSV2) */
 325:.\Generated_Source\PSoC4/CyLFClk.c **** 
 326:.\Generated_Source\PSoC4/CyLFClk.c ****                     *compensatedCycles = iloCompensatedCycles;
 327:.\Generated_Source\PSoC4/CyLFClk.c ****                     compensateRunningStatus = CY_SYS_CLK_TRIM_OR_COMP_FINISHED;
 328:.\Generated_Source\PSoC4/CyLFClk.c ****                     returnStatus = CYRET_SUCCESS;
 329:.\Generated_Source\PSoC4/CyLFClk.c ****                 }
 330:.\Generated_Source\PSoC4/CyLFClk.c ****                 else
 331:.\Generated_Source\PSoC4/CyLFClk.c ****                 {
 332:.\Generated_Source\PSoC4/CyLFClk.c ****                     returnStatus  = CYRET_INVALID_STATE;
 333:.\Generated_Source\PSoC4/CyLFClk.c ****                 }
 334:.\Generated_Source\PSoC4/CyLFClk.c ****             }
 335:.\Generated_Source\PSoC4/CyLFClk.c ****             else
 336:.\Generated_Source\PSoC4/CyLFClk.c ****             {
 337:.\Generated_Source\PSoC4/CyLFClk.c ****                 returnStatus = CYRET_STARTED;
 338:.\Generated_Source\PSoC4/CyLFClk.c ****             }
 339:.\Generated_Source\PSoC4/CyLFClk.c ****         }
 340:.\Generated_Source\PSoC4/CyLFClk.c ****         else
 341:.\Generated_Source\PSoC4/CyLFClk.c ****         {
 342:.\Generated_Source\PSoC4/CyLFClk.c ****             /* Reload CNTR 1 count value for next measurement cycle*/
 343:.\Generated_Source\PSoC4/CyLFClk.c ****             CY_SYS_CNT_REG1_REG = (cydelayFreqHz >> CY_SYS_CLK_SYS_CLK_DEVIDER);
 344:.\Generated_Source\PSoC4/CyLFClk.c ****             compensateRunningStatus = CY_SYS_CLK_TRIM_OR_COMP_STARTED;
 345:.\Generated_Source\PSoC4/CyLFClk.c ****             returnStatus = CYRET_STARTED;
 346:.\Generated_Source\PSoC4/CyLFClk.c ****         }
 347:.\Generated_Source\PSoC4/CyLFClk.c ****     }
 348:.\Generated_Source\PSoC4/CyLFClk.c ****     else
 349:.\Generated_Source\PSoC4/CyLFClk.c ****     {
 350:.\Generated_Source\PSoC4/CyLFClk.c ****         returnStatus = CYRET_INVALID_STATE;
 351:.\Generated_Source\PSoC4/CyLFClk.c ****     }
 352:.\Generated_Source\PSoC4/CyLFClk.c **** 
 353:.\Generated_Source\PSoC4/CyLFClk.c ****     return (returnStatus);
 354:.\Generated_Source\PSoC4/CyLFClk.c **** }
 355:.\Generated_Source\PSoC4/CyLFClk.c **** 
 356:.\Generated_Source\PSoC4/CyLFClk.c **** 
 357:.\Generated_Source\PSoC4/CyLFClk.c **** #if(CY_IP_SRSSV2)
 358:.\Generated_Source\PSoC4/CyLFClk.c ****     /*******************************************************************************
 359:.\Generated_Source\PSoC4/CyLFClk.c ****     * Function Name: CySysClkIloEnabled
 360:.\Generated_Source\PSoC4/CyLFClk.c ****     ****************************************************************************//**
 361:.\Generated_Source\PSoC4/CyLFClk.c ****     *
 362:.\Generated_Source\PSoC4/CyLFClk.c ****     * \internal
 363:.\Generated_Source\PSoC4/CyLFClk.c ****     * Reports the ILO enable state.
 364:.\Generated_Source\PSoC4/CyLFClk.c ****     *
 365:.\Generated_Source\PSoC4/CyLFClk.c ****     * \return
 366:.\Generated_Source\PSoC4/CyLFClk.c ****     * 1 if ILO is enabled, and 0 if ILO is disabled.
 367:.\Generated_Source\PSoC4/CyLFClk.c ****     *
 368:.\Generated_Source\PSoC4/CyLFClk.c ****     * \endinternal
 369:.\Generated_Source\PSoC4/CyLFClk.c ****     ********************************************************************************/
 370:.\Generated_Source\PSoC4/CyLFClk.c ****     static uint32 CySysClkIloEnabled(void)
 371:.\Generated_Source\PSoC4/CyLFClk.c ****     {
  25              		.loc 1 371 0
  26              		.cfi_startproc
 372:.\Generated_Source\PSoC4/CyLFClk.c ****         /* Prohibits writing to WDT registers and ILO/WCO registers when not equal to 0 */
 373:.\Generated_Source\PSoC4/CyLFClk.c ****         return ((0u != (CY_SYS_CLK_ILO_CONFIG_REG & (uint32)(CY_SYS_CLK_ILO_CONFIG_ENABLE))) ?
ARM GAS  C:\Users\310295~1\AppData\Local\Temp\ccIU8zba.s 			page 8


  27              		.loc 1 373 0
  28 0000 034B     		ldr	r3, .L4
  29 0002 1B68     		ldr	r3, [r3]
 374:.\Generated_Source\PSoC4/CyLFClk.c ****             (uint32) 1u :
  30              		.loc 1 374 0
  31 0004 002B     		cmp	r3, #0
  32 0006 01DA     		bge	.L3
  33 0008 0120     		mov	r0, #1
  34 000a 00E0     		b	.L2
  35              	.L3:
  36 000c 0020     		mov	r0, #0
  37              	.L2:
 375:.\Generated_Source\PSoC4/CyLFClk.c ****             (uint32) 0u);
 376:.\Generated_Source\PSoC4/CyLFClk.c ****     }
  38              		.loc 1 376 0
  39              		@ sp needed
  40 000e 7047     		bx	lr
  41              	.L5:
  42              		.align	2
  43              	.L4:
  44 0010 04010B40 		.word	1074462980
  45              		.cfi_endproc
  46              	.LFE7:
  47              		.size	CySysClkIloEnabled, .-CySysClkIloEnabled
  48              		.section	.text.CySysClkGetLfclkSource,"ax",%progbits
  49              		.align	2
  50              		.code	16
  51              		.thumb_func
  52              		.type	CySysClkGetLfclkSource, %function
  53              	CySysClkGetLfclkSource:
  54              	.LFB11:
 377:.\Generated_Source\PSoC4/CyLFClk.c **** #endif /* (CY_IP_SRSSV2) */
 378:.\Generated_Source\PSoC4/CyLFClk.c **** 
 379:.\Generated_Source\PSoC4/CyLFClk.c **** 
 380:.\Generated_Source\PSoC4/CyLFClk.c **** #if(CY_IP_SRSSV2 && (!(CY_PSOC4_4100 || CY_PSOC4_4200)))
 381:.\Generated_Source\PSoC4/CyLFClk.c **** /********************************************************************************
 382:.\Generated_Source\PSoC4/CyLFClk.c **** * Function Name: CySysClkIloTrim
 383:.\Generated_Source\PSoC4/CyLFClk.c **** *****************************************************************************//**
 384:.\Generated_Source\PSoC4/CyLFClk.c **** * \brief
 385:.\Generated_Source\PSoC4/CyLFClk.c **** * The API trims the ILO frequency to +/- 10% accuracy range using accurate 
 386:.\Generated_Source\PSoC4/CyLFClk.c **** * SysClk.
 387:.\Generated_Source\PSoC4/CyLFClk.c **** *
 388:.\Generated_Source\PSoC4/CyLFClk.c **** * The API can be blocking or non-blocking depending on the value of the mode 
 389:.\Generated_Source\PSoC4/CyLFClk.c **** * parameter passed. The accuracy of ILO after trimming in parts per thousand 
 390:.\Generated_Source\PSoC4/CyLFClk.c **** * is returned through the iloAccuracyInPPT pointer. A positive number indicates 
 391:.\Generated_Source\PSoC4/CyLFClk.c **** * that the ILO is running fast and a negative number indicates that the ILO is 
 392:.\Generated_Source\PSoC4/CyLFClk.c **** * running slowly. This error is relative to the error in the reference clock 
 393:.\Generated_Source\PSoC4/CyLFClk.c **** * (SysClk), so the absolute error will be higher and depends on the accuracy 
 394:.\Generated_Source\PSoC4/CyLFClk.c **** * of the reference.
 395:.\Generated_Source\PSoC4/CyLFClk.c **** *
 396:.\Generated_Source\PSoC4/CyLFClk.c **** * The CySysClkIloStartMeasurement() API should be called prior to calling this 
 397:.\Generated_Source\PSoC4/CyLFClk.c **** * API. Otherwise it will return CYRET_INVALID_STATE as the measurement was not 
 398:.\Generated_Source\PSoC4/CyLFClk.c **** * started.
 399:.\Generated_Source\PSoC4/CyLFClk.c **** *
 400:.\Generated_Source\PSoC4/CyLFClk.c **** * \note SysClk should be sourced by IMO. Otherwise CySysClkIloTrim() and 
 401:.\Generated_Source\PSoC4/CyLFClk.c **** * CySysClkIloCompensate() API can give incorrect results.
 402:.\Generated_Source\PSoC4/CyLFClk.c **** *
ARM GAS  C:\Users\310295~1\AppData\Local\Temp\ccIU8zba.s 			page 9


 403:.\Generated_Source\PSoC4/CyLFClk.c **** * \note If System clock frequency is changed in runtime, the CyDelayFreq() 
 404:.\Generated_Source\PSoC4/CyLFClk.c **** * with the appropriate parameter (Frequency of bus clock in Hertz) should be 
 405:.\Generated_Source\PSoC4/CyLFClk.c **** * called before next CySysClkIloCompensate() usage.
 406:.\Generated_Source\PSoC4/CyLFClk.c **** *
 407:.\Generated_Source\PSoC4/CyLFClk.c **** * \warning Do not enter deep sleep mode until the function returns CYRET_SUCCESS
 408:.\Generated_Source\PSoC4/CyLFClk.c **** * or CYRET_TIMEOUT.
 409:.\Generated_Source\PSoC4/CyLFClk.c **** *
 410:.\Generated_Source\PSoC4/CyLFClk.c **** * Available for all PSoC 4 devices with ILO trim capability. This excludes 
 411:.\Generated_Source\PSoC4/CyLFClk.c **** * PSoC 4000 / PSoC 4100 / PSoC 4200 / PSoC 4000S / PSoC 4100S / PSoC
 412:.\Generated_Source\PSoC4/CyLFClk.c **** * Analog Coprocessor devices.
 413:.\Generated_Source\PSoC4/CyLFClk.c **** *
 414:.\Generated_Source\PSoC4/CyLFClk.c **** * \param mode
 415:.\Generated_Source\PSoC4/CyLFClk.c **** *  CY_SYS_CLK_BLOCKING -  The function does not return until the ILO is 
 416:.\Generated_Source\PSoC4/CyLFClk.c **** * within +/-10% accuracy range or time out has occurred.<br>
 417:.\Generated_Source\PSoC4/CyLFClk.c **** * CY_SYS_CLK_NON_BLOCKING - The function returns immediately after 
 418:.\Generated_Source\PSoC4/CyLFClk.c **** * performing a single iteration of the trim process. The function should be 
 419:.\Generated_Source\PSoC4/CyLFClk.c **** * called repeatedly until the trimming is completed successfully.
 420:.\Generated_Source\PSoC4/CyLFClk.c **** *
 421:.\Generated_Source\PSoC4/CyLFClk.c **** * \param *iloAccuracyInPPT Pointer to an integer in which the trimmed ILO 
 422:.\Generated_Source\PSoC4/CyLFClk.c **** * accuracy will be returned.
 423:.\Generated_Source\PSoC4/CyLFClk.c **** *
 424:.\Generated_Source\PSoC4/CyLFClk.c **** * \details The value returned in *iloAccuracyInPPT pointer is not valid 
 425:.\Generated_Source\PSoC4/CyLFClk.c **** * until the function returns CYRET_SUCCESS. ILO accuracy in PPT is given by:
 426:.\Generated_Source\PSoC4/CyLFClk.c **** *
 427:.\Generated_Source\PSoC4/CyLFClk.c **** * IloAccuracyInPPT = ((MeasuredIloFreq - DesiredIloFreq) * 
 428:.\Generated_Source\PSoC4/CyLFClk.c **** * CY_SYS_CLK_PERTHOUSAND) / DesiredIloFreq);
 429:.\Generated_Source\PSoC4/CyLFClk.c **** *
 430:.\Generated_Source\PSoC4/CyLFClk.c **** * DesiredIloFreq  = 32000, CY_SYS_CLK_PERTHOUSAND = 1000;
 431:.\Generated_Source\PSoC4/CyLFClk.c **** *
 432:.\Generated_Source\PSoC4/CyLFClk.c **** * \return CYRET_SUCCESS - Indicates trimming is complete. This value indicates 
 433:.\Generated_Source\PSoC4/CyLFClk.c **** * trimming is successful and iloAccuracyInPPT is within +/- 10%.
 434:.\Generated_Source\PSoC4/CyLFClk.c **** *
 435:.\Generated_Source\PSoC4/CyLFClk.c **** * \return CYRET_STARTED - Indicates measurement is in progress. This is applicable 
 436:.\Generated_Source\PSoC4/CyLFClk.c **** * only for non-blocking mode.
 437:.\Generated_Source\PSoC4/CyLFClk.c **** *
 438:.\Generated_Source\PSoC4/CyLFClk.c **** * \return CYRET_INVALID_STATE - Indicates trimming was unsuccessful. You should 
 439:.\Generated_Source\PSoC4/CyLFClk.c **** * call CySysClkIloStartMeasurement() before calling this API.
 440:.\Generated_Source\PSoC4/CyLFClk.c **** *
 441:.\Generated_Source\PSoC4/CyLFClk.c **** * \return CYRET_TIMEOUT - Indicates trimming was unsuccessful. This is applicable 
 442:.\Generated_Source\PSoC4/CyLFClk.c **** * only for blocking mode. Timeout means the trimming was tried 5 times without 
 443:.\Generated_Source\PSoC4/CyLFClk.c **** * success (i.e. ILO accuracy > +/- 10%). The user can call the API again for 
 444:.\Generated_Source\PSoC4/CyLFClk.c **** * another try or wait for some time before calling it again (to let the system 
 445:.\Generated_Source\PSoC4/CyLFClk.c **** * to settle to another operating point change in temperature etc.) and continue 
 446:.\Generated_Source\PSoC4/CyLFClk.c **** * using the previous trim value till the next call.
 447:.\Generated_Source\PSoC4/CyLFClk.c **** *
 448:.\Generated_Source\PSoC4/CyLFClk.c **** **********************************************************************************/
 449:.\Generated_Source\PSoC4/CyLFClk.c **** cystatus CySysClkIloTrim(uint32 mode, int32* iloAccuracyInPPT)
 450:.\Generated_Source\PSoC4/CyLFClk.c **** {
 451:.\Generated_Source\PSoC4/CyLFClk.c ****     uint32 timeOutClocks = CY_SYS_CLK_TIMEOUT;
 452:.\Generated_Source\PSoC4/CyLFClk.c ****     uint32 waitUntilCntr1Stops;
 453:.\Generated_Source\PSoC4/CyLFClk.c ****     static uint32 trimRunningStatus = CY_SYS_CLK_TRIM_OR_COMP_FINISHED;
 454:.\Generated_Source\PSoC4/CyLFClk.c ****     uint32 checkStatus;
 455:.\Generated_Source\PSoC4/CyLFClk.c ****     cystatus returnStatus;
 456:.\Generated_Source\PSoC4/CyLFClk.c **** 
 457:.\Generated_Source\PSoC4/CyLFClk.c ****     checkStatus = (uint32) (CY_SYS_CLK_DFT_REG & (uint32) CY_SYS_TST_DDFT_CTRL_REG_DEFAULT_MASK);
 458:.\Generated_Source\PSoC4/CyLFClk.c **** 
 459:.\Generated_Source\PSoC4/CyLFClk.c ****     /* Check if DFT and CTRL registers were configures in CySysStartMeasurement*/
ARM GAS  C:\Users\310295~1\AppData\Local\Temp\ccIU8zba.s 			page 10


 460:.\Generated_Source\PSoC4/CyLFClk.c ****     if((checkStatus == CY_SYS_CLK_SEL_ILO_DFT_SOURCE) &&
 461:.\Generated_Source\PSoC4/CyLFClk.c ****        (CY_SYS_TST_DDFT_CTRL_REG == CY_SYS_TST_DDFT_CTRL_REG_SEL2_CLK1) &&
 462:.\Generated_Source\PSoC4/CyLFClk.c ****        (iloAccuracyInPPT != NULL))
 463:.\Generated_Source\PSoC4/CyLFClk.c ****     {
 464:.\Generated_Source\PSoC4/CyLFClk.c ****         if(CY_SYS_CLK_BLOCKING == mode)
 465:.\Generated_Source\PSoC4/CyLFClk.c ****         {
 466:.\Generated_Source\PSoC4/CyLFClk.c ****             waitUntilCntr1Stops = cydelayFreqHz >> CY_SYS_CLK_SYS_CLK_DEVIDER;
 467:.\Generated_Source\PSoC4/CyLFClk.c ****             do
 468:.\Generated_Source\PSoC4/CyLFClk.c ****             {
 469:.\Generated_Source\PSoC4/CyLFClk.c ****                 /* Reload CNTR 1 count value for measuring cycle*/
 470:.\Generated_Source\PSoC4/CyLFClk.c ****                 CY_SYS_CNT_REG1_REG = cydelayFreqHz >> CY_SYS_CLK_SYS_CLK_DEVIDER; 
 471:.\Generated_Source\PSoC4/CyLFClk.c **** 
 472:.\Generated_Source\PSoC4/CyLFClk.c ****                 /* Wait until counter CNTR 1 will finish down-counting */
 473:.\Generated_Source\PSoC4/CyLFClk.c ****                 while (0u == (CY_SYS_CNT_REG1_REG & CY_SYS_CLK_ILO_CALIBR_COMPLETE_MASK))
 474:.\Generated_Source\PSoC4/CyLFClk.c ****                 {
 475:.\Generated_Source\PSoC4/CyLFClk.c ****                     waitUntilCntr1Stops--;
 476:.\Generated_Source\PSoC4/CyLFClk.c ****                     if (0u == waitUntilCntr1Stops)
 477:.\Generated_Source\PSoC4/CyLFClk.c ****                     {
 478:.\Generated_Source\PSoC4/CyLFClk.c ****                         break;
 479:.\Generated_Source\PSoC4/CyLFClk.c ****                     }
 480:.\Generated_Source\PSoC4/CyLFClk.c ****                 }
 481:.\Generated_Source\PSoC4/CyLFClk.c ****                 trimRunningStatus = CySysClkIloUpdateTrimReg(iloAccuracyInPPT);
 482:.\Generated_Source\PSoC4/CyLFClk.c ****                 timeOutClocks--;
 483:.\Generated_Source\PSoC4/CyLFClk.c **** 
 484:.\Generated_Source\PSoC4/CyLFClk.c ****             /* Untill ILO accuracy will be in range less than +/- 10% or timeout occurs*/
 485:.\Generated_Source\PSoC4/CyLFClk.c ****             } while((CYRET_SUCCESS != trimRunningStatus) && 
 486:.\Generated_Source\PSoC4/CyLFClk.c ****               (CYRET_INVALID_STATE != trimRunningStatus) && 
 487:.\Generated_Source\PSoC4/CyLFClk.c ****                                (0u != timeOutClocks));
 488:.\Generated_Source\PSoC4/CyLFClk.c **** 
 489:.\Generated_Source\PSoC4/CyLFClk.c ****             if (CYRET_SUCCESS == trimRunningStatus)
 490:.\Generated_Source\PSoC4/CyLFClk.c ****             {
 491:.\Generated_Source\PSoC4/CyLFClk.c ****                 returnStatus = CYRET_SUCCESS;
 492:.\Generated_Source\PSoC4/CyLFClk.c ****             }
 493:.\Generated_Source\PSoC4/CyLFClk.c ****             else
 494:.\Generated_Source\PSoC4/CyLFClk.c ****             {
 495:.\Generated_Source\PSoC4/CyLFClk.c ****                 if(0u == timeOutClocks)
 496:.\Generated_Source\PSoC4/CyLFClk.c ****                 {
 497:.\Generated_Source\PSoC4/CyLFClk.c ****                     trimRunningStatus = CY_SYS_CLK_TRIM_OR_COMP_FINISHED;
 498:.\Generated_Source\PSoC4/CyLFClk.c ****                     returnStatus = CYRET_TIMEOUT;
 499:.\Generated_Source\PSoC4/CyLFClk.c ****                 }
 500:.\Generated_Source\PSoC4/CyLFClk.c ****                 else
 501:.\Generated_Source\PSoC4/CyLFClk.c ****                 {
 502:.\Generated_Source\PSoC4/CyLFClk.c ****                     returnStatus = CYRET_INVALID_STATE;
 503:.\Generated_Source\PSoC4/CyLFClk.c ****                 }
 504:.\Generated_Source\PSoC4/CyLFClk.c ****             }
 505:.\Generated_Source\PSoC4/CyLFClk.c ****         }
 506:.\Generated_Source\PSoC4/CyLFClk.c ****         /* Non - blocking mode */
 507:.\Generated_Source\PSoC4/CyLFClk.c ****         else
 508:.\Generated_Source\PSoC4/CyLFClk.c ****         {
 509:.\Generated_Source\PSoC4/CyLFClk.c ****             if (CY_SYS_CLK_TRIM_OR_COMP_FINISHED != trimRunningStatus)
 510:.\Generated_Source\PSoC4/CyLFClk.c ****             {
 511:.\Generated_Source\PSoC4/CyLFClk.c ****                 /* Checking if the counter CNTR 1 finished down-counting */
 512:.\Generated_Source\PSoC4/CyLFClk.c ****                 if(0u != (CY_SYS_CNT_REG1_REG & CY_SYS_CLK_ILO_CALIBR_COMPLETE_MASK))
 513:.\Generated_Source\PSoC4/CyLFClk.c ****                 {
 514:.\Generated_Source\PSoC4/CyLFClk.c ****                     returnStatus = CySysClkIloUpdateTrimReg(iloAccuracyInPPT);
 515:.\Generated_Source\PSoC4/CyLFClk.c ****                     trimRunningStatus = CY_SYS_CLK_TRIM_OR_COMP_FINISHED;
 516:.\Generated_Source\PSoC4/CyLFClk.c ****                 }
ARM GAS  C:\Users\310295~1\AppData\Local\Temp\ccIU8zba.s 			page 11


 517:.\Generated_Source\PSoC4/CyLFClk.c ****                 else
 518:.\Generated_Source\PSoC4/CyLFClk.c ****                 {
 519:.\Generated_Source\PSoC4/CyLFClk.c ****                     returnStatus = CYRET_STARTED;
 520:.\Generated_Source\PSoC4/CyLFClk.c ****                 }
 521:.\Generated_Source\PSoC4/CyLFClk.c ****             }
 522:.\Generated_Source\PSoC4/CyLFClk.c ****             else
 523:.\Generated_Source\PSoC4/CyLFClk.c ****             {
 524:.\Generated_Source\PSoC4/CyLFClk.c ****                 /* Reload CNTR 1 count value for next measuring */
 525:.\Generated_Source\PSoC4/CyLFClk.c ****                 CY_SYS_CNT_REG1_REG = cydelayFreqHz >> CY_SYS_CLK_SYS_CLK_DEVIDER;
 526:.\Generated_Source\PSoC4/CyLFClk.c ****                 trimRunningStatus = CY_SYS_CLK_TRIM_OR_COMP_STARTED;
 527:.\Generated_Source\PSoC4/CyLFClk.c ****                 returnStatus = CYRET_STARTED;
 528:.\Generated_Source\PSoC4/CyLFClk.c ****             }
 529:.\Generated_Source\PSoC4/CyLFClk.c ****         }
 530:.\Generated_Source\PSoC4/CyLFClk.c ****     }
 531:.\Generated_Source\PSoC4/CyLFClk.c ****     else
 532:.\Generated_Source\PSoC4/CyLFClk.c ****     {
 533:.\Generated_Source\PSoC4/CyLFClk.c ****         returnStatus = CYRET_INVALID_STATE;
 534:.\Generated_Source\PSoC4/CyLFClk.c ****     }
 535:.\Generated_Source\PSoC4/CyLFClk.c **** 
 536:.\Generated_Source\PSoC4/CyLFClk.c ****     return (returnStatus);
 537:.\Generated_Source\PSoC4/CyLFClk.c **** }
 538:.\Generated_Source\PSoC4/CyLFClk.c **** 
 539:.\Generated_Source\PSoC4/CyLFClk.c **** 
 540:.\Generated_Source\PSoC4/CyLFClk.c **** /********************************************************************************
 541:.\Generated_Source\PSoC4/CyLFClk.c **** * Function Name: CySysClkIloUpdateTrimReg
 542:.\Generated_Source\PSoC4/CyLFClk.c **** *********************************************************************************
 543:.\Generated_Source\PSoC4/CyLFClk.c **** *
 544:.\Generated_Source\PSoC4/CyLFClk.c **** * \internal
 545:.\Generated_Source\PSoC4/CyLFClk.c **** * Function calculates ILO accuracy and check is error range is higher than 
 546:.\Generated_Source\PSoC4/CyLFClk.c **** * +/- 10%. If Measured frequency is higher than +/- 10% function updates 
 547:.\Generated_Source\PSoC4/CyLFClk.c **** * ILO Trim register.
 548:.\Generated_Source\PSoC4/CyLFClk.c **** *
 549:.\Generated_Source\PSoC4/CyLFClk.c **** * \param
 550:.\Generated_Source\PSoC4/CyLFClk.c **** * iloAccuracyInPPT Pointer to an integer in which the trimmed ILO 
 551:.\Generated_Source\PSoC4/CyLFClk.c **** * accuracy will be returned. The value returned in this pointer is not valid 
 552:.\Generated_Source\PSoC4/CyLFClk.c **** * until the function returns CYRET_SUCCESS. If ILO frequency error is lower 
 553:.\Generated_Source\PSoC4/CyLFClk.c **** * than +/- 10% then the value returned in this pointer will be updated.
 554:.\Generated_Source\PSoC4/CyLFClk.c **** *
 555:.\Generated_Source\PSoC4/CyLFClk.c **** * \return CYRET_SUCCESS - Indicates that ILO frequency error is lower than 
 556:.\Generated_Source\PSoC4/CyLFClk.c **** * +/- 10% and no actions are required.
 557:.\Generated_Source\PSoC4/CyLFClk.c **** *
 558:.\Generated_Source\PSoC4/CyLFClk.c **** * \return  CYRET_STARTED - Indicates that ILO frequency error is higher than 
 559:.\Generated_Source\PSoC4/CyLFClk.c **** * +/- 10% and ILO Trim register was updated.
 560:.\Generated_Source\PSoC4/CyLFClk.c **** *
 561:.\Generated_Source\PSoC4/CyLFClk.c **** * \return CYRET_INVALID_STATE - Indicates trimming was unsuccessful.
 562:.\Generated_Source\PSoC4/CyLFClk.c **** *
 563:.\Generated_Source\PSoC4/CyLFClk.c **** * Post #1 - To obtain 10% ILO accuracy the calculated accuracy should be equal 
 564:.\Generated_Source\PSoC4/CyLFClk.c **** * CY_SYS_CLK_ERROR_RANGE = 5.6%. Error value should take to account IMO error of 
 565:.\Generated_Source\PSoC4/CyLFClk.c **** * +/-2% (+/-0.64kHz), trim step of 2.36kHz (+/-1.18kHz) and error while ILO 
 566:.\Generated_Source\PSoC4/CyLFClk.c **** * frequency measuring.
 567:.\Generated_Source\PSoC4/CyLFClk.c **** *
 568:.\Generated_Source\PSoC4/CyLFClk.c **** * \endinternal
 569:.\Generated_Source\PSoC4/CyLFClk.c **** *
 570:.\Generated_Source\PSoC4/CyLFClk.c **** **********************************************************************************/
 571:.\Generated_Source\PSoC4/CyLFClk.c **** cystatus CySysClkIloUpdateTrimReg(int32* iloAccuracyInPPT)
 572:.\Generated_Source\PSoC4/CyLFClk.c **** {
 573:.\Generated_Source\PSoC4/CyLFClk.c ****     uint32 measuredIloFreq;
ARM GAS  C:\Users\310295~1\AppData\Local\Temp\ccIU8zba.s 			page 12


 574:.\Generated_Source\PSoC4/CyLFClk.c ****     uint32 currentIloTrimValue;
 575:.\Generated_Source\PSoC4/CyLFClk.c ****     int32 iloAccuracyValue;
 576:.\Generated_Source\PSoC4/CyLFClk.c ****     int32 trimStep;
 577:.\Generated_Source\PSoC4/CyLFClk.c ****     cystatus errorRangeStatus;
 578:.\Generated_Source\PSoC4/CyLFClk.c **** 
 579:.\Generated_Source\PSoC4/CyLFClk.c ****     if(0u != CY_SYS_CNT_REG2_REG)
 580:.\Generated_Source\PSoC4/CyLFClk.c ****     {
 581:.\Generated_Source\PSoC4/CyLFClk.c ****         measuredIloFreq = (CY_SYS_CNT_REG2_REG * cydelayFreqHz) / (cydelayFreqHz >> CY_SYS_CLK_SYS_
 582:.\Generated_Source\PSoC4/CyLFClk.c **** 
 583:.\Generated_Source\PSoC4/CyLFClk.c ****         /* Calculate value of error in PPT according to formula - 
 584:.\Generated_Source\PSoC4/CyLFClk.c ****         *       ((measuredIlofrequency - iloDesired freaquency) * 1000 / iloDesired freaquency) */
 585:.\Generated_Source\PSoC4/CyLFClk.c ****         iloAccuracyValue = (((int32) measuredIloFreq - (int32) CY_SYS_CLK_ILO_DESIRED_FREQ_HZ) * \
 586:.\Generated_Source\PSoC4/CyLFClk.c ****                             ((int32) CY_SYS_CLK_PERTHOUSAND)) / ((int32) CY_SYS_CLK_ILO_DESIRED_FRE
 587:.\Generated_Source\PSoC4/CyLFClk.c **** 
 588:.\Generated_Source\PSoC4/CyLFClk.c ****         /* Check if ILO accuracy is more than +/- CY_SYS_CLK_ERROR_RANGE. See post #1 of API descri
 589:.\Generated_Source\PSoC4/CyLFClk.c ****         if(CY_SYS_CLK_ERROR_RANGE < (uint32) (CY_SYS_CLK_ABS_MACRO(iloAccuracyValue)))
 590:.\Generated_Source\PSoC4/CyLFClk.c ****         {
 591:.\Generated_Source\PSoC4/CyLFClk.c ****             if (0 < iloAccuracyValue)
 592:.\Generated_Source\PSoC4/CyLFClk.c ****             {
 593:.\Generated_Source\PSoC4/CyLFClk.c ****                 trimStep = (int32) (((iloAccuracyValue * (int32) CY_SYS_CLK_ERROR_COEF) + 
 594:.\Generated_Source\PSoC4/CyLFClk.c ****                 CY_SYS_CLK_HALF_OF_STEP) / CY_SYS_CLK_ERROR_STEP);
 595:.\Generated_Source\PSoC4/CyLFClk.c ****             }
 596:.\Generated_Source\PSoC4/CyLFClk.c ****             else
 597:.\Generated_Source\PSoC4/CyLFClk.c ****             {
 598:.\Generated_Source\PSoC4/CyLFClk.c ****                 trimStep = (int32) (((iloAccuracyValue * (int32) CY_SYS_CLK_ERROR_COEF) - 
 599:.\Generated_Source\PSoC4/CyLFClk.c ****                 CY_SYS_CLK_HALF_OF_STEP) / CY_SYS_CLK_ERROR_STEP);
 600:.\Generated_Source\PSoC4/CyLFClk.c ****             }
 601:.\Generated_Source\PSoC4/CyLFClk.c ****             currentIloTrimValue = (CY_SYS_CLK_ILO_TRIM_REG & CY_SYS_CLK_ILO_TRIM_MASK);
 602:.\Generated_Source\PSoC4/CyLFClk.c ****             trimStep = (int32) currentIloTrimValue - trimStep;
 603:.\Generated_Source\PSoC4/CyLFClk.c **** 
 604:.\Generated_Source\PSoC4/CyLFClk.c ****             if(trimStep > CY_SYS_CLK_FOURBITS_MAX)
 605:.\Generated_Source\PSoC4/CyLFClk.c ****             {
 606:.\Generated_Source\PSoC4/CyLFClk.c ****                 trimStep = CY_SYS_CLK_FOURBITS_MAX;
 607:.\Generated_Source\PSoC4/CyLFClk.c ****             }
 608:.\Generated_Source\PSoC4/CyLFClk.c ****             if(trimStep < 0)
 609:.\Generated_Source\PSoC4/CyLFClk.c ****             {
 610:.\Generated_Source\PSoC4/CyLFClk.c ****                 trimStep = 0;
 611:.\Generated_Source\PSoC4/CyLFClk.c ****             }
 612:.\Generated_Source\PSoC4/CyLFClk.c ****             CY_SYS_CLK_ILO_TRIM_REG = (CY_SYS_CLK_ILO_TRIM_REG & (uint32)(~CY_SYS_CLK_ILO_TRIM_MASK
 613:.\Generated_Source\PSoC4/CyLFClk.c ****                                                                  ((uint32) trimStep);
 614:.\Generated_Source\PSoC4/CyLFClk.c ****             errorRangeStatus = CYRET_STARTED;
 615:.\Generated_Source\PSoC4/CyLFClk.c ****         } /* Else return success because error is in +/- 10% range*/
 616:.\Generated_Source\PSoC4/CyLFClk.c ****         else
 617:.\Generated_Source\PSoC4/CyLFClk.c ****         {
 618:.\Generated_Source\PSoC4/CyLFClk.c ****             /* Write trimmed ILO accuracy through pointer. */
 619:.\Generated_Source\PSoC4/CyLFClk.c ****             *iloAccuracyInPPT = iloAccuracyValue;
 620:.\Generated_Source\PSoC4/CyLFClk.c ****             errorRangeStatus = CYRET_SUCCESS;
 621:.\Generated_Source\PSoC4/CyLFClk.c ****         }
 622:.\Generated_Source\PSoC4/CyLFClk.c ****     }
 623:.\Generated_Source\PSoC4/CyLFClk.c ****     else
 624:.\Generated_Source\PSoC4/CyLFClk.c ****     {
 625:.\Generated_Source\PSoC4/CyLFClk.c ****         errorRangeStatus = CYRET_INVALID_STATE;
 626:.\Generated_Source\PSoC4/CyLFClk.c ****     }
 627:.\Generated_Source\PSoC4/CyLFClk.c **** return (errorRangeStatus);
 628:.\Generated_Source\PSoC4/CyLFClk.c **** }
 629:.\Generated_Source\PSoC4/CyLFClk.c **** 
 630:.\Generated_Source\PSoC4/CyLFClk.c **** 
ARM GAS  C:\Users\310295~1\AppData\Local\Temp\ccIU8zba.s 			page 13


 631:.\Generated_Source\PSoC4/CyLFClk.c **** /*******************************************************************************
 632:.\Generated_Source\PSoC4/CyLFClk.c **** * Function Name: CySysClkIloRestoreFactoryTrim
 633:.\Generated_Source\PSoC4/CyLFClk.c **** ****************************************************************************//**
 634:.\Generated_Source\PSoC4/CyLFClk.c **** * \brief
 635:.\Generated_Source\PSoC4/CyLFClk.c **** * Restores the ILO Trim Register to factory value.
 636:.\Generated_Source\PSoC4/CyLFClk.c **** *
 637:.\Generated_Source\PSoC4/CyLFClk.c **** * The CySysClkIloStartMeasurement() API should be called prior to 
 638:.\Generated_Source\PSoC4/CyLFClk.c **** * calling this API. Otherwise CYRET_UNKNOWN will be returned.
 639:.\Generated_Source\PSoC4/CyLFClk.c **** *
 640:.\Generated_Source\PSoC4/CyLFClk.c **** * Available for all PSoC 4 devices except for PSoC 4000 / PSoC 4100 / PSoC 4200 
 641:.\Generated_Source\PSoC4/CyLFClk.c **** * / PSoC 4000S / PSoC 4100S / PSoC Analog Coprocessor devices.
 642:.\Generated_Source\PSoC4/CyLFClk.c **** *
 643:.\Generated_Source\PSoC4/CyLFClk.c **** * \return CYRET_SUCCESS - Operation was successful. 
 644:.\Generated_Source\PSoC4/CyLFClk.c **** * \return CYRET_UNKNOWN - CySysClkIloStartMeasurement() was not called 
 645:.\Generated_Source\PSoC4/CyLFClk.c **** * before this API. Hence the trim value cannot be updated.
 646:.\Generated_Source\PSoC4/CyLFClk.c **** *
 647:.\Generated_Source\PSoC4/CyLFClk.c **** ******************************************************************************/
 648:.\Generated_Source\PSoC4/CyLFClk.c **** cystatus CySysClkIloRestoreFactoryTrim(void)
 649:.\Generated_Source\PSoC4/CyLFClk.c **** {
 650:.\Generated_Source\PSoC4/CyLFClk.c ****     cystatus returnStatus = CYRET_SUCCESS;
 651:.\Generated_Source\PSoC4/CyLFClk.c **** 
 652:.\Generated_Source\PSoC4/CyLFClk.c ****     /* Check was defaultIloTrimRegValue modified in CySysClkIloStartMeasurement */
 653:.\Generated_Source\PSoC4/CyLFClk.c ****     if(CY_SYS_CLK_ILO_TRIM_DEFAULT_VALUE != defaultIloTrimRegValue)
 654:.\Generated_Source\PSoC4/CyLFClk.c ****         {
 655:.\Generated_Source\PSoC4/CyLFClk.c ****             CY_SYS_CLK_ILO_TRIM_REG = ((CY_SYS_CLK_ILO_TRIM_REG & (uint32)(~CY_SYS_CLK_ILO_TRIM_MAS
 656:.\Generated_Source\PSoC4/CyLFClk.c ****                                        (defaultIloTrimRegValue & CY_SYS_CLK_ILO_TRIM_MASK));
 657:.\Generated_Source\PSoC4/CyLFClk.c ****         }
 658:.\Generated_Source\PSoC4/CyLFClk.c ****         else
 659:.\Generated_Source\PSoC4/CyLFClk.c ****         {
 660:.\Generated_Source\PSoC4/CyLFClk.c ****             returnStatus = CYRET_UNKNOWN;
 661:.\Generated_Source\PSoC4/CyLFClk.c ****         }
 662:.\Generated_Source\PSoC4/CyLFClk.c **** 
 663:.\Generated_Source\PSoC4/CyLFClk.c ****         return (returnStatus);
 664:.\Generated_Source\PSoC4/CyLFClk.c **** }
 665:.\Generated_Source\PSoC4/CyLFClk.c **** #endif /* (CY_IP_SRSSV2 && (!(CY_PSOC4_4100 || CY_PSOC4_4200))) */
 666:.\Generated_Source\PSoC4/CyLFClk.c **** 
 667:.\Generated_Source\PSoC4/CyLFClk.c **** 
 668:.\Generated_Source\PSoC4/CyLFClk.c **** #if (CY_IP_WCO && CY_IP_SRSSV2)
 669:.\Generated_Source\PSoC4/CyLFClk.c **** /*******************************************************************************
 670:.\Generated_Source\PSoC4/CyLFClk.c **** * Function Name: CySysClkGetLfclkSource
 671:.\Generated_Source\PSoC4/CyLFClk.c **** ********************************************************************************
 672:.\Generated_Source\PSoC4/CyLFClk.c **** *
 673:.\Generated_Source\PSoC4/CyLFClk.c **** * \internal
 674:.\Generated_Source\PSoC4/CyLFClk.c **** *  Gets the clock source for the LFCLK clock.
 675:.\Generated_Source\PSoC4/CyLFClk.c **** *  The function is applicable only for PSoC 4100 BLE / PSoC 4200 BLE / PSoC 4100M /
 676:.\Generated_Source\PSoC4/CyLFClk.c **** *  PSoC 4200M / PSoC 4200L.
 677:.\Generated_Source\PSoC4/CyLFClk.c **** *
 678:.\Generated_Source\PSoC4/CyLFClk.c **** * \return The LFCLK source:
 679:.\Generated_Source\PSoC4/CyLFClk.c **** * CY_SYS_CLK_LFCLK_SRC_ILO Internal Low Frequency (32 kHz) Oscillator (ILO)
 680:.\Generated_Source\PSoC4/CyLFClk.c **** * CY_SYS_CLK_LFCLK_SRC_WCO Low Frequency Watch Crystal Oscillator (WCO)
 681:.\Generated_Source\PSoC4/CyLFClk.c **** *
 682:.\Generated_Source\PSoC4/CyLFClk.c **** * \endinternal
 683:.\Generated_Source\PSoC4/CyLFClk.c **** *
 684:.\Generated_Source\PSoC4/CyLFClk.c **** *******************************************************************************/
 685:.\Generated_Source\PSoC4/CyLFClk.c ****     static uint32 CySysClkGetLfclkSource(void)
 686:.\Generated_Source\PSoC4/CyLFClk.c ****     {
  55              		.loc 1 686 0
ARM GAS  C:\Users\310295~1\AppData\Local\Temp\ccIU8zba.s 			page 14


  56              		.cfi_startproc
 687:.\Generated_Source\PSoC4/CyLFClk.c ****         uint32 lfclkSource;
 688:.\Generated_Source\PSoC4/CyLFClk.c ****         lfclkSource = CY_SYS_WDT_CONFIG_REG & CY_SYS_CLK_LFCLK_SEL_MASK;
  57              		.loc 1 688 0
  58 0000 024B     		ldr	r3, .L7
  59 0002 1868     		ldr	r0, [r3]
  60 0004 800F     		lsr	r0, r0, #30
  61 0006 8007     		lsl	r0, r0, #30
  62              	.LVL0:
 689:.\Generated_Source\PSoC4/CyLFClk.c ****         return (lfclkSource);
 690:.\Generated_Source\PSoC4/CyLFClk.c ****     }
  63              		.loc 1 690 0
  64              		@ sp needed
  65 0008 7047     		bx	lr
  66              	.L8:
  67 000a C046     		.align	2
  68              	.L7:
  69 000c 0C020B40 		.word	1074463244
  70              		.cfi_endproc
  71              	.LFE11:
  72              		.size	CySysClkGetLfclkSource, .-CySysClkGetLfclkSource
  73              		.section	.text.CySysWdtLocked,"ax",%progbits
  74              		.align	2
  75              		.code	16
  76              		.thumb_func
  77              		.type	CySysWdtLocked, %function
  78              	CySysWdtLocked:
  79              	.LFB19:
 691:.\Generated_Source\PSoC4/CyLFClk.c **** 
 692:.\Generated_Source\PSoC4/CyLFClk.c ****     
 693:.\Generated_Source\PSoC4/CyLFClk.c **** /*******************************************************************************
 694:.\Generated_Source\PSoC4/CyLFClk.c **** * Function Name: CySysClkSetLfclkSource
 695:.\Generated_Source\PSoC4/CyLFClk.c **** ****************************************************************************//**
 696:.\Generated_Source\PSoC4/CyLFClk.c **** * \brief
 697:.\Generated_Source\PSoC4/CyLFClk.c **** *  Sets the clock source for the LFCLK clock.
 698:.\Generated_Source\PSoC4/CyLFClk.c **** *
 699:.\Generated_Source\PSoC4/CyLFClk.c **** * The switch between LFCLK sources must be done between the positive edges of
 700:.\Generated_Source\PSoC4/CyLFClk.c **** * LFCLK, because the glitch risk is around the LFCLK positive edge. To ensure
 701:.\Generated_Source\PSoC4/CyLFClk.c **** * that the switch can be done safely, the WDT counter value is read until it
 702:.\Generated_Source\PSoC4/CyLFClk.c **** * changes.
 703:.\Generated_Source\PSoC4/CyLFClk.c **** *
 704:.\Generated_Source\PSoC4/CyLFClk.c **** * That means that the positive edge just finished and the switch is performed.
 705:.\Generated_Source\PSoC4/CyLFClk.c **** * The enabled WDT counter is used for that purpose. If no counters are enabled,
 706:.\Generated_Source\PSoC4/CyLFClk.c **** * counter 0 is enabled. And after the LFCLK source is switched, counter 0
 707:.\Generated_Source\PSoC4/CyLFClk.c **** * configuration is restored.
 708:.\Generated_Source\PSoC4/CyLFClk.c **** *
 709:.\Generated_Source\PSoC4/CyLFClk.c **** *  The function is applicable only for devices with more than one source for 
 710:.\Generated_Source\PSoC4/CyLFClk.c **** * LFCLK - PSoC 4100 BLE / PSoC 4200 BLE / PRoC BLE / PSoC 4100M / PSoC 4200M / 
 711:.\Generated_Source\PSoC4/CyLFClk.c **** * PSoC 4200L.
 712:.\Generated_Source\PSoC4/CyLFClk.c **** *
 713:.\Generated_Source\PSoC4/CyLFClk.c **** * \note For PSoC 4000S / PSoC 4100S / PSoC Analog Coprocessor devices LFCLK can
 714:.\Generated_Source\PSoC4/CyLFClk.c **** * only be sourced from ILO even though WCO is available.
 715:.\Generated_Source\PSoC4/CyLFClk.c **** *
 716:.\Generated_Source\PSoC4/CyLFClk.c **** * \param
 717:.\Generated_Source\PSoC4/CyLFClk.c **** * source
 718:.\Generated_Source\PSoC4/CyLFClk.c **** * CY_SYS_CLK_LFCLK_SRC_ILO - Internal Low Frequency (32 kHz) 
 719:.\Generated_Source\PSoC4/CyLFClk.c **** * Oscillator (ILO).<br>
ARM GAS  C:\Users\310295~1\AppData\Local\Temp\ccIU8zba.s 			page 15


 720:.\Generated_Source\PSoC4/CyLFClk.c **** * CY_SYS_CLK_LFCLK_SRC_WCO - Low Frequency Watch Crystal Oscillator (WCO).
 721:.\Generated_Source\PSoC4/CyLFClk.c **** *
 722:.\Generated_Source\PSoC4/CyLFClk.c **** * \details
 723:.\Generated_Source\PSoC4/CyLFClk.c **** * This function has no effect if WDT is locked (CySysWdtLock() is called). 
 724:.\Generated_Source\PSoC4/CyLFClk.c **** * Call CySysWdtUnlock() to unlock WDT.
 725:.\Generated_Source\PSoC4/CyLFClk.c **** *
 726:.\Generated_Source\PSoC4/CyLFClk.c **** * Both the current source and the new source must be running and stable before
 727:.\Generated_Source\PSoC4/CyLFClk.c **** * calling this function.
 728:.\Generated_Source\PSoC4/CyLFClk.c **** *
 729:.\Generated_Source\PSoC4/CyLFClk.c **** * Changing the LFCLK clock source may change the LFCLK clock frequency and
 730:.\Generated_Source\PSoC4/CyLFClk.c **** * affect the functionality that uses this clock. For example, watchdog timer
 731:.\Generated_Source\PSoC4/CyLFClk.c **** * "uses this clock" or "this clock uses" (WDT) is clocked by LFCLK.
 732:.\Generated_Source\PSoC4/CyLFClk.c **** *
 733:.\Generated_Source\PSoC4/CyLFClk.c **** *******************************************************************************/
 734:.\Generated_Source\PSoC4/CyLFClk.c ****     void CySysClkSetLfclkSource(uint32 source)
 735:.\Generated_Source\PSoC4/CyLFClk.c ****     {
 736:.\Generated_Source\PSoC4/CyLFClk.c ****         uint8  interruptState;
 737:.\Generated_Source\PSoC4/CyLFClk.c **** 
 738:.\Generated_Source\PSoC4/CyLFClk.c ****         if (CySysClkGetLfclkSource() != source)
 739:.\Generated_Source\PSoC4/CyLFClk.c ****         {
 740:.\Generated_Source\PSoC4/CyLFClk.c ****             interruptState = CyEnterCriticalSection();
 741:.\Generated_Source\PSoC4/CyLFClk.c ****             CySysClkLfclkPosedgeCatch();
 742:.\Generated_Source\PSoC4/CyLFClk.c ****             CY_SYS_WDT_CONFIG_REG = (CY_SYS_WDT_CONFIG_REG & (uint32)(~CY_SYS_CLK_LFCLK_SEL_MASK)) 
 743:.\Generated_Source\PSoC4/CyLFClk.c ****                                     (source & CY_SYS_CLK_LFCLK_SEL_MASK);
 744:.\Generated_Source\PSoC4/CyLFClk.c ****             CySysClkLfclkPosedgeRestore();
 745:.\Generated_Source\PSoC4/CyLFClk.c ****             CyExitCriticalSection(interruptState);
 746:.\Generated_Source\PSoC4/CyLFClk.c ****         }
 747:.\Generated_Source\PSoC4/CyLFClk.c ****     }
 748:.\Generated_Source\PSoC4/CyLFClk.c **** #endif /* (CY_IP_WCO && CY_IP_SRSSV2) */
 749:.\Generated_Source\PSoC4/CyLFClk.c **** 
 750:.\Generated_Source\PSoC4/CyLFClk.c **** 
 751:.\Generated_Source\PSoC4/CyLFClk.c **** #if (CY_IP_WCO)
 752:.\Generated_Source\PSoC4/CyLFClk.c ****     /*******************************************************************************
 753:.\Generated_Source\PSoC4/CyLFClk.c ****     * Function Name: CySysClkWcoStart
 754:.\Generated_Source\PSoC4/CyLFClk.c ****     ****************************************************************************//**
 755:.\Generated_Source\PSoC4/CyLFClk.c ****     * \brief
 756:.\Generated_Source\PSoC4/CyLFClk.c ****     *  Enables Watch Crystal Oscillator (WCO).
 757:.\Generated_Source\PSoC4/CyLFClk.c ****     * 
 758:.\Generated_Source\PSoC4/CyLFClk.c ****     * This API enables WCO which is used as a source for LFCLK. Similar to ILO, 
 759:.\Generated_Source\PSoC4/CyLFClk.c ****     * WCO is also available in all modes except Hibernate and Stop modes.
 760:.\Generated_Source\PSoC4/CyLFClk.c ****     * \note In PSoC 4000S / PSoC 4100S / PSoC Analog Coprocessor devices
 761:.\Generated_Source\PSoC4/CyLFClk.c ****     * WCO cannot be a source for the LFCLK. 
 762:.\Generated_Source\PSoC4/CyLFClk.c ****     *
 763:.\Generated_Source\PSoC4/CyLFClk.c ****     *  WCO is always enabled in High Power Mode (HPM). Refer to the device
 764:.\Generated_Source\PSoC4/CyLFClk.c ****     *  datasheet for the  WCO startup time. Once WCO becomes stable it can be
 765:.\Generated_Source\PSoC4/CyLFClk.c ****     *  switched to Low Power Mode (LPM). Note that oscillator can be unstable
 766:.\Generated_Source\PSoC4/CyLFClk.c ****     *  during a switch and hence its output should not be used at that moment.
 767:.\Generated_Source\PSoC4/CyLFClk.c ****     *
 768:.\Generated_Source\PSoC4/CyLFClk.c ****     *  The CySysClkWcoSetPowerMode() function configures the WCO power mode.
 769:.\Generated_Source\PSoC4/CyLFClk.c ****     *
 770:.\Generated_Source\PSoC4/CyLFClk.c ****     *******************************************************************************/
 771:.\Generated_Source\PSoC4/CyLFClk.c ****     void CySysClkWcoStart(void)
 772:.\Generated_Source\PSoC4/CyLFClk.c ****     {
 773:.\Generated_Source\PSoC4/CyLFClk.c ****         CySysClkWcoSetHighPowerMode();
 774:.\Generated_Source\PSoC4/CyLFClk.c ****         CY_SYS_CLK_WCO_CONFIG_REG |= CY_SYS_CLK_WCO_CONFIG_LPM_ENABLE;
 775:.\Generated_Source\PSoC4/CyLFClk.c ****     }
 776:.\Generated_Source\PSoC4/CyLFClk.c **** 
ARM GAS  C:\Users\310295~1\AppData\Local\Temp\ccIU8zba.s 			page 16


 777:.\Generated_Source\PSoC4/CyLFClk.c **** 
 778:.\Generated_Source\PSoC4/CyLFClk.c ****     /*******************************************************************************
 779:.\Generated_Source\PSoC4/CyLFClk.c ****     * Function Name: CySysClkWcoStop
 780:.\Generated_Source\PSoC4/CyLFClk.c ****     ****************************************************************************//**
 781:.\Generated_Source\PSoC4/CyLFClk.c ****     * \brief
 782:.\Generated_Source\PSoC4/CyLFClk.c ****     * Disables the 32 KHz Crystal Oscillator.
 783:.\Generated_Source\PSoC4/CyLFClk.c ****     *
 784:.\Generated_Source\PSoC4/CyLFClk.c ****     * API switch of WCO.
 785:.\Generated_Source\PSoC4/CyLFClk.c ****     * \note PSoC 4100S / PSoC Analog Coprocessor: WCO is required for DeepSleep 
 786:.\Generated_Source\PSoC4/CyLFClk.c ****     * Timer's operation.
 787:.\Generated_Source\PSoC4/CyLFClk.c ****     *
 788:.\Generated_Source\PSoC4/CyLFClk.c ****     *******************************************************************************/
 789:.\Generated_Source\PSoC4/CyLFClk.c ****     void  CySysClkWcoStop(void)
 790:.\Generated_Source\PSoC4/CyLFClk.c ****     {
 791:.\Generated_Source\PSoC4/CyLFClk.c ****         #if (CY_IP_SRSSV2)
 792:.\Generated_Source\PSoC4/CyLFClk.c ****             uint8  interruptState;
 793:.\Generated_Source\PSoC4/CyLFClk.c ****         #endif /* (CY_IP_SRSSV2) */
 794:.\Generated_Source\PSoC4/CyLFClk.c **** 
 795:.\Generated_Source\PSoC4/CyLFClk.c ****         if (0u != CySysClkWcoEnabled())
 796:.\Generated_Source\PSoC4/CyLFClk.c ****         {
 797:.\Generated_Source\PSoC4/CyLFClk.c ****             #if (CY_IP_SRSSV2)
 798:.\Generated_Source\PSoC4/CyLFClk.c ****                 if (CY_SYS_CLK_LFCLK_SRC_WCO == CySysClkGetLfclkSource())
 799:.\Generated_Source\PSoC4/CyLFClk.c ****                 {
 800:.\Generated_Source\PSoC4/CyLFClk.c ****                     interruptState = CyEnterCriticalSection();
 801:.\Generated_Source\PSoC4/CyLFClk.c ****                     CySysClkLfclkPosedgeCatch();
 802:.\Generated_Source\PSoC4/CyLFClk.c ****                     CY_SYS_CLK_WCO_CONFIG_REG &= (uint32) ~CY_SYS_CLK_WCO_CONFIG_LPM_ENABLE;
 803:.\Generated_Source\PSoC4/CyLFClk.c ****                     CySysClkLfclkPosedgeRestore();
 804:.\Generated_Source\PSoC4/CyLFClk.c ****                     CyExitCriticalSection(interruptState);
 805:.\Generated_Source\PSoC4/CyLFClk.c ****                 }
 806:.\Generated_Source\PSoC4/CyLFClk.c ****                 else /* Safe to disable - shortened pulse does not impact peripheral */
 807:.\Generated_Source\PSoC4/CyLFClk.c ****             #endif /* (CY_IP_SRSSV2) */
 808:.\Generated_Source\PSoC4/CyLFClk.c ****             {
 809:.\Generated_Source\PSoC4/CyLFClk.c ****                 CY_SYS_CLK_WCO_CONFIG_REG &= (uint32) ~CY_SYS_CLK_WCO_CONFIG_LPM_ENABLE;
 810:.\Generated_Source\PSoC4/CyLFClk.c ****             }
 811:.\Generated_Source\PSoC4/CyLFClk.c ****         } /* Otherwise do nothing. WCO configuration cannot be changed. */
 812:.\Generated_Source\PSoC4/CyLFClk.c ****     }
 813:.\Generated_Source\PSoC4/CyLFClk.c **** 
 814:.\Generated_Source\PSoC4/CyLFClk.c **** 
 815:.\Generated_Source\PSoC4/CyLFClk.c ****     /*******************************************************************************
 816:.\Generated_Source\PSoC4/CyLFClk.c ****     * Function Name: CySysClkWcoEnabled
 817:.\Generated_Source\PSoC4/CyLFClk.c ****     ****************************************************************************//**
 818:.\Generated_Source\PSoC4/CyLFClk.c ****     * \internal Reports the WCO enable state.
 819:.\Generated_Source\PSoC4/CyLFClk.c ****     *
 820:.\Generated_Source\PSoC4/CyLFClk.c ****     * \return 1 if WCO is enabled
 821:.\Generated_Source\PSoC4/CyLFClk.c ****     * \return 0 if WCO is disabled.
 822:.\Generated_Source\PSoC4/CyLFClk.c ****     * \endinternal
 823:.\Generated_Source\PSoC4/CyLFClk.c ****     *******************************************************************************/
 824:.\Generated_Source\PSoC4/CyLFClk.c ****     uint32 CySysClkWcoEnabled(void)
 825:.\Generated_Source\PSoC4/CyLFClk.c ****     {
 826:.\Generated_Source\PSoC4/CyLFClk.c ****         return ((0u != (CY_SYS_CLK_WCO_CONFIG_REG & (uint32)(CY_SYS_CLK_WCO_CONFIG_LPM_ENABLE))) ?
 827:.\Generated_Source\PSoC4/CyLFClk.c ****                 (uint32) 1u :
 828:.\Generated_Source\PSoC4/CyLFClk.c ****                 (uint32) 0u);
 829:.\Generated_Source\PSoC4/CyLFClk.c ****     }
 830:.\Generated_Source\PSoC4/CyLFClk.c **** 
 831:.\Generated_Source\PSoC4/CyLFClk.c **** 
 832:.\Generated_Source\PSoC4/CyLFClk.c ****     /*******************************************************************************
 833:.\Generated_Source\PSoC4/CyLFClk.c ****     * Function Name: CySysClkWcoSetPowerMode
ARM GAS  C:\Users\310295~1\AppData\Local\Temp\ccIU8zba.s 			page 17


 834:.\Generated_Source\PSoC4/CyLFClk.c ****     ****************************************************************************//**
 835:.\Generated_Source\PSoC4/CyLFClk.c ****     * \brief
 836:.\Generated_Source\PSoC4/CyLFClk.c ****     * Sets the power mode for the 32 KHz WCO.
 837:.\Generated_Source\PSoC4/CyLFClk.c ****     *
 838:.\Generated_Source\PSoC4/CyLFClk.c ****     * By default (if this function is not called), the WCO is in High power mode 
 839:.\Generated_Source\PSoC4/CyLFClk.c ****     * during Active and device's low power modes
 840:.\Generated_Source\PSoC4/CyLFClk.c ****     *
 841:.\Generated_Source\PSoC4/CyLFClk.c ****     * \param mode
 842:.\Generated_Source\PSoC4/CyLFClk.c ****     * CY_SYS_CLK_WCO_HPM - The High Power mode.<br>
 843:.\Generated_Source\PSoC4/CyLFClk.c ****     * CY_SYS_CLK_WCO_LPM - The Low Power mode.
 844:.\Generated_Source\PSoC4/CyLFClk.c ****     *
 845:.\Generated_Source\PSoC4/CyLFClk.c ****     * \return A previous power mode. The same as the parameters.
 846:.\Generated_Source\PSoC4/CyLFClk.c ****     *
 847:.\Generated_Source\PSoC4/CyLFClk.c ****     * \note
 848:.\Generated_Source\PSoC4/CyLFClk.c ****     * The WCO Low Power mode is applicable for PSoC 4100 BLE / PSoC 4200 BLE devices.
 849:.\Generated_Source\PSoC4/CyLFClk.c ****     *
 850:.\Generated_Source\PSoC4/CyLFClk.c ****     *******************************************************************************/
 851:.\Generated_Source\PSoC4/CyLFClk.c ****     uint32 CySysClkWcoSetPowerMode(uint32 mode)
 852:.\Generated_Source\PSoC4/CyLFClk.c ****     {
 853:.\Generated_Source\PSoC4/CyLFClk.c ****         uint32 powerModeStatus;
 854:.\Generated_Source\PSoC4/CyLFClk.c **** 
 855:.\Generated_Source\PSoC4/CyLFClk.c ****         powerModeStatus = CY_SYS_CLK_WCO_CONFIG_REG & CY_SYS_CLK_WCO_CONFIG_LPM_EN;
 856:.\Generated_Source\PSoC4/CyLFClk.c **** 
 857:.\Generated_Source\PSoC4/CyLFClk.c ****         switch(mode)
 858:.\Generated_Source\PSoC4/CyLFClk.c ****         {
 859:.\Generated_Source\PSoC4/CyLFClk.c ****         case CY_SYS_CLK_WCO_HPM:
 860:.\Generated_Source\PSoC4/CyLFClk.c ****                 CySysClkWcoSetHighPowerMode();
 861:.\Generated_Source\PSoC4/CyLFClk.c ****             break;
 862:.\Generated_Source\PSoC4/CyLFClk.c **** 
 863:.\Generated_Source\PSoC4/CyLFClk.c ****         #if(CY_PSOC4_4100BL || CY_PSOC4_4200BL)
 864:.\Generated_Source\PSoC4/CyLFClk.c ****             case CY_SYS_CLK_WCO_LPM:
 865:.\Generated_Source\PSoC4/CyLFClk.c ****                     CySysClkWcoSetLowPowerMode();
 866:.\Generated_Source\PSoC4/CyLFClk.c ****                 break;
 867:.\Generated_Source\PSoC4/CyLFClk.c ****         #endif /* (CY_PSOC4_4100BL || CY_PSOC4_4200BL) */
 868:.\Generated_Source\PSoC4/CyLFClk.c **** 
 869:.\Generated_Source\PSoC4/CyLFClk.c ****         default:
 870:.\Generated_Source\PSoC4/CyLFClk.c ****             CYASSERT(0u != 0u);
 871:.\Generated_Source\PSoC4/CyLFClk.c ****             break;
 872:.\Generated_Source\PSoC4/CyLFClk.c ****         }
 873:.\Generated_Source\PSoC4/CyLFClk.c **** 
 874:.\Generated_Source\PSoC4/CyLFClk.c ****         return (powerModeStatus);
 875:.\Generated_Source\PSoC4/CyLFClk.c ****     }
 876:.\Generated_Source\PSoC4/CyLFClk.c **** 
 877:.\Generated_Source\PSoC4/CyLFClk.c **** 
 878:.\Generated_Source\PSoC4/CyLFClk.c **** /*******************************************************************************
 879:.\Generated_Source\PSoC4/CyLFClk.c **** * Function Name: CySysClkWcoClockOutSelect
 880:.\Generated_Source\PSoC4/CyLFClk.c **** ****************************************************************************//**
 881:.\Generated_Source\PSoC4/CyLFClk.c **** * \brief
 882:.\Generated_Source\PSoC4/CyLFClk.c **** * Selects the WCO block output source.
 883:.\Generated_Source\PSoC4/CyLFClk.c **** *
 884:.\Generated_Source\PSoC4/CyLFClk.c **** * In addition to generating 32.768 kHz clock from external crystals, WCO 
 885:.\Generated_Source\PSoC4/CyLFClk.c **** * can be sourced by external clock source using wco_out pin. The API help to
 886:.\Generated_Source\PSoC4/CyLFClk.c **** * lets you select between the sources: External crystal or external pin.
 887:.\Generated_Source\PSoC4/CyLFClk.c **** *
 888:.\Generated_Source\PSoC4/CyLFClk.c **** * If you want to use external pin to drive WCO the next procedure is required:
 889:.\Generated_Source\PSoC4/CyLFClk.c **** * <br> 1) Disable the WCO.
 890:.\Generated_Source\PSoC4/CyLFClk.c **** * <br> 2) Drive the wco_out pin to an external signal source.
ARM GAS  C:\Users\310295~1\AppData\Local\Temp\ccIU8zba.s 			page 18


 891:.\Generated_Source\PSoC4/CyLFClk.c **** * <br> 3) Call CySysClkWcoClockOutSelect(CY_SYS_CLK_WCO_SEL_PIN).
 892:.\Generated_Source\PSoC4/CyLFClk.c **** * <br> 4) Enable the WCO and wait for 15 us before clocking the XO pad at the high 
 893:.\Generated_Source\PSoC4/CyLFClk.c **** * potential. Let's assume you are using the 1.6v clock amplitude, then the
 894:.\Generated_Source\PSoC4/CyLFClk.c **** * sequence would start at 1.6v, then 0v, then 1.6v etc at a chosen frequency.
 895:.\Generated_Source\PSoC4/CyLFClk.c **** *
 896:.\Generated_Source\PSoC4/CyLFClk.c **** * If you want to use WCO after using an external pin source:
 897:.\Generated_Source\PSoC4/CyLFClk.c **** * <br> 1) Disable the WCO.
 898:.\Generated_Source\PSoC4/CyLFClk.c **** * <br> 2) Drive off wco_out pin with external signal source.
 899:.\Generated_Source\PSoC4/CyLFClk.c **** * <br> 3) Call CySysClkWcoClockOutSelect(CY_SYS_CLK_WCO_SEL_CRYSTAL).
 900:.\Generated_Source\PSoC4/CyLFClk.c **** * <br> 4) Enable the WCO.
 901:.\Generated_Source\PSoC4/CyLFClk.c **** *
 902:.\Generated_Source\PSoC4/CyLFClk.c **** * \warning 
 903:.\Generated_Source\PSoC4/CyLFClk.c **** * Do not use the oscillator output clock prior to a 15uS delay in your system.
 904:.\Generated_Source\PSoC4/CyLFClk.c **** * There are no limitations on the external clock frequency.
 905:.\Generated_Source\PSoC4/CyLFClk.c **** * \warning 
 906:.\Generated_Source\PSoC4/CyLFClk.c **** * When external clock source was selected to drive WCO block the IMO can be 
 907:.\Generated_Source\PSoC4/CyLFClk.c **** * trimmed only when external clock source period is equal to WCO external
 908:.\Generated_Source\PSoC4/CyLFClk.c **** * crystal period. Also external clock source accuracy should be higher 
 909:.\Generated_Source\PSoC4/CyLFClk.c **** * or equal to WCO external crystal accuracy.
 910:.\Generated_Source\PSoC4/CyLFClk.c **** *
 911:.\Generated_Source\PSoC4/CyLFClk.c **** * \param clockSel
 912:.\Generated_Source\PSoC4/CyLFClk.c **** * CY_SYS_CLK_WCO_SEL_CRYSTAL - Selects External crystal as clock 
 913:.\Generated_Source\PSoC4/CyLFClk.c **** * source of WCO.<br>
 914:.\Generated_Source\PSoC4/CyLFClk.c **** * CY_SYS_CLK_WCO_SEL_PIN - Selects External clock input on wco_in pin as 
 915:.\Generated_Source\PSoC4/CyLFClk.c **** * clock source of WCO.
 916:.\Generated_Source\PSoC4/CyLFClk.c **** *
 917:.\Generated_Source\PSoC4/CyLFClk.c **** *******************************************************************************/
 918:.\Generated_Source\PSoC4/CyLFClk.c **** void CySysClkWcoClockOutSelect(uint32 clockSel)
 919:.\Generated_Source\PSoC4/CyLFClk.c ****     {
 920:.\Generated_Source\PSoC4/CyLFClk.c ****         if (0u != CySysClkWcoEnabled())
 921:.\Generated_Source\PSoC4/CyLFClk.c ****         {
 922:.\Generated_Source\PSoC4/CyLFClk.c ****             if (1u >= clockSel)
 923:.\Generated_Source\PSoC4/CyLFClk.c ****             {
 924:.\Generated_Source\PSoC4/CyLFClk.c ****                 CY_SYS_CLK_WCO_CONFIG_REG = (CY_SYS_CLK_WCO_CONFIG_REG & (uint32)(~CY_SYS_CLK_WCO_S
 925:.\Generated_Source\PSoC4/CyLFClk.c ****                                         (clockSel << CY_SYS_CLK_WCO_SELECT_PIN_OFFSET);
 926:.\Generated_Source\PSoC4/CyLFClk.c ****             }
 927:.\Generated_Source\PSoC4/CyLFClk.c ****             else
 928:.\Generated_Source\PSoC4/CyLFClk.c ****             {
 929:.\Generated_Source\PSoC4/CyLFClk.c ****                 CYASSERT(0u != 0u);
 930:.\Generated_Source\PSoC4/CyLFClk.c ****             }
 931:.\Generated_Source\PSoC4/CyLFClk.c ****         }
 932:.\Generated_Source\PSoC4/CyLFClk.c ****     }
 933:.\Generated_Source\PSoC4/CyLFClk.c **** #endif  /* (CY_IP_WCO) */
 934:.\Generated_Source\PSoC4/CyLFClk.c **** 
 935:.\Generated_Source\PSoC4/CyLFClk.c **** 
 936:.\Generated_Source\PSoC4/CyLFClk.c **** #if(CY_IP_SRSSV2)
 937:.\Generated_Source\PSoC4/CyLFClk.c ****     /*******************************************************************************
 938:.\Generated_Source\PSoC4/CyLFClk.c ****     * Function Name: CySysWdtLock
 939:.\Generated_Source\PSoC4/CyLFClk.c ****     ****************************************************************************//**
 940:.\Generated_Source\PSoC4/CyLFClk.c ****     * \brief
 941:.\Generated_Source\PSoC4/CyLFClk.c ****     * Locks out configuration changes to the Watchdog timer registers and ILO
 942:.\Generated_Source\PSoC4/CyLFClk.c ****     * configuration register.
 943:.\Generated_Source\PSoC4/CyLFClk.c ****     *
 944:.\Generated_Source\PSoC4/CyLFClk.c ****     * After this function is called, ILO clock can't be disabled until
 945:.\Generated_Source\PSoC4/CyLFClk.c ****     * CySysWdtUnlock() is called.
 946:.\Generated_Source\PSoC4/CyLFClk.c ****     *
 947:.\Generated_Source\PSoC4/CyLFClk.c ****     *******************************************************************************/
ARM GAS  C:\Users\310295~1\AppData\Local\Temp\ccIU8zba.s 			page 19


 948:.\Generated_Source\PSoC4/CyLFClk.c ****     void CySysWdtLock(void)
 949:.\Generated_Source\PSoC4/CyLFClk.c ****     {
 950:.\Generated_Source\PSoC4/CyLFClk.c ****         uint8 interruptState;
 951:.\Generated_Source\PSoC4/CyLFClk.c ****         interruptState = CyEnterCriticalSection();
 952:.\Generated_Source\PSoC4/CyLFClk.c **** 
 953:.\Generated_Source\PSoC4/CyLFClk.c ****         CY_SYS_CLK_SELECT_REG = (CY_SYS_CLK_SELECT_REG & (uint32)(~CY_SYS_WDT_CLK_LOCK_BITS_MASK)) 
 954:.\Generated_Source\PSoC4/CyLFClk.c ****                  CY_SYS_WDT_CLK_LOCK_BITS_MASK;
 955:.\Generated_Source\PSoC4/CyLFClk.c **** 
 956:.\Generated_Source\PSoC4/CyLFClk.c ****         CyExitCriticalSection(interruptState);
 957:.\Generated_Source\PSoC4/CyLFClk.c ****     }
 958:.\Generated_Source\PSoC4/CyLFClk.c **** 
 959:.\Generated_Source\PSoC4/CyLFClk.c **** 
 960:.\Generated_Source\PSoC4/CyLFClk.c ****     /*******************************************************************************
 961:.\Generated_Source\PSoC4/CyLFClk.c ****     * Function Name: CySysWdtLocked
 962:.\Generated_Source\PSoC4/CyLFClk.c ****     ****************************************************************************//**
 963:.\Generated_Source\PSoC4/CyLFClk.c ****     * \internal
 964:.\Generated_Source\PSoC4/CyLFClk.c ****     * Reports the WDT lock state.
 965:.\Generated_Source\PSoC4/CyLFClk.c ****     *
 966:.\Generated_Source\PSoC4/CyLFClk.c ****     * \return 1 - WDT is locked, and 0 - WDT is unlocked.
 967:.\Generated_Source\PSoC4/CyLFClk.c ****     * \endinternal
 968:.\Generated_Source\PSoC4/CyLFClk.c ****     *******************************************************************************/
 969:.\Generated_Source\PSoC4/CyLFClk.c ****     static uint32 CySysWdtLocked(void)
 970:.\Generated_Source\PSoC4/CyLFClk.c ****     {
  80              		.loc 1 970 0
  81              		.cfi_startproc
 971:.\Generated_Source\PSoC4/CyLFClk.c ****         /* Prohibits writing to WDT registers and ILO/WCO registers when not equal 0 */
 972:.\Generated_Source\PSoC4/CyLFClk.c ****         return ((0u != (CY_SYS_CLK_SELECT_REG & (uint32)(CY_SYS_WDT_CLK_LOCK_BITS_MASK))) ? (uint32
  82              		.loc 1 972 0
  83 0000 034B     		ldr	r3, .L11
  84 0002 1868     		ldr	r0, [r3]
  85 0004 C023     		mov	r3, #192
  86 0006 1B02     		lsl	r3, r3, #8
  87 0008 1840     		and	r0, r3
  88 000a 00D0     		beq	.L10
  89 000c 0120     		mov	r0, #1
  90              	.L10:
 973:.\Generated_Source\PSoC4/CyLFClk.c ****     }
  91              		.loc 1 973 0 discriminator 4
  92              		@ sp needed
  93 000e 7047     		bx	lr
  94              	.L12:
  95              		.align	2
  96              	.L11:
  97 0010 00010B40 		.word	1074462976
  98              		.cfi_endproc
  99              	.LFE19:
 100              		.size	CySysWdtLocked, .-CySysWdtLocked
 101              		.section	.text.CySysClkIloStart,"ax",%progbits
 102              		.align	2
 103              		.global	CySysClkIloStart
 104              		.code	16
 105              		.thumb_func
 106              		.type	CySysClkIloStart, %function
 107              	CySysClkIloStart:
 108              	.LFB2:
  84:.\Generated_Source\PSoC4/CyLFClk.c ****     CY_SYS_CLK_ILO_CONFIG_REG |= CY_SYS_CLK_ILO_CONFIG_ENABLE;
 109              		.loc 1 84 0
ARM GAS  C:\Users\310295~1\AppData\Local\Temp\ccIU8zba.s 			page 20


 110              		.cfi_startproc
  85:.\Generated_Source\PSoC4/CyLFClk.c **** }
 111              		.loc 1 85 0
 112 0000 034A     		ldr	r2, .L14
 113 0002 1368     		ldr	r3, [r2]
 114 0004 8021     		mov	r1, #128
 115 0006 0906     		lsl	r1, r1, #24
 116 0008 0B43     		orr	r3, r1
 117 000a 1360     		str	r3, [r2]
  86:.\Generated_Source\PSoC4/CyLFClk.c **** 
 118              		.loc 1 86 0
 119              		@ sp needed
 120 000c 7047     		bx	lr
 121              	.L15:
 122 000e C046     		.align	2
 123              	.L14:
 124 0010 04010B40 		.word	1074462980
 125              		.cfi_endproc
 126              	.LFE2:
 127              		.size	CySysClkIloStart, .-CySysClkIloStart
 128              		.section	.text.CySysClkIloStartMeasurement,"ax",%progbits
 129              		.align	2
 130              		.global	CySysClkIloStartMeasurement
 131              		.code	16
 132              		.thumb_func
 133              		.type	CySysClkIloStartMeasurement, %function
 134              	CySysClkIloStartMeasurement:
 135              	.LFB4:
 169:.\Generated_Source\PSoC4/CyLFClk.c **** #if(CY_IP_SRSSV2 && (!(CY_PSOC4_4100 || CY_PSOC4_4200)))
 136              		.loc 1 169 0
 137              		.cfi_startproc
 174:.\Generated_Source\PSoC4/CyLFClk.c ****     {
 138              		.loc 1 174 0
 139 0000 0E4B     		ldr	r3, .L18
 140 0002 1B78     		ldrb	r3, [r3]
 141 0004 002B     		cmp	r3, #0
 142 0006 08D1     		bne	.L17
 176:.\Generated_Source\PSoC4/CyLFClk.c ****         iloTrimTrig = 1u;
 143              		.loc 1 176 0
 144 0008 0D4B     		ldr	r3, .L18+4
 145 000a 1B68     		ldr	r3, [r3]
 146 000c 0F22     		mov	r2, #15
 147 000e 1340     		and	r3, r2
 148 0010 0C4A     		ldr	r2, .L18+8
 149 0012 1380     		strh	r3, [r2]
 177:.\Generated_Source\PSoC4/CyLFClk.c ****     }
 150              		.loc 1 177 0
 151 0014 0122     		mov	r2, #1
 152 0016 094B     		ldr	r3, .L18
 153 0018 1A70     		strb	r2, [r3]
 154              	.L17:
 182:.\Generated_Source\PSoC4/CyLFClk.c ****                             CY_SYS_CLK_SEL_ILO_DFT_SOURCE; 
 155              		.loc 1 182 0
 156 001a 0B4A     		ldr	r2, .L18+12
 157 001c 1168     		ldr	r1, [r2]
 158 001e 0B4B     		ldr	r3, .L18+16
 159 0020 0B40     		and	r3, r1
ARM GAS  C:\Users\310295~1\AppData\Local\Temp\ccIU8zba.s 			page 21


 160 0022 8021     		mov	r1, #128
 161 0024 4900     		lsl	r1, r1, #1
 162 0026 0B43     		orr	r3, r1
 163 0028 1360     		str	r3, [r2]
 185:.\Generated_Source\PSoC4/CyLFClk.c ****                             CY_SYS_TST_DDFT_CTRL_REG_SEL2_CLK1;
 164              		.loc 1 185 0
 165 002a 094A     		ldr	r2, .L18+20
 166 002c 1168     		ldr	r1, [r2]
 167 002e 094B     		ldr	r3, .L18+24
 168 0030 0B40     		and	r3, r1
 169 0032 0949     		ldr	r1, .L18+28
 170 0034 0B43     		orr	r3, r1
 171 0036 1360     		str	r3, [r2]
 187:.\Generated_Source\PSoC4/CyLFClk.c **** 
 172              		.loc 1 187 0
 173              		@ sp needed
 174 0038 7047     		bx	lr
 175              	.L19:
 176 003a C046     		.align	2
 177              	.L18:
 178 003c 00000000 		.word	.LANCHOR0
 179 0040 24FF0B40 		.word	1074528036
 180 0044 00000000 		.word	.LANCHOR1
 181 0048 10010B40 		.word	1074462992
 182 004c FFF0FFFF 		.word	-3841
 183 0050 08000340 		.word	1073938440
 184 0054 C0C0FFFF 		.word	-16192
 185 0058 0A0B0000 		.word	2826
 186              		.cfi_endproc
 187              	.LFE4:
 188              		.size	CySysClkIloStartMeasurement, .-CySysClkIloStartMeasurement
 189              		.section	.text.CySysClkIloStopMeasurement,"ax",%progbits
 190              		.align	2
 191              		.global	CySysClkIloStopMeasurement
 192              		.code	16
 193              		.thumb_func
 194              		.type	CySysClkIloStopMeasurement, %function
 195              	CySysClkIloStopMeasurement:
 196              	.LFB5:
 202:.\Generated_Source\PSoC4/CyLFClk.c ****     /* Set default configurations in 11...8 DFT register bits to zero */
 197              		.loc 1 202 0
 198              		.cfi_startproc
 204:.\Generated_Source\PSoC4/CyLFClk.c ****     #if(CY_IP_SRSSLT)
 199              		.loc 1 204 0
 200 0000 024A     		ldr	r2, .L21
 201 0002 1168     		ldr	r1, [r2]
 202 0004 024B     		ldr	r3, .L21+4
 203 0006 0B40     		and	r3, r1
 204 0008 1360     		str	r3, [r2]
 208:.\Generated_Source\PSoC4/CyLFClk.c **** 
 205              		.loc 1 208 0
 206              		@ sp needed
 207 000a 7047     		bx	lr
 208              	.L22:
 209              		.align	2
 210              	.L21:
 211 000c 10010B40 		.word	1074462992
ARM GAS  C:\Users\310295~1\AppData\Local\Temp\ccIU8zba.s 			page 22


 212 0010 FFF0FFFF 		.word	-3841
 213              		.cfi_endproc
 214              	.LFE5:
 215              		.size	CySysClkIloStopMeasurement, .-CySysClkIloStopMeasurement
 216              		.global	__aeabi_uidiv
 217              		.section	.text.CySysClkIloCompensate,"ax",%progbits
 218              		.align	2
 219              		.global	CySysClkIloCompensate
 220              		.code	16
 221              		.thumb_func
 222              		.type	CySysClkIloCompensate, %function
 223              	CySysClkIloCompensate:
 224              	.LFB6:
 268:.\Generated_Source\PSoC4/CyLFClk.c ****     uint32 iloCompensatedCycles;
 225              		.loc 1 268 0
 226              		.cfi_startproc
 227              	.LVL1:
 228 0000 70B5     		push	{r4, r5, r6, lr}
 229              		.cfi_def_cfa_offset 16
 230              		.cfi_offset 4, -16
 231              		.cfi_offset 5, -12
 232              		.cfi_offset 6, -8
 233              		.cfi_offset 14, -4
 275:.\Generated_Source\PSoC4/CyLFClk.c **** 
 234              		.loc 1 275 0
 235 0002 354B     		ldr	r3, .L35
 236 0004 1A68     		ldr	r2, [r3]
 237 0006 354B     		ldr	r3, .L35+4
 238 0008 1340     		and	r3, r2
 239              	.LVL2:
 278:.\Generated_Source\PSoC4/CyLFClk.c ****        (CY_SYS_TST_DDFT_CTRL_REG == CY_SYS_TST_DDFT_CTRL_REG_SEL2_CLK1) &&
 240              		.loc 1 278 0
 241 000a 8022     		mov	r2, #128
 242 000c 5200     		lsl	r2, r2, #1
 243 000e 9342     		cmp	r3, r2
 244 0010 54D1     		bne	.L28
 279:.\Generated_Source\PSoC4/CyLFClk.c ****        (CY_SYS_CLK_MAX_DELAY_US >= desiredDelay) &&
 245              		.loc 1 279 0 discriminator 1
 246 0012 334B     		ldr	r3, .L35+8
 247              	.LVL3:
 248 0014 1A68     		ldr	r2, [r3]
 278:.\Generated_Source\PSoC4/CyLFClk.c ****        (CY_SYS_TST_DDFT_CTRL_REG == CY_SYS_TST_DDFT_CTRL_REG_SEL2_CLK1) &&
 249              		.loc 1 278 0 discriminator 1
 250 0016 334B     		ldr	r3, .L35+12
 251 0018 9A42     		cmp	r2, r3
 252 001a 51D1     		bne	.L29
 279:.\Generated_Source\PSoC4/CyLFClk.c ****        (CY_SYS_CLK_MAX_DELAY_US >= desiredDelay) &&
 253              		.loc 1 279 0
 254 001c 324B     		ldr	r3, .L35+16
 255 001e 9842     		cmp	r0, r3
 256 0020 50D8     		bhi	.L30
 280:.\Generated_Source\PSoC4/CyLFClk.c ****        (CY_SYS_CLK_MIN_DELAY_US <= desiredDelay) &&
 257              		.loc 1 280 0
 258 0022 6328     		cmp	r0, #99
 259 0024 50D9     		bls	.L31
 281:.\Generated_Source\PSoC4/CyLFClk.c ****        (compensatedCycles !=  NULL))
 260              		.loc 1 281 0
ARM GAS  C:\Users\310295~1\AppData\Local\Temp\ccIU8zba.s 			page 23


 261 0026 0029     		cmp	r1, #0
 262 0028 50D0     		beq	.L32
 284:.\Generated_Source\PSoC4/CyLFClk.c ****         {
 263              		.loc 1 284 0
 264 002a 304B     		ldr	r3, .L35+20
 265 002c 5B68     		ldr	r3, [r3, #4]
 266 002e 002B     		cmp	r3, #0
 267 0030 3AD0     		beq	.L25
 287:.\Generated_Source\PSoC4/CyLFClk.c ****             {
 268              		.loc 1 287 0
 269 0032 2F4B     		ldr	r3, .L35+24
 270 0034 1B68     		ldr	r3, [r3]
 271 0036 002B     		cmp	r3, #0
 272 0038 4ADA     		bge	.L33
 289:.\Generated_Source\PSoC4/CyLFClk.c ****                 {
 273              		.loc 1 289 0
 274 003a 2E4B     		ldr	r3, .L35+28
 275 003c 1B68     		ldr	r3, [r3]
 276 003e 002B     		cmp	r3, #0
 277 0040 48D0     		beq	.L34
 278 0042 0C1C     		mov	r4, r1
 293:.\Generated_Source\PSoC4/CyLFClk.c ****                         {
 279              		.loc 1 293 0
 280 0044 2C4B     		ldr	r3, .L35+32
 281 0046 9842     		cmp	r0, r3
 282 0048 13D9     		bls	.L26
 295:.\Generated_Source\PSoC4/CyLFClk.c ****                             iloCompensatedCycles = 
 283              		.loc 1 295 0
 284 004a 1F21     		mov	r1, #31
 285              	.LVL4:
 286 004c FFF7FEFF 		bl	__aeabi_uidiv
 287              	.LVL5:
 288 0050 051C     		mov	r5, r0
 289              	.LVL6:
 297:.\Generated_Source\PSoC4/CyLFClk.c ****                                 CY_SYS_CLK_ILO_FREQ_2MSB) * (desiredDelayInCounts / CY_SYS_CLK_ILO_
 290              		.loc 1 297 0
 291 0052 284B     		ldr	r3, .L35+28
 292 0054 1868     		ldr	r0, [r3]
 293              	.LVL7:
 294 0056 294B     		ldr	r3, .L35+36
 295 0058 1968     		ldr	r1, [r3]
 296 005a 4843     		mul	r0, r1
 297 005c 890A     		lsr	r1, r1, #10
 298 005e FFF7FEFF 		bl	__aeabi_uidiv
 299              	.LVL8:
 300 0062 4609     		lsr	r6, r0, #5
 298:.\Generated_Source\PSoC4/CyLFClk.c ****                         }
 301              		.loc 1 298 0
 302 0064 281C     		mov	r0, r5
 303 0066 FA21     		mov	r1, #250
 304 0068 8900     		lsl	r1, r1, #2
 305 006a FFF7FEFF 		bl	__aeabi_uidiv
 306              	.LVL9:
 296:.\Generated_Source\PSoC4/CyLFClk.c ****                             (((CY_SYS_CNT_REG2_REG * cydelayFreqHz) / (cydelayFreqHz >> CY_SYS_CLK_
 307              		.loc 1 296 0
 308 006e 7043     		mul	r0, r6
 309              	.LVL10:
ARM GAS  C:\Users\310295~1\AppData\Local\Temp\ccIU8zba.s 			page 24


 310 0070 15E0     		b	.L27
 311              	.LVL11:
 312              	.L26:
 302:.\Generated_Source\PSoC4/CyLFClk.c ****                                                      CY_SYS_CLK_HALF_OF_CLOCK) / CY_SYS_CLK_ILO_PER
 313              		.loc 1 302 0
 314 0072 6423     		mov	r3, #100
 315 0074 5843     		mul	r0, r3
 316              	.LVL12:
 317 0076 224B     		ldr	r3, .L35+40
 318 0078 9C46     		mov	ip, r3
 319 007a 6044     		add	r0, r0, ip
 320 007c 2149     		ldr	r1, .L35+44
 321              	.LVL13:
 322 007e FFF7FEFF 		bl	__aeabi_uidiv
 323              	.LVL14:
 324 0082 051C     		mov	r5, r0
 325              	.LVL15:
 305:.\Generated_Source\PSoC4/CyLFClk.c ****                                                      (cydelayFreqHz >> CY_SYS_CLK_SYS_CLK_DEVIDER))
 326              		.loc 1 305 0
 327 0084 1B4B     		ldr	r3, .L35+28
 328 0086 1868     		ldr	r0, [r3]
 329              	.LVL16:
 330 0088 1C4B     		ldr	r3, .L35+36
 331 008a 1968     		ldr	r1, [r3]
 332 008c 4843     		mul	r0, r1
 306:.\Generated_Source\PSoC4/CyLFClk.c ****                                                      desiredDelayInCounts) / CY_SYS_CLK_ILO_DESIRED
 333              		.loc 1 306 0
 334 008e 890A     		lsr	r1, r1, #10
 305:.\Generated_Source\PSoC4/CyLFClk.c ****                                                      (cydelayFreqHz >> CY_SYS_CLK_SYS_CLK_DEVIDER))
 335              		.loc 1 305 0
 336 0090 FFF7FEFF 		bl	__aeabi_uidiv
 337              	.LVL17:
 306:.\Generated_Source\PSoC4/CyLFClk.c ****                                                      desiredDelayInCounts) / CY_SYS_CLK_ILO_DESIRED
 338              		.loc 1 306 0
 339 0094 6843     		mul	r0, r5
 305:.\Generated_Source\PSoC4/CyLFClk.c ****                                                      (cydelayFreqHz >> CY_SYS_CLK_SYS_CLK_DEVIDER))
 340              		.loc 1 305 0
 341 0096 FA21     		mov	r1, #250
 342 0098 C901     		lsl	r1, r1, #7
 343 009a FFF7FEFF 		bl	__aeabi_uidiv
 344              	.LVL18:
 345              	.L27:
 326:.\Generated_Source\PSoC4/CyLFClk.c ****                     compensateRunningStatus = CY_SYS_CLK_TRIM_OR_COMP_FINISHED;
 346              		.loc 1 326 0
 347 009e 2060     		str	r0, [r4]
 327:.\Generated_Source\PSoC4/CyLFClk.c ****                     returnStatus = CYRET_SUCCESS;
 348              		.loc 1 327 0
 349 00a0 0020     		mov	r0, #0
 350              	.LVL19:
 351 00a2 124B     		ldr	r3, .L35+20
 352 00a4 5860     		str	r0, [r3, #4]
 353              	.LVL20:
 354 00a6 16E0     		b	.L24
 355              	.LVL21:
 356              	.L25:
 343:.\Generated_Source\PSoC4/CyLFClk.c ****             compensateRunningStatus = CY_SYS_CLK_TRIM_OR_COMP_STARTED;
 357              		.loc 1 343 0
ARM GAS  C:\Users\310295~1\AppData\Local\Temp\ccIU8zba.s 			page 25


 358 00a8 144B     		ldr	r3, .L35+36
 359 00aa 1B68     		ldr	r3, [r3]
 360 00ac 9B0A     		lsr	r3, r3, #10
 361 00ae 104A     		ldr	r2, .L35+24
 362 00b0 1360     		str	r3, [r2]
 344:.\Generated_Source\PSoC4/CyLFClk.c ****             returnStatus = CYRET_STARTED;
 363              		.loc 1 344 0
 364 00b2 0122     		mov	r2, #1
 365 00b4 0D4B     		ldr	r3, .L35+20
 366 00b6 5A60     		str	r2, [r3, #4]
 367              	.LVL22:
 345:.\Generated_Source\PSoC4/CyLFClk.c ****         }
 368              		.loc 1 345 0
 369 00b8 0720     		mov	r0, #7
 370              	.LVL23:
 371 00ba 0CE0     		b	.L24
 372              	.LVL24:
 373              	.L28:
 350:.\Generated_Source\PSoC4/CyLFClk.c ****     }
 374              		.loc 1 350 0
 375 00bc 1120     		mov	r0, #17
 376              	.LVL25:
 377 00be 0AE0     		b	.L24
 378              	.LVL26:
 379              	.L29:
 380 00c0 1120     		mov	r0, #17
 381              	.LVL27:
 382 00c2 08E0     		b	.L24
 383              	.LVL28:
 384              	.L30:
 385 00c4 1120     		mov	r0, #17
 386              	.LVL29:
 387 00c6 06E0     		b	.L24
 388              	.LVL30:
 389              	.L31:
 390 00c8 1120     		mov	r0, #17
 391              	.LVL31:
 392 00ca 04E0     		b	.L24
 393              	.LVL32:
 394              	.L32:
 395 00cc 1120     		mov	r0, #17
 396              	.LVL33:
 397 00ce 02E0     		b	.L24
 398              	.LVL34:
 399              	.L33:
 337:.\Generated_Source\PSoC4/CyLFClk.c ****             }
 400              		.loc 1 337 0
 401 00d0 0720     		mov	r0, #7
 402              	.LVL35:
 403 00d2 00E0     		b	.L24
 404              	.LVL36:
 405              	.L34:
 332:.\Generated_Source\PSoC4/CyLFClk.c ****                 }
 406              		.loc 1 332 0
 407 00d4 1120     		mov	r0, #17
 408              	.LVL37:
 409              	.L24:
ARM GAS  C:\Users\310295~1\AppData\Local\Temp\ccIU8zba.s 			page 26


 354:.\Generated_Source\PSoC4/CyLFClk.c **** 
 410              		.loc 1 354 0
 411              		@ sp needed
 412 00d6 70BD     		pop	{r4, r5, r6, pc}
 413              	.L36:
 414              		.align	2
 415              	.L35:
 416 00d8 10010B40 		.word	1074462992
 417 00dc 3F3F0000 		.word	16191
 418 00e0 08000340 		.word	1073938440
 419 00e4 0A0B0000 		.word	2826
 420 00e8 00286BEE 		.word	-294967296
 421 00ec 00000000 		.word	.LANCHOR0
 422 00f0 18000340 		.word	1073938456
 423 00f4 1C000340 		.word	1073938460
 424 00f8 60D10000 		.word	53600
 425 00fc 00000000 		.word	cydelayFreqHz
 426 0100 0D030000 		.word	781
 427 0104 350C0000 		.word	3125
 428              		.cfi_endproc
 429              	.LFE6:
 430              		.size	CySysClkIloCompensate, .-CySysClkIloCompensate
 431              		.global	__aeabi_idiv
 432              		.section	.text.CySysClkIloUpdateTrimReg,"ax",%progbits
 433              		.align	2
 434              		.global	CySysClkIloUpdateTrimReg
 435              		.code	16
 436              		.thumb_func
 437              		.type	CySysClkIloUpdateTrimReg, %function
 438              	CySysClkIloUpdateTrimReg:
 439              	.LFB9:
 572:.\Generated_Source\PSoC4/CyLFClk.c ****     uint32 measuredIloFreq;
 440              		.loc 1 572 0
 441              		.cfi_startproc
 442              	.LVL38:
 443 0000 10B5     		push	{r4, lr}
 444              		.cfi_def_cfa_offset 8
 445              		.cfi_offset 4, -8
 446              		.cfi_offset 14, -4
 579:.\Generated_Source\PSoC4/CyLFClk.c ****     {
 447              		.loc 1 579 0
 448 0002 234B     		ldr	r3, .L47
 449 0004 1B68     		ldr	r3, [r3]
 450 0006 002B     		cmp	r3, #0
 451 0008 40D0     		beq	.L44
 452 000a 041C     		mov	r4, r0
 581:.\Generated_Source\PSoC4/CyLFClk.c **** 
 453              		.loc 1 581 0
 454 000c 204B     		ldr	r3, .L47
 455 000e 1868     		ldr	r0, [r3]
 456              	.LVL39:
 457 0010 204B     		ldr	r3, .L47+4
 458 0012 1968     		ldr	r1, [r3]
 459 0014 4843     		mul	r0, r1
 460 0016 890A     		lsr	r1, r1, #10
 461 0018 FFF7FEFF 		bl	__aeabi_uidiv
 462              	.LVL40:
ARM GAS  C:\Users\310295~1\AppData\Local\Temp\ccIU8zba.s 			page 27


 585:.\Generated_Source\PSoC4/CyLFClk.c ****                             ((int32) CY_SYS_CLK_PERTHOUSAND)) / ((int32) CY_SYS_CLK_ILO_DESIRED_FRE
 463              		.loc 1 585 0
 464 001c 1E4B     		ldr	r3, .L47+8
 465 001e 9C46     		mov	ip, r3
 466 0020 6044     		add	r0, r0, ip
 467              	.LVL41:
 468 0022 FA23     		mov	r3, #250
 469 0024 9B00     		lsl	r3, r3, #2
 470 0026 5843     		mul	r0, r3
 471              	.LVL42:
 472 0028 FA21     		mov	r1, #250
 473 002a C901     		lsl	r1, r1, #7
 474 002c FFF7FEFF 		bl	__aeabi_idiv
 475              	.LVL43:
 589:.\Generated_Source\PSoC4/CyLFClk.c ****         {
 476              		.loc 1 589 0
 477 0030 C217     		asr	r2, r0, #31
 478 0032 8318     		add	r3, r0, r2
 479 0034 5340     		eor	r3, r2
 480 0036 382B     		cmp	r3, #56
 481 0038 25D9     		bls	.L39
 591:.\Generated_Source\PSoC4/CyLFClk.c ****             {
 482              		.loc 1 591 0
 483 003a 0028     		cmp	r0, #0
 484 003c 08DD     		ble	.L40
 593:.\Generated_Source\PSoC4/CyLFClk.c ****                 CY_SYS_CLK_HALF_OF_STEP) / CY_SYS_CLK_ERROR_STEP);
 485              		.loc 1 593 0
 486 003e 8300     		lsl	r3, r0, #2
 487 0040 1818     		add	r0, r3, r0
 488              	.LVL44:
 489 0042 4000     		lsl	r0, r0, #1
 490 0044 7130     		add	r0, r0, #113
 491 0046 FF30     		add	r0, r0, #255
 492 0048 1449     		ldr	r1, .L47+12
 493 004a FFF7FEFF 		bl	__aeabi_idiv
 494              	.LVL45:
 495 004e 07E0     		b	.L41
 496              	.LVL46:
 497              	.L40:
 598:.\Generated_Source\PSoC4/CyLFClk.c ****                 CY_SYS_CLK_HALF_OF_STEP) / CY_SYS_CLK_ERROR_STEP);
 498              		.loc 1 598 0
 499 0050 8300     		lsl	r3, r0, #2
 500 0052 1818     		add	r0, r3, r0
 501              	.LVL47:
 502 0054 4000     		lsl	r0, r0, #1
 503 0056 7138     		sub	r0, r0, #113
 504 0058 FF38     		sub	r0, r0, #255
 505 005a 1049     		ldr	r1, .L47+12
 506 005c FFF7FEFF 		bl	__aeabi_idiv
 507              	.LVL48:
 508              	.L41:
 601:.\Generated_Source\PSoC4/CyLFClk.c ****             trimStep = (int32) currentIloTrimValue - trimStep;
 509              		.loc 1 601 0
 510 0060 0F4B     		ldr	r3, .L47+16
 511 0062 1B68     		ldr	r3, [r3]
 512 0064 0F22     		mov	r2, #15
 513 0066 1340     		and	r3, r2
ARM GAS  C:\Users\310295~1\AppData\Local\Temp\ccIU8zba.s 			page 28


 514              	.LVL49:
 602:.\Generated_Source\PSoC4/CyLFClk.c **** 
 515              		.loc 1 602 0
 516 0068 181A     		sub	r0, r3, r0
 517              	.LVL50:
 604:.\Generated_Source\PSoC4/CyLFClk.c ****             {
 518              		.loc 1 604 0
 519 006a 0F28     		cmp	r0, #15
 520 006c 00DD     		ble	.L42
 606:.\Generated_Source\PSoC4/CyLFClk.c ****             }
 521              		.loc 1 606 0
 522 006e 0F20     		mov	r0, #15
 523              	.LVL51:
 524              	.L42:
 608:.\Generated_Source\PSoC4/CyLFClk.c ****             {
 525              		.loc 1 608 0
 526 0070 0028     		cmp	r0, #0
 527 0072 00DA     		bge	.L43
 610:.\Generated_Source\PSoC4/CyLFClk.c ****             }
 528              		.loc 1 610 0
 529 0074 0020     		mov	r0, #0
 530              	.LVL52:
 531              	.L43:
 612:.\Generated_Source\PSoC4/CyLFClk.c ****                                                                  ((uint32) trimStep);
 532              		.loc 1 612 0
 533 0076 0A4A     		ldr	r2, .L47+16
 534 0078 1368     		ldr	r3, [r2]
 535              	.LVL53:
 536 007a 0F21     		mov	r1, #15
 537 007c 8B43     		bic	r3, r1
 538 007e 1843     		orr	r0, r3
 539              	.LVL54:
 540 0080 1060     		str	r0, [r2]
 541              	.LVL55:
 614:.\Generated_Source\PSoC4/CyLFClk.c ****         } /* Else return success because error is in +/- 10% range*/
 542              		.loc 1 614 0
 543 0082 0720     		mov	r0, #7
 544 0084 03E0     		b	.L38
 545              	.LVL56:
 546              	.L39:
 619:.\Generated_Source\PSoC4/CyLFClk.c ****             errorRangeStatus = CYRET_SUCCESS;
 547              		.loc 1 619 0
 548 0086 2060     		str	r0, [r4]
 549              	.LVL57:
 620:.\Generated_Source\PSoC4/CyLFClk.c ****         }
 550              		.loc 1 620 0
 551 0088 0020     		mov	r0, #0
 552              	.LVL58:
 553 008a 00E0     		b	.L38
 554              	.LVL59:
 555              	.L44:
 625:.\Generated_Source\PSoC4/CyLFClk.c ****     }
 556              		.loc 1 625 0
 557 008c 1120     		mov	r0, #17
 558              	.LVL60:
 559              	.L38:
 628:.\Generated_Source\PSoC4/CyLFClk.c **** 
ARM GAS  C:\Users\310295~1\AppData\Local\Temp\ccIU8zba.s 			page 29


 560              		.loc 1 628 0
 561              		@ sp needed
 562 008e 10BD     		pop	{r4, pc}
 563              	.L48:
 564              		.align	2
 565              	.L47:
 566 0090 1C000340 		.word	1073938460
 567 0094 00000000 		.word	cydelayFreqHz
 568 0098 0083FFFF 		.word	-32000
 569 009c E1020000 		.word	737
 570 00a0 24FF0B40 		.word	1074528036
 571              		.cfi_endproc
 572              	.LFE9:
 573              		.size	CySysClkIloUpdateTrimReg, .-CySysClkIloUpdateTrimReg
 574              		.section	.text.CySysClkIloTrim,"ax",%progbits
 575              		.align	2
 576              		.global	CySysClkIloTrim
 577              		.code	16
 578              		.thumb_func
 579              		.type	CySysClkIloTrim, %function
 580              	CySysClkIloTrim:
 581              	.LFB8:
 450:.\Generated_Source\PSoC4/CyLFClk.c ****     uint32 timeOutClocks = CY_SYS_CLK_TIMEOUT;
 582              		.loc 1 450 0
 583              		.cfi_startproc
 584              	.LVL61:
 585 0000 70B5     		push	{r4, r5, r6, lr}
 586              		.cfi_def_cfa_offset 16
 587              		.cfi_offset 4, -16
 588              		.cfi_offset 5, -12
 589              		.cfi_offset 6, -8
 590              		.cfi_offset 14, -4
 591              	.LVL62:
 457:.\Generated_Source\PSoC4/CyLFClk.c **** 
 592              		.loc 1 457 0
 593 0002 2E4B     		ldr	r3, .L64
 594 0004 1A68     		ldr	r2, [r3]
 595 0006 2E4B     		ldr	r3, .L64+4
 596 0008 1340     		and	r3, r2
 597              	.LVL63:
 460:.\Generated_Source\PSoC4/CyLFClk.c ****        (CY_SYS_TST_DDFT_CTRL_REG == CY_SYS_TST_DDFT_CTRL_REG_SEL2_CLK1) &&
 598              		.loc 1 460 0
 599 000a 8022     		mov	r2, #128
 600 000c 5200     		lsl	r2, r2, #1
 601 000e 9342     		cmp	r3, r2
 602 0010 48D1     		bne	.L58
 461:.\Generated_Source\PSoC4/CyLFClk.c ****        (iloAccuracyInPPT != NULL))
 603              		.loc 1 461 0 discriminator 1
 604 0012 2C4B     		ldr	r3, .L64+8
 605              	.LVL64:
 606 0014 1A68     		ldr	r2, [r3]
 460:.\Generated_Source\PSoC4/CyLFClk.c ****        (CY_SYS_TST_DDFT_CTRL_REG == CY_SYS_TST_DDFT_CTRL_REG_SEL2_CLK1) &&
 607              		.loc 1 460 0 discriminator 1
 608 0016 2C4B     		ldr	r3, .L64+12
 609 0018 9A42     		cmp	r2, r3
 610 001a 45D1     		bne	.L59
 461:.\Generated_Source\PSoC4/CyLFClk.c ****        (iloAccuracyInPPT != NULL))
ARM GAS  C:\Users\310295~1\AppData\Local\Temp\ccIU8zba.s 			page 30


 611              		.loc 1 461 0
 612 001c 0029     		cmp	r1, #0
 613 001e 45D0     		beq	.L60
 614 0020 0D1C     		mov	r5, r1
 464:.\Generated_Source\PSoC4/CyLFClk.c ****         {
 615              		.loc 1 464 0
 616 0022 0028     		cmp	r0, #0
 617 0024 25D1     		bne	.L51
 466:.\Generated_Source\PSoC4/CyLFClk.c ****             do
 618              		.loc 1 466 0
 619 0026 294B     		ldr	r3, .L64+16
 620 0028 1C68     		ldr	r4, [r3]
 621 002a A40A     		lsr	r4, r4, #10
 622              	.LVL65:
 451:.\Generated_Source\PSoC4/CyLFClk.c ****     uint32 waitUntilCntr1Stops;
 623              		.loc 1 451 0
 624 002c 0526     		mov	r6, #5
 625              	.LVL66:
 626              	.L56:
 470:.\Generated_Source\PSoC4/CyLFClk.c **** 
 627              		.loc 1 470 0
 628 002e 274B     		ldr	r3, .L64+16
 629 0030 1B68     		ldr	r3, [r3]
 630 0032 9B0A     		lsr	r3, r3, #10
 631 0034 264A     		ldr	r2, .L64+20
 632 0036 1360     		str	r3, [r2]
 473:.\Generated_Source\PSoC4/CyLFClk.c ****                 {
 633              		.loc 1 473 0
 634 0038 02E0     		b	.L52
 635              	.L54:
 475:.\Generated_Source\PSoC4/CyLFClk.c ****                     if (0u == waitUntilCntr1Stops)
 636              		.loc 1 475 0
 637 003a 013C     		sub	r4, r4, #1
 638              	.LVL67:
 476:.\Generated_Source\PSoC4/CyLFClk.c ****                     {
 639              		.loc 1 476 0
 640 003c 002C     		cmp	r4, #0
 641 003e 03D0     		beq	.L53
 642              	.L52:
 473:.\Generated_Source\PSoC4/CyLFClk.c ****                 {
 643              		.loc 1 473 0
 644 0040 234B     		ldr	r3, .L64+20
 645 0042 1B68     		ldr	r3, [r3]
 646 0044 002B     		cmp	r3, #0
 647 0046 F8DA     		bge	.L54
 648              	.L53:
 481:.\Generated_Source\PSoC4/CyLFClk.c ****                 timeOutClocks--;
 649              		.loc 1 481 0
 650 0048 281C     		mov	r0, r5
 651 004a FFF7FEFF 		bl	CySysClkIloUpdateTrimReg
 652              	.LVL68:
 653 004e 214B     		ldr	r3, .L64+24
 654 0050 9860     		str	r0, [r3, #8]
 482:.\Generated_Source\PSoC4/CyLFClk.c **** 
 655              		.loc 1 482 0
 656 0052 013E     		sub	r6, r6, #1
 657              	.LVL69:
ARM GAS  C:\Users\310295~1\AppData\Local\Temp\ccIU8zba.s 			page 31


 487:.\Generated_Source\PSoC4/CyLFClk.c **** 
 658              		.loc 1 487 0
 659 0054 0028     		cmp	r0, #0
 660 0056 03D0     		beq	.L55
 485:.\Generated_Source\PSoC4/CyLFClk.c ****               (CYRET_INVALID_STATE != trimRunningStatus) && 
 661              		.loc 1 485 0
 662 0058 1128     		cmp	r0, #17
 663 005a 01D0     		beq	.L55
 486:.\Generated_Source\PSoC4/CyLFClk.c ****                                (0u != timeOutClocks));
 664              		.loc 1 486 0
 665 005c 002E     		cmp	r6, #0
 666 005e E6D1     		bne	.L56
 667              	.L55:
 489:.\Generated_Source\PSoC4/CyLFClk.c ****             {
 668              		.loc 1 489 0
 669 0060 0028     		cmp	r0, #0
 670 0062 25D0     		beq	.L61
 495:.\Generated_Source\PSoC4/CyLFClk.c ****                 {
 671              		.loc 1 495 0
 672 0064 002E     		cmp	r6, #0
 673 0066 25D1     		bne	.L62
 497:.\Generated_Source\PSoC4/CyLFClk.c ****                     returnStatus = CYRET_TIMEOUT;
 674              		.loc 1 497 0
 675 0068 0022     		mov	r2, #0
 676 006a 1A4B     		ldr	r3, .L64+24
 677 006c 9A60     		str	r2, [r3, #8]
 678              	.LVL70:
 498:.\Generated_Source\PSoC4/CyLFClk.c ****                 }
 679              		.loc 1 498 0
 680 006e 1020     		mov	r0, #16
 681 0070 23E0     		b	.L50
 682              	.LVL71:
 683              	.L51:
 509:.\Generated_Source\PSoC4/CyLFClk.c ****             {
 684              		.loc 1 509 0
 685 0072 184B     		ldr	r3, .L64+24
 686 0074 9B68     		ldr	r3, [r3, #8]
 687 0076 002B     		cmp	r3, #0
 688 0078 0AD0     		beq	.L57
 512:.\Generated_Source\PSoC4/CyLFClk.c ****                 {
 689              		.loc 1 512 0
 690 007a 154B     		ldr	r3, .L64+20
 691 007c 1B68     		ldr	r3, [r3]
 692 007e 002B     		cmp	r3, #0
 693 0080 1ADA     		bge	.L63
 514:.\Generated_Source\PSoC4/CyLFClk.c ****                     trimRunningStatus = CY_SYS_CLK_TRIM_OR_COMP_FINISHED;
 694              		.loc 1 514 0
 695 0082 081C     		mov	r0, r1
 696              	.LVL72:
 697 0084 FFF7FEFF 		bl	CySysClkIloUpdateTrimReg
 698              	.LVL73:
 515:.\Generated_Source\PSoC4/CyLFClk.c ****                 }
 699              		.loc 1 515 0
 700 0088 0022     		mov	r2, #0
 701 008a 124B     		ldr	r3, .L64+24
 702 008c 9A60     		str	r2, [r3, #8]
 703 008e 14E0     		b	.L50
ARM GAS  C:\Users\310295~1\AppData\Local\Temp\ccIU8zba.s 			page 32


 704              	.LVL74:
 705              	.L57:
 525:.\Generated_Source\PSoC4/CyLFClk.c ****                 trimRunningStatus = CY_SYS_CLK_TRIM_OR_COMP_STARTED;
 706              		.loc 1 525 0
 707 0090 0E4B     		ldr	r3, .L64+16
 708 0092 1B68     		ldr	r3, [r3]
 709 0094 9B0A     		lsr	r3, r3, #10
 710 0096 0E4A     		ldr	r2, .L64+20
 711 0098 1360     		str	r3, [r2]
 526:.\Generated_Source\PSoC4/CyLFClk.c ****                 returnStatus = CYRET_STARTED;
 712              		.loc 1 526 0
 713 009a 0122     		mov	r2, #1
 714 009c 0D4B     		ldr	r3, .L64+24
 715 009e 9A60     		str	r2, [r3, #8]
 716              	.LVL75:
 527:.\Generated_Source\PSoC4/CyLFClk.c ****             }
 717              		.loc 1 527 0
 718 00a0 0720     		mov	r0, #7
 719              	.LVL76:
 720 00a2 0AE0     		b	.L50
 721              	.LVL77:
 722              	.L58:
 533:.\Generated_Source\PSoC4/CyLFClk.c ****     }
 723              		.loc 1 533 0
 724 00a4 1120     		mov	r0, #17
 725              	.LVL78:
 726 00a6 08E0     		b	.L50
 727              	.LVL79:
 728              	.L59:
 729 00a8 1120     		mov	r0, #17
 730              	.LVL80:
 731 00aa 06E0     		b	.L50
 732              	.LVL81:
 733              	.L60:
 734 00ac 1120     		mov	r0, #17
 735              	.LVL82:
 736 00ae 04E0     		b	.L50
 737              	.LVL83:
 738              	.L61:
 491:.\Generated_Source\PSoC4/CyLFClk.c ****             }
 739              		.loc 1 491 0
 740 00b0 0020     		mov	r0, #0
 741 00b2 02E0     		b	.L50
 742              	.L62:
 502:.\Generated_Source\PSoC4/CyLFClk.c ****                 }
 743              		.loc 1 502 0
 744 00b4 1120     		mov	r0, #17
 745 00b6 00E0     		b	.L50
 746              	.LVL84:
 747              	.L63:
 519:.\Generated_Source\PSoC4/CyLFClk.c ****                 }
 748              		.loc 1 519 0
 749 00b8 0720     		mov	r0, #7
 750              	.LVL85:
 751              	.L50:
 537:.\Generated_Source\PSoC4/CyLFClk.c **** 
 752              		.loc 1 537 0
ARM GAS  C:\Users\310295~1\AppData\Local\Temp\ccIU8zba.s 			page 33


 753              		@ sp needed
 754 00ba 70BD     		pop	{r4, r5, r6, pc}
 755              	.L65:
 756              		.align	2
 757              	.L64:
 758 00bc 10010B40 		.word	1074462992
 759 00c0 3F3F0000 		.word	16191
 760 00c4 08000340 		.word	1073938440
 761 00c8 0A0B0000 		.word	2826
 762 00cc 00000000 		.word	cydelayFreqHz
 763 00d0 18000340 		.word	1073938456
 764 00d4 00000000 		.word	.LANCHOR0
 765              		.cfi_endproc
 766              	.LFE8:
 767              		.size	CySysClkIloTrim, .-CySysClkIloTrim
 768              		.section	.text.CySysClkIloRestoreFactoryTrim,"ax",%progbits
 769              		.align	2
 770              		.global	CySysClkIloRestoreFactoryTrim
 771              		.code	16
 772              		.thumb_func
 773              		.type	CySysClkIloRestoreFactoryTrim, %function
 774              	CySysClkIloRestoreFactoryTrim:
 775              	.LFB10:
 649:.\Generated_Source\PSoC4/CyLFClk.c ****     cystatus returnStatus = CYRET_SUCCESS;
 776              		.loc 1 649 0
 777              		.cfi_startproc
 778              	.LVL86:
 653:.\Generated_Source\PSoC4/CyLFClk.c ****         {
 779              		.loc 1 653 0
 780 0000 094B     		ldr	r3, .L69
 781 0002 1B88     		ldrh	r3, [r3]
 782 0004 9BB2     		uxth	r3, r3
 783 0006 F02B     		cmp	r3, #240
 784 0008 0BD0     		beq	.L68
 655:.\Generated_Source\PSoC4/CyLFClk.c ****                                        (defaultIloTrimRegValue & CY_SYS_CLK_ILO_TRIM_MASK));
 785              		.loc 1 655 0
 786 000a 0848     		ldr	r0, .L69+4
 787 000c 0368     		ldr	r3, [r0]
 788 000e 0F22     		mov	r2, #15
 789 0010 9343     		bic	r3, r2
 790 0012 191C     		mov	r1, r3
 656:.\Generated_Source\PSoC4/CyLFClk.c ****         }
 791              		.loc 1 656 0
 792 0014 044B     		ldr	r3, .L69
 793 0016 1B88     		ldrh	r3, [r3]
 794 0018 1340     		and	r3, r2
 655:.\Generated_Source\PSoC4/CyLFClk.c ****                                        (defaultIloTrimRegValue & CY_SYS_CLK_ILO_TRIM_MASK));
 795              		.loc 1 655 0
 796 001a 0B43     		orr	r3, r1
 797 001c 0360     		str	r3, [r0]
 650:.\Generated_Source\PSoC4/CyLFClk.c **** 
 798              		.loc 1 650 0
 799 001e 0020     		mov	r0, #0
 800 0020 01E0     		b	.L67
 801              	.L68:
 660:.\Generated_Source\PSoC4/CyLFClk.c ****         }
 802              		.loc 1 660 0
ARM GAS  C:\Users\310295~1\AppData\Local\Temp\ccIU8zba.s 			page 34


 803 0022 0120     		mov	r0, #1
 804 0024 4042     		neg	r0, r0
 805              	.L67:
 806              	.LVL87:
 664:.\Generated_Source\PSoC4/CyLFClk.c **** #endif /* (CY_IP_SRSSV2 && (!(CY_PSOC4_4100 || CY_PSOC4_4200))) */
 807              		.loc 1 664 0
 808              		@ sp needed
 809 0026 7047     		bx	lr
 810              	.L70:
 811              		.align	2
 812              	.L69:
 813 0028 00000000 		.word	.LANCHOR1
 814 002c 24FF0B40 		.word	1074528036
 815              		.cfi_endproc
 816              	.LFE10:
 817              		.size	CySysClkIloRestoreFactoryTrim, .-CySysClkIloRestoreFactoryTrim
 818              		.section	.text.CySysClkWcoStart,"ax",%progbits
 819              		.align	2
 820              		.global	CySysClkWcoStart
 821              		.code	16
 822              		.thumb_func
 823              		.type	CySysClkWcoStart, %function
 824              	CySysClkWcoStart:
 825              	.LFB13:
 772:.\Generated_Source\PSoC4/CyLFClk.c ****         CySysClkWcoSetHighPowerMode();
 826              		.loc 1 772 0
 827              		.cfi_startproc
 828 0000 10B5     		push	{r4, lr}
 829              		.cfi_def_cfa_offset 8
 830              		.cfi_offset 4, -8
 831              		.cfi_offset 14, -4
 832              	.LBB4:
 833              	.LBB5:
 834              		.file 2 ".\\Generated_Source\\PSoC4\\CyLFClk.h"
   1:.\Generated_Source\PSoC4/CyLFClk.h **** /***************************************************************************//**
   2:.\Generated_Source\PSoC4/CyLFClk.h **** * \file .h
   3:.\Generated_Source\PSoC4/CyLFClk.h **** * \version 1.10
   4:.\Generated_Source\PSoC4/CyLFClk.h **** *
   5:.\Generated_Source\PSoC4/CyLFClk.h **** * \brief
   6:.\Generated_Source\PSoC4/CyLFClk.h **** *  This file provides the source code to API for the lfclk and wdt.
   7:.\Generated_Source\PSoC4/CyLFClk.h **** *
   8:.\Generated_Source\PSoC4/CyLFClk.h **** ********************************************************************************
   9:.\Generated_Source\PSoC4/CyLFClk.h **** * \copyright
  10:.\Generated_Source\PSoC4/CyLFClk.h **** * Copyright 2008-2016, Cypress Semiconductor Corporation.  All rights reserved.
  11:.\Generated_Source\PSoC4/CyLFClk.h **** * You may use this file only in accordance with the license, terms, conditions,
  12:.\Generated_Source\PSoC4/CyLFClk.h **** * disclaimers, and limitations in the end user license agreement accompanying
  13:.\Generated_Source\PSoC4/CyLFClk.h **** * the software package with which this file was provided.
  14:.\Generated_Source\PSoC4/CyLFClk.h **** *******************************************************************************/
  15:.\Generated_Source\PSoC4/CyLFClk.h **** 
  16:.\Generated_Source\PSoC4/CyLFClk.h **** 
  17:.\Generated_Source\PSoC4/CyLFClk.h **** #if !defined(CY_LFCLK_CYLIB_H)
  18:.\Generated_Source\PSoC4/CyLFClk.h **** #define CY_LFCLK_CYLIB_H
  19:.\Generated_Source\PSoC4/CyLFClk.h **** 
  20:.\Generated_Source\PSoC4/CyLFClk.h **** #include "cytypes.h"
  21:.\Generated_Source\PSoC4/CyLFClk.h **** #include "cydevice_trm.h"
  22:.\Generated_Source\PSoC4/CyLFClk.h **** 
  23:.\Generated_Source\PSoC4/CyLFClk.h **** #define CY_IP_WCO_WDT_EN           (-1 == 1)
ARM GAS  C:\Users\310295~1\AppData\Local\Temp\ccIU8zba.s 			page 35


  24:.\Generated_Source\PSoC4/CyLFClk.h **** 
  25:.\Generated_Source\PSoC4/CyLFClk.h **** 
  26:.\Generated_Source\PSoC4/CyLFClk.h **** typedef enum
  27:.\Generated_Source\PSoC4/CyLFClk.h **** {
  28:.\Generated_Source\PSoC4/CyLFClk.h ****     CY_SYS_TIMER_WAIT = 0u,
  29:.\Generated_Source\PSoC4/CyLFClk.h ****     CY_SYS_TIMER_INTERRUPT = 1u
  30:.\Generated_Source\PSoC4/CyLFClk.h **** } cy_sys_timer_delaytype_enum;
  31:.\Generated_Source\PSoC4/CyLFClk.h **** 
  32:.\Generated_Source\PSoC4/CyLFClk.h **** 
  33:.\Generated_Source\PSoC4/CyLFClk.h **** /***************************************
  34:.\Generated_Source\PSoC4/CyLFClk.h **** *    Function Prototypes
  35:.\Generated_Source\PSoC4/CyLFClk.h **** ***************************************/
  36:.\Generated_Source\PSoC4/CyLFClk.h **** /**
  37:.\Generated_Source\PSoC4/CyLFClk.h **** * \addtogroup group_general
  38:.\Generated_Source\PSoC4/CyLFClk.h **** * @{
  39:.\Generated_Source\PSoC4/CyLFClk.h **** */
  40:.\Generated_Source\PSoC4/CyLFClk.h **** /* Clocks API */
  41:.\Generated_Source\PSoC4/CyLFClk.h **** void CySysClkIloStart(void);
  42:.\Generated_Source\PSoC4/CyLFClk.h **** void CySysClkIloStop(void);
  43:.\Generated_Source\PSoC4/CyLFClk.h **** /** @} general */
  44:.\Generated_Source\PSoC4/CyLFClk.h **** 
  45:.\Generated_Source\PSoC4/CyLFClk.h **** /**
  46:.\Generated_Source\PSoC4/CyLFClk.h **** * \addtogroup group_compensate
  47:.\Generated_Source\PSoC4/CyLFClk.h **** * @{
  48:.\Generated_Source\PSoC4/CyLFClk.h **** */
  49:.\Generated_Source\PSoC4/CyLFClk.h **** cystatus CySysClkIloCompensate(uint32 desiredDelay, uint32 *compensatedCycles);
  50:.\Generated_Source\PSoC4/CyLFClk.h **** void CySysClkIloStartMeasurement(void);
  51:.\Generated_Source\PSoC4/CyLFClk.h **** void CySysClkIloStopMeasurement(void);
  52:.\Generated_Source\PSoC4/CyLFClk.h **** /** @} compensate */
  53:.\Generated_Source\PSoC4/CyLFClk.h **** 
  54:.\Generated_Source\PSoC4/CyLFClk.h **** #if(CY_IP_SRSSV2 && (!(CY_PSOC4_4100 || CY_PSOC4_4200)))
  55:.\Generated_Source\PSoC4/CyLFClk.h **** /**
  56:.\Generated_Source\PSoC4/CyLFClk.h **** * \addtogroup group_compensate
  57:.\Generated_Source\PSoC4/CyLFClk.h **** * @{
  58:.\Generated_Source\PSoC4/CyLFClk.h **** */
  59:.\Generated_Source\PSoC4/CyLFClk.h ****     cystatus CySysClkIloTrim(uint32 mode, int32 *iloAccuracyInPPT);
  60:.\Generated_Source\PSoC4/CyLFClk.h ****     cystatus CySysClkIloRestoreFactoryTrim(void);
  61:.\Generated_Source\PSoC4/CyLFClk.h **** /** @} compensate */
  62:.\Generated_Source\PSoC4/CyLFClk.h ****     cystatus CySysClkIloUpdateTrimReg(int32* iloAccuracyInPPT);
  63:.\Generated_Source\PSoC4/CyLFClk.h **** #endif /* (CY_IP_SRSSV2 && (!(CY_PSOC4_4100 || CY_PSOC4_4200))) */
  64:.\Generated_Source\PSoC4/CyLFClk.h **** 
  65:.\Generated_Source\PSoC4/CyLFClk.h **** #if(CY_IP_SRSSV2 && CY_IP_WCO)
  66:.\Generated_Source\PSoC4/CyLFClk.h **** /**
  67:.\Generated_Source\PSoC4/CyLFClk.h **** * \addtogroup group_general
  68:.\Generated_Source\PSoC4/CyLFClk.h **** * @{
  69:.\Generated_Source\PSoC4/CyLFClk.h **** */
  70:.\Generated_Source\PSoC4/CyLFClk.h ****     void CySysClkSetLfclkSource(uint32 source);
  71:.\Generated_Source\PSoC4/CyLFClk.h **** /** @} group_general */
  72:.\Generated_Source\PSoC4/CyLFClk.h **** #endif /* (CY_IP_SRSSV2 && CY_IP_WCO) */
  73:.\Generated_Source\PSoC4/CyLFClk.h **** 
  74:.\Generated_Source\PSoC4/CyLFClk.h **** #if (CY_IP_WCO)
  75:.\Generated_Source\PSoC4/CyLFClk.h **** /**
  76:.\Generated_Source\PSoC4/CyLFClk.h **** * \addtogroup group_wco
  77:.\Generated_Source\PSoC4/CyLFClk.h **** * @{
  78:.\Generated_Source\PSoC4/CyLFClk.h **** */
  79:.\Generated_Source\PSoC4/CyLFClk.h ****     void   CySysClkWcoStart(void);
  80:.\Generated_Source\PSoC4/CyLFClk.h ****     void   CySysClkWcoStop(void);
ARM GAS  C:\Users\310295~1\AppData\Local\Temp\ccIU8zba.s 			page 36


  81:.\Generated_Source\PSoC4/CyLFClk.h ****     uint32 CySysClkWcoSetPowerMode(uint32 mode);
  82:.\Generated_Source\PSoC4/CyLFClk.h ****     void CySysClkWcoClockOutSelect(uint32 clockSel);
  83:.\Generated_Source\PSoC4/CyLFClk.h **** /** @} wco */
  84:.\Generated_Source\PSoC4/CyLFClk.h ****     uint32 CySysClkWcoEnabled(void);
  85:.\Generated_Source\PSoC4/CyLFClk.h **** 
  86:.\Generated_Source\PSoC4/CyLFClk.h **** #endif /* (CY_IP_WCO) */
  87:.\Generated_Source\PSoC4/CyLFClk.h **** 
  88:.\Generated_Source\PSoC4/CyLFClk.h **** typedef void (*cyWdtCallback)(void);
  89:.\Generated_Source\PSoC4/CyLFClk.h **** 
  90:.\Generated_Source\PSoC4/CyLFClk.h **** #if (CY_IP_SRSSLT && CY_IP_WCO && CY_IP_WCO_WDT_EN)
  91:.\Generated_Source\PSoC4/CyLFClk.h **** 
  92:.\Generated_Source\PSoC4/CyLFClk.h ****     typedef void (*cyTimerCallback)(void);
  93:.\Generated_Source\PSoC4/CyLFClk.h **** #endif /* (CY_IP_SRSSLT && CY_IP_WCO && CY_IP_WCO_WDT_EN) */
  94:.\Generated_Source\PSoC4/CyLFClk.h **** 
  95:.\Generated_Source\PSoC4/CyLFClk.h **** #if(CY_IP_SRSSV2)
  96:.\Generated_Source\PSoC4/CyLFClk.h **** /**
  97:.\Generated_Source\PSoC4/CyLFClk.h **** * \addtogroup group_wdtsrssv2
  98:.\Generated_Source\PSoC4/CyLFClk.h **** * @{
  99:.\Generated_Source\PSoC4/CyLFClk.h **** */
 100:.\Generated_Source\PSoC4/CyLFClk.h ****     /* WDT API */
 101:.\Generated_Source\PSoC4/CyLFClk.h ****     void   CySysWdtLock(void);
 102:.\Generated_Source\PSoC4/CyLFClk.h ****     void   CySysWdtUnlock(void);
 103:.\Generated_Source\PSoC4/CyLFClk.h ****     void   CySysWdtSetMode(uint32 counterNum, uint32 mode);
 104:.\Generated_Source\PSoC4/CyLFClk.h ****     uint32 CySysWdtGetMode(uint32 counterNum);
 105:.\Generated_Source\PSoC4/CyLFClk.h ****     uint32 CySysWdtGetEnabledStatus(uint32 counterNum);
 106:.\Generated_Source\PSoC4/CyLFClk.h ****     void   CySysWdtSetClearOnMatch(uint32 counterNum, uint32 enable);
 107:.\Generated_Source\PSoC4/CyLFClk.h ****     uint32 CySysWdtGetClearOnMatch(uint32 counterNum);
 108:.\Generated_Source\PSoC4/CyLFClk.h ****     void   CySysWdtEnable(uint32 counterMask);
 109:.\Generated_Source\PSoC4/CyLFClk.h ****     void   CySysWdtDisable(uint32 counterMask);
 110:.\Generated_Source\PSoC4/CyLFClk.h ****     void   CySysWdtSetCascade(uint32 cascadeMask);
 111:.\Generated_Source\PSoC4/CyLFClk.h ****     uint32 CySysWdtGetCascade(void);
 112:.\Generated_Source\PSoC4/CyLFClk.h ****     void   CySysWdtSetMatch(uint32 counterNum, uint32 match);
 113:.\Generated_Source\PSoC4/CyLFClk.h ****     void   CySysWdtSetToggleBit(uint32 bits);
 114:.\Generated_Source\PSoC4/CyLFClk.h ****     uint32 CySysWdtGetToggleBit(void);
 115:.\Generated_Source\PSoC4/CyLFClk.h ****     uint32 CySysWdtGetMatch(uint32 counterNum);
 116:.\Generated_Source\PSoC4/CyLFClk.h ****     uint32 CySysWdtGetCount(uint32 counterNum);
 117:.\Generated_Source\PSoC4/CyLFClk.h ****     uint32 CySysWdtGetInterruptSource(void);
 118:.\Generated_Source\PSoC4/CyLFClk.h ****     void   CySysWdtClearInterrupt(uint32 counterMask);
 119:.\Generated_Source\PSoC4/CyLFClk.h ****     void   CySysWdtResetCounters(uint32 countersMask);
 120:.\Generated_Source\PSoC4/CyLFClk.h ****     cyWdtCallback  CySysWdtSetInterruptCallback(uint32 counterNum, cyWdtCallback function);
 121:.\Generated_Source\PSoC4/CyLFClk.h ****     cyWdtCallback  CySysWdtGetInterruptCallback(uint32 counterNum);
 122:.\Generated_Source\PSoC4/CyLFClk.h ****     void   CySysTimerDelay(uint32 counterNum, cy_sys_timer_delaytype_enum delayType, uint32 delay);
 123:.\Generated_Source\PSoC4/CyLFClk.h ****     void   CySysTimerDelayUntilMatch(uint32 counterNum, cy_sys_timer_delaytype_enum delayType, uint
 124:.\Generated_Source\PSoC4/CyLFClk.h ****     void   CySysWatchdogFeed(uint32 counterNum);
 125:.\Generated_Source\PSoC4/CyLFClk.h ****     void   CySysWdtEnableCounterIsr(uint32 counterNum);
 126:.\Generated_Source\PSoC4/CyLFClk.h ****     void   CySysWdtDisableCounterIsr(uint32 counterNum);
 127:.\Generated_Source\PSoC4/CyLFClk.h ****     void   CySysWdtIsr(void);
 128:.\Generated_Source\PSoC4/CyLFClk.h **** /** @} wdtsrssv2 */
 129:.\Generated_Source\PSoC4/CyLFClk.h **** #else
 130:.\Generated_Source\PSoC4/CyLFClk.h **** /**
 131:.\Generated_Source\PSoC4/CyLFClk.h **** * \addtogroup group_wdtsrsslite
 132:.\Generated_Source\PSoC4/CyLFClk.h **** * @{
 133:.\Generated_Source\PSoC4/CyLFClk.h **** */
 134:.\Generated_Source\PSoC4/CyLFClk.h ****     /* WDT API */
 135:.\Generated_Source\PSoC4/CyLFClk.h ****     uint32 CySysWdtGetEnabledStatus(void);
 136:.\Generated_Source\PSoC4/CyLFClk.h ****     void   CySysWdtEnable(void);
 137:.\Generated_Source\PSoC4/CyLFClk.h ****     void   CySysWdtDisable(void);
ARM GAS  C:\Users\310295~1\AppData\Local\Temp\ccIU8zba.s 			page 37


 138:.\Generated_Source\PSoC4/CyLFClk.h ****     void   CySysWdtSetMatch(uint32 match);
 139:.\Generated_Source\PSoC4/CyLFClk.h ****     uint32 CySysWdtGetMatch(void);
 140:.\Generated_Source\PSoC4/CyLFClk.h ****     uint32 CySysWdtGetCount(void);
 141:.\Generated_Source\PSoC4/CyLFClk.h ****     void   CySysWdtSetIgnoreBits(uint32 bitsNum);
 142:.\Generated_Source\PSoC4/CyLFClk.h ****     uint32 CySysWdtGetIgnoreBits(void);
 143:.\Generated_Source\PSoC4/CyLFClk.h ****     void   CySysWdtClearInterrupt(void);
 144:.\Generated_Source\PSoC4/CyLFClk.h ****     void   CySysWdtMaskInterrupt(void);
 145:.\Generated_Source\PSoC4/CyLFClk.h ****     void   CySysWdtUnmaskInterrupt(void);
 146:.\Generated_Source\PSoC4/CyLFClk.h ****     cyWdtCallback CySysWdtSetInterruptCallback(cyWdtCallback function);
 147:.\Generated_Source\PSoC4/CyLFClk.h ****     cyWdtCallback CySysWdtGetInterruptCallback(void);
 148:.\Generated_Source\PSoC4/CyLFClk.h ****     void   CySysWdtIsr(void);
 149:.\Generated_Source\PSoC4/CyLFClk.h **** /** @} wdtsrsslite*/
 150:.\Generated_Source\PSoC4/CyLFClk.h **** #endif  /* (CY_IP_SRSSV2) */
 151:.\Generated_Source\PSoC4/CyLFClk.h **** 
 152:.\Generated_Source\PSoC4/CyLFClk.h **** 
 153:.\Generated_Source\PSoC4/CyLFClk.h **** #if(CY_IP_SRSSLT && CY_IP_WCO && CY_IP_WCO_WDT_EN)
 154:.\Generated_Source\PSoC4/CyLFClk.h **** /**
 155:.\Generated_Source\PSoC4/CyLFClk.h **** * \addtogroup group_deepsleepwdt
 156:.\Generated_Source\PSoC4/CyLFClk.h **** * @{
 157:.\Generated_Source\PSoC4/CyLFClk.h **** */
 158:.\Generated_Source\PSoC4/CyLFClk.h ****     /* WCO WDT APIs */
 159:.\Generated_Source\PSoC4/CyLFClk.h ****     void   CySysClkSetTimerSource(uint32 source);
 160:.\Generated_Source\PSoC4/CyLFClk.h ****     void   CySysTimerSetMode(uint32 counterNum, uint32 mode);
 161:.\Generated_Source\PSoC4/CyLFClk.h ****     uint32 CySysTimerGetMode(uint32 counterNum);
 162:.\Generated_Source\PSoC4/CyLFClk.h ****     uint32 CySysTimerGetEnabledStatus(uint32 counterNum);
 163:.\Generated_Source\PSoC4/CyLFClk.h ****     void   CySysTimerSetClearOnMatch(uint32 counterNum, uint32 enable);
 164:.\Generated_Source\PSoC4/CyLFClk.h ****     uint32 CySysTimerGetClearOnMatch(uint32 counterNum);
 165:.\Generated_Source\PSoC4/CyLFClk.h ****     void   CySysTimerEnable(uint32 counterMask);
 166:.\Generated_Source\PSoC4/CyLFClk.h ****     void   CySysTimerDisable(uint32 counterMask);
 167:.\Generated_Source\PSoC4/CyLFClk.h ****     void   CySysTimerSetCascade(uint32 cascadeMask);
 168:.\Generated_Source\PSoC4/CyLFClk.h ****     uint32 CySysTimerGetCascade(void);
 169:.\Generated_Source\PSoC4/CyLFClk.h ****     void   CySysTimerSetMatch(uint32 counterNum, uint32 match);
 170:.\Generated_Source\PSoC4/CyLFClk.h ****     void   CySysTimerSetToggleBit(uint32 bits);
 171:.\Generated_Source\PSoC4/CyLFClk.h ****     uint32 CySysTimerGetToggleBit(void);
 172:.\Generated_Source\PSoC4/CyLFClk.h ****     uint32 CySysTimerGetMatch(uint32 counterNum);
 173:.\Generated_Source\PSoC4/CyLFClk.h ****     uint32 CySysTimerGetCount(uint32 counterNum);
 174:.\Generated_Source\PSoC4/CyLFClk.h ****     uint32 CySysTimerGetInterruptSource(void);
 175:.\Generated_Source\PSoC4/CyLFClk.h ****     void   CySysTimerClearInterrupt(uint32 counterMask);
 176:.\Generated_Source\PSoC4/CyLFClk.h ****     cyTimerCallback CySysTimerSetInterruptCallback(uint32 counterNum, cyTimerCallback function);
 177:.\Generated_Source\PSoC4/CyLFClk.h ****     cyTimerCallback CySysTimerGetInterruptCallback(uint32 counterNum);
 178:.\Generated_Source\PSoC4/CyLFClk.h ****     void   CySysTimerDelay(uint32 counterNum, cy_sys_timer_delaytype_enum delayType, uint32 delay);
 179:.\Generated_Source\PSoC4/CyLFClk.h ****     void   CySysTimerDelayUntilMatch(uint32 counterNum, cy_sys_timer_delaytype_enum delayType, uint
 180:.\Generated_Source\PSoC4/CyLFClk.h ****     void   CySysTimerResetCounters(uint32 countersMask);
 181:.\Generated_Source\PSoC4/CyLFClk.h ****     void   CySysTimerEnableIsr(uint32 counterNum);
 182:.\Generated_Source\PSoC4/CyLFClk.h ****     void   CySysTimerDisableIsr(uint32 counterNum);
 183:.\Generated_Source\PSoC4/CyLFClk.h ****     void   CySysTimerIsr(void);
 184:.\Generated_Source\PSoC4/CyLFClk.h **** /** @} deepsleepwdt */
 185:.\Generated_Source\PSoC4/CyLFClk.h **** #endif /* (CY_IP_SRSSLT && CY_IP_WCO && CY_IP_WCO_WDT_EN) */
 186:.\Generated_Source\PSoC4/CyLFClk.h **** 
 187:.\Generated_Source\PSoC4/CyLFClk.h **** 
 188:.\Generated_Source\PSoC4/CyLFClk.h **** /*******************************************************************************
 189:.\Generated_Source\PSoC4/CyLFClk.h **** * API Constants
 190:.\Generated_Source\PSoC4/CyLFClk.h **** *******************************************************************************/
 191:.\Generated_Source\PSoC4/CyLFClk.h **** #define CY_SYS_UINT16_MAX_VAL    (0xFFFFu)
 192:.\Generated_Source\PSoC4/CyLFClk.h **** 
 193:.\Generated_Source\PSoC4/CyLFClk.h **** 
 194:.\Generated_Source\PSoC4/CyLFClk.h **** /*******************************************************************************
ARM GAS  C:\Users\310295~1\AppData\Local\Temp\ccIU8zba.s 			page 38


 195:.\Generated_Source\PSoC4/CyLFClk.h **** * Clock API Constants
 196:.\Generated_Source\PSoC4/CyLFClk.h **** *******************************************************************************/
 197:.\Generated_Source\PSoC4/CyLFClk.h **** 
 198:.\Generated_Source\PSoC4/CyLFClk.h **** /* CySysClkIloStart()/CySysClkIloStop() - implementation definitions */
 199:.\Generated_Source\PSoC4/CyLFClk.h **** #define CY_SYS_CLK_ILO_CONFIG_ENABLE                    ((uint32)(( uint32 )0x01u << 31u))
 200:.\Generated_Source\PSoC4/CyLFClk.h **** #define CY_SYS_CLK_DFT_SELECT_DEFAULT_MASK              ((uint32)(( uint32 )0x0fu << 8u ))
 201:.\Generated_Source\PSoC4/CyLFClk.h **** 
 202:.\Generated_Source\PSoC4/CyLFClk.h **** /* CySysClkIloCompensate() - one ILO clock in uS multiplied on thousand */
 203:.\Generated_Source\PSoC4/CyLFClk.h **** #if (CY_IP_SRSSV2)
 204:.\Generated_Source\PSoC4/CyLFClk.h ****     #define CY_SYS_CLK_ILO_PERIOD_PPH                   ((uint32) (0x0C35u))
 205:.\Generated_Source\PSoC4/CyLFClk.h **** #else
 206:.\Generated_Source\PSoC4/CyLFClk.h ****     #define CY_SYS_CLK_ILO_PERIOD_PPH                   ((uint32) (0x09C4u))
 207:.\Generated_Source\PSoC4/CyLFClk.h **** #endif /* (CY_IP_SRSSV2) */
 208:.\Generated_Source\PSoC4/CyLFClk.h **** 
 209:.\Generated_Source\PSoC4/CyLFClk.h **** /* CySysClkIloCompensate() - implementation definitions */
 210:.\Generated_Source\PSoC4/CyLFClk.h **** #define CY_SYS_CLK_ILO_CALIBR_COMPLETE_MASK             ((uint32)(( uint32 )0x01u << 31u))
 211:.\Generated_Source\PSoC4/CyLFClk.h **** #define CY_SYS_CLK_ILO_DFT_LSB_MASK                     ((uint32)(0x00000FFFu))
 212:.\Generated_Source\PSoC4/CyLFClk.h **** #define CY_SYS_CLK_TRIM_OR_COMP_STARTED                 (1u)
 213:.\Generated_Source\PSoC4/CyLFClk.h **** #define CY_SYS_CLK_TRIM_OR_COMP_FINISHED                (0u)
 214:.\Generated_Source\PSoC4/CyLFClk.h **** #define CY_SYS_CLK_COEF_PHUNDRED                        ((uint32) (0x64u))
 215:.\Generated_Source\PSoC4/CyLFClk.h **** #define CY_SYS_CLK_HALF_OF_CLOCK                        ((uint32) ((uint32) CY_SYS_CLK_ILO_PERIOD_P
 216:.\Generated_Source\PSoC4/CyLFClk.h **** 
 217:.\Generated_Source\PSoC4/CyLFClk.h **** /* CySysClkIloCompensate() - maximum value of desiredDelay argument */
 218:.\Generated_Source\PSoC4/CyLFClk.h **** #if (CY_IP_SRSSV2)
 219:.\Generated_Source\PSoC4/CyLFClk.h ****     #define CY_SYS_CLK_MAX_DELAY_US                     ((uint32) (0xEE6B2800u))
 220:.\Generated_Source\PSoC4/CyLFClk.h ****     #define CY_SYS_CLK_ILO_PERIOD                       ((uint32) (0x1Fu))
 221:.\Generated_Source\PSoC4/CyLFClk.h ****     #define CY_SYS_CLK_ILO_FREQ_2MSB                    ((uint32) 5u)
 222:.\Generated_Source\PSoC4/CyLFClk.h **** #else
 223:.\Generated_Source\PSoC4/CyLFClk.h ****     #define CY_SYS_CLK_MAX_DELAY_US                     ((uint32) (0x1E8480u))
 224:.\Generated_Source\PSoC4/CyLFClk.h ****     #define CY_SYS_CLK_ILO_FREQ_2MSB                    ((uint32) (0x28u ))
 225:.\Generated_Source\PSoC4/CyLFClk.h **** 
 226:.\Generated_Source\PSoC4/CyLFClk.h **** 
 227:.\Generated_Source\PSoC4/CyLFClk.h **** /**********************************************************************************
 228:.\Generated_Source\PSoC4/CyLFClk.h **** * CySysClkIloCompensate() - value to walk over oversamling in calculations with srsslite.
 229:.\Generated_Source\PSoC4/CyLFClk.h **** * The oversample can be obtained when ilo frequency in equal 80 KHz and desired clocks 
 230:.\Generated_Source\PSoC4/CyLFClk.h **** * are 80 000 clocks.
 231:.\Generated_Source\PSoC4/CyLFClk.h **** **********************************************************************************/
 232:.\Generated_Source\PSoC4/CyLFClk.h **** #define CY_SYS_CLK_MAX_LITE_NUMBER                     ((uint32) 53600u)
 233:.\Generated_Source\PSoC4/CyLFClk.h **** #endif /* (CY_IP_SRSSV2) */
 234:.\Generated_Source\PSoC4/CyLFClk.h **** 
 235:.\Generated_Source\PSoC4/CyLFClk.h **** #define CY_SYS_CLK_ILO_FREQ_3LSB                       ((uint32) (0x3E8u))
 236:.\Generated_Source\PSoC4/CyLFClk.h **** #define CY_SYS_CLK_DELAY_COUNTS_LIMIT                  ((uint32) (0xD160u))
 237:.\Generated_Source\PSoC4/CyLFClk.h **** #define CY_SYS_CLK_MIN_DELAY_US                        ((uint32) (0x64u))
 238:.\Generated_Source\PSoC4/CyLFClk.h **** 
 239:.\Generated_Source\PSoC4/CyLFClk.h **** /* CySysClkSetLfclkSource() - parameter definitions */
 240:.\Generated_Source\PSoC4/CyLFClk.h **** #if (CY_IP_SRSSV2 && CY_IP_WCO)
 241:.\Generated_Source\PSoC4/CyLFClk.h ****     #define CY_SYS_CLK_LFCLK_SRC_ILO                    (0u)                                  /**< 
 242:.\Generated_Source\PSoC4/CyLFClk.h ****     #define CY_SYS_CLK_LFCLK_SRC_WCO                    ((uint32)(( uint32 )0x01u << 30u))    /**< 
 243:.\Generated_Source\PSoC4/CyLFClk.h **** #endif /* (CY_IP_SRSSV2 && CY_IP_WCO) */
 244:.\Generated_Source\PSoC4/CyLFClk.h **** 
 245:.\Generated_Source\PSoC4/CyLFClk.h **** /* CySysClkSetLfclkSource() - implementation definitions */
 246:.\Generated_Source\PSoC4/CyLFClk.h **** #if (CY_IP_WCO)
 247:.\Generated_Source\PSoC4/CyLFClk.h ****     #define CY_SYS_CLK_LFCLK_SEL_MASK                   ((uint32)(( uint32 )0x03u << 30u))
 248:.\Generated_Source\PSoC4/CyLFClk.h **** #endif /* (CY_IP_WCO) */
 249:.\Generated_Source\PSoC4/CyLFClk.h **** 
 250:.\Generated_Source\PSoC4/CyLFClk.h **** /* CySysClkSetTimerSource() - implementation definitions */
 251:.\Generated_Source\PSoC4/CyLFClk.h **** #if (CY_IP_SRSSLT && CY_IP_WCO && CY_IP_WCO_WDT_EN)
ARM GAS  C:\Users\310295~1\AppData\Local\Temp\ccIU8zba.s 			page 39


 252:.\Generated_Source\PSoC4/CyLFClk.h ****     #define CY_SYS_CLK_TIMER_SEL_MASK                   ((uint32)(( uint32 )0x03u << 30u))
 253:.\Generated_Source\PSoC4/CyLFClk.h **** #endif /* (CY_IP_SRSSLT && CY_IP_WCO && CY_IP_WCO_WDT_EN) */
 254:.\Generated_Source\PSoC4/CyLFClk.h **** 
 255:.\Generated_Source\PSoC4/CyLFClk.h **** /* CySysClkSetTimerSource() - parameter definitions */
 256:.\Generated_Source\PSoC4/CyLFClk.h **** #if (CY_IP_SRSSLT && CY_IP_WCO && CY_IP_WCO_WDT_EN)
 257:.\Generated_Source\PSoC4/CyLFClk.h ****     #define CY_SYS_CLK_TIMER_SRC_ILO                (0u)                                  /**< Inte
 258:.\Generated_Source\PSoC4/CyLFClk.h ****     #define CY_SYS_CLK_TIMER_SRC_WCO                ((uint32)(( uint32 )0x01u << 30u))    /**< Low 
 259:.\Generated_Source\PSoC4/CyLFClk.h **** #endif /* (CY_IP_SRSSLT && CY_IP_WCO && CY_IP_WCO_WDT_EN) */
 260:.\Generated_Source\PSoC4/CyLFClk.h **** 
 261:.\Generated_Source\PSoC4/CyLFClk.h **** /* CySysClkWcoClockOutSelect() - parameter definitions */
 262:.\Generated_Source\PSoC4/CyLFClk.h **** #if (CY_IP_WCO)
 263:.\Generated_Source\PSoC4/CyLFClk.h ****     #define CY_SYS_CLK_WCO_SEL_CRYSTAL                  (1u)    /**< Selects External crystal as WC
 264:.\Generated_Source\PSoC4/CyLFClk.h ****     #define CY_SYS_CLK_WCO_SEL_PIN                      (0u)    /**<Selects External clock input on
 265:.\Generated_Source\PSoC4/CyLFClk.h **** #endif /* (CY_IP_WCO) */
 266:.\Generated_Source\PSoC4/CyLFClk.h **** 
 267:.\Generated_Source\PSoC4/CyLFClk.h **** /* CySysClkWcoClockOutSelect() - implementation definitions */
 268:.\Generated_Source\PSoC4/CyLFClk.h **** #if (CY_IP_WCO)
 269:.\Generated_Source\PSoC4/CyLFClk.h ****     #define CY_SYS_CLK_WCO_SELECT_PIN_MASK              ((uint32)(( uint32 )0x01u << 2u))
 270:.\Generated_Source\PSoC4/CyLFClk.h ****     #define CY_SYS_CLK_WCO_SELECT_PIN_OFFSET            ((uint32) 0x02u)
 271:.\Generated_Source\PSoC4/CyLFClk.h **** #endif /* (CY_IP_WCO) */
 272:.\Generated_Source\PSoC4/CyLFClk.h **** 
 273:.\Generated_Source\PSoC4/CyLFClk.h **** /* CySysClkIloRestoreFactoryTrim() - implementation definitions */
 274:.\Generated_Source\PSoC4/CyLFClk.h **** #if (CY_IP_SRSSV2 && CY_IP_WCO && (!(CY_PSOC4_4100 || CY_PSOC4_4200)))
 275:.\Generated_Source\PSoC4/CyLFClk.h ****     #define CY_SYS_CLK_ILO_TRIM_DEFAULT_VALUE           ((uint8 )(0xF0u))
 276:.\Generated_Source\PSoC4/CyLFClk.h ****     #define CY_SYS_CLK_ILO_TRIM_DEFAULT_MASK            ((uint32)((uint32)0x01u << 3u))
 277:.\Generated_Source\PSoC4/CyLFClk.h ****     #define CY_SYS_CLK_ILO_TRIM_MASK                    ((uint32)(0x0Fu))
 278:.\Generated_Source\PSoC4/CyLFClk.h **** #endif /* (CY_IP_SRSSV2 && CY_IP_WCO && (!(CY_PSOC4_4100 || CY_PSOC4_4200))) */
 279:.\Generated_Source\PSoC4/CyLFClk.h **** 
 280:.\Generated_Source\PSoC4/CyLFClk.h **** /* CySysIloTrim() - parameter definitions and macros*/
 281:.\Generated_Source\PSoC4/CyLFClk.h **** #if (CY_IP_SRSSV2 && CY_IP_WCO && (!(CY_PSOC4_4100 || CY_PSOC4_4200)))
 282:.\Generated_Source\PSoC4/CyLFClk.h ****     #define CY_SYS_CLK_BLOCKING                         (0u)
 283:.\Generated_Source\PSoC4/CyLFClk.h ****     #define CY_SYS_CLK_NON_BLOCKING                     (1u)
 284:.\Generated_Source\PSoC4/CyLFClk.h ****     #define CY_SYS_CLK_PERTHOUSAND                      ((uint32) 0x000003E8u )
 285:.\Generated_Source\PSoC4/CyLFClk.h ****     #define CY_SYS_CLK_ABS_MACRO(x)                     ((0 > (x)) ? (-(x)) : (x))
 286:.\Generated_Source\PSoC4/CyLFClk.h ****     #define CY_SYS_CLK_ERROR_RANGE                      ((uint32) 0x38u)
 287:.\Generated_Source\PSoC4/CyLFClk.h ****     #define CY_SYS_CLK_TIMEOUT                          ((uint8 ) 0x05u)
 288:.\Generated_Source\PSoC4/CyLFClk.h **** 
 289:.\Generated_Source\PSoC4/CyLFClk.h ****     /* ILO error step is 7,37 % error range */
 290:.\Generated_Source\PSoC4/CyLFClk.h ****     #define CY_SYS_CLK_ERROR_STEP                       (( int32) 0x02E1u)
 291:.\Generated_Source\PSoC4/CyLFClk.h ****     #define CY_SYS_CLK_ERROR_COEF                       ((uint32) 0x0Au)
 292:.\Generated_Source\PSoC4/CyLFClk.h **** #endif /* (CY_IP_SRSSV2 && CY_IP_WCO && (!(CY_PSOC4_4100 || CY_PSOC4_4200))) */
 293:.\Generated_Source\PSoC4/CyLFClk.h **** 
 294:.\Generated_Source\PSoC4/CyLFClk.h **** #if (CY_IP_WCO)
 295:.\Generated_Source\PSoC4/CyLFClk.h ****     /* WCO Configuration Register */
 296:.\Generated_Source\PSoC4/CyLFClk.h ****     #define CY_SYS_CLK_WCO_CONFIG_LPM_EN                (( uint32 )(( uint32 )0x01u <<  0u))
 297:.\Generated_Source\PSoC4/CyLFClk.h ****     #define CY_SYS_CLK_WCO_CONFIG_LPM_AUTO              (( uint32 )(( uint32 )0x01u <<  1u))
 298:.\Generated_Source\PSoC4/CyLFClk.h ****     #define CY_SYS_CLK_WCO_CONFIG_LPM_ENABLE            (( uint32 )(( uint32 )0x01u << 31u))
 299:.\Generated_Source\PSoC4/CyLFClk.h **** 
 300:.\Generated_Source\PSoC4/CyLFClk.h ****     /* WCO Status Register */
 301:.\Generated_Source\PSoC4/CyLFClk.h ****     #define CY_SYS_CLK_WCO_STATUS_OUT_BLNK_A            (( uint32 )(( uint32 )0x01u <<  0u))
 302:.\Generated_Source\PSoC4/CyLFClk.h **** 
 303:.\Generated_Source\PSoC4/CyLFClk.h ****     /* WCO Trim Register */
 304:.\Generated_Source\PSoC4/CyLFClk.h ****     #define CY_SYS_CLK_WCO_TRIM_XGM_MASK                (( uint32 ) 0x07u)
 305:.\Generated_Source\PSoC4/CyLFClk.h ****     #define CY_SYS_CLK_WCO_TRIM_XGM_SHIFT               (( uint32 ) 0x00u)
 306:.\Generated_Source\PSoC4/CyLFClk.h **** 
 307:.\Generated_Source\PSoC4/CyLFClk.h ****     #define CY_SYS_CLK_WCO_TRIM_XGM_3370NA              (( uint32 ) 0x00u)
 308:.\Generated_Source\PSoC4/CyLFClk.h ****     #define CY_SYS_CLK_WCO_TRIM_XGM_2620NA              (( uint32 ) 0x01u)
ARM GAS  C:\Users\310295~1\AppData\Local\Temp\ccIU8zba.s 			page 40


 309:.\Generated_Source\PSoC4/CyLFClk.h ****     #define CY_SYS_CLK_WCO_TRIM_XGM_2250NA              (( uint32 ) 0x02u)
 310:.\Generated_Source\PSoC4/CyLFClk.h ****     #define CY_SYS_CLK_WCO_TRIM_XGM_1500NA              (( uint32 ) 0x03u)
 311:.\Generated_Source\PSoC4/CyLFClk.h ****     #define CY_SYS_CLK_WCO_TRIM_XGM_1870NA              (( uint32 ) 0x04u)
 312:.\Generated_Source\PSoC4/CyLFClk.h ****     #define CY_SYS_CLK_WCO_TRIM_XGM_1120NA              (( uint32 ) 0x05u)
 313:.\Generated_Source\PSoC4/CyLFClk.h ****     #define CY_SYS_CLK_WCO_TRIM_XGM_750NA               (( uint32 ) 0x06u)
 314:.\Generated_Source\PSoC4/CyLFClk.h ****     #define CY_SYS_CLK_WCO_TRIM_XGM_0NA                 (( uint32 ) 0x07u)
 315:.\Generated_Source\PSoC4/CyLFClk.h **** 
 316:.\Generated_Source\PSoC4/CyLFClk.h ****     #define CY_SYS_CLK_WCO_TRIM_GM_MASK                 (( uint32 )(( uint32 )0x03u << 4u))
 317:.\Generated_Source\PSoC4/CyLFClk.h ****     #define CY_SYS_CLK_WCO_TRIM_GM_SHIFT                (( uint32 ) 0x04u)
 318:.\Generated_Source\PSoC4/CyLFClk.h ****     #define CY_SYS_CLK_WCO_TRIM_GM_HPM                  (( uint32 ) 0x01u)
 319:.\Generated_Source\PSoC4/CyLFClk.h ****     #define CY_SYS_CLK_WCO_TRIM_GM_LPM                  (( uint32 ) 0x02u)
 320:.\Generated_Source\PSoC4/CyLFClk.h **** #endif  /* (CY_IP_WCO) */
 321:.\Generated_Source\PSoC4/CyLFClk.h **** 
 322:.\Generated_Source\PSoC4/CyLFClk.h **** 
 323:.\Generated_Source\PSoC4/CyLFClk.h **** /*******************************************************************************
 324:.\Generated_Source\PSoC4/CyLFClk.h **** * WDT API Constants
 325:.\Generated_Source\PSoC4/CyLFClk.h **** *******************************************************************************/
 326:.\Generated_Source\PSoC4/CyLFClk.h **** #if(CY_IP_SRSSV2)
 327:.\Generated_Source\PSoC4/CyLFClk.h **** 
 328:.\Generated_Source\PSoC4/CyLFClk.h ****     #define CY_SYS_WDT_MODE_NONE                (0u)
 329:.\Generated_Source\PSoC4/CyLFClk.h ****     #define CY_SYS_WDT_MODE_INT                 (1u)
 330:.\Generated_Source\PSoC4/CyLFClk.h ****     #define CY_SYS_WDT_MODE_RESET               (2u)
 331:.\Generated_Source\PSoC4/CyLFClk.h ****     #define CY_SYS_WDT_MODE_INT_RESET           (3u)
 332:.\Generated_Source\PSoC4/CyLFClk.h **** 
 333:.\Generated_Source\PSoC4/CyLFClk.h ****     #define CY_SYS_WDT_COUNTER0_MASK            ((uint32)((uint32)0x01u))           /**< Counter 0 
 334:.\Generated_Source\PSoC4/CyLFClk.h ****     #define CY_SYS_WDT_COUNTER1_MASK            ((uint32)((uint32)0x01u << 8u))     /**< Counter 1 
 335:.\Generated_Source\PSoC4/CyLFClk.h ****     #define CY_SYS_WDT_COUNTER2_MASK            ((uint32)((uint32)0x01u << 16u))    /**< Counter 2 
 336:.\Generated_Source\PSoC4/CyLFClk.h **** 
 337:.\Generated_Source\PSoC4/CyLFClk.h ****     #define CY_SYS_WDT_CASCADE_NONE             ((uint32)0x00u)             /**< Neither */
 338:.\Generated_Source\PSoC4/CyLFClk.h ****     #define CY_SYS_WDT_CASCADE_01               ((uint32)0x01u << 3u)       /**< Cascade 01 */
 339:.\Generated_Source\PSoC4/CyLFClk.h ****     #define CY_SYS_WDT_CASCADE_12               ((uint32)0x01u << 11u)      /**< Cascade 12 */
 340:.\Generated_Source\PSoC4/CyLFClk.h **** 
 341:.\Generated_Source\PSoC4/CyLFClk.h ****     #define CY_SYS_WDT_COUNTER0_INT             ((uint32)0x01u << 2u)
 342:.\Generated_Source\PSoC4/CyLFClk.h ****     #define CY_SYS_WDT_COUNTER1_INT             ((uint32)0x01u << 10u)
 343:.\Generated_Source\PSoC4/CyLFClk.h ****     #define CY_SYS_WDT_COUNTER2_INT             ((uint32)0x01u << 18u)
 344:.\Generated_Source\PSoC4/CyLFClk.h **** 
 345:.\Generated_Source\PSoC4/CyLFClk.h ****     #define CY_SYS_WDT_COUNTER0_RESET           ((uint32)0x01u << 3u)       /**< Counter 0 */
 346:.\Generated_Source\PSoC4/CyLFClk.h ****     #define CY_SYS_WDT_COUNTER1_RESET           ((uint32)0x01u << 11u)      /**< Counter 1 */
 347:.\Generated_Source\PSoC4/CyLFClk.h ****     #define CY_SYS_WDT_COUNTER2_RESET           ((uint32)0x01u << 19u)      /**< Counter 2 */
 348:.\Generated_Source\PSoC4/CyLFClk.h **** 
 349:.\Generated_Source\PSoC4/CyLFClk.h ****     #define CY_SYS_WDT_COUNTERS_RESET           (CY_SYS_WDT_COUNTER0_RESET |\
 350:.\Generated_Source\PSoC4/CyLFClk.h ****                                                  CY_SYS_WDT_COUNTER1_RESET |\
 351:.\Generated_Source\PSoC4/CyLFClk.h ****                                                  CY_SYS_WDT_COUNTER2_RESET)
 352:.\Generated_Source\PSoC4/CyLFClk.h **** 
 353:.\Generated_Source\PSoC4/CyLFClk.h ****     #define CY_SYS_WDT_COUNTER0                 (0x00u)
 354:.\Generated_Source\PSoC4/CyLFClk.h ****     #define CY_SYS_WDT_COUNTER1                 (0x01u)
 355:.\Generated_Source\PSoC4/CyLFClk.h ****     #define CY_SYS_WDT_COUNTER2                 (0x02u)
 356:.\Generated_Source\PSoC4/CyLFClk.h **** 
 357:.\Generated_Source\PSoC4/CyLFClk.h ****     #define CY_SYS_WDT_COUNTER0_OFFSET          (0x00u)
 358:.\Generated_Source\PSoC4/CyLFClk.h ****     #define CY_SYS_WDT_COUNTER1_OFFSET          (0x02u)
 359:.\Generated_Source\PSoC4/CyLFClk.h ****     #define CY_SYS_WDT_COUNTER2_OFFSET          (0x04u)
 360:.\Generated_Source\PSoC4/CyLFClk.h **** 
 361:.\Generated_Source\PSoC4/CyLFClk.h ****     #define CY_SYS_WDT_MODE_MASK                ((uint32)(0x03u))
 362:.\Generated_Source\PSoC4/CyLFClk.h **** 
 363:.\Generated_Source\PSoC4/CyLFClk.h ****     #define CY_SYS_WDT_CONFIG_BITS2_MASK        (uint32)(0x1Fu)
 364:.\Generated_Source\PSoC4/CyLFClk.h ****     #define CY_SYS_WDT_CONFIG_BITS2_POS         (uint32)(24u)
 365:.\Generated_Source\PSoC4/CyLFClk.h ****     #define CY_SYS_WDT_LOWER_16BITS_MASK        (uint32)(0x0000FFFFu)
ARM GAS  C:\Users\310295~1\AppData\Local\Temp\ccIU8zba.s 			page 41


 366:.\Generated_Source\PSoC4/CyLFClk.h ****     #define CY_SYS_WDT_HIGHER_16BITS_MASK       (uint32)(0xFFFF0000u)
 367:.\Generated_Source\PSoC4/CyLFClk.h ****     #define CY_SYS_WDT_COUNTERS_MAX             (0x03u)
 368:.\Generated_Source\PSoC4/CyLFClk.h ****     #define CY_SYS_WDT_CNT_SHIFT                (0x08u)
 369:.\Generated_Source\PSoC4/CyLFClk.h ****     #define CY_SYS_WDT_CNT_MATCH_CLR_SHIFT      (0x02u)
 370:.\Generated_Source\PSoC4/CyLFClk.h ****     #define CY_SYS_WDT_CNT_STTS_SHIFT           (0x01u)
 371:.\Generated_Source\PSoC4/CyLFClk.h ****     #define CY_SYS_WDT_CNT_MATCH_SHIFT          (0x10u)
 372:.\Generated_Source\PSoC4/CyLFClk.h **** 
 373:.\Generated_Source\PSoC4/CyLFClk.h ****     #define CY_SYS_WDT_CLK_LOCK_BITS_MASK       ((uint32)0x03u << 14u)
 374:.\Generated_Source\PSoC4/CyLFClk.h ****     #define CY_SYS_WDT_CLK_LOCK_BIT0            ((uint32)0x01u << 14u)
 375:.\Generated_Source\PSoC4/CyLFClk.h ****     #define CY_SYS_WDT_CLK_LOCK_BIT1            ((uint32)0x01u << 15u)
 376:.\Generated_Source\PSoC4/CyLFClk.h **** 
 377:.\Generated_Source\PSoC4/CyLFClk.h ****     #define CY_WDT_NUM_OF_WDT                   (3u)
 378:.\Generated_Source\PSoC4/CyLFClk.h ****     #define CY_WDT_NUM_OF_CALLBACKS             (3u)
 379:.\Generated_Source\PSoC4/CyLFClk.h **** 
 380:.\Generated_Source\PSoC4/CyLFClk.h ****     #else
 381:.\Generated_Source\PSoC4/CyLFClk.h ****         #define CY_WDT_NUM_OF_WDT               (1u)
 382:.\Generated_Source\PSoC4/CyLFClk.h ****         #define CY_WDT_NUM_OF_CALLBACKS         (3u)
 383:.\Generated_Source\PSoC4/CyLFClk.h ****         #define CY_SYS_WDT_KEY                  ((uint32)(0xACED8865u))
 384:.\Generated_Source\PSoC4/CyLFClk.h ****         #define CY_SYS_WDT_MATCH_MASK           ((uint32)(0x0000FFFFu))
 385:.\Generated_Source\PSoC4/CyLFClk.h ****         #define CY_SYS_WDT_IGNORE_BITS_MASK     ((uint32)(0x000F0000u))
 386:.\Generated_Source\PSoC4/CyLFClk.h ****         #define CY_SYS_WDT_IGNORE_BITS_SHIFT    ((uint32)(16u))
 387:.\Generated_Source\PSoC4/CyLFClk.h ****         #define CY_SYS_WDT_LOWER_BIT_MASK       ((uint32)(0x00000001u))
 388:.\Generated_Source\PSoC4/CyLFClk.h **** 
 389:.\Generated_Source\PSoC4/CyLFClk.h ****         #define CY_SYS_WDT_COUNTER0             (0x00u)
 390:.\Generated_Source\PSoC4/CyLFClk.h **** 
 391:.\Generated_Source\PSoC4/CyLFClk.h **** #endif /* (CY_IP_SRSSV2) */
 392:.\Generated_Source\PSoC4/CyLFClk.h **** 
 393:.\Generated_Source\PSoC4/CyLFClk.h **** #if (CY_IP_SRSSV2 && CY_IP_WCO)
 394:.\Generated_Source\PSoC4/CyLFClk.h ****     #define CY_SYS_WDT_1LFCLK_ILO_DELAY_US    ((uint16)( 67u))
 395:.\Generated_Source\PSoC4/CyLFClk.h ****     #define CY_SYS_WDT_3LFCLK_ILO_DELAY_US    ((uint16)(201u))
 396:.\Generated_Source\PSoC4/CyLFClk.h ****     #define CY_SYS_WDT_1LFCLK_WCO_DELAY_US    ((uint16)( 31u))
 397:.\Generated_Source\PSoC4/CyLFClk.h ****     #define CY_SYS_WDT_3LFCLK_WCO_DELAY_US    ((uint16)( 93u))
 398:.\Generated_Source\PSoC4/CyLFClk.h **** 
 399:.\Generated_Source\PSoC4/CyLFClk.h ****     #define CY_SYS_WDT_1LFCLK_DELAY_US      \
 400:.\Generated_Source\PSoC4/CyLFClk.h ****         ((CY_SYS_CLK_LFCLK_SRC_ILO == (CY_SYS_WDT_CONFIG_REG & CY_SYS_CLK_LFCLK_SEL_MASK)) ? \
 401:.\Generated_Source\PSoC4/CyLFClk.h ****                                             (CY_SYS_WDT_1LFCLK_ILO_DELAY_US) : \
 402:.\Generated_Source\PSoC4/CyLFClk.h ****                                             (CY_SYS_WDT_1LFCLK_WCO_DELAY_US))
 403:.\Generated_Source\PSoC4/CyLFClk.h **** 
 404:.\Generated_Source\PSoC4/CyLFClk.h ****     #define CY_SYS_WDT_3LFCLK_DELAY_US      \
 405:.\Generated_Source\PSoC4/CyLFClk.h ****         ((CY_SYS_CLK_LFCLK_SRC_ILO == (CY_SYS_WDT_CONFIG_REG & CY_SYS_CLK_LFCLK_SEL_MASK)) ? \
 406:.\Generated_Source\PSoC4/CyLFClk.h ****                                             (CY_SYS_WDT_3LFCLK_ILO_DELAY_US) : \
 407:.\Generated_Source\PSoC4/CyLFClk.h ****                                             (CY_SYS_WDT_3LFCLK_WCO_DELAY_US))
 408:.\Generated_Source\PSoC4/CyLFClk.h ****     #else
 409:.\Generated_Source\PSoC4/CyLFClk.h ****         #define CY_SYS_WDT_1LFCLK_DELAY_US      ((uint16)  (67u))
 410:.\Generated_Source\PSoC4/CyLFClk.h ****         #define CY_SYS_WDT_3LFCLK_DELAY_US      ((uint16) (201u))
 411:.\Generated_Source\PSoC4/CyLFClk.h **** #endif /* (CY_IP_SRSSV2 && !CY_IP_WCO) */
 412:.\Generated_Source\PSoC4/CyLFClk.h **** 
 413:.\Generated_Source\PSoC4/CyLFClk.h **** #if (CY_IP_SRSSLT && CY_IP_WCO && CY_IP_WCO_WDT_EN)
 414:.\Generated_Source\PSoC4/CyLFClk.h **** 
 415:.\Generated_Source\PSoC4/CyLFClk.h ****     #define CY_SYS_TIMER_MODE_NONE              (0u)
 416:.\Generated_Source\PSoC4/CyLFClk.h ****     #define CY_SYS_TIMER_MODE_INT               (1u)
 417:.\Generated_Source\PSoC4/CyLFClk.h **** 
 418:.\Generated_Source\PSoC4/CyLFClk.h ****     #define CY_SYS_TIMER0_MASK                  ((uint32)((uint32)0x01u))           /**< Counter 0 
 419:.\Generated_Source\PSoC4/CyLFClk.h ****     #define CY_SYS_TIMER1_MASK                  ((uint32)((uint32)0x01u << 8u))     /**< Counter 1 
 420:.\Generated_Source\PSoC4/CyLFClk.h ****     #define CY_SYS_TIMER2_MASK                  ((uint32)((uint32)0x01u << 16u))    /**< Counter 2 
 421:.\Generated_Source\PSoC4/CyLFClk.h **** 
 422:.\Generated_Source\PSoC4/CyLFClk.h ****     #define CY_SYS_TIMER0_RESET                 ((uint32)0x01u << 3u)       /**< Counter 0 */
ARM GAS  C:\Users\310295~1\AppData\Local\Temp\ccIU8zba.s 			page 42


 423:.\Generated_Source\PSoC4/CyLFClk.h ****     #define CY_SYS_TIMER1_RESET                 ((uint32)0x01u << 11u)      /**< Counter 1 */
 424:.\Generated_Source\PSoC4/CyLFClk.h ****     #define CY_SYS_TIMER2_RESET                 ((uint32)0x01u << 19u)      /**< Counter 2 */
 425:.\Generated_Source\PSoC4/CyLFClk.h **** 
 426:.\Generated_Source\PSoC4/CyLFClk.h ****     #define CY_SYS_TIMER_RESET                  (CY_SYS_TIMER0_RESET |\
 427:.\Generated_Source\PSoC4/CyLFClk.h ****                                                  CY_SYS_TIMER1_RESET |\
 428:.\Generated_Source\PSoC4/CyLFClk.h ****                                                  CY_SYS_TIMER2_RESET)
 429:.\Generated_Source\PSoC4/CyLFClk.h **** 
 430:.\Generated_Source\PSoC4/CyLFClk.h ****     #define CY_SYS_TIMER_CASCADE_NONE           ((uint32)0x00u)             /**< Neither */
 431:.\Generated_Source\PSoC4/CyLFClk.h ****     #define CY_SYS_TIMER_CASCADE_01             ((uint32)0x01u << 3u)       /**< Cascade 01 */
 432:.\Generated_Source\PSoC4/CyLFClk.h ****     #define CY_SYS_TIMER_CASCADE_12             ((uint32)0x01u << 11u)      /**< Cascade 12 */
 433:.\Generated_Source\PSoC4/CyLFClk.h **** 
 434:.\Generated_Source\PSoC4/CyLFClk.h ****     #define CY_SYS_TIMER0_INT                   ((uint32)0x01u << 2u)
 435:.\Generated_Source\PSoC4/CyLFClk.h ****     #define CY_SYS_TIMER1_INT                   ((uint32)0x01u << 10u)
 436:.\Generated_Source\PSoC4/CyLFClk.h ****     #define CY_SYS_TIMER2_INT                   ((uint32)0x01u << 18u)
 437:.\Generated_Source\PSoC4/CyLFClk.h **** 
 438:.\Generated_Source\PSoC4/CyLFClk.h ****     #define CY_SYS_TIMER0                       (0x00u)
 439:.\Generated_Source\PSoC4/CyLFClk.h ****     #define CY_SYS_TIMER1                       (0x01u)
 440:.\Generated_Source\PSoC4/CyLFClk.h ****     #define CY_SYS_TIMER2                       (0x02u)
 441:.\Generated_Source\PSoC4/CyLFClk.h **** 
 442:.\Generated_Source\PSoC4/CyLFClk.h ****     #define CY_SYS_TIMER_MODE_MASK              ((uint32)(0x01u))
 443:.\Generated_Source\PSoC4/CyLFClk.h **** 
 444:.\Generated_Source\PSoC4/CyLFClk.h ****     #define CY_SYS_TIMER_CONFIG_BITS2_MASK      (uint32)(0x1Fu)
 445:.\Generated_Source\PSoC4/CyLFClk.h ****     #define CY_SYS_TIMER_CONFIG_BITS2_POS       (uint32)(24u)
 446:.\Generated_Source\PSoC4/CyLFClk.h ****     #define CY_SYS_TIMER_LOWER_16BITS_MASK      (uint32)(0x0000FFFFu)
 447:.\Generated_Source\PSoC4/CyLFClk.h ****     #define CY_SYS_TIMER_HIGHER_16BITS_MASK     (uint32)(0xFFFF0000u)
 448:.\Generated_Source\PSoC4/CyLFClk.h ****     #define CY_SYS_TIMER_COUNTERS_MAX           (0x03u)
 449:.\Generated_Source\PSoC4/CyLFClk.h ****     #define CY_SYS_TIMER_CNT_SHIFT              (0x08u)
 450:.\Generated_Source\PSoC4/CyLFClk.h ****     #define CY_SYS_TIMER_CNT_MATCH_CLR_SHIFT    (0x02u)
 451:.\Generated_Source\PSoC4/CyLFClk.h ****     #define CY_SYS_TIMER_CNT_STTS_SHIFT         (0x01u)
 452:.\Generated_Source\PSoC4/CyLFClk.h ****     #define CY_SYS_TIMER_CNT_MATCH_SHIFT        (0x10u)
 453:.\Generated_Source\PSoC4/CyLFClk.h **** 
 454:.\Generated_Source\PSoC4/CyLFClk.h ****     #define CY_SYS_NUM_OF_TIMERS                (3u)
 455:.\Generated_Source\PSoC4/CyLFClk.h **** 
 456:.\Generated_Source\PSoC4/CyLFClk.h ****     #define CY_SYS_SET_NEW_TIMER_SOURCE_ILO     ((uint16)(0x02u))
 457:.\Generated_Source\PSoC4/CyLFClk.h ****     #define CY_SYS_SET_NEW_TIMER_SOURCE_WCO     ((uint16)(0x01u))
 458:.\Generated_Source\PSoC4/CyLFClk.h ****     #define CY_SYS_WCO_WDT_CLKEN_RESET_MASK     ((uint32)(0x03u))
 459:.\Generated_Source\PSoC4/CyLFClk.h **** 
 460:.\Generated_Source\PSoC4/CyLFClk.h ****     #define CY_SYS_TIMER_1ILO_DELAY_US          ((uint16)( 67u))
 461:.\Generated_Source\PSoC4/CyLFClk.h ****     #define CY_SYS_TIMER_4ILO_DELAY_US          ((uint16)(268u))
 462:.\Generated_Source\PSoC4/CyLFClk.h ****     #define CY_SYS_TIMER_3ILO_DELAY_US          ((uint16)(201u))
 463:.\Generated_Source\PSoC4/CyLFClk.h **** 
 464:.\Generated_Source\PSoC4/CyLFClk.h ****     #define CY_SYS_TIMER_1WCO_DELAY_US          ((uint16)( 31u))
 465:.\Generated_Source\PSoC4/CyLFClk.h ****     #define CY_SYS_TIMER_4WCO_DELAY_US          ((uint16)(124u))
 466:.\Generated_Source\PSoC4/CyLFClk.h ****     #define CY_SYS_TIMER_3WCO_DELAY_US          ((uint16)( 93u))
 467:.\Generated_Source\PSoC4/CyLFClk.h **** 
 468:.\Generated_Source\PSoC4/CyLFClk.h ****     #define CY_SYS_1TIMER_DELAY_US      \
 469:.\Generated_Source\PSoC4/CyLFClk.h ****         ((CY_SYS_CLK_TIMER_SRC_ILO == (CY_SYS_WCO_WDT_CONFIG_REG & CY_SYS_CLK_TIMER_SEL_MASK)) ? \
 470:.\Generated_Source\PSoC4/CyLFClk.h ****                                             (CY_SYS_TIMER_1ILO_DELAY_US) : \
 471:.\Generated_Source\PSoC4/CyLFClk.h ****                                             (CY_SYS_TIMER_1WCO_DELAY_US))
 472:.\Generated_Source\PSoC4/CyLFClk.h **** 
 473:.\Generated_Source\PSoC4/CyLFClk.h ****     #define CY_SYS_4TIMER_DELAY_US      \
 474:.\Generated_Source\PSoC4/CyLFClk.h ****         ((CY_SYS_CLK_TIMER_SRC_ILO == (CY_SYS_WCO_WDT_CONFIG_REG & CY_SYS_CLK_TIMER_SEL_MASK)) ? \
 475:.\Generated_Source\PSoC4/CyLFClk.h ****                                             (CY_SYS_TIMER_4WCO_DELAY_US) : \
 476:.\Generated_Source\PSoC4/CyLFClk.h ****                                             (CY_SYS_TIMER_4ILO_DELAY_US))
 477:.\Generated_Source\PSoC4/CyLFClk.h **** 
 478:.\Generated_Source\PSoC4/CyLFClk.h ****     #define CY_SYS_3TIMER_DELAY_US      \
 479:.\Generated_Source\PSoC4/CyLFClk.h ****         ((CY_SYS_CLK_TIMER_SRC_ILO == (CY_SYS_WCO_WDT_CONFIG_REG & CY_SYS_CLK_TIMER_SEL_MASK)) ? \
ARM GAS  C:\Users\310295~1\AppData\Local\Temp\ccIU8zba.s 			page 43


 480:.\Generated_Source\PSoC4/CyLFClk.h ****                                             (CY_SYS_TIMER_3ILO_DELAY_US) : \
 481:.\Generated_Source\PSoC4/CyLFClk.h ****                                             (CY_SYS_TIMER_3WCO_DELAY_US))
 482:.\Generated_Source\PSoC4/CyLFClk.h **** 
 483:.\Generated_Source\PSoC4/CyLFClk.h ****     #define CY_SYS_SET_CURRENT_TIMER_SOURCE_BIT      \
 484:.\Generated_Source\PSoC4/CyLFClk.h ****         ((CY_SYS_CLK_TIMER_SRC_ILO == (CY_SYS_WCO_WDT_CONFIG_REG & CY_SYS_CLK_TIMER_SEL_MASK)) ? \
 485:.\Generated_Source\PSoC4/CyLFClk.h ****                                             (CY_SYS_SET_NEW_TIMER_SOURCE_ILO) : \
 486:.\Generated_Source\PSoC4/CyLFClk.h ****                                             (CY_SYS_SET_NEW_TIMER_SOURCE_WCO))
 487:.\Generated_Source\PSoC4/CyLFClk.h **** 
 488:.\Generated_Source\PSoC4/CyLFClk.h **** #endif /* (CY_IP_SRSSLT && CY_IP_WCO && CY_IP_WCO_WDT_EN) */
 489:.\Generated_Source\PSoC4/CyLFClk.h **** 
 490:.\Generated_Source\PSoC4/CyLFClk.h **** /* CySysClkWcoSetPowerMode() */
 491:.\Generated_Source\PSoC4/CyLFClk.h **** #define CY_SYS_CLK_WCO_HPM                              (0x0u)     /**< High power mode */
 492:.\Generated_Source\PSoC4/CyLFClk.h **** #if(CY_PSOC4_4100BL || CY_PSOC4_4200BL)
 493:.\Generated_Source\PSoC4/CyLFClk.h ****     #define CY_SYS_CLK_WCO_LPM                          (0x1u)     /**< Low power mode */
 494:.\Generated_Source\PSoC4/CyLFClk.h **** #endif /* (CY_PSOC4_4100BL || CY_PSOC4_4200BL) */
 495:.\Generated_Source\PSoC4/CyLFClk.h **** 
 496:.\Generated_Source\PSoC4/CyLFClk.h **** 
 497:.\Generated_Source\PSoC4/CyLFClk.h **** /*******************************************************************************
 498:.\Generated_Source\PSoC4/CyLFClk.h **** *       Trim Registers Constants 
 499:.\Generated_Source\PSoC4/CyLFClk.h **** ********************************************************************************/
 500:.\Generated_Source\PSoC4/CyLFClk.h **** #define CY_SYS_CLK_SYS_CLK_DEVIDER                      ((uint32)0x0Au)
 501:.\Generated_Source\PSoC4/CyLFClk.h **** #define CY_SYS_CLK_SEL_ILO_DFT_SOURCE                   ((uint32)0x00000100u)
 502:.\Generated_Source\PSoC4/CyLFClk.h **** #define CY_SYS_CLK_FOURBITS_MAX                         (( int32)0x0f)
 503:.\Generated_Source\PSoC4/CyLFClk.h **** #define CY_SYS_CLK_HALF_OF_STEP                         (( int32)((uint32) CY_SYS_CLK_ERROR_STEP >>
 504:.\Generated_Source\PSoC4/CyLFClk.h **** 
 505:.\Generated_Source\PSoC4/CyLFClk.h **** #if(CY_IP_SRSSV2)
 506:.\Generated_Source\PSoC4/CyLFClk.h ****     #define CY_SYS_CLK_ILO_DESIRED_FREQ_HZ              (32000u)
 507:.\Generated_Source\PSoC4/CyLFClk.h ****     #define CY_SYS_CLK_DFT_SELSIZE                      ((uint32) 0x3F)
 508:.\Generated_Source\PSoC4/CyLFClk.h ****     #else
 509:.\Generated_Source\PSoC4/CyLFClk.h ****         #define CY_SYS_CLK_ILO_DESIRED_FREQ_HZ          (40000u)
 510:.\Generated_Source\PSoC4/CyLFClk.h ****         #define CY_SYS_TST_DDFT_CTRL_REG_SEL2_CLK1      ((uint32)0x00000908u)
 511:.\Generated_Source\PSoC4/CyLFClk.h ****         #define CY_SYS_CLK_DFT_SELSIZE                  ((uint32) 0x0F)
 512:.\Generated_Source\PSoC4/CyLFClk.h **** #endif /* (CY_IP_SRSSV2) */
 513:.\Generated_Source\PSoC4/CyLFClk.h **** 
 514:.\Generated_Source\PSoC4/CyLFClk.h **** #define CY_SYS_TST_DDFT_CTRL_REG_DEFAULT_MASK    ((uint32)((CY_SYS_CLK_DFT_SELSIZE << 8u) | (CY_SYS
 515:.\Generated_Source\PSoC4/CyLFClk.h **** 
 516:.\Generated_Source\PSoC4/CyLFClk.h **** #if (0u != (CY_PSOC4_4100 || CY_PSOC4_4200))
 517:.\Generated_Source\PSoC4/CyLFClk.h ****     #define  CY_SYS_TST_DDFT_CTRL_REG_SEL2_CLK1              ((uint32)0x00000201u)
 518:.\Generated_Source\PSoC4/CyLFClk.h **** #endif /* (0u != (CY_PSOC4_4100 || CY_PSOC4_4200)) */
 519:.\Generated_Source\PSoC4/CyLFClk.h **** 
 520:.\Generated_Source\PSoC4/CyLFClk.h **** #if (0u != (CY_PSOC4_4200L))
 521:.\Generated_Source\PSoC4/CyLFClk.h ****     #define  CY_SYS_TST_DDFT_CTRL_REG_SEL2_CLK1              ((uint32)0x00000908u)
 522:.\Generated_Source\PSoC4/CyLFClk.h **** #endif /* (0u != (CY_PSOC4_4200L)) */
 523:.\Generated_Source\PSoC4/CyLFClk.h **** 
 524:.\Generated_Source\PSoC4/CyLFClk.h **** #if (CY_IP_SRSSV2 && (!CY_PSOC4_4200L) && (!(CY_PSOC4_4100 || CY_PSOC4_4200)))
 525:.\Generated_Source\PSoC4/CyLFClk.h ****     #define  CY_SYS_TST_DDFT_CTRL_REG_SEL2_CLK1               ((uint32)0x00000B0Au)
 526:.\Generated_Source\PSoC4/CyLFClk.h **** #endif /* (CY_IP_SRSSV2 && (!CY_PSOC4_4200L) && (!(CY_PSOC4_4100 || CY_PSOC4_4200))) */
 527:.\Generated_Source\PSoC4/CyLFClk.h **** 
 528:.\Generated_Source\PSoC4/CyLFClk.h **** 
 529:.\Generated_Source\PSoC4/CyLFClk.h **** /*******************************************************************************
 530:.\Generated_Source\PSoC4/CyLFClk.h **** *       Trim Registers 
 531:.\Generated_Source\PSoC4/CyLFClk.h **** ********************************************************************************/
 532:.\Generated_Source\PSoC4/CyLFClk.h ****     /* DFT TST Control Register*/
 533:.\Generated_Source\PSoC4/CyLFClk.h **** #define CY_SYS_TST_DDFT_CTRL_REG                         (*(reg32*) CYREG_TST_DDFT_CTRL)
 534:.\Generated_Source\PSoC4/CyLFClk.h **** #define CY_SYS_CNT_CTRL_PTR                              ( (reg32*) CYREG_TST_DDFT_CTRL)
 535:.\Generated_Source\PSoC4/CyLFClk.h **** 
 536:.\Generated_Source\PSoC4/CyLFClk.h ****     /* DFT TST Counter 1 Register*/
ARM GAS  C:\Users\310295~1\AppData\Local\Temp\ccIU8zba.s 			page 44


 537:.\Generated_Source\PSoC4/CyLFClk.h **** #define CY_SYS_CNT_REG1_REG                              (*(reg32*) CYREG_TST_TRIM_CNTR1)
 538:.\Generated_Source\PSoC4/CyLFClk.h **** #define CY_SYS_CNT_REG1_PTR                              ( (reg32*) CYREG_TST_TRIM_CNTR1)
 539:.\Generated_Source\PSoC4/CyLFClk.h **** 
 540:.\Generated_Source\PSoC4/CyLFClk.h ****     /* DFT TST Counter 2 Register*/
 541:.\Generated_Source\PSoC4/CyLFClk.h **** #define CY_SYS_CNT_REG2_REG                              (*(reg32*) CYREG_TST_TRIM_CNTR2)
 542:.\Generated_Source\PSoC4/CyLFClk.h **** #define CY_SYS_CNT_REG2_PTR                              ( (reg32*) CYREG_TST_TRIM_CNTR2)
 543:.\Generated_Source\PSoC4/CyLFClk.h **** 
 544:.\Generated_Source\PSoC4/CyLFClk.h ****     /* DFT Muxes Configuration Register*/
 545:.\Generated_Source\PSoC4/CyLFClk.h **** #define CY_SYS_CLK_DFT_REG                               (*(reg32*) CYREG_CLK_DFT_SELECT)
 546:.\Generated_Source\PSoC4/CyLFClk.h **** #define CY_SYS_CLK_DFT_PTR                               ( (reg32*) CYREG_CLK_DFT_SELECT)
 547:.\Generated_Source\PSoC4/CyLFClk.h **** 
 548:.\Generated_Source\PSoC4/CyLFClk.h ****     /* ILO Configuration Register*/
 549:.\Generated_Source\PSoC4/CyLFClk.h **** #define CY_SYS_CLK_ILO_CONFIG_REG                        (*(reg32 *) CYREG_CLK_ILO_CONFIG)
 550:.\Generated_Source\PSoC4/CyLFClk.h **** #define CY_SYS_CLK_ILO_CONFIG_PTR                        ( (reg32 *) CYREG_CLK_ILO_CONFIG)
 551:.\Generated_Source\PSoC4/CyLFClk.h **** 
 552:.\Generated_Source\PSoC4/CyLFClk.h ****     /* ILO Trim Register*/
 553:.\Generated_Source\PSoC4/CyLFClk.h **** #if(CY_IP_SRSSV2 && CY_IP_WCO)
 554:.\Generated_Source\PSoC4/CyLFClk.h ****     #define CY_SYS_CLK_ILO_TRIM_REG                      (*(reg32 *) CYREG_CLK_ILO_TRIM)
 555:.\Generated_Source\PSoC4/CyLFClk.h ****     #define CY_SYS_CLK_ILO_TRIM_PTR                      ( (reg32 *) CYREG_CLK_ILO_TRIM)
 556:.\Generated_Source\PSoC4/CyLFClk.h **** #endif  /* (CY_IP_SRSSV2) && CY_IP_WCO*/
 557:.\Generated_Source\PSoC4/CyLFClk.h **** 
 558:.\Generated_Source\PSoC4/CyLFClk.h **** #if (CY_IP_WCO)
 559:.\Generated_Source\PSoC4/CyLFClk.h ****     #if (CY_PSOC4_4100BL || CY_PSOC4_4200BL)
 560:.\Generated_Source\PSoC4/CyLFClk.h **** 
 561:.\Generated_Source\PSoC4/CyLFClk.h ****         /* WCO Status Register */
 562:.\Generated_Source\PSoC4/CyLFClk.h ****         #define CY_SYS_CLK_WCO_STATUS_REG               (*(reg32 *) CYREG_BLE_BLESS_WCO_STATUS)
 563:.\Generated_Source\PSoC4/CyLFClk.h ****         #define CY_SYS_CLK_WCO_STATUS_PTR               ( (reg32 *) CYREG_BLE_BLESS_WCO_STATUS)
 564:.\Generated_Source\PSoC4/CyLFClk.h **** 
 565:.\Generated_Source\PSoC4/CyLFClk.h ****         /* WCO Configuration Register */
 566:.\Generated_Source\PSoC4/CyLFClk.h ****         #define CY_SYS_CLK_WCO_CONFIG_REG               (*(reg32 *) CYREG_BLE_BLESS_WCO_CONFIG)
 567:.\Generated_Source\PSoC4/CyLFClk.h ****         #define CY_SYS_CLK_WCO_CONFIG_PTR               ( (reg32 *) CYREG_BLE_BLESS_WCO_CONFIG)
 568:.\Generated_Source\PSoC4/CyLFClk.h **** 
 569:.\Generated_Source\PSoC4/CyLFClk.h ****         /* WCO Trim Register */
 570:.\Generated_Source\PSoC4/CyLFClk.h ****         #define CY_SYS_CLK_WCO_TRIM_REG                 (*(reg32 *) CYREG_BLE_BLESS_WCO_TRIM)
 571:.\Generated_Source\PSoC4/CyLFClk.h ****         #define CY_SYS_CLK_WCO_TRIM_PTR                 ( (reg32 *) CYREG_BLE_BLESS_WCO_TRIM)
 572:.\Generated_Source\PSoC4/CyLFClk.h ****     #else   /* (CY_PSOC4_4100M || CY_PSOC4_4200M) && (CY_PSOC4_4100L || CY_PSOC4_4200L) */
 573:.\Generated_Source\PSoC4/CyLFClk.h **** 
 574:.\Generated_Source\PSoC4/CyLFClk.h ****         /* WCO Status Register */
 575:.\Generated_Source\PSoC4/CyLFClk.h ****         #define CY_SYS_CLK_WCO_STATUS_REG               (*(reg32 *) CYREG_WCO_STATUS)
 576:.\Generated_Source\PSoC4/CyLFClk.h ****         #define CY_SYS_CLK_WCO_STATUS_PTR               ( (reg32 *) CYREG_WCO_STATUS)
 577:.\Generated_Source\PSoC4/CyLFClk.h **** 
 578:.\Generated_Source\PSoC4/CyLFClk.h ****         /* WCO Configuration Register */
 579:.\Generated_Source\PSoC4/CyLFClk.h ****         #define CY_SYS_CLK_WCO_CONFIG_REG               (*(reg32 *) CYREG_WCO_CONFIG)
 580:.\Generated_Source\PSoC4/CyLFClk.h ****         #define CY_SYS_CLK_WCO_CONFIG_PTR               ( (reg32 *) CYREG_WCO_CONFIG)
 581:.\Generated_Source\PSoC4/CyLFClk.h **** 
 582:.\Generated_Source\PSoC4/CyLFClk.h ****         /* WCO Trim Register */
 583:.\Generated_Source\PSoC4/CyLFClk.h ****         #define CY_SYS_CLK_WCO_TRIM_REG                 (*(reg32 *) CYREG_WCO_TRIM)
 584:.\Generated_Source\PSoC4/CyLFClk.h ****         #define CY_SYS_CLK_WCO_TRIM_PTR                 ( (reg32 *) CYREG_WCO_TRIM)
 585:.\Generated_Source\PSoC4/CyLFClk.h ****     #endif /* (CY_PSOC4_4100BL || CY_PSOC4_4200BL) */
 586:.\Generated_Source\PSoC4/CyLFClk.h **** 
 587:.\Generated_Source\PSoC4/CyLFClk.h **** #endif  /* (CY_IP_WCO) */
 588:.\Generated_Source\PSoC4/CyLFClk.h **** 
 589:.\Generated_Source\PSoC4/CyLFClk.h **** 
 590:.\Generated_Source\PSoC4/CyLFClk.h **** /*******************************************************************************
 591:.\Generated_Source\PSoC4/CyLFClk.h **** * WDT API Registers
 592:.\Generated_Source\PSoC4/CyLFClk.h **** *******************************************************************************/
 593:.\Generated_Source\PSoC4/CyLFClk.h **** #if(CY_IP_SRSSV2)
ARM GAS  C:\Users\310295~1\AppData\Local\Temp\ccIU8zba.s 			page 45


 594:.\Generated_Source\PSoC4/CyLFClk.h ****     #define CY_SYS_WDT_CTRLOW_REG               (*(reg32 *) CYREG_WDT_CTRLOW)
 595:.\Generated_Source\PSoC4/CyLFClk.h ****     #define CY_SYS_WDT_CTRLOW_PTR               ( (reg32 *) CYREG_WDT_CTRLOW)
 596:.\Generated_Source\PSoC4/CyLFClk.h **** 
 597:.\Generated_Source\PSoC4/CyLFClk.h ****     #define CY_SYS_WDT_CTRHIGH_REG              (*(reg32 *) CYREG_WDT_CTRHIGH)
 598:.\Generated_Source\PSoC4/CyLFClk.h ****     #define CY_SYS_WDT_CTRHIGH_PTR              ( (reg32 *) CYREG_WDT_CTRHIGH)
 599:.\Generated_Source\PSoC4/CyLFClk.h **** 
 600:.\Generated_Source\PSoC4/CyLFClk.h ****     #define CY_SYS_WDT_MATCH_REG                (*(reg32 *) CYREG_WDT_MATCH)
 601:.\Generated_Source\PSoC4/CyLFClk.h ****     #define CY_SYS_WDT_MATCH_PTR                ( (reg32 *) CYREG_WDT_MATCH)
 602:.\Generated_Source\PSoC4/CyLFClk.h **** 
 603:.\Generated_Source\PSoC4/CyLFClk.h ****     #define CY_SYS_WDT_CONFIG_REG               (*(reg32 *) CYREG_WDT_CONFIG)
 604:.\Generated_Source\PSoC4/CyLFClk.h ****     #define CY_SYS_WDT_CONFIG_PTR               ( (reg32 *) CYREG_WDT_CONFIG)
 605:.\Generated_Source\PSoC4/CyLFClk.h **** 
 606:.\Generated_Source\PSoC4/CyLFClk.h ****     #define CY_SYS_WDT_CONTROL_REG              (*(reg32 *) CYREG_WDT_CONTROL)
 607:.\Generated_Source\PSoC4/CyLFClk.h ****     #define CY_SYS_WDT_CONTROL_PTR              ( (reg32 *) CYREG_WDT_CONTROL)
 608:.\Generated_Source\PSoC4/CyLFClk.h **** #else
 609:.\Generated_Source\PSoC4/CyLFClk.h ****     #define CY_SYS_WDT_DISABLE_KEY_REG          (*(reg32 *) CYREG_WDT_DISABLE_KEY)
 610:.\Generated_Source\PSoC4/CyLFClk.h ****     #define CY_SYS_WDT_DISABLE_KEY_PTR          ( (reg32 *) CYREG_WDT_DISABLE_KEY)
 611:.\Generated_Source\PSoC4/CyLFClk.h **** 
 612:.\Generated_Source\PSoC4/CyLFClk.h ****     #define CY_SYS_WDT_MATCH_REG                (*(reg32 *) CYREG_WDT_MATCH)
 613:.\Generated_Source\PSoC4/CyLFClk.h ****     #define CY_SYS_WDT_MATCH_PTR                ( (reg32 *) CYREG_WDT_MATCH)
 614:.\Generated_Source\PSoC4/CyLFClk.h **** 
 615:.\Generated_Source\PSoC4/CyLFClk.h ****     #define CY_SYS_WDT_COUNTER_REG              (*(reg32 *) CYREG_WDT_COUNTER)
 616:.\Generated_Source\PSoC4/CyLFClk.h ****     #define CY_SYS_WDT_COUNTER_PTR              ( (reg32 *) CYREG_WDT_COUNTER)
 617:.\Generated_Source\PSoC4/CyLFClk.h **** 
 618:.\Generated_Source\PSoC4/CyLFClk.h ****     #define CY_SYS_SRSS_INTR_REG                (*(reg32 *) CYREG_SRSS_INTR)
 619:.\Generated_Source\PSoC4/CyLFClk.h ****     #define CY_SYS_SRSS_INTR_PTR                ( (reg32 *) CYREG_SRSS_INTR)
 620:.\Generated_Source\PSoC4/CyLFClk.h **** 
 621:.\Generated_Source\PSoC4/CyLFClk.h ****     #define CY_SYS_SRSS_INTR_MASK_REG           (*(reg32 *) CYREG_SRSS_INTR_MASK)
 622:.\Generated_Source\PSoC4/CyLFClk.h ****     #define CY_SYS_SRSS_INTR_MASK_PTR           ( (reg32 *) CYREG_SRSS_INTR_MASK)
 623:.\Generated_Source\PSoC4/CyLFClk.h **** #endif  /* (CY_IP_SRSSV2) */
 624:.\Generated_Source\PSoC4/CyLFClk.h **** 
 625:.\Generated_Source\PSoC4/CyLFClk.h **** #if (CY_IP_SRSSLT && CY_IP_WCO && CY_IP_WCO_WDT_EN)
 626:.\Generated_Source\PSoC4/CyLFClk.h ****     #define CY_SYS_WCO_WDT_CTRLOW_REG           (*(reg32 *) CYREG_WCO_WDT_CTRLOW)
 627:.\Generated_Source\PSoC4/CyLFClk.h ****     #define CY_SYS_WCO_WDT_CTRLOW_PTR           ( (reg32 *) CYREG_WCO_WDT_CTRLOW)
 628:.\Generated_Source\PSoC4/CyLFClk.h **** 
 629:.\Generated_Source\PSoC4/CyLFClk.h ****     #define CY_SYS_WCO_WDT_CTRHIGH_REG          (*(reg32 *) CYREG_WCO_WDT_CTRHIGH)
 630:.\Generated_Source\PSoC4/CyLFClk.h ****     #define CY_SYS_WCO_WDT_CTRHIGH_PTR          ( (reg32 *) CYREG_WCO_WDT_CTRHIGH)
 631:.\Generated_Source\PSoC4/CyLFClk.h **** 
 632:.\Generated_Source\PSoC4/CyLFClk.h ****     #define CY_SYS_WCO_WDT_MATCH_REG            (*(reg32 *) CYREG_WCO_WDT_MATCH)
 633:.\Generated_Source\PSoC4/CyLFClk.h ****     #define CY_SYS_WCO_WDT_MATCH_PTR            ( (reg32 *) CYREG_WCO_WDT_MATCH)
 634:.\Generated_Source\PSoC4/CyLFClk.h **** 
 635:.\Generated_Source\PSoC4/CyLFClk.h ****     #define CY_SYS_WCO_WDT_CONFIG_REG           (*(reg32 *) CYREG_WCO_WDT_CONFIG)
 636:.\Generated_Source\PSoC4/CyLFClk.h ****     #define CY_SYS_WCO_WDT_CONFIG_PTR           ( (reg32 *) CYREG_WCO_WDT_CONFIG)
 637:.\Generated_Source\PSoC4/CyLFClk.h **** 
 638:.\Generated_Source\PSoC4/CyLFClk.h ****     #define CY_SYS_WCO_WDT_CONTROL_REG          (*(reg32 *) CYREG_WCO_WDT_CONTROL)
 639:.\Generated_Source\PSoC4/CyLFClk.h ****     #define CY_SYS_WCO_WDT_CONTROL_PTR          ( (reg32 *) CYREG_WCO_WDT_CONTROL)
 640:.\Generated_Source\PSoC4/CyLFClk.h **** 
 641:.\Generated_Source\PSoC4/CyLFClk.h ****     #define CY_SYS_WCO_WDT_CLKEN_REG            (*(reg32 *) CYREG_WCO_WDT_CLKEN)
 642:.\Generated_Source\PSoC4/CyLFClk.h ****     #define CY_SYS_WCO_WDT_CLKEN_PTR            ( (reg32 *) CYREG_WCO_WDT_CLKEN)
 643:.\Generated_Source\PSoC4/CyLFClk.h **** #endif /* (CY_IP_SRSSLT && CY_IP_WCO && CY_IP_WCO_WDT_EN) */
 644:.\Generated_Source\PSoC4/CyLFClk.h **** 
 645:.\Generated_Source\PSoC4/CyLFClk.h **** #if (CY_IP_WCO)
 646:.\Generated_Source\PSoC4/CyLFClk.h **** 
 647:.\Generated_Source\PSoC4/CyLFClk.h **** 
 648:.\Generated_Source\PSoC4/CyLFClk.h ****     /*******************************************************************************
 649:.\Generated_Source\PSoC4/CyLFClk.h ****     * Function Name: CySysClkWcoSetHighPowerMode
 650:.\Generated_Source\PSoC4/CyLFClk.h ****     ********************************************************************************
ARM GAS  C:\Users\310295~1\AppData\Local\Temp\ccIU8zba.s 			page 46


 651:.\Generated_Source\PSoC4/CyLFClk.h ****     *
 652:.\Generated_Source\PSoC4/CyLFClk.h ****     * Summary:
 653:.\Generated_Source\PSoC4/CyLFClk.h ****     *  Sets the high power mode for the 32 KHz WCO.
 654:.\Generated_Source\PSoC4/CyLFClk.h ****     *
 655:.\Generated_Source\PSoC4/CyLFClk.h ****     *******************************************************************************/
 656:.\Generated_Source\PSoC4/CyLFClk.h ****     static CY_INLINE void CySysClkWcoSetHighPowerMode(void)
 657:.\Generated_Source\PSoC4/CyLFClk.h ****     {
 658:.\Generated_Source\PSoC4/CyLFClk.h ****         /* Switch off low power mode for WCO */
 659:.\Generated_Source\PSoC4/CyLFClk.h ****         CY_SYS_CLK_WCO_CONFIG_REG &= (uint32) ~CY_SYS_CLK_WCO_CONFIG_LPM_EN;
 835              		.loc 2 659 0
 836 0002 0D4B     		ldr	r3, .L72
 837 0004 1A68     		ldr	r2, [r3]
 838 0006 0121     		mov	r1, #1
 839 0008 8A43     		bic	r2, r1
 840 000a 1A60     		str	r2, [r3]
 660:.\Generated_Source\PSoC4/CyLFClk.h **** 
 661:.\Generated_Source\PSoC4/CyLFClk.h ****         /* Switch off auto low power mode in WCO */
 662:.\Generated_Source\PSoC4/CyLFClk.h ****         CY_SYS_CLK_WCO_CONFIG_REG &= ((uint32)~CY_SYS_CLK_WCO_CONFIG_LPM_AUTO);
 841              		.loc 2 662 0
 842 000c 1A68     		ldr	r2, [r3]
 843 000e 0220     		mov	r0, #2
 844 0010 8243     		bic	r2, r0
 845 0012 1A60     		str	r2, [r3]
 663:.\Generated_Source\PSoC4/CyLFClk.h **** 
 664:.\Generated_Source\PSoC4/CyLFClk.h ****         /* Restore WCO trim register HPM settings */
 665:.\Generated_Source\PSoC4/CyLFClk.h ****         CY_SYS_CLK_WCO_TRIM_REG = (CY_SYS_CLK_WCO_TRIM_REG & (uint32)(~CY_SYS_CLK_WCO_TRIM_GM_MASK)
 846              		.loc 2 665 0
 847 0014 094A     		ldr	r2, .L72+4
 848 0016 1068     		ldr	r0, [r2]
 849 0018 3024     		mov	r4, #48
 850 001a A043     		bic	r0, r4
 666:.\Generated_Source\PSoC4/CyLFClk.h ****                     | (uint32)(CY_SYS_CLK_WCO_TRIM_GM_HPM << CY_SYS_CLK_WCO_TRIM_GM_SHIFT);
 851              		.loc 2 666 0
 852 001c 203C     		sub	r4, r4, #32
 853 001e 2043     		orr	r0, r4
 665:.\Generated_Source\PSoC4/CyLFClk.h ****                     | (uint32)(CY_SYS_CLK_WCO_TRIM_GM_HPM << CY_SYS_CLK_WCO_TRIM_GM_SHIFT);
 854              		.loc 2 665 0
 855 0020 1060     		str	r0, [r2]
 667:.\Generated_Source\PSoC4/CyLFClk.h ****         CY_SYS_CLK_WCO_TRIM_REG = (CY_SYS_CLK_WCO_TRIM_REG & (uint32)(~CY_SYS_CLK_WCO_TRIM_XGM_MASK
 856              		.loc 2 667 0
 857 0022 1068     		ldr	r0, [r2]
 858 0024 093C     		sub	r4, r4, #9
 859 0026 A043     		bic	r0, r4
 668:.\Generated_Source\PSoC4/CyLFClk.h ****                     | (uint32)(CY_SYS_CLK_WCO_TRIM_XGM_2620NA << CY_SYS_CLK_WCO_TRIM_XGM_SHIFT);
 860              		.loc 2 668 0
 861 0028 0143     		orr	r1, r0
 667:.\Generated_Source\PSoC4/CyLFClk.h ****         CY_SYS_CLK_WCO_TRIM_REG = (CY_SYS_CLK_WCO_TRIM_REG & (uint32)(~CY_SYS_CLK_WCO_TRIM_XGM_MASK
 862              		.loc 2 667 0
 863 002a 1160     		str	r1, [r2]
 864              	.LBE5:
 865              	.LBE4:
 774:.\Generated_Source\PSoC4/CyLFClk.c ****     }
 866              		.loc 1 774 0
 867 002c 1A68     		ldr	r2, [r3]
 868 002e 8021     		mov	r1, #128
 869 0030 0906     		lsl	r1, r1, #24
 870 0032 0A43     		orr	r2, r1
ARM GAS  C:\Users\310295~1\AppData\Local\Temp\ccIU8zba.s 			page 47


 871 0034 1A60     		str	r2, [r3]
 775:.\Generated_Source\PSoC4/CyLFClk.c **** 
 872              		.loc 1 775 0
 873              		@ sp needed
 874 0036 10BD     		pop	{r4, pc}
 875              	.L73:
 876              		.align	2
 877              	.L72:
 878 0038 00F02E40 		.word	1076817920
 879 003c 00FF2E40 		.word	1076821760
 880              		.cfi_endproc
 881              	.LFE13:
 882              		.size	CySysClkWcoStart, .-CySysClkWcoStart
 883              		.section	.text.CySysClkWcoEnabled,"ax",%progbits
 884              		.align	2
 885              		.global	CySysClkWcoEnabled
 886              		.code	16
 887              		.thumb_func
 888              		.type	CySysClkWcoEnabled, %function
 889              	CySysClkWcoEnabled:
 890              	.LFB15:
 825:.\Generated_Source\PSoC4/CyLFClk.c ****         return ((0u != (CY_SYS_CLK_WCO_CONFIG_REG & (uint32)(CY_SYS_CLK_WCO_CONFIG_LPM_ENABLE))) ?
 891              		.loc 1 825 0
 892              		.cfi_startproc
 826:.\Generated_Source\PSoC4/CyLFClk.c ****                 (uint32) 1u :
 893              		.loc 1 826 0
 894 0000 034B     		ldr	r3, .L77
 895 0002 1B68     		ldr	r3, [r3]
 827:.\Generated_Source\PSoC4/CyLFClk.c ****                 (uint32) 0u);
 896              		.loc 1 827 0
 897 0004 002B     		cmp	r3, #0
 898 0006 01DA     		bge	.L76
 899 0008 0120     		mov	r0, #1
 900 000a 00E0     		b	.L75
 901              	.L76:
 902 000c 0020     		mov	r0, #0
 903              	.L75:
 829:.\Generated_Source\PSoC4/CyLFClk.c **** 
 904              		.loc 1 829 0
 905              		@ sp needed
 906 000e 7047     		bx	lr
 907              	.L78:
 908              		.align	2
 909              	.L77:
 910 0010 00F02E40 		.word	1076817920
 911              		.cfi_endproc
 912              	.LFE15:
 913              		.size	CySysClkWcoEnabled, .-CySysClkWcoEnabled
 914              		.section	.text.CySysClkWcoSetPowerMode,"ax",%progbits
 915              		.align	2
 916              		.global	CySysClkWcoSetPowerMode
 917              		.code	16
 918              		.thumb_func
 919              		.type	CySysClkWcoSetPowerMode, %function
 920              	CySysClkWcoSetPowerMode:
 921              	.LFB16:
 852:.\Generated_Source\PSoC4/CyLFClk.c ****         uint32 powerModeStatus;
ARM GAS  C:\Users\310295~1\AppData\Local\Temp\ccIU8zba.s 			page 48


 922              		.loc 1 852 0
 923              		.cfi_startproc
 924              	.LVL88:
 925 0000 38B5     		push	{r3, r4, r5, lr}
 926              		.cfi_def_cfa_offset 16
 927              		.cfi_offset 3, -16
 928              		.cfi_offset 4, -12
 929              		.cfi_offset 5, -8
 930              		.cfi_offset 14, -4
 855:.\Generated_Source\PSoC4/CyLFClk.c **** 
 931              		.loc 1 855 0
 932 0002 1D4B     		ldr	r3, .L85
 933 0004 1B68     		ldr	r3, [r3]
 934 0006 0124     		mov	r4, #1
 935 0008 1C40     		and	r4, r3
 936              	.LVL89:
 857:.\Generated_Source\PSoC4/CyLFClk.c ****         {
 937              		.loc 1 857 0
 938 000a 0028     		cmp	r0, #0
 939 000c 02D0     		beq	.L81
 940 000e 0128     		cmp	r0, #1
 941 0010 16D0     		beq	.L82
 942 0012 2BE0     		b	.L84
 943              	.L81:
 944              	.LBB10:
 945              	.LBB11:
 659:.\Generated_Source\PSoC4/CyLFClk.h **** 
 946              		.loc 2 659 0
 947 0014 184B     		ldr	r3, .L85
 948 0016 1968     		ldr	r1, [r3]
 949 0018 0122     		mov	r2, #1
 950 001a 9143     		bic	r1, r2
 951 001c 1960     		str	r1, [r3]
 662:.\Generated_Source\PSoC4/CyLFClk.h **** 
 952              		.loc 2 662 0
 953 001e 1968     		ldr	r1, [r3]
 954 0020 0220     		mov	r0, #2
 955              	.LVL90:
 956 0022 8143     		bic	r1, r0
 957 0024 1960     		str	r1, [r3]
 665:.\Generated_Source\PSoC4/CyLFClk.h ****                     | (uint32)(CY_SYS_CLK_WCO_TRIM_GM_HPM << CY_SYS_CLK_WCO_TRIM_GM_SHIFT);
 958              		.loc 2 665 0
 959 0026 154B     		ldr	r3, .L85+4
 960 0028 1968     		ldr	r1, [r3]
 961 002a 2E30     		add	r0, r0, #46
 962 002c 8143     		bic	r1, r0
 666:.\Generated_Source\PSoC4/CyLFClk.h ****         CY_SYS_CLK_WCO_TRIM_REG = (CY_SYS_CLK_WCO_TRIM_REG & (uint32)(~CY_SYS_CLK_WCO_TRIM_XGM_MASK
 963              		.loc 2 666 0
 964 002e 2038     		sub	r0, r0, #32
 965 0030 0143     		orr	r1, r0
 665:.\Generated_Source\PSoC4/CyLFClk.h ****                     | (uint32)(CY_SYS_CLK_WCO_TRIM_GM_HPM << CY_SYS_CLK_WCO_TRIM_GM_SHIFT);
 966              		.loc 2 665 0
 967 0032 1960     		str	r1, [r3]
 667:.\Generated_Source\PSoC4/CyLFClk.h ****                     | (uint32)(CY_SYS_CLK_WCO_TRIM_XGM_2620NA << CY_SYS_CLK_WCO_TRIM_XGM_SHIFT);
 968              		.loc 2 667 0
 969 0034 1968     		ldr	r1, [r3]
 970 0036 0938     		sub	r0, r0, #9
ARM GAS  C:\Users\310295~1\AppData\Local\Temp\ccIU8zba.s 			page 49


 971 0038 8143     		bic	r1, r0
 972              		.loc 2 668 0
 973 003a 0A43     		orr	r2, r1
 667:.\Generated_Source\PSoC4/CyLFClk.h ****                     | (uint32)(CY_SYS_CLK_WCO_TRIM_XGM_2620NA << CY_SYS_CLK_WCO_TRIM_XGM_SHIFT);
 974              		.loc 2 667 0
 975 003c 1A60     		str	r2, [r3]
 976 003e 18E0     		b	.L83
 977              	.LVL91:
 978              	.L82:
 979              	.LBE11:
 980              	.LBE10:
 981              	.LBB12:
 982              	.LBB13:
 669:.\Generated_Source\PSoC4/CyLFClk.h ****     }
 670:.\Generated_Source\PSoC4/CyLFClk.h **** 
 671:.\Generated_Source\PSoC4/CyLFClk.h ****     #if(CY_PSOC4_4100BL || CY_PSOC4_4200BL)
 672:.\Generated_Source\PSoC4/CyLFClk.h ****         /*******************************************************************************
 673:.\Generated_Source\PSoC4/CyLFClk.h ****         * Function Name: CySysClkWcoSetLowPowerMode
 674:.\Generated_Source\PSoC4/CyLFClk.h ****         ********************************************************************************
 675:.\Generated_Source\PSoC4/CyLFClk.h ****         *
 676:.\Generated_Source\PSoC4/CyLFClk.h ****         * Summary:
 677:.\Generated_Source\PSoC4/CyLFClk.h ****         *  Sets the low power mode for the 32 KHz WCO.
 678:.\Generated_Source\PSoC4/CyLFClk.h ****         *
 679:.\Generated_Source\PSoC4/CyLFClk.h ****         *  Note LPM available only for PSoC 4100 BLE / PSoC4 4200 BLE
 680:.\Generated_Source\PSoC4/CyLFClk.h ****         *******************************************************************************/
 681:.\Generated_Source\PSoC4/CyLFClk.h ****         static CY_INLINE void CySysClkWcoSetLowPowerMode(void)
 682:.\Generated_Source\PSoC4/CyLFClk.h ****         {
 683:.\Generated_Source\PSoC4/CyLFClk.h ****             /* Switch off auto low power mode in WCO */
 684:.\Generated_Source\PSoC4/CyLFClk.h ****             CY_SYS_CLK_WCO_CONFIG_REG &= ((uint32)~CY_SYS_CLK_WCO_CONFIG_LPM_AUTO);
 983              		.loc 2 684 0
 984 0040 0D4B     		ldr	r3, .L85
 985 0042 1A68     		ldr	r2, [r3]
 986 0044 0221     		mov	r1, #2
 987 0046 8A43     		bic	r2, r1
 988 0048 1A60     		str	r2, [r3]
 685:.\Generated_Source\PSoC4/CyLFClk.h **** 
 686:.\Generated_Source\PSoC4/CyLFClk.h ****             /* Change WCO trim register settings to LPM */
 687:.\Generated_Source\PSoC4/CyLFClk.h ****             CY_SYS_CLK_WCO_TRIM_REG = (CY_SYS_CLK_WCO_TRIM_REG & (uint32)(~CY_SYS_CLK_WCO_TRIM_XGM_
 989              		.loc 2 687 0
 990 004a 0C4A     		ldr	r2, .L85+4
 991 004c 1068     		ldr	r0, [r2]
 992              	.LVL92:
 993 004e 0725     		mov	r5, #7
 994 0050 A843     		bic	r0, r5
 688:.\Generated_Source\PSoC4/CyLFClk.h ****                         | (uint32)(CY_SYS_CLK_WCO_TRIM_XGM_2250NA << CY_SYS_CLK_WCO_TRIM_XGM_SHIFT)
 995              		.loc 2 688 0
 996 0052 0143     		orr	r1, r0
 687:.\Generated_Source\PSoC4/CyLFClk.h ****                         | (uint32)(CY_SYS_CLK_WCO_TRIM_XGM_2250NA << CY_SYS_CLK_WCO_TRIM_XGM_SHIFT)
 997              		.loc 2 687 0
 998 0054 1160     		str	r1, [r2]
 689:.\Generated_Source\PSoC4/CyLFClk.h ****             CY_SYS_CLK_WCO_TRIM_REG = (CY_SYS_CLK_WCO_TRIM_REG & (uint32)(~CY_SYS_CLK_WCO_TRIM_GM_M
 999              		.loc 2 689 0
 1000 0056 1168     		ldr	r1, [r2]
 1001 0058 3020     		mov	r0, #48
 1002 005a 8143     		bic	r1, r0
 690:.\Generated_Source\PSoC4/CyLFClk.h ****                         | (uint32)(CY_SYS_CLK_WCO_TRIM_GM_LPM << CY_SYS_CLK_WCO_TRIM_GM_SHIFT);
 1003              		.loc 2 690 0
ARM GAS  C:\Users\310295~1\AppData\Local\Temp\ccIU8zba.s 			page 50


 1004 005c 1038     		sub	r0, r0, #16
 1005 005e 0143     		orr	r1, r0
 689:.\Generated_Source\PSoC4/CyLFClk.h ****             CY_SYS_CLK_WCO_TRIM_REG = (CY_SYS_CLK_WCO_TRIM_REG & (uint32)(~CY_SYS_CLK_WCO_TRIM_GM_M
 1006              		.loc 2 689 0
 1007 0060 1160     		str	r1, [r2]
 691:.\Generated_Source\PSoC4/CyLFClk.h **** 
 692:.\Generated_Source\PSoC4/CyLFClk.h ****             /* Switch on low power mode for WCO */
 693:.\Generated_Source\PSoC4/CyLFClk.h ****             CY_SYS_CLK_WCO_CONFIG_REG |= CY_SYS_CLK_WCO_CONFIG_LPM_EN;
 1008              		.loc 2 693 0
 1009 0062 1968     		ldr	r1, [r3]
 1010 0064 0122     		mov	r2, #1
 1011 0066 0A43     		orr	r2, r1
 1012 0068 1A60     		str	r2, [r3]
 1013 006a 02E0     		b	.L83
 1014              	.LVL93:
 1015              	.L84:
 1016              	.LBE13:
 1017              	.LBE12:
 870:.\Generated_Source\PSoC4/CyLFClk.c ****             break;
 1018              		.loc 1 870 0 discriminator 1
 1019 006c 0020     		mov	r0, #0
 1020              	.LVL94:
 1021 006e FFF7FEFF 		bl	CyHalt
 1022              	.LVL95:
 1023              	.L83:
 875:.\Generated_Source\PSoC4/CyLFClk.c **** 
 1024              		.loc 1 875 0
 1025 0072 201C     		mov	r0, r4
 1026              		@ sp needed
 1027              	.LVL96:
 1028 0074 38BD     		pop	{r3, r4, r5, pc}
 1029              	.L86:
 1030 0076 C046     		.align	2
 1031              	.L85:
 1032 0078 00F02E40 		.word	1076817920
 1033 007c 00FF2E40 		.word	1076821760
 1034              		.cfi_endproc
 1035              	.LFE16:
 1036              		.size	CySysClkWcoSetPowerMode, .-CySysClkWcoSetPowerMode
 1037              		.section	.text.CySysClkWcoClockOutSelect,"ax",%progbits
 1038              		.align	2
 1039              		.global	CySysClkWcoClockOutSelect
 1040              		.code	16
 1041              		.thumb_func
 1042              		.type	CySysClkWcoClockOutSelect, %function
 1043              	CySysClkWcoClockOutSelect:
 1044              	.LFB17:
 919:.\Generated_Source\PSoC4/CyLFClk.c ****         if (0u != CySysClkWcoEnabled())
 1045              		.loc 1 919 0
 1046              		.cfi_startproc
 1047              	.LVL97:
 1048 0000 10B5     		push	{r4, lr}
 1049              		.cfi_def_cfa_offset 8
 1050              		.cfi_offset 4, -8
 1051              		.cfi_offset 14, -4
 1052 0002 041C     		mov	r4, r0
 920:.\Generated_Source\PSoC4/CyLFClk.c ****         {
ARM GAS  C:\Users\310295~1\AppData\Local\Temp\ccIU8zba.s 			page 51


 1053              		.loc 1 920 0
 1054 0004 FFF7FEFF 		bl	CySysClkWcoEnabled
 1055              	.LVL98:
 1056 0008 0028     		cmp	r0, #0
 1057 000a 0CD0     		beq	.L87
 922:.\Generated_Source\PSoC4/CyLFClk.c ****             {
 1058              		.loc 1 922 0
 1059 000c 012C     		cmp	r4, #1
 1060 000e 07D8     		bhi	.L89
 924:.\Generated_Source\PSoC4/CyLFClk.c ****                                         (clockSel << CY_SYS_CLK_WCO_SELECT_PIN_OFFSET);
 1061              		.loc 1 924 0
 1062 0010 054A     		ldr	r2, .L90
 1063 0012 1368     		ldr	r3, [r2]
 1064 0014 0421     		mov	r1, #4
 1065 0016 8B43     		bic	r3, r1
 925:.\Generated_Source\PSoC4/CyLFClk.c ****             }
 1066              		.loc 1 925 0
 1067 0018 A400     		lsl	r4, r4, #2
 1068              	.LVL99:
 924:.\Generated_Source\PSoC4/CyLFClk.c ****                                         (clockSel << CY_SYS_CLK_WCO_SELECT_PIN_OFFSET);
 1069              		.loc 1 924 0
 1070 001a 1C43     		orr	r4, r3
 1071 001c 1460     		str	r4, [r2]
 1072 001e 02E0     		b	.L87
 1073              	.LVL100:
 1074              	.L89:
 929:.\Generated_Source\PSoC4/CyLFClk.c ****             }
 1075              		.loc 1 929 0 discriminator 1
 1076 0020 0020     		mov	r0, #0
 1077 0022 FFF7FEFF 		bl	CyHalt
 1078              	.LVL101:
 1079              	.L87:
 932:.\Generated_Source\PSoC4/CyLFClk.c **** #endif  /* (CY_IP_WCO) */
 1080              		.loc 1 932 0
 1081              		@ sp needed
 1082 0026 10BD     		pop	{r4, pc}
 1083              	.L91:
 1084              		.align	2
 1085              	.L90:
 1086 0028 00F02E40 		.word	1076817920
 1087              		.cfi_endproc
 1088              	.LFE17:
 1089              		.size	CySysClkWcoClockOutSelect, .-CySysClkWcoClockOutSelect
 1090              		.section	.text.CySysWdtLock,"ax",%progbits
 1091              		.align	2
 1092              		.global	CySysWdtLock
 1093              		.code	16
 1094              		.thumb_func
 1095              		.type	CySysWdtLock, %function
 1096              	CySysWdtLock:
 1097              	.LFB18:
 949:.\Generated_Source\PSoC4/CyLFClk.c ****         uint8 interruptState;
 1098              		.loc 1 949 0
 1099              		.cfi_startproc
 1100 0000 08B5     		push	{r3, lr}
 1101              		.cfi_def_cfa_offset 8
 1102              		.cfi_offset 3, -8
ARM GAS  C:\Users\310295~1\AppData\Local\Temp\ccIU8zba.s 			page 52


 1103              		.cfi_offset 14, -4
 951:.\Generated_Source\PSoC4/CyLFClk.c **** 
 1104              		.loc 1 951 0
 1105 0002 FFF7FEFF 		bl	CyEnterCriticalSection
 1106              	.LVL102:
 953:.\Generated_Source\PSoC4/CyLFClk.c ****                  CY_SYS_WDT_CLK_LOCK_BITS_MASK;
 1107              		.loc 1 953 0
 1108 0006 044A     		ldr	r2, .L93
 1109 0008 1368     		ldr	r3, [r2]
 1110 000a C021     		mov	r1, #192
 1111 000c 0902     		lsl	r1, r1, #8
 1112 000e 0B43     		orr	r3, r1
 1113 0010 1360     		str	r3, [r2]
 956:.\Generated_Source\PSoC4/CyLFClk.c ****     }
 1114              		.loc 1 956 0
 1115 0012 FFF7FEFF 		bl	CyExitCriticalSection
 1116              	.LVL103:
 957:.\Generated_Source\PSoC4/CyLFClk.c **** 
 1117              		.loc 1 957 0
 1118              		@ sp needed
 1119 0016 08BD     		pop	{r3, pc}
 1120              	.L94:
 1121              		.align	2
 1122              	.L93:
 1123 0018 00010B40 		.word	1074462976
 1124              		.cfi_endproc
 1125              	.LFE18:
 1126              		.size	CySysWdtLock, .-CySysWdtLock
 1127              		.section	.text.CySysWdtUnlock,"ax",%progbits
 1128              		.align	2
 1129              		.global	CySysWdtUnlock
 1130              		.code	16
 1131              		.thumb_func
 1132              		.type	CySysWdtUnlock, %function
 1133              	CySysWdtUnlock:
 1134              	.LFB20:
 974:.\Generated_Source\PSoC4/CyLFClk.c **** 
 975:.\Generated_Source\PSoC4/CyLFClk.c **** 
 976:.\Generated_Source\PSoC4/CyLFClk.c ****     /*******************************************************************************
 977:.\Generated_Source\PSoC4/CyLFClk.c ****     * Function Name: CySysWdtUnlock
 978:.\Generated_Source\PSoC4/CyLFClk.c ****     ****************************************************************************//**
 979:.\Generated_Source\PSoC4/CyLFClk.c ****     * \brief
 980:.\Generated_Source\PSoC4/CyLFClk.c ****     *  Unlocks the Watchdog Timer configuration register.
 981:.\Generated_Source\PSoC4/CyLFClk.c ****     *
 982:.\Generated_Source\PSoC4/CyLFClk.c ****     *******************************************************************************/
 983:.\Generated_Source\PSoC4/CyLFClk.c ****     void CySysWdtUnlock(void)
 984:.\Generated_Source\PSoC4/CyLFClk.c ****     {
 1135              		.loc 1 984 0
 1136              		.cfi_startproc
 1137 0000 10B5     		push	{r4, lr}
 1138              		.cfi_def_cfa_offset 8
 1139              		.cfi_offset 4, -8
 1140              		.cfi_offset 14, -4
 985:.\Generated_Source\PSoC4/CyLFClk.c ****         uint8 interruptState;
 986:.\Generated_Source\PSoC4/CyLFClk.c ****         interruptState = CyEnterCriticalSection();
 1141              		.loc 1 986 0
 1142 0002 FFF7FEFF 		bl	CyEnterCriticalSection
ARM GAS  C:\Users\310295~1\AppData\Local\Temp\ccIU8zba.s 			page 53


 1143              	.LVL104:
 987:.\Generated_Source\PSoC4/CyLFClk.c **** 
 988:.\Generated_Source\PSoC4/CyLFClk.c ****         /* Removing WDT lock requires two writes */
 989:.\Generated_Source\PSoC4/CyLFClk.c ****         CY_SYS_CLK_SELECT_REG = ((CY_SYS_CLK_SELECT_REG & (uint32)(~CY_SYS_WDT_CLK_LOCK_BITS_MASK))
 1144              		.loc 1 989 0
 1145 0006 0849     		ldr	r1, .L96
 1146 0008 0A68     		ldr	r2, [r1]
 1147 000a 084B     		ldr	r3, .L96+4
 1148 000c 1A40     		and	r2, r3
 1149 000e 8024     		mov	r4, #128
 1150 0010 E401     		lsl	r4, r4, #7
 1151 0012 2243     		orr	r2, r4
 1152 0014 0A60     		str	r2, [r1]
 990:.\Generated_Source\PSoC4/CyLFClk.c ****                 CY_SYS_WDT_CLK_LOCK_BIT0);
 991:.\Generated_Source\PSoC4/CyLFClk.c **** 
 992:.\Generated_Source\PSoC4/CyLFClk.c ****         CY_SYS_CLK_SELECT_REG = ((CY_SYS_CLK_SELECT_REG & (uint32)(~CY_SYS_WDT_CLK_LOCK_BITS_MASK))
 1153              		.loc 1 992 0
 1154 0016 0A68     		ldr	r2, [r1]
 1155 0018 1340     		and	r3, r2
 1156 001a 8022     		mov	r2, #128
 1157 001c 1202     		lsl	r2, r2, #8
 1158 001e 1343     		orr	r3, r2
 1159 0020 0B60     		str	r3, [r1]
 993:.\Generated_Source\PSoC4/CyLFClk.c ****                 CY_SYS_WDT_CLK_LOCK_BIT1);
 994:.\Generated_Source\PSoC4/CyLFClk.c **** 
 995:.\Generated_Source\PSoC4/CyLFClk.c ****         CyExitCriticalSection(interruptState);
 1160              		.loc 1 995 0
 1161 0022 FFF7FEFF 		bl	CyExitCriticalSection
 1162              	.LVL105:
 996:.\Generated_Source\PSoC4/CyLFClk.c ****     }
 1163              		.loc 1 996 0
 1164              		@ sp needed
 1165 0026 10BD     		pop	{r4, pc}
 1166              	.L97:
 1167              		.align	2
 1168              	.L96:
 1169 0028 00010B40 		.word	1074462976
 1170 002c FF3FFFFF 		.word	-49153
 1171              		.cfi_endproc
 1172              	.LFE20:
 1173              		.size	CySysWdtUnlock, .-CySysWdtUnlock
 1174              		.section	.text.CySysWdtGetEnabledStatus,"ax",%progbits
 1175              		.align	2
 1176              		.global	CySysWdtGetEnabledStatus
 1177              		.code	16
 1178              		.thumb_func
 1179              		.type	CySysWdtGetEnabledStatus, %function
 1180              	CySysWdtGetEnabledStatus:
 1181              	.LFB21:
 997:.\Generated_Source\PSoC4/CyLFClk.c **** 
 998:.\Generated_Source\PSoC4/CyLFClk.c **** 
 999:.\Generated_Source\PSoC4/CyLFClk.c ****     /*******************************************************************************
1000:.\Generated_Source\PSoC4/CyLFClk.c ****     * Function Name: CySysWdtGetEnabledStatus
1001:.\Generated_Source\PSoC4/CyLFClk.c ****     ****************************************************************************//**
1002:.\Generated_Source\PSoC4/CyLFClk.c ****     * \brief
1003:.\Generated_Source\PSoC4/CyLFClk.c ****     *  Reads the enabled status of one of the three WDT counters.
1004:.\Generated_Source\PSoC4/CyLFClk.c ****     *
ARM GAS  C:\Users\310295~1\AppData\Local\Temp\ccIU8zba.s 			page 54


1005:.\Generated_Source\PSoC4/CyLFClk.c ****     * \param counterNum: Valid range [0-2].  The number of the WDT counter.
1006:.\Generated_Source\PSoC4/CyLFClk.c ****     *
1007:.\Generated_Source\PSoC4/CyLFClk.c ****     * \return The status of the WDT counter:
1008:.\Generated_Source\PSoC4/CyLFClk.c ****     * \return 0 - If the counter is disabled.
1009:.\Generated_Source\PSoC4/CyLFClk.c ****     * \return 1 - If the counter is enabled.
1010:.\Generated_Source\PSoC4/CyLFClk.c ****     *
1011:.\Generated_Source\PSoC4/CyLFClk.c ****     * \details
1012:.\Generated_Source\PSoC4/CyLFClk.c ****     * This function returns an actual WDT counter status from the status register. It may
1013:.\Generated_Source\PSoC4/CyLFClk.c ****     * take up to 3 LFCLK cycles for the WDT status register to contain actual data
1014:.\Generated_Source\PSoC4/CyLFClk.c ****     * after the WDT counter is enabled.
1015:.\Generated_Source\PSoC4/CyLFClk.c ****     *
1016:.\Generated_Source\PSoC4/CyLFClk.c ****     *******************************************************************************/
1017:.\Generated_Source\PSoC4/CyLFClk.c ****     uint32 CySysWdtGetEnabledStatus(uint32 counterNum)
1018:.\Generated_Source\PSoC4/CyLFClk.c ****     {
 1182              		.loc 1 1018 0
 1183              		.cfi_startproc
 1184              	.LVL106:
 1185 0000 10B5     		push	{r4, lr}
 1186              		.cfi_def_cfa_offset 8
 1187              		.cfi_offset 4, -8
 1188              		.cfi_offset 14, -4
 1189 0002 041E     		sub	r4, r0, #0
1019:.\Generated_Source\PSoC4/CyLFClk.c ****         CYASSERT(counterNum < CY_SYS_WDT_COUNTERS_MAX);
 1190              		.loc 1 1019 0
 1191 0004 022C     		cmp	r4, #2
 1192 0006 02D9     		bls	.L99
 1193              		.loc 1 1019 0 is_stmt 0 discriminator 1
 1194 0008 0020     		mov	r0, #0
 1195              	.LVL107:
 1196 000a FFF7FEFF 		bl	CyHalt
 1197              	.LVL108:
 1198              	.L99:
1020:.\Generated_Source\PSoC4/CyLFClk.c ****         return ((CY_SYS_WDT_CONTROL_REG >> ((CY_SYS_WDT_CNT_SHIFT * counterNum) + CY_SYS_WDT_CNT_ST
 1199              		.loc 1 1020 0 is_stmt 1
 1200 000e 044B     		ldr	r3, .L100
 1201 0010 1868     		ldr	r0, [r3]
 1202 0012 E400     		lsl	r4, r4, #3
 1203              	.LVL109:
 1204 0014 0134     		add	r4, r4, #1
 1205 0016 E040     		lsr	r0, r0, r4
 1206 0018 041C     		mov	r4, r0
 1207 001a 0120     		mov	r0, #1
 1208 001c 2040     		and	r0, r4
1021:.\Generated_Source\PSoC4/CyLFClk.c ****     }
 1209              		.loc 1 1021 0
 1210              		@ sp needed
 1211 001e 10BD     		pop	{r4, pc}
 1212              	.L101:
 1213              		.align	2
 1214              	.L100:
 1215 0020 10020B40 		.word	1074463248
 1216              		.cfi_endproc
 1217              	.LFE21:
 1218              		.size	CySysWdtGetEnabledStatus, .-CySysWdtGetEnabledStatus
 1219              		.section	.text.CySysWdtSetMode,"ax",%progbits
 1220              		.align	2
 1221              		.global	CySysWdtSetMode
ARM GAS  C:\Users\310295~1\AppData\Local\Temp\ccIU8zba.s 			page 55


 1222              		.code	16
 1223              		.thumb_func
 1224              		.type	CySysWdtSetMode, %function
 1225              	CySysWdtSetMode:
 1226              	.LFB22:
1022:.\Generated_Source\PSoC4/CyLFClk.c **** 
1023:.\Generated_Source\PSoC4/CyLFClk.c **** 
1024:.\Generated_Source\PSoC4/CyLFClk.c ****     /*******************************************************************************
1025:.\Generated_Source\PSoC4/CyLFClk.c ****     * Function Name: CySysWdtSetMode
1026:.\Generated_Source\PSoC4/CyLFClk.c ****     ****************************************************************************//**
1027:.\Generated_Source\PSoC4/CyLFClk.c ****     * \brief
1028:.\Generated_Source\PSoC4/CyLFClk.c ****     * Writes the mode of one of the three WDT counters.
1029:.\Generated_Source\PSoC4/CyLFClk.c ****     *
1030:.\Generated_Source\PSoC4/CyLFClk.c ****     * \param counterNum: Valid range [0-2].  The number of the WDT counter.
1031:.\Generated_Source\PSoC4/CyLFClk.c ****     *
1032:.\Generated_Source\PSoC4/CyLFClk.c ****     * \param mode
1033:.\Generated_Source\PSoC4/CyLFClk.c ****     *  CY_SYS_WDT_MODE_NONE - Free running.<br>
1034:.\Generated_Source\PSoC4/CyLFClk.c ****     * CY_SYS_WDT_MODE_INT - The interrupt generated on match for counter 0
1035:.\Generated_Source\PSoC4/CyLFClk.c ****     * and 1, and on bit toggle for counter 2.<br>
1036:.\Generated_Source\PSoC4/CyLFClk.c ****     * CY_SYS_WDT_MODE_RESET - Reset on match (valid for counter 0 and 1 only).<br>
1037:.\Generated_Source\PSoC4/CyLFClk.c ****     * CY_SYS_WDT_MODE_INT_RESET - Generate an interrupt.  Generate a reset on
1038:.\Generated_Source\PSoC4/CyLFClk.c ****     * the 3rd non-handled interrupt (valid for counter 0 and counter 1 only).
1039:.\Generated_Source\PSoC4/CyLFClk.c ****     *
1040:.\Generated_Source\PSoC4/CyLFClk.c ****     * \details
1041:.\Generated_Source\PSoC4/CyLFClk.c ****     * WDT counter counterNum should be disabled to set a mode. Otherwise, this
1042:.\Generated_Source\PSoC4/CyLFClk.c ****     * function call has no effect. If the specified counter is enabled,
1043:.\Generated_Source\PSoC4/CyLFClk.c ****     * call the CySysWdtDisable() function with the corresponding parameter to
1044:.\Generated_Source\PSoC4/CyLFClk.c ****     * disable the specified counter and wait for it to stop.
1045:.\Generated_Source\PSoC4/CyLFClk.c ****     *
1046:.\Generated_Source\PSoC4/CyLFClk.c ****     *******************************************************************************/
1047:.\Generated_Source\PSoC4/CyLFClk.c ****     void CySysWdtSetMode(uint32 counterNum, uint32 mode)
1048:.\Generated_Source\PSoC4/CyLFClk.c ****     {
 1227              		.loc 1 1048 0
 1228              		.cfi_startproc
 1229              	.LVL110:
 1230 0000 38B5     		push	{r3, r4, r5, lr}
 1231              		.cfi_def_cfa_offset 16
 1232              		.cfi_offset 3, -16
 1233              		.cfi_offset 4, -12
 1234              		.cfi_offset 5, -8
 1235              		.cfi_offset 14, -4
 1236 0002 041C     		mov	r4, r0
 1237 0004 0D1C     		mov	r5, r1
1049:.\Generated_Source\PSoC4/CyLFClk.c ****         uint32 configRegValue;
1050:.\Generated_Source\PSoC4/CyLFClk.c **** 
1051:.\Generated_Source\PSoC4/CyLFClk.c ****         CYASSERT(counterNum < CY_SYS_WDT_COUNTERS_MAX);
 1238              		.loc 1 1051 0
 1239 0006 0228     		cmp	r0, #2
 1240 0008 02D9     		bls	.L103
 1241              		.loc 1 1051 0 is_stmt 0 discriminator 1
 1242 000a 0020     		mov	r0, #0
 1243              	.LVL111:
 1244 000c FFF7FEFF 		bl	CyHalt
 1245              	.LVL112:
 1246              	.L103:
1052:.\Generated_Source\PSoC4/CyLFClk.c **** 
1053:.\Generated_Source\PSoC4/CyLFClk.c ****         if(0u == CySysWdtGetEnabledStatus(counterNum))
ARM GAS  C:\Users\310295~1\AppData\Local\Temp\ccIU8zba.s 			page 56


 1247              		.loc 1 1053 0 is_stmt 1
 1248 0010 201C     		mov	r0, r4
 1249 0012 FFF7FEFF 		bl	CySysWdtGetEnabledStatus
 1250              	.LVL113:
 1251 0016 0028     		cmp	r0, #0
 1252 0018 0BD1     		bne	.L102
1054:.\Generated_Source\PSoC4/CyLFClk.c ****         {
1055:.\Generated_Source\PSoC4/CyLFClk.c ****             configRegValue = CY_SYS_WDT_CONFIG_REG &
 1253              		.loc 1 1055 0
 1254 001a 064A     		ldr	r2, .L105
 1255 001c 1368     		ldr	r3, [r2]
1056:.\Generated_Source\PSoC4/CyLFClk.c ****                                 (uint32)~((uint32)(CY_SYS_WDT_MODE_MASK << (counterNum * CY_SYS_WDT
 1256              		.loc 1 1056 0
 1257 001e E400     		lsl	r4, r4, #3
 1258              	.LVL114:
 1259 0020 0321     		mov	r1, #3
 1260 0022 081C     		mov	r0, r1
 1261 0024 A040     		lsl	r0, r0, r4
1055:.\Generated_Source\PSoC4/CyLFClk.c ****                                 (uint32)~((uint32)(CY_SYS_WDT_MODE_MASK << (counterNum * CY_SYS_WDT
 1262              		.loc 1 1055 0
 1263 0026 8343     		bic	r3, r0
 1264              	.LVL115:
1057:.\Generated_Source\PSoC4/CyLFClk.c ****             configRegValue |= (uint32)((mode & CY_SYS_WDT_MODE_MASK) << (counterNum * CY_SYS_WDT_CN
 1265              		.loc 1 1057 0
 1266 0028 0D40     		and	r5, r1
 1267              	.LVL116:
 1268 002a A540     		lsl	r5, r5, r4
 1269 002c 2C1C     		mov	r4, r5
 1270 002e 1C43     		orr	r4, r3
 1271              	.LVL117:
1058:.\Generated_Source\PSoC4/CyLFClk.c ****             CY_SYS_WDT_CONFIG_REG = configRegValue;
 1272              		.loc 1 1058 0
 1273 0030 1460     		str	r4, [r2]
 1274              	.LVL118:
 1275              	.L102:
1059:.\Generated_Source\PSoC4/CyLFClk.c ****         }
1060:.\Generated_Source\PSoC4/CyLFClk.c ****     }
 1276              		.loc 1 1060 0
 1277              		@ sp needed
 1278 0032 38BD     		pop	{r3, r4, r5, pc}
 1279              	.L106:
 1280              		.align	2
 1281              	.L105:
 1282 0034 0C020B40 		.word	1074463244
 1283              		.cfi_endproc
 1284              	.LFE22:
 1285              		.size	CySysWdtSetMode, .-CySysWdtSetMode
 1286              		.section	.text.CySysClkLfclkPosedgeRestore,"ax",%progbits
 1287              		.align	2
 1288              		.code	16
 1289              		.thumb_func
 1290              		.type	CySysClkLfclkPosedgeRestore, %function
 1291              	CySysClkLfclkPosedgeRestore:
 1292              	.LFB45:
1061:.\Generated_Source\PSoC4/CyLFClk.c **** 
1062:.\Generated_Source\PSoC4/CyLFClk.c **** 
1063:.\Generated_Source\PSoC4/CyLFClk.c ****     /*******************************************************************************
ARM GAS  C:\Users\310295~1\AppData\Local\Temp\ccIU8zba.s 			page 57


1064:.\Generated_Source\PSoC4/CyLFClk.c ****     * Function Name: CySysWdtGetMode
1065:.\Generated_Source\PSoC4/CyLFClk.c ****     ****************************************************************************//**
1066:.\Generated_Source\PSoC4/CyLFClk.c ****     * 
1067:.\Generated_Source\PSoC4/CyLFClk.c ****     * \brief Reads the mode of one of the three WDT counters.
1068:.\Generated_Source\PSoC4/CyLFClk.c ****     *
1069:.\Generated_Source\PSoC4/CyLFClk.c ****     * \param counterNum Valid range [0-2]. The number of the WDT counter.
1070:.\Generated_Source\PSoC4/CyLFClk.c ****     *
1071:.\Generated_Source\PSoC4/CyLFClk.c ****     * \return The mode of the counter. The same enumerated values as the mode 
1072:.\Generated_Source\PSoC4/CyLFClk.c ****     * parameter used in CySysWdtSetMode().
1073:.\Generated_Source\PSoC4/CyLFClk.c ****     *
1074:.\Generated_Source\PSoC4/CyLFClk.c ****     *******************************************************************************/
1075:.\Generated_Source\PSoC4/CyLFClk.c ****     uint32 CySysWdtGetMode(uint32 counterNum)
1076:.\Generated_Source\PSoC4/CyLFClk.c ****     {
1077:.\Generated_Source\PSoC4/CyLFClk.c ****         return ((CY_SYS_WDT_CONFIG_REG >> (counterNum * CY_SYS_WDT_CNT_SHIFT)) & CY_SYS_WDT_MODE_MA
1078:.\Generated_Source\PSoC4/CyLFClk.c ****     }
1079:.\Generated_Source\PSoC4/CyLFClk.c **** 
1080:.\Generated_Source\PSoC4/CyLFClk.c **** 
1081:.\Generated_Source\PSoC4/CyLFClk.c ****     /*******************************************************************************
1082:.\Generated_Source\PSoC4/CyLFClk.c ****     * Function Name: CySysWdtSetClearOnMatch
1083:.\Generated_Source\PSoC4/CyLFClk.c ****     ****************************************************************************//**
1084:.\Generated_Source\PSoC4/CyLFClk.c ****     * 
1085:.\Generated_Source\PSoC4/CyLFClk.c ****     * \brief Configures the WDT counter "clear on match" setting.
1086:.\Generated_Source\PSoC4/CyLFClk.c ****     *
1087:.\Generated_Source\PSoC4/CyLFClk.c ****     * If configured to "clear on match", the counter counts from 0 to MatchValue
1088:.\Generated_Source\PSoC4/CyLFClk.c ****     * giving it a period of (MatchValue + 1).
1089:.\Generated_Source\PSoC4/CyLFClk.c ****     *
1090:.\Generated_Source\PSoC4/CyLFClk.c ****     * \param counterNum
1091:.\Generated_Source\PSoC4/CyLFClk.c ****     * Valid range [0-1]. The number of the WDT counter. The match values are not
1092:.\Generated_Source\PSoC4/CyLFClk.c ****     * supported by counter 2.
1093:.\Generated_Source\PSoC4/CyLFClk.c ****     *
1094:.\Generated_Source\PSoC4/CyLFClk.c ****     * \param enable 0 to disable appropriate counter <br>
1095:.\Generated_Source\PSoC4/CyLFClk.c ****     *  1 to enable appropriate counter
1096:.\Generated_Source\PSoC4/CyLFClk.c ****     *
1097:.\Generated_Source\PSoC4/CyLFClk.c ****     * \details
1098:.\Generated_Source\PSoC4/CyLFClk.c ****     * WDT counter counterNum should be disabled. Otherwise this function call
1099:.\Generated_Source\PSoC4/CyLFClk.c ****     * has no effect. If the specified counter is enabled, call the CySysWdtDisable()
1100:.\Generated_Source\PSoC4/CyLFClk.c ****     * function with the corresponding parameter to disable the specified counter and
1101:.\Generated_Source\PSoC4/CyLFClk.c ****     * wait for it to stop. This may take up to three LFCLK cycles.
1102:.\Generated_Source\PSoC4/CyLFClk.c ****     *
1103:.\Generated_Source\PSoC4/CyLFClk.c ****     *******************************************************************************/
1104:.\Generated_Source\PSoC4/CyLFClk.c ****     void CySysWdtSetClearOnMatch(uint32 counterNum, uint32 enable)
1105:.\Generated_Source\PSoC4/CyLFClk.c ****     {
1106:.\Generated_Source\PSoC4/CyLFClk.c ****         uint32 configRegValue;
1107:.\Generated_Source\PSoC4/CyLFClk.c **** 
1108:.\Generated_Source\PSoC4/CyLFClk.c ****         CYASSERT((counterNum == CY_SYS_WDT_COUNTER0) ||
1109:.\Generated_Source\PSoC4/CyLFClk.c ****                  (counterNum == CY_SYS_WDT_COUNTER1));
1110:.\Generated_Source\PSoC4/CyLFClk.c **** 
1111:.\Generated_Source\PSoC4/CyLFClk.c ****         if(0u == CySysWdtGetEnabledStatus(counterNum))
1112:.\Generated_Source\PSoC4/CyLFClk.c ****         {
1113:.\Generated_Source\PSoC4/CyLFClk.c ****             configRegValue = CY_SYS_WDT_CONFIG_REG & (uint32)~((uint32)((uint32)1u << 
1114:.\Generated_Source\PSoC4/CyLFClk.c ****                                      ((counterNum * CY_SYS_WDT_CNT_SHIFT) + CY_SYS_WDT_CNT_MATCH_CL
1115:.\Generated_Source\PSoC4/CyLFClk.c **** 
1116:.\Generated_Source\PSoC4/CyLFClk.c ****             configRegValue
1117:.\Generated_Source\PSoC4/CyLFClk.c ****                 |= (uint32)(enable << ((counterNum * CY_SYS_WDT_CNT_SHIFT) + CY_SYS_WDT_CNT_MATCH_C
1118:.\Generated_Source\PSoC4/CyLFClk.c **** 
1119:.\Generated_Source\PSoC4/CyLFClk.c ****             CY_SYS_WDT_CONFIG_REG = configRegValue;
1120:.\Generated_Source\PSoC4/CyLFClk.c ****         }
ARM GAS  C:\Users\310295~1\AppData\Local\Temp\ccIU8zba.s 			page 58


1121:.\Generated_Source\PSoC4/CyLFClk.c ****     }
1122:.\Generated_Source\PSoC4/CyLFClk.c **** 
1123:.\Generated_Source\PSoC4/CyLFClk.c **** 
1124:.\Generated_Source\PSoC4/CyLFClk.c ****     /*******************************************************************************
1125:.\Generated_Source\PSoC4/CyLFClk.c ****     * Function Name: CySysWdtGetClearOnMatch
1126:.\Generated_Source\PSoC4/CyLFClk.c ****     ****************************************************************************//**
1127:.\Generated_Source\PSoC4/CyLFClk.c ****     * \brief
1128:.\Generated_Source\PSoC4/CyLFClk.c ****     * Reads the "clear on match" setting for the specified counter.
1129:.\Generated_Source\PSoC4/CyLFClk.c ****     *
1130:.\Generated_Source\PSoC4/CyLFClk.c ****     * \param
1131:.\Generated_Source\PSoC4/CyLFClk.c ****     * counterNum Valid range [0-1]. The number of the WDT counter. The match values
1132:.\Generated_Source\PSoC4/CyLFClk.c ****     * are not supported by counter 2.
1133:.\Generated_Source\PSoC4/CyLFClk.c ****     *
1134:.\Generated_Source\PSoC4/CyLFClk.c ****     * \return The "clear on match" status: <br>1 if enabled <br>0 if disabled
1135:.\Generated_Source\PSoC4/CyLFClk.c ****     *
1136:.\Generated_Source\PSoC4/CyLFClk.c ****     *******************************************************************************/
1137:.\Generated_Source\PSoC4/CyLFClk.c ****     uint32 CySysWdtGetClearOnMatch(uint32 counterNum)
1138:.\Generated_Source\PSoC4/CyLFClk.c ****     {
1139:.\Generated_Source\PSoC4/CyLFClk.c ****         CYASSERT((counterNum == CY_SYS_WDT_COUNTER0) ||
1140:.\Generated_Source\PSoC4/CyLFClk.c ****                  (counterNum == CY_SYS_WDT_COUNTER1));
1141:.\Generated_Source\PSoC4/CyLFClk.c **** 
1142:.\Generated_Source\PSoC4/CyLFClk.c ****         return (uint32)((CY_SYS_WDT_CONFIG_REG >>
1143:.\Generated_Source\PSoC4/CyLFClk.c ****                         ((counterNum * CY_SYS_WDT_CNT_SHIFT) + CY_SYS_WDT_CNT_MATCH_CLR_SHIFT)) & 0
1144:.\Generated_Source\PSoC4/CyLFClk.c ****     }
1145:.\Generated_Source\PSoC4/CyLFClk.c **** 
1146:.\Generated_Source\PSoC4/CyLFClk.c **** 
1147:.\Generated_Source\PSoC4/CyLFClk.c ****     /*******************************************************************************
1148:.\Generated_Source\PSoC4/CyLFClk.c ****     * Function Name: CySysWdtEnable
1149:.\Generated_Source\PSoC4/CyLFClk.c ****     ****************************************************************************//**
1150:.\Generated_Source\PSoC4/CyLFClk.c ****     *
1151:.\Generated_Source\PSoC4/CyLFClk.c ****     * \brief Enables the specified WDT counters.
1152:.\Generated_Source\PSoC4/CyLFClk.c ****     *
1153:.\Generated_Source\PSoC4/CyLFClk.c ****     * All the counters specified in the mask are enabled.
1154:.\Generated_Source\PSoC4/CyLFClk.c ****     *
1155:.\Generated_Source\PSoC4/CyLFClk.c ****     * \param counterMask
1156:.\Generated_Source\PSoC4/CyLFClk.c ****     *  CY_SYS_WDT_COUNTER0_MASK - The mask for counter 0 to enable.<br>
1157:.\Generated_Source\PSoC4/CyLFClk.c ****     * CY_SYS_WDT_COUNTER1_MASK - The mask for counter 1 to enable.<br>
1158:.\Generated_Source\PSoC4/CyLFClk.c ****     * CY_SYS_WDT_COUNTER2_MASK - The mask for counter 2 to enable.
1159:.\Generated_Source\PSoC4/CyLFClk.c ****     *
1160:.\Generated_Source\PSoC4/CyLFClk.c ****     * \details
1161:.\Generated_Source\PSoC4/CyLFClk.c ****     * Enabling or disabling WDT requires 3 LFCLK cycles to come into effect.
1162:.\Generated_Source\PSoC4/CyLFClk.c ****     * Therefore, the WDT enable state must not be changed more than once in
1163:.\Generated_Source\PSoC4/CyLFClk.c ****     * that period.
1164:.\Generated_Source\PSoC4/CyLFClk.c ****     *
1165:.\Generated_Source\PSoC4/CyLFClk.c ****     * After WDT is enabled, it is illegal to write WDT configuration (WDT_CONFIG)
1166:.\Generated_Source\PSoC4/CyLFClk.c ****     * and control (WDT_CONTROL) registers. This means that all WDT functions that
1167:.\Generated_Source\PSoC4/CyLFClk.c ****     * contain 'write' in the name (with the exception of CySysWdtSetMatch()
1168:.\Generated_Source\PSoC4/CyLFClk.c ****     * function) are illegal to call if WDT is enabled.
1169:.\Generated_Source\PSoC4/CyLFClk.c ****     *
1170:.\Generated_Source\PSoC4/CyLFClk.c ****     * PSoC 4100 / PSoC 4200: This function enables ILO.
1171:.\Generated_Source\PSoC4/CyLFClk.c ****     *
1172:.\Generated_Source\PSoC4/CyLFClk.c ****     * PSoC 4100 BLE / PSoC 4200 BLE / PSoC4200L / PSoC 4100M 
1173:.\Generated_Source\PSoC4/CyLFClk.c ****     * / PSoC 4200M:
1174:.\Generated_Source\PSoC4/CyLFClk.c ****     * LFLCK should be configured before calling this function. The desired
1175:.\Generated_Source\PSoC4/CyLFClk.c ****     * source should be enabled and configured to be the source for LFCLK.
1176:.\Generated_Source\PSoC4/CyLFClk.c ****     *
1177:.\Generated_Source\PSoC4/CyLFClk.c ****     *******************************************************************************/
ARM GAS  C:\Users\310295~1\AppData\Local\Temp\ccIU8zba.s 			page 59


1178:.\Generated_Source\PSoC4/CyLFClk.c ****     void CySysWdtEnable(uint32 counterMask)
1179:.\Generated_Source\PSoC4/CyLFClk.c ****     {
1180:.\Generated_Source\PSoC4/CyLFClk.c ****         #if (!CY_IP_WCO)
1181:.\Generated_Source\PSoC4/CyLFClk.c ****             CySysClkIloStart();
1182:.\Generated_Source\PSoC4/CyLFClk.c ****         #endif /* (!CY_IP_WCO) */
1183:.\Generated_Source\PSoC4/CyLFClk.c **** 
1184:.\Generated_Source\PSoC4/CyLFClk.c ****         CY_SYS_WDT_CONTROL_REG |= counterMask;
1185:.\Generated_Source\PSoC4/CyLFClk.c **** 
1186:.\Generated_Source\PSoC4/CyLFClk.c ****         if(0u != (counterMask & CY_SYS_WDT_COUNTER0_MASK))
1187:.\Generated_Source\PSoC4/CyLFClk.c ****         {
1188:.\Generated_Source\PSoC4/CyLFClk.c ****             while (0u == CySysWdtGetEnabledStatus(CY_SYS_WDT_COUNTER0))
1189:.\Generated_Source\PSoC4/CyLFClk.c ****             {
1190:.\Generated_Source\PSoC4/CyLFClk.c ****                 /* Wait for changes to come into effect */
1191:.\Generated_Source\PSoC4/CyLFClk.c ****             }
1192:.\Generated_Source\PSoC4/CyLFClk.c ****         }
1193:.\Generated_Source\PSoC4/CyLFClk.c **** 
1194:.\Generated_Source\PSoC4/CyLFClk.c ****         if(0u != (counterMask & CY_SYS_WDT_COUNTER1_MASK))
1195:.\Generated_Source\PSoC4/CyLFClk.c ****         {
1196:.\Generated_Source\PSoC4/CyLFClk.c ****             while (0u == CySysWdtGetEnabledStatus(CY_SYS_WDT_COUNTER1))
1197:.\Generated_Source\PSoC4/CyLFClk.c ****             {
1198:.\Generated_Source\PSoC4/CyLFClk.c ****                 /* Wait for changes to come into effect */
1199:.\Generated_Source\PSoC4/CyLFClk.c ****             }
1200:.\Generated_Source\PSoC4/CyLFClk.c ****         }
1201:.\Generated_Source\PSoC4/CyLFClk.c **** 
1202:.\Generated_Source\PSoC4/CyLFClk.c ****         if(0u != (counterMask & CY_SYS_WDT_COUNTER2_MASK))
1203:.\Generated_Source\PSoC4/CyLFClk.c ****         {
1204:.\Generated_Source\PSoC4/CyLFClk.c ****             while (0u == CySysWdtGetEnabledStatus(CY_SYS_WDT_COUNTER2))
1205:.\Generated_Source\PSoC4/CyLFClk.c ****             {
1206:.\Generated_Source\PSoC4/CyLFClk.c ****                 /* Wait for changes to come into effect */
1207:.\Generated_Source\PSoC4/CyLFClk.c ****             }
1208:.\Generated_Source\PSoC4/CyLFClk.c ****         }
1209:.\Generated_Source\PSoC4/CyLFClk.c ****     }
1210:.\Generated_Source\PSoC4/CyLFClk.c **** 
1211:.\Generated_Source\PSoC4/CyLFClk.c **** 
1212:.\Generated_Source\PSoC4/CyLFClk.c ****     /*******************************************************************************
1213:.\Generated_Source\PSoC4/CyLFClk.c ****     * Function Name: CySysWdtDisable
1214:.\Generated_Source\PSoC4/CyLFClk.c ****     ****************************************************************************//**
1215:.\Generated_Source\PSoC4/CyLFClk.c ****     *
1216:.\Generated_Source\PSoC4/CyLFClk.c ****     * \brief Disables the specified WDT counters.
1217:.\Generated_Source\PSoC4/CyLFClk.c ****     * All the counters specified in the mask are disabled. The function waits for 
1218:.\Generated_Source\PSoC4/CyLFClk.c ****     * the changes to come into effect.
1219:.\Generated_Source\PSoC4/CyLFClk.c ****     *
1220:.\Generated_Source\PSoC4/CyLFClk.c ****     * \param counterMask
1221:.\Generated_Source\PSoC4/CyLFClk.c ****     * CY_SYS_WDT_COUNTER0_MASK - The mask for counter 0 to disable. <br>
1222:.\Generated_Source\PSoC4/CyLFClk.c ****     * CY_SYS_WDT_COUNTER1_MASK - The mask for counter 1 to disable. <br>
1223:.\Generated_Source\PSoC4/CyLFClk.c ****     * CY_SYS_WDT_COUNTER2_MASK - The mask for counter 2 to disable.
1224:.\Generated_Source\PSoC4/CyLFClk.c ****     *
1225:.\Generated_Source\PSoC4/CyLFClk.c ****     *******************************************************************************/
1226:.\Generated_Source\PSoC4/CyLFClk.c ****     void CySysWdtDisable(uint32 counterMask)
1227:.\Generated_Source\PSoC4/CyLFClk.c ****     {
1228:.\Generated_Source\PSoC4/CyLFClk.c ****         if (0uL == CySysWdtLocked())
1229:.\Generated_Source\PSoC4/CyLFClk.c ****         {
1230:.\Generated_Source\PSoC4/CyLFClk.c ****             CY_SYS_WDT_CONTROL_REG &= ~counterMask;
1231:.\Generated_Source\PSoC4/CyLFClk.c **** 
1232:.\Generated_Source\PSoC4/CyLFClk.c ****             if(0u != (counterMask & CY_SYS_WDT_COUNTER0_MASK))
1233:.\Generated_Source\PSoC4/CyLFClk.c ****             {
1234:.\Generated_Source\PSoC4/CyLFClk.c ****                 while (0u != CySysWdtGetEnabledStatus(CY_SYS_WDT_COUNTER0))
ARM GAS  C:\Users\310295~1\AppData\Local\Temp\ccIU8zba.s 			page 60


1235:.\Generated_Source\PSoC4/CyLFClk.c ****                 {
1236:.\Generated_Source\PSoC4/CyLFClk.c ****                     /* Wait for changes to come into effect */
1237:.\Generated_Source\PSoC4/CyLFClk.c ****                 }
1238:.\Generated_Source\PSoC4/CyLFClk.c ****             }
1239:.\Generated_Source\PSoC4/CyLFClk.c **** 
1240:.\Generated_Source\PSoC4/CyLFClk.c ****             if(0u != (counterMask & CY_SYS_WDT_COUNTER1_MASK))
1241:.\Generated_Source\PSoC4/CyLFClk.c ****             {
1242:.\Generated_Source\PSoC4/CyLFClk.c ****                 while (0u != CySysWdtGetEnabledStatus(CY_SYS_WDT_COUNTER1))
1243:.\Generated_Source\PSoC4/CyLFClk.c ****                 {
1244:.\Generated_Source\PSoC4/CyLFClk.c ****                     /* Wait for changes to come into effect */
1245:.\Generated_Source\PSoC4/CyLFClk.c ****                 }
1246:.\Generated_Source\PSoC4/CyLFClk.c ****             }
1247:.\Generated_Source\PSoC4/CyLFClk.c **** 
1248:.\Generated_Source\PSoC4/CyLFClk.c ****             if(0u != (counterMask & CY_SYS_WDT_COUNTER2_MASK))
1249:.\Generated_Source\PSoC4/CyLFClk.c ****             {
1250:.\Generated_Source\PSoC4/CyLFClk.c ****                 while (0u != CySysWdtGetEnabledStatus(CY_SYS_WDT_COUNTER2))
1251:.\Generated_Source\PSoC4/CyLFClk.c ****                 {
1252:.\Generated_Source\PSoC4/CyLFClk.c ****                     /* Wait for changes to come into effect */
1253:.\Generated_Source\PSoC4/CyLFClk.c ****                 }
1254:.\Generated_Source\PSoC4/CyLFClk.c ****             }
1255:.\Generated_Source\PSoC4/CyLFClk.c ****         }
1256:.\Generated_Source\PSoC4/CyLFClk.c ****     }
1257:.\Generated_Source\PSoC4/CyLFClk.c **** 
1258:.\Generated_Source\PSoC4/CyLFClk.c **** 
1259:.\Generated_Source\PSoC4/CyLFClk.c ****     /*******************************************************************************
1260:.\Generated_Source\PSoC4/CyLFClk.c ****     * Function Name: CySysWdtSetCascade
1261:.\Generated_Source\PSoC4/CyLFClk.c ****     ****************************************************************************//**
1262:.\Generated_Source\PSoC4/CyLFClk.c ****     * \brief
1263:.\Generated_Source\PSoC4/CyLFClk.c ****     * Writes the two WDT cascade values based on the combination of mask values
1264:.\Generated_Source\PSoC4/CyLFClk.c ****     * specified.
1265:.\Generated_Source\PSoC4/CyLFClk.c ****     *
1266:.\Generated_Source\PSoC4/CyLFClk.c ****     * \param cascadeMask The mask value used to set or clear the cascade values:
1267:.\Generated_Source\PSoC4/CyLFClk.c ****     * CY_SYS_WDT_CASCADE_NONE - Neither <br>
1268:.\Generated_Source\PSoC4/CyLFClk.c ****     * CY_SYS_WDT_CASCADE_01 - Cascade 01 <br>
1269:.\Generated_Source\PSoC4/CyLFClk.c ****     * CY_SYS_WDT_CASCADE_12 - Cascade 12
1270:.\Generated_Source\PSoC4/CyLFClk.c ****     *
1271:.\Generated_Source\PSoC4/CyLFClk.c ****     * If only one cascade mask is specified, the second cascade is disabled.
1272:.\Generated_Source\PSoC4/CyLFClk.c ****     * To set both cascade modes, two defines should be ORed:
1273:.\Generated_Source\PSoC4/CyLFClk.c ****     * (CY_SYS_TIMER_CASCADE_01 | CY_SYS_TIMER_CASCADE_12).
1274:.\Generated_Source\PSoC4/CyLFClk.c ****     * \note If CySysWdtSetCascade() was called with ORed defines it is necessary 
1275:.\Generated_Source\PSoC4/CyLFClk.c ****     * to call CySysWdtSetClearOnMatch(1,1). It is needed to make sure that 
1276:.\Generated_Source\PSoC4/CyLFClk.c ****     * Counter 2 will be updated in the expected way.
1277:.\Generated_Source\PSoC4/CyLFClk.c ****     *
1278:.\Generated_Source\PSoC4/CyLFClk.c ****     * WDT counters that are part of the specified cascade should be disabled.
1279:.\Generated_Source\PSoC4/CyLFClk.c ****     * Otherwise this function call has no effect. If the specified
1280:.\Generated_Source\PSoC4/CyLFClk.c ****     * counter is enabled, call CySysWdtDisable() function with the corresponding
1281:.\Generated_Source\PSoC4/CyLFClk.c ****     * parameter to disable the specified counter and wait for it to stop. This may
1282:.\Generated_Source\PSoC4/CyLFClk.c ****     * take up to 3 LFCLK cycles.
1283:.\Generated_Source\PSoC4/CyLFClk.c ****     *
1284:.\Generated_Source\PSoC4/CyLFClk.c ****     *******************************************************************************/
1285:.\Generated_Source\PSoC4/CyLFClk.c ****     void CySysWdtSetCascade(uint32 cascadeMask)
1286:.\Generated_Source\PSoC4/CyLFClk.c ****     {
1287:.\Generated_Source\PSoC4/CyLFClk.c ****         uint32 configRegValue;
1288:.\Generated_Source\PSoC4/CyLFClk.c ****         uint32 countersEnableStatus;
1289:.\Generated_Source\PSoC4/CyLFClk.c **** 
1290:.\Generated_Source\PSoC4/CyLFClk.c ****         countersEnableStatus = CySysWdtGetEnabledStatus(CY_SYS_WDT_COUNTER0) |
1291:.\Generated_Source\PSoC4/CyLFClk.c ****                             CySysWdtGetEnabledStatus(CY_SYS_WDT_COUNTER1) |
ARM GAS  C:\Users\310295~1\AppData\Local\Temp\ccIU8zba.s 			page 61


1292:.\Generated_Source\PSoC4/CyLFClk.c ****                             CySysWdtGetEnabledStatus(CY_SYS_WDT_COUNTER2);
1293:.\Generated_Source\PSoC4/CyLFClk.c **** 
1294:.\Generated_Source\PSoC4/CyLFClk.c ****         if (0u == countersEnableStatus)
1295:.\Generated_Source\PSoC4/CyLFClk.c ****         {
1296:.\Generated_Source\PSoC4/CyLFClk.c ****             configRegValue = CY_SYS_WDT_CONFIG_REG;
1297:.\Generated_Source\PSoC4/CyLFClk.c ****             configRegValue &= ((uint32)(~(CY_SYS_WDT_CASCADE_01|CY_SYS_WDT_CASCADE_12)));
1298:.\Generated_Source\PSoC4/CyLFClk.c ****             configRegValue |= cascadeMask;
1299:.\Generated_Source\PSoC4/CyLFClk.c ****             CY_SYS_WDT_CONFIG_REG = configRegValue;
1300:.\Generated_Source\PSoC4/CyLFClk.c ****         }
1301:.\Generated_Source\PSoC4/CyLFClk.c ****     }
1302:.\Generated_Source\PSoC4/CyLFClk.c **** 
1303:.\Generated_Source\PSoC4/CyLFClk.c **** 
1304:.\Generated_Source\PSoC4/CyLFClk.c ****     /*******************************************************************************
1305:.\Generated_Source\PSoC4/CyLFClk.c ****     * Function Name: CySysWdtGetCascade
1306:.\Generated_Source\PSoC4/CyLFClk.c ****     ****************************************************************************//**
1307:.\Generated_Source\PSoC4/CyLFClk.c ****     *
1308:.\Generated_Source\PSoC4/CyLFClk.c ****     * \brief Reads the two WDT cascade values returning a mask of the bits set.
1309:.\Generated_Source\PSoC4/CyLFClk.c ****     *
1310:.\Generated_Source\PSoC4/CyLFClk.c ****     * \return The mask of the cascade values set.
1311:.\Generated_Source\PSoC4/CyLFClk.c ****     * \return CY_SYS_WDT_CASCADE_NONE - Neither
1312:.\Generated_Source\PSoC4/CyLFClk.c ****     * \return CY_SYS_WDT_CASCADE_01 - Cascade 01
1313:.\Generated_Source\PSoC4/CyLFClk.c ****     * \return CY_SYS_WDT_CASCADE_12 - Cascade 12
1314:.\Generated_Source\PSoC4/CyLFClk.c ****     *
1315:.\Generated_Source\PSoC4/CyLFClk.c ****     *******************************************************************************/
1316:.\Generated_Source\PSoC4/CyLFClk.c ****     uint32 CySysWdtGetCascade(void)
1317:.\Generated_Source\PSoC4/CyLFClk.c ****     {
1318:.\Generated_Source\PSoC4/CyLFClk.c ****         return (CY_SYS_WDT_CONFIG_REG & (CY_SYS_WDT_CASCADE_01 | CY_SYS_WDT_CASCADE_12));
1319:.\Generated_Source\PSoC4/CyLFClk.c ****     }
1320:.\Generated_Source\PSoC4/CyLFClk.c **** 
1321:.\Generated_Source\PSoC4/CyLFClk.c **** 
1322:.\Generated_Source\PSoC4/CyLFClk.c ****     /*******************************************************************************
1323:.\Generated_Source\PSoC4/CyLFClk.c ****     * Function Name: CySysWdtSetMatch
1324:.\Generated_Source\PSoC4/CyLFClk.c ****     ****************************************************************************//**
1325:.\Generated_Source\PSoC4/CyLFClk.c ****     *
1326:.\Generated_Source\PSoC4/CyLFClk.c ****     * \brief Configures the WDT counter match comparison value.
1327:.\Generated_Source\PSoC4/CyLFClk.c ****     *
1328:.\Generated_Source\PSoC4/CyLFClk.c ****     * \param counterNum
1329:.\Generated_Source\PSoC4/CyLFClk.c ****     * Valid range [0-1]. The number of the WDT counter. The match values are not
1330:.\Generated_Source\PSoC4/CyLFClk.c ****     * supported by counter 2.
1331:.\Generated_Source\PSoC4/CyLFClk.c ****     *
1332:.\Generated_Source\PSoC4/CyLFClk.c ****     * \param match
1333:.\Generated_Source\PSoC4/CyLFClk.c ****     * Valid range [0-65535]. The value to be used to match against the counter.
1334:.\Generated_Source\PSoC4/CyLFClk.c ****     *
1335:.\Generated_Source\PSoC4/CyLFClk.c ****     *******************************************************************************/
1336:.\Generated_Source\PSoC4/CyLFClk.c ****     void CySysWdtSetMatch(uint32 counterNum, uint32 match)
1337:.\Generated_Source\PSoC4/CyLFClk.c ****     {
1338:.\Generated_Source\PSoC4/CyLFClk.c ****         uint32 regValue;
1339:.\Generated_Source\PSoC4/CyLFClk.c **** 
1340:.\Generated_Source\PSoC4/CyLFClk.c ****         CYASSERT((counterNum == CY_SYS_WDT_COUNTER0) ||
1341:.\Generated_Source\PSoC4/CyLFClk.c ****                  (counterNum == CY_SYS_WDT_COUNTER1));
1342:.\Generated_Source\PSoC4/CyLFClk.c **** 
1343:.\Generated_Source\PSoC4/CyLFClk.c ****         /* Wait for previous changes to come into effect */
1344:.\Generated_Source\PSoC4/CyLFClk.c ****         CyDelayUs(CY_SYS_WDT_3LFCLK_DELAY_US);
1345:.\Generated_Source\PSoC4/CyLFClk.c **** 
1346:.\Generated_Source\PSoC4/CyLFClk.c ****         regValue = CY_SYS_WDT_MATCH_REG;
1347:.\Generated_Source\PSoC4/CyLFClk.c ****         regValue &= (uint32)~((uint32)(CY_SYS_WDT_LOWER_16BITS_MASK << (counterNum * CY_SYS_WDT_CNT
1348:.\Generated_Source\PSoC4/CyLFClk.c ****         CY_SYS_WDT_MATCH_REG = (regValue | (match << (counterNum * CY_SYS_WDT_CNT_MATCH_SHIFT)));
ARM GAS  C:\Users\310295~1\AppData\Local\Temp\ccIU8zba.s 			page 62


1349:.\Generated_Source\PSoC4/CyLFClk.c **** 
1350:.\Generated_Source\PSoC4/CyLFClk.c ****         /* Make sure match synchronization has started */
1351:.\Generated_Source\PSoC4/CyLFClk.c ****         CyDelayUs(CY_SYS_WDT_1LFCLK_DELAY_US);
1352:.\Generated_Source\PSoC4/CyLFClk.c ****     }
1353:.\Generated_Source\PSoC4/CyLFClk.c **** 
1354:.\Generated_Source\PSoC4/CyLFClk.c **** 
1355:.\Generated_Source\PSoC4/CyLFClk.c ****     /*******************************************************************************
1356:.\Generated_Source\PSoC4/CyLFClk.c ****     * Function Name: CySysWdtSetToggleBit
1357:.\Generated_Source\PSoC4/CyLFClk.c ****     ****************************************************************************//**
1358:.\Generated_Source\PSoC4/CyLFClk.c ****     * \brief
1359:.\Generated_Source\PSoC4/CyLFClk.c ****     * Configures which bit in WDT counter 2 to monitor for a toggle.
1360:.\Generated_Source\PSoC4/CyLFClk.c ****     *
1361:.\Generated_Source\PSoC4/CyLFClk.c ****     * When that bit toggles, an interrupt is generated if the mode for counter 2 has
1362:.\Generated_Source\PSoC4/CyLFClk.c ****     * enabled interrupts.
1363:.\Generated_Source\PSoC4/CyLFClk.c ****     *
1364:.\Generated_Source\PSoC4/CyLFClk.c ****     * \param bits Valid range [0-31].  Counter 2 bit to monitor for a toggle.
1365:.\Generated_Source\PSoC4/CyLFClk.c ****     *
1366:.\Generated_Source\PSoC4/CyLFClk.c ****     * \details
1367:.\Generated_Source\PSoC4/CyLFClk.c ****     * WDT Counter 2 should be disabled. Otherwise this function call has no
1368:.\Generated_Source\PSoC4/CyLFClk.c ****     * effect.
1369:.\Generated_Source\PSoC4/CyLFClk.c ****     *
1370:.\Generated_Source\PSoC4/CyLFClk.c ****     * If the specified counter is enabled, call the CySysWdtDisable() function with
1371:.\Generated_Source\PSoC4/CyLFClk.c ****     * the corresponding parameter to disable the specified counter and wait for it to
1372:.\Generated_Source\PSoC4/CyLFClk.c ****     * stop. This may take up to 3 LFCLK cycles.
1373:.\Generated_Source\PSoC4/CyLFClk.c ****     *
1374:.\Generated_Source\PSoC4/CyLFClk.c ****     *******************************************************************************/
1375:.\Generated_Source\PSoC4/CyLFClk.c ****     void CySysWdtSetToggleBit(uint32 bits)
1376:.\Generated_Source\PSoC4/CyLFClk.c ****     {
1377:.\Generated_Source\PSoC4/CyLFClk.c ****         uint32 configRegValue;
1378:.\Generated_Source\PSoC4/CyLFClk.c **** 
1379:.\Generated_Source\PSoC4/CyLFClk.c ****         if (0u == CySysWdtGetEnabledStatus(CY_SYS_WDT_COUNTER2))
1380:.\Generated_Source\PSoC4/CyLFClk.c ****         {
1381:.\Generated_Source\PSoC4/CyLFClk.c ****             configRegValue = CY_SYS_WDT_CONFIG_REG;
1382:.\Generated_Source\PSoC4/CyLFClk.c ****             configRegValue &= (uint32)(~((uint32)(CY_SYS_WDT_CONFIG_BITS2_MASK << CY_SYS_WDT_CONFIG
1383:.\Generated_Source\PSoC4/CyLFClk.c ****             configRegValue |= ((bits & CY_SYS_WDT_CONFIG_BITS2_MASK) << CY_SYS_WDT_CONFIG_BITS2_POS
1384:.\Generated_Source\PSoC4/CyLFClk.c ****             CY_SYS_WDT_CONFIG_REG = configRegValue;
1385:.\Generated_Source\PSoC4/CyLFClk.c ****         }
1386:.\Generated_Source\PSoC4/CyLFClk.c ****     }
1387:.\Generated_Source\PSoC4/CyLFClk.c **** 
1388:.\Generated_Source\PSoC4/CyLFClk.c **** 
1389:.\Generated_Source\PSoC4/CyLFClk.c ****     /*******************************************************************************
1390:.\Generated_Source\PSoC4/CyLFClk.c ****     * Function Name: CySysWdtGetToggleBit
1391:.\Generated_Source\PSoC4/CyLFClk.c ****     ****************************************************************************//**
1392:.\Generated_Source\PSoC4/CyLFClk.c ****     * \brief
1393:.\Generated_Source\PSoC4/CyLFClk.c ****     * Reads which bit in WDT counter 2 is monitored for a toggle.
1394:.\Generated_Source\PSoC4/CyLFClk.c ****     *
1395:.\Generated_Source\PSoC4/CyLFClk.c ****     * \return The bit that is monitored (range of 0 to 31)
1396:.\Generated_Source\PSoC4/CyLFClk.c ****     *
1397:.\Generated_Source\PSoC4/CyLFClk.c ****     *******************************************************************************/
1398:.\Generated_Source\PSoC4/CyLFClk.c ****     uint32 CySysWdtGetToggleBit(void)
1399:.\Generated_Source\PSoC4/CyLFClk.c ****     {
1400:.\Generated_Source\PSoC4/CyLFClk.c ****         return ((CY_SYS_WDT_CONFIG_REG >> CY_SYS_WDT_CONFIG_BITS2_POS) & CY_SYS_WDT_CONFIG_BITS2_MA
1401:.\Generated_Source\PSoC4/CyLFClk.c ****     }
1402:.\Generated_Source\PSoC4/CyLFClk.c **** 
1403:.\Generated_Source\PSoC4/CyLFClk.c **** 
1404:.\Generated_Source\PSoC4/CyLFClk.c ****     /*******************************************************************************
1405:.\Generated_Source\PSoC4/CyLFClk.c ****     * Function Name: CySysWdtGetMatch
ARM GAS  C:\Users\310295~1\AppData\Local\Temp\ccIU8zba.s 			page 63


1406:.\Generated_Source\PSoC4/CyLFClk.c ****     ****************************************************************************//**
1407:.\Generated_Source\PSoC4/CyLFClk.c ****     *
1408:.\Generated_Source\PSoC4/CyLFClk.c ****     * \brief Reads the WDT counter match comparison value.
1409:.\Generated_Source\PSoC4/CyLFClk.c ****     *
1410:.\Generated_Source\PSoC4/CyLFClk.c ****     * \param counterNum Valid range [0-1].  The number of the WDT counter. The match
1411:.\Generated_Source\PSoC4/CyLFClk.c ****     * values are not supported by counter 2.
1412:.\Generated_Source\PSoC4/CyLFClk.c ****     *
1413:.\Generated_Source\PSoC4/CyLFClk.c ****     * \return A 16-bit match value.
1414:.\Generated_Source\PSoC4/CyLFClk.c ****     *
1415:.\Generated_Source\PSoC4/CyLFClk.c ****     *******************************************************************************/
1416:.\Generated_Source\PSoC4/CyLFClk.c ****     uint32 CySysWdtGetMatch(uint32 counterNum)
1417:.\Generated_Source\PSoC4/CyLFClk.c ****     {
1418:.\Generated_Source\PSoC4/CyLFClk.c ****         CYASSERT((counterNum == CY_SYS_WDT_COUNTER0) ||
1419:.\Generated_Source\PSoC4/CyLFClk.c ****                  (counterNum == CY_SYS_WDT_COUNTER1));
1420:.\Generated_Source\PSoC4/CyLFClk.c **** 
1421:.\Generated_Source\PSoC4/CyLFClk.c ****         return ((uint32)(CY_SYS_WDT_MATCH_REG >> 
1422:.\Generated_Source\PSoC4/CyLFClk.c ****                                             (counterNum * CY_SYS_WDT_CNT_MATCH_SHIFT)) & CY_SYS_WDT
1423:.\Generated_Source\PSoC4/CyLFClk.c ****     }
1424:.\Generated_Source\PSoC4/CyLFClk.c **** 
1425:.\Generated_Source\PSoC4/CyLFClk.c **** 
1426:.\Generated_Source\PSoC4/CyLFClk.c ****     /*******************************************************************************
1427:.\Generated_Source\PSoC4/CyLFClk.c ****     * Function Name: CySysWdtGetCount
1428:.\Generated_Source\PSoC4/CyLFClk.c ****     ****************************************************************************//**
1429:.\Generated_Source\PSoC4/CyLFClk.c ****     *
1430:.\Generated_Source\PSoC4/CyLFClk.c ****     * \brief Reads the current WDT counter value.
1431:.\Generated_Source\PSoC4/CyLFClk.c ****     *
1432:.\Generated_Source\PSoC4/CyLFClk.c ****     * \param counterNum: Valid range [0-2]. The number of the WDT counter.
1433:.\Generated_Source\PSoC4/CyLFClk.c ****     *
1434:.\Generated_Source\PSoC4/CyLFClk.c ****     * \return A live counter value.  Counter 0 and Counter 1 are 16 bit counters 
1435:.\Generated_Source\PSoC4/CyLFClk.c ****     * and counter 2 is a 32 bit counter.
1436:.\Generated_Source\PSoC4/CyLFClk.c ****     *
1437:.\Generated_Source\PSoC4/CyLFClk.c ****     *******************************************************************************/
1438:.\Generated_Source\PSoC4/CyLFClk.c ****     uint32 CySysWdtGetCount(uint32 counterNum)
1439:.\Generated_Source\PSoC4/CyLFClk.c ****     {
1440:.\Generated_Source\PSoC4/CyLFClk.c ****         uint32 regValue = 0u;
1441:.\Generated_Source\PSoC4/CyLFClk.c **** 
1442:.\Generated_Source\PSoC4/CyLFClk.c ****         switch(counterNum)
1443:.\Generated_Source\PSoC4/CyLFClk.c ****         {
1444:.\Generated_Source\PSoC4/CyLFClk.c ****             /* WDT Counter 0 */
1445:.\Generated_Source\PSoC4/CyLFClk.c ****             case 0u:
1446:.\Generated_Source\PSoC4/CyLFClk.c ****                 regValue = CY_SYS_WDT_CTRLOW_REG & CY_SYS_WDT_LOWER_16BITS_MASK;
1447:.\Generated_Source\PSoC4/CyLFClk.c ****             break;
1448:.\Generated_Source\PSoC4/CyLFClk.c **** 
1449:.\Generated_Source\PSoC4/CyLFClk.c ****             /* WDT Counter 1 */
1450:.\Generated_Source\PSoC4/CyLFClk.c ****             case 1u:
1451:.\Generated_Source\PSoC4/CyLFClk.c ****                 regValue = (CY_SYS_WDT_CTRLOW_REG >> CY_SYS_WDT_CNT_MATCH_SHIFT) & CY_SYS_WDT_LOWER
1452:.\Generated_Source\PSoC4/CyLFClk.c ****             break;
1453:.\Generated_Source\PSoC4/CyLFClk.c **** 
1454:.\Generated_Source\PSoC4/CyLFClk.c ****             /* WDT Counter 2 */
1455:.\Generated_Source\PSoC4/CyLFClk.c ****             case 2u:
1456:.\Generated_Source\PSoC4/CyLFClk.c ****                 regValue = CY_SYS_WDT_CTRHIGH_REG;
1457:.\Generated_Source\PSoC4/CyLFClk.c ****             break;
1458:.\Generated_Source\PSoC4/CyLFClk.c **** 
1459:.\Generated_Source\PSoC4/CyLFClk.c ****             default:
1460:.\Generated_Source\PSoC4/CyLFClk.c ****                 CYASSERT(0u != 0u);
1461:.\Generated_Source\PSoC4/CyLFClk.c ****             break;
1462:.\Generated_Source\PSoC4/CyLFClk.c ****         }
ARM GAS  C:\Users\310295~1\AppData\Local\Temp\ccIU8zba.s 			page 64


1463:.\Generated_Source\PSoC4/CyLFClk.c **** 
1464:.\Generated_Source\PSoC4/CyLFClk.c ****         return (regValue);
1465:.\Generated_Source\PSoC4/CyLFClk.c ****     }
1466:.\Generated_Source\PSoC4/CyLFClk.c **** 
1467:.\Generated_Source\PSoC4/CyLFClk.c **** 
1468:.\Generated_Source\PSoC4/CyLFClk.c ****     /*******************************************************************************
1469:.\Generated_Source\PSoC4/CyLFClk.c ****     * Function Name: CySysWdtGetInterruptSource
1470:.\Generated_Source\PSoC4/CyLFClk.c ****     ****************************************************************************//**
1471:.\Generated_Source\PSoC4/CyLFClk.c ****     * \brief
1472:.\Generated_Source\PSoC4/CyLFClk.c ****     * Reads a mask containing all the WDT counters interrupts that are currently
1473:.\Generated_Source\PSoC4/CyLFClk.c ****     * set by the hardware, if a corresponding mode is selected.
1474:.\Generated_Source\PSoC4/CyLFClk.c ****     *
1475:.\Generated_Source\PSoC4/CyLFClk.c ****     * \return The mask of interrupts set
1476:.\Generated_Source\PSoC4/CyLFClk.c ****     * \return CY_SYS_WDT_COUNTER0_INT - Counter 0
1477:.\Generated_Source\PSoC4/CyLFClk.c ****     * \return CY_SYS_WDT_COUNTER1_INT - Counter 1
1478:.\Generated_Source\PSoC4/CyLFClk.c ****     * \return CY_SYS_WDT_COUNTER2_INT - Counter 2
1479:.\Generated_Source\PSoC4/CyLFClk.c ****     *
1480:.\Generated_Source\PSoC4/CyLFClk.c ****     *******************************************************************************/
1481:.\Generated_Source\PSoC4/CyLFClk.c ****     uint32 CySysWdtGetInterruptSource(void)
1482:.\Generated_Source\PSoC4/CyLFClk.c ****     {
1483:.\Generated_Source\PSoC4/CyLFClk.c ****         return (CY_SYS_WDT_CONTROL_REG & (CY_SYS_WDT_COUNTER0_INT | CY_SYS_WDT_COUNTER1_INT | CY_SY
1484:.\Generated_Source\PSoC4/CyLFClk.c ****     }
1485:.\Generated_Source\PSoC4/CyLFClk.c **** 
1486:.\Generated_Source\PSoC4/CyLFClk.c **** 
1487:.\Generated_Source\PSoC4/CyLFClk.c ****     /*******************************************************************************
1488:.\Generated_Source\PSoC4/CyLFClk.c ****     * Function Name: CySysWdtClearInterrupt
1489:.\Generated_Source\PSoC4/CyLFClk.c ****     ****************************************************************************//**
1490:.\Generated_Source\PSoC4/CyLFClk.c ****     * \brief
1491:.\Generated_Source\PSoC4/CyLFClk.c ****     * Clears all the WDT counter interrupts set in the mask.
1492:.\Generated_Source\PSoC4/CyLFClk.c ****     *
1493:.\Generated_Source\PSoC4/CyLFClk.c ****     * Calling this function also prevents from Reset when the counter mode is set 
1494:.\Generated_Source\PSoC4/CyLFClk.c ****     * to generate 3 interrupts and then the device resets.
1495:.\Generated_Source\PSoC4/CyLFClk.c ****     *
1496:.\Generated_Source\PSoC4/CyLFClk.c ****     * All the WDT interrupts are to be cleared by the firmware, otherwise
1497:.\Generated_Source\PSoC4/CyLFClk.c ****     * interrupts are generated continuously.
1498:.\Generated_Source\PSoC4/CyLFClk.c ****     *
1499:.\Generated_Source\PSoC4/CyLFClk.c ****     * \param counterMask
1500:.\Generated_Source\PSoC4/CyLFClk.c ****     * CY_SYS_WDT_COUNTER0_INT - Clears counter 0 interrupts <br>
1501:.\Generated_Source\PSoC4/CyLFClk.c ****     * CY_SYS_WDT_COUNTER1_INT - Clears counter 1 interrupts <br>
1502:.\Generated_Source\PSoC4/CyLFClk.c ****     * CY_SYS_WDT_COUNTER2_INT - Clears counter 2 interrupts
1503:.\Generated_Source\PSoC4/CyLFClk.c ****     *
1504:.\Generated_Source\PSoC4/CyLFClk.c ****     * \details
1505:.\Generated_Source\PSoC4/CyLFClk.c ****     * This function temporary removes the watchdog lock, if it was set, and
1506:.\Generated_Source\PSoC4/CyLFClk.c ****     * restores the lock state after cleaning the WDT interrupts that are set in
1507:.\Generated_Source\PSoC4/CyLFClk.c ****     * a mask.
1508:.\Generated_Source\PSoC4/CyLFClk.c ****     *
1509:.\Generated_Source\PSoC4/CyLFClk.c ****     *******************************************************************************/
1510:.\Generated_Source\PSoC4/CyLFClk.c ****     void CySysWdtClearInterrupt(uint32 counterMask)
1511:.\Generated_Source\PSoC4/CyLFClk.c ****     {
1512:.\Generated_Source\PSoC4/CyLFClk.c ****         uint8 interruptState;
1513:.\Generated_Source\PSoC4/CyLFClk.c ****         uint32 wdtLockState;
1514:.\Generated_Source\PSoC4/CyLFClk.c **** 
1515:.\Generated_Source\PSoC4/CyLFClk.c ****         interruptState = CyEnterCriticalSection();
1516:.\Generated_Source\PSoC4/CyLFClk.c **** 
1517:.\Generated_Source\PSoC4/CyLFClk.c ****         if (0u != CySysWdtLocked())
1518:.\Generated_Source\PSoC4/CyLFClk.c ****         {
1519:.\Generated_Source\PSoC4/CyLFClk.c ****             wdtLockState = 1u;
ARM GAS  C:\Users\310295~1\AppData\Local\Temp\ccIU8zba.s 			page 65


1520:.\Generated_Source\PSoC4/CyLFClk.c ****             CySysWdtUnlock();
1521:.\Generated_Source\PSoC4/CyLFClk.c ****         }
1522:.\Generated_Source\PSoC4/CyLFClk.c ****         else
1523:.\Generated_Source\PSoC4/CyLFClk.c ****         {
1524:.\Generated_Source\PSoC4/CyLFClk.c ****             wdtLockState = 0u;
1525:.\Generated_Source\PSoC4/CyLFClk.c ****         }
1526:.\Generated_Source\PSoC4/CyLFClk.c **** 
1527:.\Generated_Source\PSoC4/CyLFClk.c ****         /* Set new WDT control register value */
1528:.\Generated_Source\PSoC4/CyLFClk.c ****         counterMask &= (CY_SYS_WDT_COUNTER0_INT |
1529:.\Generated_Source\PSoC4/CyLFClk.c ****                         CY_SYS_WDT_COUNTER1_INT |
1530:.\Generated_Source\PSoC4/CyLFClk.c ****                         CY_SYS_WDT_COUNTER2_INT);
1531:.\Generated_Source\PSoC4/CyLFClk.c **** 
1532:.\Generated_Source\PSoC4/CyLFClk.c ****         CY_SYS_WDT_CONTROL_REG = counterMask | (CY_SYS_WDT_CONTROL_REG & ~(CY_SYS_WDT_COUNTER0_INT 
1533:.\Generated_Source\PSoC4/CyLFClk.c ****                                                                            CY_SYS_WDT_COUNTER1_INT 
1534:.\Generated_Source\PSoC4/CyLFClk.c ****                                                                            CY_SYS_WDT_COUNTER2_INT)
1535:.\Generated_Source\PSoC4/CyLFClk.c **** 
1536:.\Generated_Source\PSoC4/CyLFClk.c ****         /* Read the CY_SYS_WDT_CONTROL_REG to clear the interrupt request.
1537:.\Generated_Source\PSoC4/CyLFClk.c ****          * Cypress ID #207093, #206231
1538:.\Generated_Source\PSoC4/CyLFClk.c ****         */
1539:.\Generated_Source\PSoC4/CyLFClk.c ****         (void)CY_SYS_WDT_CONTROL_REG;
1540:.\Generated_Source\PSoC4/CyLFClk.c **** 
1541:.\Generated_Source\PSoC4/CyLFClk.c ****         if (1u == wdtLockState)
1542:.\Generated_Source\PSoC4/CyLFClk.c ****         {
1543:.\Generated_Source\PSoC4/CyLFClk.c ****             CySysWdtLock();
1544:.\Generated_Source\PSoC4/CyLFClk.c ****         }
1545:.\Generated_Source\PSoC4/CyLFClk.c **** 
1546:.\Generated_Source\PSoC4/CyLFClk.c ****         CyExitCriticalSection(interruptState);
1547:.\Generated_Source\PSoC4/CyLFClk.c ****     }
1548:.\Generated_Source\PSoC4/CyLFClk.c **** 
1549:.\Generated_Source\PSoC4/CyLFClk.c **** 
1550:.\Generated_Source\PSoC4/CyLFClk.c ****     /*******************************************************************************
1551:.\Generated_Source\PSoC4/CyLFClk.c ****     * Function Name: CySysWdtResetCounters
1552:.\Generated_Source\PSoC4/CyLFClk.c ****     ****************************************************************************//**
1553:.\Generated_Source\PSoC4/CyLFClk.c ****     * \brief
1554:.\Generated_Source\PSoC4/CyLFClk.c ****     * Resets all the WDT counters set in the mask.
1555:.\Generated_Source\PSoC4/CyLFClk.c ****     *
1556:.\Generated_Source\PSoC4/CyLFClk.c ****     * \param countersMask
1557:.\Generated_Source\PSoC4/CyLFClk.c ****     * CY_SYS_WDT_COUNTER0_RESET - Reset counter 0 <br>
1558:.\Generated_Source\PSoC4/CyLFClk.c ****     * CY_SYS_WDT_COUNTER1_RESET - Reset counter 1 <br>
1559:.\Generated_Source\PSoC4/CyLFClk.c ****     * CY_SYS_WDT_COUNTER2_RESET - Reset counter 2
1560:.\Generated_Source\PSoC4/CyLFClk.c ****     *
1561:.\Generated_Source\PSoC4/CyLFClk.c ****     * \details
1562:.\Generated_Source\PSoC4/CyLFClk.c ****     * This function does not reset counter values if the Watchdog is locked.
1563:.\Generated_Source\PSoC4/CyLFClk.c ****     * This function waits while corresponding counters will be reset. This may
1564:.\Generated_Source\PSoC4/CyLFClk.c ****     * take up to 3 LFCLK cycles.
1565:.\Generated_Source\PSoC4/CyLFClk.c ****     * The LFCLK source must be enabled. Otherwise, the function will never exit.
1566:.\Generated_Source\PSoC4/CyLFClk.c ****     *
1567:.\Generated_Source\PSoC4/CyLFClk.c ****     *******************************************************************************/
1568:.\Generated_Source\PSoC4/CyLFClk.c ****     void CySysWdtResetCounters(uint32 countersMask)
1569:.\Generated_Source\PSoC4/CyLFClk.c ****     {
1570:.\Generated_Source\PSoC4/CyLFClk.c ****         /* Set new WDT reset value */
1571:.\Generated_Source\PSoC4/CyLFClk.c ****         CY_SYS_WDT_CONTROL_REG |= (countersMask & CY_SYS_WDT_COUNTERS_RESET);
1572:.\Generated_Source\PSoC4/CyLFClk.c **** 
1573:.\Generated_Source\PSoC4/CyLFClk.c ****         while (0uL != (CY_SYS_WDT_CONTROL_REG & CY_SYS_WDT_COUNTERS_RESET))
1574:.\Generated_Source\PSoC4/CyLFClk.c ****         {
1575:.\Generated_Source\PSoC4/CyLFClk.c ****             /* Wait for reset to come into effect */
1576:.\Generated_Source\PSoC4/CyLFClk.c ****         }
ARM GAS  C:\Users\310295~1\AppData\Local\Temp\ccIU8zba.s 			page 66


1577:.\Generated_Source\PSoC4/CyLFClk.c ****     }
1578:.\Generated_Source\PSoC4/CyLFClk.c **** 
1579:.\Generated_Source\PSoC4/CyLFClk.c **** 
1580:.\Generated_Source\PSoC4/CyLFClk.c ****     /*******************************************************************************
1581:.\Generated_Source\PSoC4/CyLFClk.c ****     * Function Name: CySysWdtSetInterruptCallback
1582:.\Generated_Source\PSoC4/CyLFClk.c ****     ****************************************************************************//**
1583:.\Generated_Source\PSoC4/CyLFClk.c ****     * \brief
1584:.\Generated_Source\PSoC4/CyLFClk.c ****     * Sets the ISR callback function for the particular WDT counter.
1585:.\Generated_Source\PSoC4/CyLFClk.c ****     * These functions are called on the WDT interrupt.
1586:.\Generated_Source\PSoC4/CyLFClk.c ****     *
1587:.\Generated_Source\PSoC4/CyLFClk.c ****     * \param counterNum The number of the WDT counter.
1588:.\Generated_Source\PSoC4/CyLFClk.c ****     * \param function The pointer to the callback function.
1589:.\Generated_Source\PSoC4/CyLFClk.c ****     *
1590:.\Generated_Source\PSoC4/CyLFClk.c ****     * \return The pointer to the previous callback function.
1591:.\Generated_Source\PSoC4/CyLFClk.c ****     * \return NULL is returned if the specified address is not set.
1592:.\Generated_Source\PSoC4/CyLFClk.c ****     *
1593:.\Generated_Source\PSoC4/CyLFClk.c ****     *******************************************************************************/
1594:.\Generated_Source\PSoC4/CyLFClk.c ****     cyWdtCallback CySysWdtSetInterruptCallback(uint32 counterNum, cyWdtCallback function)
1595:.\Generated_Source\PSoC4/CyLFClk.c ****     {
1596:.\Generated_Source\PSoC4/CyLFClk.c ****         cyWdtCallback prevCallback = (void *)0;
1597:.\Generated_Source\PSoC4/CyLFClk.c **** 
1598:.\Generated_Source\PSoC4/CyLFClk.c ****         if(counterNum < CY_WDT_NUM_OF_WDT)
1599:.\Generated_Source\PSoC4/CyLFClk.c ****         {
1600:.\Generated_Source\PSoC4/CyLFClk.c ****             prevCallback = cySysWdtCallback[counterNum];
1601:.\Generated_Source\PSoC4/CyLFClk.c ****             cySysWdtCallback[counterNum] = function;
1602:.\Generated_Source\PSoC4/CyLFClk.c ****         }
1603:.\Generated_Source\PSoC4/CyLFClk.c ****         else
1604:.\Generated_Source\PSoC4/CyLFClk.c ****         {
1605:.\Generated_Source\PSoC4/CyLFClk.c ****             CYASSERT(0u != 0u);
1606:.\Generated_Source\PSoC4/CyLFClk.c ****         }
1607:.\Generated_Source\PSoC4/CyLFClk.c **** 
1608:.\Generated_Source\PSoC4/CyLFClk.c ****         return((cyWdtCallback)prevCallback);
1609:.\Generated_Source\PSoC4/CyLFClk.c ****     }
1610:.\Generated_Source\PSoC4/CyLFClk.c **** 
1611:.\Generated_Source\PSoC4/CyLFClk.c **** 
1612:.\Generated_Source\PSoC4/CyLFClk.c ****     /*******************************************************************************
1613:.\Generated_Source\PSoC4/CyLFClk.c ****     * Function Name: CySysWdtGetInterruptCallback
1614:.\Generated_Source\PSoC4/CyLFClk.c ****     ****************************************************************************//**
1615:.\Generated_Source\PSoC4/CyLFClk.c ****     * \brief
1616:.\Generated_Source\PSoC4/CyLFClk.c ****     * Gets the ISR callback function for the particular WDT counter.
1617:.\Generated_Source\PSoC4/CyLFClk.c ****     *
1618:.\Generated_Source\PSoC4/CyLFClk.c ****     * \param counterNum The number of the WDT counter.
1619:.\Generated_Source\PSoC4/CyLFClk.c ****     *
1620:.\Generated_Source\PSoC4/CyLFClk.c ****     * \return The pointer to the callback function registered for a particular WDT by
1621:.\Generated_Source\PSoC4/CyLFClk.c ****     * a particular address that are passed through arguments.
1622:.\Generated_Source\PSoC4/CyLFClk.c ****     *
1623:.\Generated_Source\PSoC4/CyLFClk.c ****     *******************************************************************************/
1624:.\Generated_Source\PSoC4/CyLFClk.c ****     cyWdtCallback CySysWdtGetInterruptCallback(uint32 counterNum)
1625:.\Generated_Source\PSoC4/CyLFClk.c ****     {
1626:.\Generated_Source\PSoC4/CyLFClk.c ****         cyWdtCallback retCallback = (void *)0;
1627:.\Generated_Source\PSoC4/CyLFClk.c **** 
1628:.\Generated_Source\PSoC4/CyLFClk.c ****         if(counterNum < CY_WDT_NUM_OF_WDT)
1629:.\Generated_Source\PSoC4/CyLFClk.c ****         {
1630:.\Generated_Source\PSoC4/CyLFClk.c ****             retCallback = (cyWdtCallback)cySysWdtCallback[counterNum];
1631:.\Generated_Source\PSoC4/CyLFClk.c ****         }
1632:.\Generated_Source\PSoC4/CyLFClk.c ****         else
1633:.\Generated_Source\PSoC4/CyLFClk.c ****         {
ARM GAS  C:\Users\310295~1\AppData\Local\Temp\ccIU8zba.s 			page 67


1634:.\Generated_Source\PSoC4/CyLFClk.c ****             CYASSERT(0u != 0u);
1635:.\Generated_Source\PSoC4/CyLFClk.c ****         }
1636:.\Generated_Source\PSoC4/CyLFClk.c **** 
1637:.\Generated_Source\PSoC4/CyLFClk.c ****         return(retCallback);
1638:.\Generated_Source\PSoC4/CyLFClk.c ****     }
1639:.\Generated_Source\PSoC4/CyLFClk.c **** 
1640:.\Generated_Source\PSoC4/CyLFClk.c **** 
1641:.\Generated_Source\PSoC4/CyLFClk.c ****     /*******************************************************************************
1642:.\Generated_Source\PSoC4/CyLFClk.c ****     * Function Name: CySysWdtEnableCounterIsr
1643:.\Generated_Source\PSoC4/CyLFClk.c ****     ****************************************************************************//**
1644:.\Generated_Source\PSoC4/CyLFClk.c ****     * \brief
1645:.\Generated_Source\PSoC4/CyLFClk.c ****     * Enables the ISR callback servicing for the particular WDT counter
1646:.\Generated_Source\PSoC4/CyLFClk.c ****     *
1647:.\Generated_Source\PSoC4/CyLFClk.c ****     * \param counterNum Valid range [0-2]. The number of the WDT counter.
1648:.\Generated_Source\PSoC4/CyLFClk.c ****     *
1649:.\Generated_Source\PSoC4/CyLFClk.c ****     * Value corresponds to appropriate WDT counter. For example value 1 
1650:.\Generated_Source\PSoC4/CyLFClk.c ****     * corresponds to second WDT counter.
1651:.\Generated_Source\PSoC4/CyLFClk.c ****     *
1652:.\Generated_Source\PSoC4/CyLFClk.c ****     *******************************************************************************/
1653:.\Generated_Source\PSoC4/CyLFClk.c ****     void CySysWdtEnableCounterIsr(uint32 counterNum)
1654:.\Generated_Source\PSoC4/CyLFClk.c ****     {
1655:.\Generated_Source\PSoC4/CyLFClk.c ****         if(counterNum <= CY_SYS_WDT_COUNTER2)
1656:.\Generated_Source\PSoC4/CyLFClk.c ****         {
1657:.\Generated_Source\PSoC4/CyLFClk.c ****             disableServicedIsr &= ~counterIntMaskTbl[counterNum];
1658:.\Generated_Source\PSoC4/CyLFClk.c ****             wdtIsrMask |= counterIntMaskTbl[counterNum];
1659:.\Generated_Source\PSoC4/CyLFClk.c ****         }
1660:.\Generated_Source\PSoC4/CyLFClk.c ****         else
1661:.\Generated_Source\PSoC4/CyLFClk.c ****         {
1662:.\Generated_Source\PSoC4/CyLFClk.c ****             CYASSERT(0u != 0u);
1663:.\Generated_Source\PSoC4/CyLFClk.c ****         }
1664:.\Generated_Source\PSoC4/CyLFClk.c ****     }
1665:.\Generated_Source\PSoC4/CyLFClk.c **** 
1666:.\Generated_Source\PSoC4/CyLFClk.c **** 
1667:.\Generated_Source\PSoC4/CyLFClk.c ****     /*******************************************************************************
1668:.\Generated_Source\PSoC4/CyLFClk.c ****     * Function Name: CySysWdtDisableCounterIsr
1669:.\Generated_Source\PSoC4/CyLFClk.c ****     ****************************************************************************//**
1670:.\Generated_Source\PSoC4/CyLFClk.c ****     * \brief
1671:.\Generated_Source\PSoC4/CyLFClk.c ****     * Disables the ISR callback servicing for the particular WDT counter
1672:.\Generated_Source\PSoC4/CyLFClk.c ****     *
1673:.\Generated_Source\PSoC4/CyLFClk.c ****     * \param counterNum Valid range [0-2]. The number of the WDT counter.
1674:.\Generated_Source\PSoC4/CyLFClk.c ****     *
1675:.\Generated_Source\PSoC4/CyLFClk.c ****     *******************************************************************************/
1676:.\Generated_Source\PSoC4/CyLFClk.c ****     void CySysWdtDisableCounterIsr(uint32 counterNum)
1677:.\Generated_Source\PSoC4/CyLFClk.c ****     {
1678:.\Generated_Source\PSoC4/CyLFClk.c ****         if(counterNum <= CY_SYS_WDT_COUNTER2)
1679:.\Generated_Source\PSoC4/CyLFClk.c ****         {
1680:.\Generated_Source\PSoC4/CyLFClk.c ****             wdtIsrMask &= ~counterIntMaskTbl[counterNum];
1681:.\Generated_Source\PSoC4/CyLFClk.c ****         }
1682:.\Generated_Source\PSoC4/CyLFClk.c ****         else
1683:.\Generated_Source\PSoC4/CyLFClk.c ****         {
1684:.\Generated_Source\PSoC4/CyLFClk.c ****             CYASSERT(0u != 0u);
1685:.\Generated_Source\PSoC4/CyLFClk.c ****         }
1686:.\Generated_Source\PSoC4/CyLFClk.c ****     }
1687:.\Generated_Source\PSoC4/CyLFClk.c **** 
1688:.\Generated_Source\PSoC4/CyLFClk.c **** 
1689:.\Generated_Source\PSoC4/CyLFClk.c ****     /*******************************************************************************
1690:.\Generated_Source\PSoC4/CyLFClk.c ****     * Function Name: CySysWdtIsr
ARM GAS  C:\Users\310295~1\AppData\Local\Temp\ccIU8zba.s 			page 68


1691:.\Generated_Source\PSoC4/CyLFClk.c ****     ****************************************************************************//**
1692:.\Generated_Source\PSoC4/CyLFClk.c ****     * \brief
1693:.\Generated_Source\PSoC4/CyLFClk.c ****     * This is the handler of the WDT interrupt in CPU NVIC.
1694:.\Generated_Source\PSoC4/CyLFClk.c ****     *
1695:.\Generated_Source\PSoC4/CyLFClk.c ****     * The handler checks which WDT triggered in the interrupt and calls the 
1696:.\Generated_Source\PSoC4/CyLFClk.c ****     * respective callback functions configured by the user by using 
1697:.\Generated_Source\PSoC4/CyLFClk.c ****     * CySysWdtSetIsrCallback() API.
1698:.\Generated_Source\PSoC4/CyLFClk.c ****     *
1699:.\Generated_Source\PSoC4/CyLFClk.c ****     * The order of the callback execution is incremental. Callback-0 is
1700:.\Generated_Source\PSoC4/CyLFClk.c ****     * run as the first one and callback-2 is called as the last one.
1701:.\Generated_Source\PSoC4/CyLFClk.c ****     *
1702:.\Generated_Source\PSoC4/CyLFClk.c ****     * \details
1703:.\Generated_Source\PSoC4/CyLFClk.c ****     * This function clears the WDT interrupt every time when it is called.
1704:.\Generated_Source\PSoC4/CyLFClk.c ****     * Reset after the 3rd interrupt does not happen if this function is registered
1705:.\Generated_Source\PSoC4/CyLFClk.c ****     * as the interrupt handler even if the "Watchdog with Interrupt" mode is
1706:.\Generated_Source\PSoC4/CyLFClk.c ****     * selected on the "Low Frequency Clocks" tab.
1707:.\Generated_Source\PSoC4/CyLFClk.c ****     *
1708:.\Generated_Source\PSoC4/CyLFClk.c ****     *******************************************************************************/
1709:.\Generated_Source\PSoC4/CyLFClk.c ****     void CySysWdtIsr(void)
1710:.\Generated_Source\PSoC4/CyLFClk.c ****     {
1711:.\Generated_Source\PSoC4/CyLFClk.c ****         if(0u != (CY_SYS_WDT_COUNTER0_INT & CY_SYS_WDT_CONTROL_REG))
1712:.\Generated_Source\PSoC4/CyLFClk.c ****         {
1713:.\Generated_Source\PSoC4/CyLFClk.c ****             if(0u != (CY_SYS_WDT_COUNTER0_INT & wdtIsrMask))
1714:.\Generated_Source\PSoC4/CyLFClk.c ****             {
1715:.\Generated_Source\PSoC4/CyLFClk.c ****                 wdtIsrMask &= ~(disableServicedIsr & CY_SYS_WDT_COUNTER0_INT);
1716:.\Generated_Source\PSoC4/CyLFClk.c ****                 disableServicedIsr  &= ~CY_SYS_WDT_COUNTER0_INT;
1717:.\Generated_Source\PSoC4/CyLFClk.c ****                 if(cySysWdtCallback[CY_SYS_WDT_COUNTER0] != (void *) 0)
1718:.\Generated_Source\PSoC4/CyLFClk.c ****                 {
1719:.\Generated_Source\PSoC4/CyLFClk.c ****                     (void)(cySysWdtCallback[CY_SYS_WDT_COUNTER0])();
1720:.\Generated_Source\PSoC4/CyLFClk.c ****                 }
1721:.\Generated_Source\PSoC4/CyLFClk.c ****             }
1722:.\Generated_Source\PSoC4/CyLFClk.c ****             CySysWdtClearInterrupt(CY_SYS_WDT_COUNTER0_INT);
1723:.\Generated_Source\PSoC4/CyLFClk.c ****         }
1724:.\Generated_Source\PSoC4/CyLFClk.c **** 
1725:.\Generated_Source\PSoC4/CyLFClk.c ****         if(0u != (CY_SYS_WDT_COUNTER1_INT & CY_SYS_WDT_CONTROL_REG))
1726:.\Generated_Source\PSoC4/CyLFClk.c ****         {
1727:.\Generated_Source\PSoC4/CyLFClk.c ****             if(0u != (CY_SYS_WDT_COUNTER1_INT & wdtIsrMask))
1728:.\Generated_Source\PSoC4/CyLFClk.c ****             {
1729:.\Generated_Source\PSoC4/CyLFClk.c ****                 wdtIsrMask &= ~(disableServicedIsr & CY_SYS_WDT_COUNTER1_INT);
1730:.\Generated_Source\PSoC4/CyLFClk.c ****                 disableServicedIsr  &= ~CY_SYS_WDT_COUNTER1_INT;
1731:.\Generated_Source\PSoC4/CyLFClk.c ****                 if(cySysWdtCallback[CY_SYS_WDT_COUNTER1] != (void *) 0)
1732:.\Generated_Source\PSoC4/CyLFClk.c ****                 {
1733:.\Generated_Source\PSoC4/CyLFClk.c ****                     (void)(cySysWdtCallback[CY_SYS_WDT_COUNTER1])();
1734:.\Generated_Source\PSoC4/CyLFClk.c ****                 }
1735:.\Generated_Source\PSoC4/CyLFClk.c ****             }
1736:.\Generated_Source\PSoC4/CyLFClk.c ****             CySysWdtClearInterrupt(CY_SYS_WDT_COUNTER1_INT);
1737:.\Generated_Source\PSoC4/CyLFClk.c ****         }
1738:.\Generated_Source\PSoC4/CyLFClk.c **** 
1739:.\Generated_Source\PSoC4/CyLFClk.c ****         if(0u != (CY_SYS_WDT_COUNTER2_INT & CY_SYS_WDT_CONTROL_REG))
1740:.\Generated_Source\PSoC4/CyLFClk.c ****         {
1741:.\Generated_Source\PSoC4/CyLFClk.c ****             if(0u != (CY_SYS_WDT_COUNTER2_INT & wdtIsrMask))
1742:.\Generated_Source\PSoC4/CyLFClk.c ****             {
1743:.\Generated_Source\PSoC4/CyLFClk.c ****                 if(cySysWdtCallback[CY_SYS_WDT_COUNTER2] != (void *) 0)
1744:.\Generated_Source\PSoC4/CyLFClk.c ****                 {
1745:.\Generated_Source\PSoC4/CyLFClk.c ****                     (void)(cySysWdtCallback[CY_SYS_WDT_COUNTER2])();
1746:.\Generated_Source\PSoC4/CyLFClk.c ****                 }
1747:.\Generated_Source\PSoC4/CyLFClk.c ****             }
ARM GAS  C:\Users\310295~1\AppData\Local\Temp\ccIU8zba.s 			page 69


1748:.\Generated_Source\PSoC4/CyLFClk.c ****             CySysWdtClearInterrupt(CY_SYS_WDT_COUNTER2_INT);
1749:.\Generated_Source\PSoC4/CyLFClk.c ****         }
1750:.\Generated_Source\PSoC4/CyLFClk.c ****     }
1751:.\Generated_Source\PSoC4/CyLFClk.c **** 
1752:.\Generated_Source\PSoC4/CyLFClk.c **** 
1753:.\Generated_Source\PSoC4/CyLFClk.c ****     /*******************************************************************************
1754:.\Generated_Source\PSoC4/CyLFClk.c ****     * Function Name: CySysWatchdogFeed
1755:.\Generated_Source\PSoC4/CyLFClk.c ****     ****************************************************************************//**
1756:.\Generated_Source\PSoC4/CyLFClk.c ****     * \brief
1757:.\Generated_Source\PSoC4/CyLFClk.c ****     * Feeds the corresponded Watchdog Counter before it causes the device reset.
1758:.\Generated_Source\PSoC4/CyLFClk.c ****     *
1759:.\Generated_Source\PSoC4/CyLFClk.c ****     * Supported only for first WDT0 and second WDT1 counters in the "Watchdog" or 
1760:.\Generated_Source\PSoC4/CyLFClk.c ****     * "Watchdog w/ Interrupts" modes.
1761:.\Generated_Source\PSoC4/CyLFClk.c ****     *
1762:.\Generated_Source\PSoC4/CyLFClk.c ****     * \param counterNum
1763:.\Generated_Source\PSoC4/CyLFClk.c ****     * CY_SYS_WDT_COUNTER0 - Feeds the Counter 0 <br>
1764:.\Generated_Source\PSoC4/CyLFClk.c ****     * CY_SYS_WDT_COUNTER1 - Feeds the Counter 1
1765:.\Generated_Source\PSoC4/CyLFClk.c ****     *
1766:.\Generated_Source\PSoC4/CyLFClk.c ****     * Value of counterNum corresponds to appropriate counter. For example value 1 
1767:.\Generated_Source\PSoC4/CyLFClk.c ****     * corresponds to second WDT1 Counter.
1768:.\Generated_Source\PSoC4/CyLFClk.c ****     *
1769:.\Generated_Source\PSoC4/CyLFClk.c ****     * \details
1770:.\Generated_Source\PSoC4/CyLFClk.c ****     * Clears the WDT counter in the "Watchdog" mode or clears the WDT interrupt in
1771:.\Generated_Source\PSoC4/CyLFClk.c ****     * "Watchdog w/ Interrupts" mode. Does nothing in other modes.
1772:.\Generated_Source\PSoC4/CyLFClk.c ****     *
1773:.\Generated_Source\PSoC4/CyLFClk.c ****     *******************************************************************************/
1774:.\Generated_Source\PSoC4/CyLFClk.c ****     void CySysWatchdogFeed(uint32 counterNum)
1775:.\Generated_Source\PSoC4/CyLFClk.c ****     {
1776:.\Generated_Source\PSoC4/CyLFClk.c ****         if(counterNum == CY_SYS_WDT_COUNTER0)
1777:.\Generated_Source\PSoC4/CyLFClk.c ****         {
1778:.\Generated_Source\PSoC4/CyLFClk.c ****             if(CY_SYS_WDT_MODE_INT_RESET == CySysWdtGetMode(counterNum))
1779:.\Generated_Source\PSoC4/CyLFClk.c ****             {
1780:.\Generated_Source\PSoC4/CyLFClk.c ****                 CySysWdtClearInterrupt(CY_SYS_WDT_COUNTER0_INT);
1781:.\Generated_Source\PSoC4/CyLFClk.c ****             }
1782:.\Generated_Source\PSoC4/CyLFClk.c ****             else if(CY_SYS_WDT_MODE_RESET == CySysWdtGetMode(counterNum))
1783:.\Generated_Source\PSoC4/CyLFClk.c ****             {
1784:.\Generated_Source\PSoC4/CyLFClk.c ****                 CySysWdtResetCounters(CY_SYS_WDT_COUNTER0_RESET);
1785:.\Generated_Source\PSoC4/CyLFClk.c ****                 CySysWdtClearInterrupt(CY_SYS_WDT_COUNTER0_INT);
1786:.\Generated_Source\PSoC4/CyLFClk.c ****             }
1787:.\Generated_Source\PSoC4/CyLFClk.c ****             else
1788:.\Generated_Source\PSoC4/CyLFClk.c ****             {
1789:.\Generated_Source\PSoC4/CyLFClk.c ****                 /* Do nothing. */
1790:.\Generated_Source\PSoC4/CyLFClk.c ****             }
1791:.\Generated_Source\PSoC4/CyLFClk.c ****         }
1792:.\Generated_Source\PSoC4/CyLFClk.c ****         else if(counterNum == CY_SYS_WDT_COUNTER1)
1793:.\Generated_Source\PSoC4/CyLFClk.c ****         {
1794:.\Generated_Source\PSoC4/CyLFClk.c ****             if(CY_SYS_WDT_MODE_INT_RESET == CySysWdtGetMode(counterNum))
1795:.\Generated_Source\PSoC4/CyLFClk.c ****             {
1796:.\Generated_Source\PSoC4/CyLFClk.c ****                 CySysWdtClearInterrupt(CY_SYS_WDT_COUNTER1_INT);
1797:.\Generated_Source\PSoC4/CyLFClk.c ****             }
1798:.\Generated_Source\PSoC4/CyLFClk.c ****             else if(CY_SYS_WDT_MODE_RESET == CySysWdtGetMode(counterNum))
1799:.\Generated_Source\PSoC4/CyLFClk.c ****             {
1800:.\Generated_Source\PSoC4/CyLFClk.c ****                 CySysWdtResetCounters(CY_SYS_WDT_COUNTER1_RESET);
1801:.\Generated_Source\PSoC4/CyLFClk.c ****                 CySysWdtClearInterrupt(CY_SYS_WDT_COUNTER1_INT);
1802:.\Generated_Source\PSoC4/CyLFClk.c ****             }
1803:.\Generated_Source\PSoC4/CyLFClk.c ****             else
1804:.\Generated_Source\PSoC4/CyLFClk.c ****             {
ARM GAS  C:\Users\310295~1\AppData\Local\Temp\ccIU8zba.s 			page 70


1805:.\Generated_Source\PSoC4/CyLFClk.c ****                 /* Do nothing. */
1806:.\Generated_Source\PSoC4/CyLFClk.c ****             }
1807:.\Generated_Source\PSoC4/CyLFClk.c ****         }
1808:.\Generated_Source\PSoC4/CyLFClk.c ****         else
1809:.\Generated_Source\PSoC4/CyLFClk.c ****         {
1810:.\Generated_Source\PSoC4/CyLFClk.c ****             /* Do nothing. */
1811:.\Generated_Source\PSoC4/CyLFClk.c ****         }
1812:.\Generated_Source\PSoC4/CyLFClk.c ****     }
1813:.\Generated_Source\PSoC4/CyLFClk.c **** 
1814:.\Generated_Source\PSoC4/CyLFClk.c **** 
1815:.\Generated_Source\PSoC4/CyLFClk.c ****     /*******************************************************************************
1816:.\Generated_Source\PSoC4/CyLFClk.c ****     * Function Name: CySysClkLfclkPosedgeCatch
1817:.\Generated_Source\PSoC4/CyLFClk.c ****     ****************************************************************************//**
1818:.\Generated_Source\PSoC4/CyLFClk.c ****     * \internal
1819:.\Generated_Source\PSoC4/CyLFClk.c ****     * Returns once the LFCLK positive edge occurred.
1820:.\Generated_Source\PSoC4/CyLFClk.c ****     *
1821:.\Generated_Source\PSoC4/CyLFClk.c ****     * CySysClkLfclkPosedgeRestore() should be called after this function
1822:.\Generated_Source\PSoC4/CyLFClk.c ****     * to restore the WDT configuration.
1823:.\Generated_Source\PSoC4/CyLFClk.c ****     *
1824:.\Generated_Source\PSoC4/CyLFClk.c ****     * A pair of the CySysClkLfclkPosedgeCatch() and CySysClkLfclkPosedgeRestore()
1825:.\Generated_Source\PSoC4/CyLFClk.c ****     * functions is expected to be called inside a critical section.
1826:.\Generated_Source\PSoC4/CyLFClk.c ****     *
1827:.\Generated_Source\PSoC4/CyLFClk.c ****     * To ensure that the WDT counter value is read until it changes, the enabled
1828:.\Generated_Source\PSoC4/CyLFClk.c ****     * WDT counter is used. If no counter is enabled, counter 0 is enabled.
1829:.\Generated_Source\PSoC4/CyLFClk.c ****     * And after the LFCLK source is switched, the counter 0 configuration
1830:.\Generated_Source\PSoC4/CyLFClk.c ****     * is restored.
1831:.\Generated_Source\PSoC4/CyLFClk.c ****     *
1832:.\Generated_Source\PSoC4/CyLFClk.c ****     * Not applicable for the PSoC 4000 / PSoC 4000S / PSoC 4100S / PSoC Analog 
1833:.\Generated_Source\PSoC4/CyLFClk.c ****     * Coprocessor devices.
1834:.\Generated_Source\PSoC4/CyLFClk.c ****     *
1835:.\Generated_Source\PSoC4/CyLFClk.c ****     * \details
1836:.\Generated_Source\PSoC4/CyLFClk.c ****     * This function has no effect if WDT is locked (CySysWdtLock() is
1837:.\Generated_Source\PSoC4/CyLFClk.c ****     * called). Call CySysWdtUnlock() to unlock WDT.
1838:.\Generated_Source\PSoC4/CyLFClk.c ****     * \endinternal
1839:.\Generated_Source\PSoC4/CyLFClk.c ****     *******************************************************************************/
1840:.\Generated_Source\PSoC4/CyLFClk.c ****     static void CySysClkLfclkPosedgeCatch(void)
1841:.\Generated_Source\PSoC4/CyLFClk.c ****     {
1842:.\Generated_Source\PSoC4/CyLFClk.c ****         uint32 firstCount;
1843:.\Generated_Source\PSoC4/CyLFClk.c ****         static uint32 lfclkPosedgeEnabledWdtCounter = 0u;
1844:.\Generated_Source\PSoC4/CyLFClk.c **** 
1845:.\Generated_Source\PSoC4/CyLFClk.c ****         if (0u != CySysWdtGetEnabledStatus(CY_SYS_WDT_COUNTER0))
1846:.\Generated_Source\PSoC4/CyLFClk.c ****         {
1847:.\Generated_Source\PSoC4/CyLFClk.c ****             lfclkPosedgeEnabledWdtCounter = CY_SYS_WDT_COUNTER0;
1848:.\Generated_Source\PSoC4/CyLFClk.c ****         }
1849:.\Generated_Source\PSoC4/CyLFClk.c ****         else if (0u != CySysWdtGetEnabledStatus(CY_SYS_WDT_COUNTER1))
1850:.\Generated_Source\PSoC4/CyLFClk.c ****         {
1851:.\Generated_Source\PSoC4/CyLFClk.c ****             lfclkPosedgeEnabledWdtCounter = CY_SYS_WDT_COUNTER1;
1852:.\Generated_Source\PSoC4/CyLFClk.c ****         }
1853:.\Generated_Source\PSoC4/CyLFClk.c ****         else if (0u != CySysWdtGetEnabledStatus(CY_SYS_WDT_COUNTER2))
1854:.\Generated_Source\PSoC4/CyLFClk.c ****         {
1855:.\Generated_Source\PSoC4/CyLFClk.c ****             lfclkPosedgeEnabledWdtCounter = CY_SYS_WDT_COUNTER2;
1856:.\Generated_Source\PSoC4/CyLFClk.c ****         }
1857:.\Generated_Source\PSoC4/CyLFClk.c ****         else /* All WDT counters are disabled */
1858:.\Generated_Source\PSoC4/CyLFClk.c ****         {
1859:.\Generated_Source\PSoC4/CyLFClk.c ****             /* Configure WDT counter # 0 */
1860:.\Generated_Source\PSoC4/CyLFClk.c ****             lfclkPosedgeWdtCounter0Enabled = 1u;
1861:.\Generated_Source\PSoC4/CyLFClk.c ****             lfclkPosedgeEnabledWdtCounter = CY_SYS_WDT_COUNTER0;
ARM GAS  C:\Users\310295~1\AppData\Local\Temp\ccIU8zba.s 			page 71


1862:.\Generated_Source\PSoC4/CyLFClk.c **** 
1863:.\Generated_Source\PSoC4/CyLFClk.c ****             lfclkPosedgeWdtCounter0Mode = CySysWdtGetMode(CY_SYS_WDT_COUNTER0);
1864:.\Generated_Source\PSoC4/CyLFClk.c ****             CySysWdtSetMode(CY_SYS_WDT_COUNTER0, CY_SYS_WDT_MODE_NONE);
1865:.\Generated_Source\PSoC4/CyLFClk.c ****             CySysWdtEnable(CY_SYS_WDT_COUNTER0_MASK);
1866:.\Generated_Source\PSoC4/CyLFClk.c ****         }
1867:.\Generated_Source\PSoC4/CyLFClk.c **** 
1868:.\Generated_Source\PSoC4/CyLFClk.c ****         firstCount = CySysWdtGetCount(lfclkPosedgeEnabledWdtCounter);
1869:.\Generated_Source\PSoC4/CyLFClk.c ****         while (CySysWdtGetCount(lfclkPosedgeEnabledWdtCounter) == firstCount)
1870:.\Generated_Source\PSoC4/CyLFClk.c ****         {
1871:.\Generated_Source\PSoC4/CyLFClk.c ****             /* Wait for counter to increment */
1872:.\Generated_Source\PSoC4/CyLFClk.c ****         }
1873:.\Generated_Source\PSoC4/CyLFClk.c ****     }
1874:.\Generated_Source\PSoC4/CyLFClk.c **** 
1875:.\Generated_Source\PSoC4/CyLFClk.c **** 
1876:.\Generated_Source\PSoC4/CyLFClk.c ****     /*******************************************************************************
1877:.\Generated_Source\PSoC4/CyLFClk.c ****     * Function Name: CySysClkLfclkPosedgeRestore
1878:.\Generated_Source\PSoC4/CyLFClk.c ****     ****************************************************************************//**
1879:.\Generated_Source\PSoC4/CyLFClk.c ****     * \internal
1880:.\Generated_Source\PSoC4/CyLFClk.c ****     *  Restores the WDT configuration after a CySysClkLfclkPosedgeCatch() call.
1881:.\Generated_Source\PSoC4/CyLFClk.c ****     *
1882:.\Generated_Source\PSoC4/CyLFClk.c ****     *  A pair of the CySysClkLfclkPosedgeCatch() and CySysClkLfclkPosedgeRestore()
1883:.\Generated_Source\PSoC4/CyLFClk.c ****     *  functions is expected to be called inside a critical section.
1884:.\Generated_Source\PSoC4/CyLFClk.c ****     *
1885:.\Generated_Source\PSoC4/CyLFClk.c ****     * Not applicable for the PSoC 4000/PSoC 4000S / PSoC 4100S / PSoC Analog 
1886:.\Generated_Source\PSoC4/CyLFClk.c ****     * Coprocessor devices.
1887:.\Generated_Source\PSoC4/CyLFClk.c ****     *
1888:.\Generated_Source\PSoC4/CyLFClk.c ****     * \details
1889:.\Generated_Source\PSoC4/CyLFClk.c ****     *  This function has no effect if WDT is locked (CySysWdtLock() is
1890:.\Generated_Source\PSoC4/CyLFClk.c ****     *  called). Call CySysWdtUnlock() to unlock WDT.
1891:.\Generated_Source\PSoC4/CyLFClk.c ****     *
1892:.\Generated_Source\PSoC4/CyLFClk.c ****     * \endinternal
1893:.\Generated_Source\PSoC4/CyLFClk.c ****     *******************************************************************************/
1894:.\Generated_Source\PSoC4/CyLFClk.c ****     static void CySysClkLfclkPosedgeRestore(void)
1895:.\Generated_Source\PSoC4/CyLFClk.c ****     {
 1293              		.loc 1 1895 0
 1294              		.cfi_startproc
 1295 0000 10B5     		push	{r4, lr}
 1296              		.cfi_def_cfa_offset 8
 1297              		.cfi_offset 4, -8
 1298              		.cfi_offset 14, -4
1896:.\Generated_Source\PSoC4/CyLFClk.c ****         if (lfclkPosedgeWdtCounter0Enabled != 0u)
 1299              		.loc 1 1896 0
 1300 0002 084B     		ldr	r3, .L109
 1301 0004 DB68     		ldr	r3, [r3, #12]
 1302 0006 002B     		cmp	r3, #0
 1303 0008 0BD0     		beq	.L107
1897:.\Generated_Source\PSoC4/CyLFClk.c ****         {
1898:.\Generated_Source\PSoC4/CyLFClk.c ****             /* Restore counter # 0 configuration and force its shutdown */
1899:.\Generated_Source\PSoC4/CyLFClk.c ****             CY_SYS_WDT_CONTROL_REG &= (uint32)(~CY_SYS_WDT_COUNTER0_MASK);
 1304              		.loc 1 1899 0
 1305 000a 074A     		ldr	r2, .L109+4
 1306 000c 1368     		ldr	r3, [r2]
 1307 000e 0121     		mov	r1, #1
 1308 0010 8B43     		bic	r3, r1
 1309 0012 1360     		str	r3, [r2]
1900:.\Generated_Source\PSoC4/CyLFClk.c ****             CySysWdtSetMode(CY_SYS_WDT_COUNTER0, lfclkPosedgeWdtCounter0Mode);
 1310              		.loc 1 1900 0
ARM GAS  C:\Users\310295~1\AppData\Local\Temp\ccIU8zba.s 			page 72


 1311 0014 034C     		ldr	r4, .L109
 1312 0016 0020     		mov	r0, #0
 1313 0018 2169     		ldr	r1, [r4, #16]
 1314 001a FFF7FEFF 		bl	CySysWdtSetMode
 1315              	.LVL119:
1901:.\Generated_Source\PSoC4/CyLFClk.c ****             lfclkPosedgeWdtCounter0Enabled = 0u;
 1316              		.loc 1 1901 0
 1317 001e 0023     		mov	r3, #0
 1318 0020 E360     		str	r3, [r4, #12]
 1319              	.L107:
1902:.\Generated_Source\PSoC4/CyLFClk.c ****         }
1903:.\Generated_Source\PSoC4/CyLFClk.c ****     }
 1320              		.loc 1 1903 0
 1321              		@ sp needed
 1322 0022 10BD     		pop	{r4, pc}
 1323              	.L110:
 1324              		.align	2
 1325              	.L109:
 1326 0024 00000000 		.word	.LANCHOR0
 1327 0028 10020B40 		.word	1074463248
 1328              		.cfi_endproc
 1329              	.LFE45:
 1330              		.size	CySysClkLfclkPosedgeRestore, .-CySysClkLfclkPosedgeRestore
 1331              		.section	.text.CySysWdtGetMode,"ax",%progbits
 1332              		.align	2
 1333              		.global	CySysWdtGetMode
 1334              		.code	16
 1335              		.thumb_func
 1336              		.type	CySysWdtGetMode, %function
 1337              	CySysWdtGetMode:
 1338              	.LFB23:
1076:.\Generated_Source\PSoC4/CyLFClk.c ****         return ((CY_SYS_WDT_CONFIG_REG >> (counterNum * CY_SYS_WDT_CNT_SHIFT)) & CY_SYS_WDT_MODE_MA
 1339              		.loc 1 1076 0
 1340              		.cfi_startproc
 1341              	.LVL120:
1077:.\Generated_Source\PSoC4/CyLFClk.c ****     }
 1342              		.loc 1 1077 0
 1343 0000 034B     		ldr	r3, .L112
 1344 0002 1B68     		ldr	r3, [r3]
 1345 0004 C000     		lsl	r0, r0, #3
 1346              	.LVL121:
 1347 0006 C340     		lsr	r3, r3, r0
 1348 0008 181C     		mov	r0, r3
 1349 000a 0323     		mov	r3, #3
 1350 000c 1840     		and	r0, r3
1078:.\Generated_Source\PSoC4/CyLFClk.c **** 
 1351              		.loc 1 1078 0
 1352              		@ sp needed
 1353 000e 7047     		bx	lr
 1354              	.L113:
 1355              		.align	2
 1356              	.L112:
 1357 0010 0C020B40 		.word	1074463244
 1358              		.cfi_endproc
 1359              	.LFE23:
 1360              		.size	CySysWdtGetMode, .-CySysWdtGetMode
 1361              		.section	.text.CySysWdtSetClearOnMatch,"ax",%progbits
ARM GAS  C:\Users\310295~1\AppData\Local\Temp\ccIU8zba.s 			page 73


 1362              		.align	2
 1363              		.global	CySysWdtSetClearOnMatch
 1364              		.code	16
 1365              		.thumb_func
 1366              		.type	CySysWdtSetClearOnMatch, %function
 1367              	CySysWdtSetClearOnMatch:
 1368              	.LFB24:
1105:.\Generated_Source\PSoC4/CyLFClk.c ****         uint32 configRegValue;
 1369              		.loc 1 1105 0
 1370              		.cfi_startproc
 1371              	.LVL122:
 1372 0000 38B5     		push	{r3, r4, r5, lr}
 1373              		.cfi_def_cfa_offset 16
 1374              		.cfi_offset 3, -16
 1375              		.cfi_offset 4, -12
 1376              		.cfi_offset 5, -8
 1377              		.cfi_offset 14, -4
 1378 0002 041C     		mov	r4, r0
 1379 0004 0D1C     		mov	r5, r1
1108:.\Generated_Source\PSoC4/CyLFClk.c ****                  (counterNum == CY_SYS_WDT_COUNTER1));
 1380              		.loc 1 1108 0
 1381 0006 0128     		cmp	r0, #1
 1382 0008 02D9     		bls	.L115
1108:.\Generated_Source\PSoC4/CyLFClk.c ****                  (counterNum == CY_SYS_WDT_COUNTER1));
 1383              		.loc 1 1108 0 is_stmt 0 discriminator 1
 1384 000a 0020     		mov	r0, #0
 1385              	.LVL123:
 1386 000c FFF7FEFF 		bl	CyHalt
 1387              	.LVL124:
 1388              	.L115:
1111:.\Generated_Source\PSoC4/CyLFClk.c ****         {
 1389              		.loc 1 1111 0 is_stmt 1
 1390 0010 201C     		mov	r0, r4
 1391 0012 FFF7FEFF 		bl	CySysWdtGetEnabledStatus
 1392              	.LVL125:
 1393 0016 0028     		cmp	r0, #0
 1394 0018 0AD1     		bne	.L114
1113:.\Generated_Source\PSoC4/CyLFClk.c ****                                      ((counterNum * CY_SYS_WDT_CNT_SHIFT) + CY_SYS_WDT_CNT_MATCH_CL
 1395              		.loc 1 1113 0
 1396 001a 0649     		ldr	r1, .L117
 1397 001c 0B68     		ldr	r3, [r1]
1114:.\Generated_Source\PSoC4/CyLFClk.c **** 
 1398              		.loc 1 1114 0
 1399 001e E400     		lsl	r4, r4, #3
 1400              	.LVL126:
 1401 0020 0234     		add	r4, r4, #2
1113:.\Generated_Source\PSoC4/CyLFClk.c ****                                      ((counterNum * CY_SYS_WDT_CNT_SHIFT) + CY_SYS_WDT_CNT_MATCH_CL
 1402              		.loc 1 1113 0
 1403 0022 0122     		mov	r2, #1
 1404 0024 A240     		lsl	r2, r2, r4
 1405 0026 9343     		bic	r3, r2
 1406              	.LVL127:
1117:.\Generated_Source\PSoC4/CyLFClk.c **** 
 1407              		.loc 1 1117 0
 1408 0028 A540     		lsl	r5, r5, r4
 1409              	.LVL128:
 1410 002a 2C1C     		mov	r4, r5
ARM GAS  C:\Users\310295~1\AppData\Local\Temp\ccIU8zba.s 			page 74


 1411 002c 1C43     		orr	r4, r3
 1412              	.LVL129:
1119:.\Generated_Source\PSoC4/CyLFClk.c ****         }
 1413              		.loc 1 1119 0
 1414 002e 0C60     		str	r4, [r1]
 1415              	.LVL130:
 1416              	.L114:
1121:.\Generated_Source\PSoC4/CyLFClk.c **** 
 1417              		.loc 1 1121 0
 1418              		@ sp needed
 1419 0030 38BD     		pop	{r3, r4, r5, pc}
 1420              	.L118:
 1421 0032 C046     		.align	2
 1422              	.L117:
 1423 0034 0C020B40 		.word	1074463244
 1424              		.cfi_endproc
 1425              	.LFE24:
 1426              		.size	CySysWdtSetClearOnMatch, .-CySysWdtSetClearOnMatch
 1427              		.section	.text.CySysWdtGetClearOnMatch,"ax",%progbits
 1428              		.align	2
 1429              		.global	CySysWdtGetClearOnMatch
 1430              		.code	16
 1431              		.thumb_func
 1432              		.type	CySysWdtGetClearOnMatch, %function
 1433              	CySysWdtGetClearOnMatch:
 1434              	.LFB25:
1138:.\Generated_Source\PSoC4/CyLFClk.c ****         CYASSERT((counterNum == CY_SYS_WDT_COUNTER0) ||
 1435              		.loc 1 1138 0
 1436              		.cfi_startproc
 1437              	.LVL131:
 1438 0000 10B5     		push	{r4, lr}
 1439              		.cfi_def_cfa_offset 8
 1440              		.cfi_offset 4, -8
 1441              		.cfi_offset 14, -4
 1442 0002 041E     		sub	r4, r0, #0
1139:.\Generated_Source\PSoC4/CyLFClk.c ****                  (counterNum == CY_SYS_WDT_COUNTER1));
 1443              		.loc 1 1139 0
 1444 0004 012C     		cmp	r4, #1
 1445 0006 02D9     		bls	.L120
1139:.\Generated_Source\PSoC4/CyLFClk.c ****                  (counterNum == CY_SYS_WDT_COUNTER1));
 1446              		.loc 1 1139 0 is_stmt 0 discriminator 1
 1447 0008 0020     		mov	r0, #0
 1448              	.LVL132:
 1449 000a FFF7FEFF 		bl	CyHalt
 1450              	.LVL133:
 1451              	.L120:
1142:.\Generated_Source\PSoC4/CyLFClk.c ****                         ((counterNum * CY_SYS_WDT_CNT_SHIFT) + CY_SYS_WDT_CNT_MATCH_CLR_SHIFT)) & 0
 1452              		.loc 1 1142 0 is_stmt 1
 1453 000e 044B     		ldr	r3, .L121
 1454 0010 1868     		ldr	r0, [r3]
1143:.\Generated_Source\PSoC4/CyLFClk.c ****     }
 1455              		.loc 1 1143 0
 1456 0012 E400     		lsl	r4, r4, #3
 1457              	.LVL134:
 1458 0014 0234     		add	r4, r4, #2
1142:.\Generated_Source\PSoC4/CyLFClk.c ****                         ((counterNum * CY_SYS_WDT_CNT_SHIFT) + CY_SYS_WDT_CNT_MATCH_CLR_SHIFT)) & 0
 1459              		.loc 1 1142 0
ARM GAS  C:\Users\310295~1\AppData\Local\Temp\ccIU8zba.s 			page 75


 1460 0016 E040     		lsr	r0, r0, r4
 1461 0018 041C     		mov	r4, r0
 1462 001a 0120     		mov	r0, #1
 1463 001c 2040     		and	r0, r4
1144:.\Generated_Source\PSoC4/CyLFClk.c **** 
 1464              		.loc 1 1144 0
 1465              		@ sp needed
 1466 001e 10BD     		pop	{r4, pc}
 1467              	.L122:
 1468              		.align	2
 1469              	.L121:
 1470 0020 0C020B40 		.word	1074463244
 1471              		.cfi_endproc
 1472              	.LFE25:
 1473              		.size	CySysWdtGetClearOnMatch, .-CySysWdtGetClearOnMatch
 1474              		.section	.text.CySysWdtEnable,"ax",%progbits
 1475              		.align	2
 1476              		.global	CySysWdtEnable
 1477              		.code	16
 1478              		.thumb_func
 1479              		.type	CySysWdtEnable, %function
 1480              	CySysWdtEnable:
 1481              	.LFB26:
1179:.\Generated_Source\PSoC4/CyLFClk.c ****         #if (!CY_IP_WCO)
 1482              		.loc 1 1179 0
 1483              		.cfi_startproc
 1484              	.LVL135:
 1485 0000 10B5     		push	{r4, lr}
 1486              		.cfi_def_cfa_offset 8
 1487              		.cfi_offset 4, -8
 1488              		.cfi_offset 14, -4
 1489 0002 041C     		mov	r4, r0
1184:.\Generated_Source\PSoC4/CyLFClk.c **** 
 1490              		.loc 1 1184 0
 1491 0004 0C4A     		ldr	r2, .L130
 1492 0006 1368     		ldr	r3, [r2]
 1493 0008 0343     		orr	r3, r0
 1494 000a 1360     		str	r3, [r2]
1186:.\Generated_Source\PSoC4/CyLFClk.c ****         {
 1495              		.loc 1 1186 0
 1496 000c C307     		lsl	r3, r0, #31
 1497 000e 04D5     		bpl	.L124
 1498              	.LVL136:
 1499              	.L125:
1188:.\Generated_Source\PSoC4/CyLFClk.c ****             {
 1500              		.loc 1 1188 0 discriminator 1
 1501 0010 0020     		mov	r0, #0
 1502 0012 FFF7FEFF 		bl	CySysWdtGetEnabledStatus
 1503              	.LVL137:
 1504 0016 0028     		cmp	r0, #0
 1505 0018 FAD0     		beq	.L125
 1506              	.L124:
1194:.\Generated_Source\PSoC4/CyLFClk.c ****         {
 1507              		.loc 1 1194 0
 1508 001a E305     		lsl	r3, r4, #23
 1509 001c 04D5     		bpl	.L126
 1510              	.L127:
ARM GAS  C:\Users\310295~1\AppData\Local\Temp\ccIU8zba.s 			page 76


1196:.\Generated_Source\PSoC4/CyLFClk.c ****             {
 1511              		.loc 1 1196 0 discriminator 1
 1512 001e 0120     		mov	r0, #1
 1513 0020 FFF7FEFF 		bl	CySysWdtGetEnabledStatus
 1514              	.LVL138:
 1515 0024 0028     		cmp	r0, #0
 1516 0026 FAD0     		beq	.L127
 1517              	.L126:
1202:.\Generated_Source\PSoC4/CyLFClk.c ****         {
 1518              		.loc 1 1202 0
 1519 0028 E303     		lsl	r3, r4, #15
 1520 002a 04D5     		bpl	.L123
 1521              	.L129:
1204:.\Generated_Source\PSoC4/CyLFClk.c ****             {
 1522              		.loc 1 1204 0 discriminator 1
 1523 002c 0220     		mov	r0, #2
 1524 002e FFF7FEFF 		bl	CySysWdtGetEnabledStatus
 1525              	.LVL139:
 1526 0032 0028     		cmp	r0, #0
 1527 0034 FAD0     		beq	.L129
 1528              	.L123:
1209:.\Generated_Source\PSoC4/CyLFClk.c **** 
 1529              		.loc 1 1209 0
 1530              		@ sp needed
 1531              	.LVL140:
 1532 0036 10BD     		pop	{r4, pc}
 1533              	.L131:
 1534              		.align	2
 1535              	.L130:
 1536 0038 10020B40 		.word	1074463248
 1537              		.cfi_endproc
 1538              	.LFE26:
 1539              		.size	CySysWdtEnable, .-CySysWdtEnable
 1540              		.section	.text.CySysWdtDisable,"ax",%progbits
 1541              		.align	2
 1542              		.global	CySysWdtDisable
 1543              		.code	16
 1544              		.thumb_func
 1545              		.type	CySysWdtDisable, %function
 1546              	CySysWdtDisable:
 1547              	.LFB27:
1227:.\Generated_Source\PSoC4/CyLFClk.c ****         if (0uL == CySysWdtLocked())
 1548              		.loc 1 1227 0
 1549              		.cfi_startproc
 1550              	.LVL141:
 1551 0000 10B5     		push	{r4, lr}
 1552              		.cfi_def_cfa_offset 8
 1553              		.cfi_offset 4, -8
 1554              		.cfi_offset 14, -4
 1555 0002 041C     		mov	r4, r0
1228:.\Generated_Source\PSoC4/CyLFClk.c ****         {
 1556              		.loc 1 1228 0
 1557 0004 FFF7FEFF 		bl	CySysWdtLocked
 1558              	.LVL142:
 1559 0008 0028     		cmp	r0, #0
 1560 000a 18D1     		bne	.L132
1230:.\Generated_Source\PSoC4/CyLFClk.c **** 
ARM GAS  C:\Users\310295~1\AppData\Local\Temp\ccIU8zba.s 			page 77


 1561              		.loc 1 1230 0
 1562 000c 0C4A     		ldr	r2, .L139
 1563 000e 1368     		ldr	r3, [r2]
 1564 0010 A343     		bic	r3, r4
 1565 0012 1360     		str	r3, [r2]
1232:.\Generated_Source\PSoC4/CyLFClk.c ****             {
 1566              		.loc 1 1232 0
 1567 0014 E307     		lsl	r3, r4, #31
 1568 0016 04D5     		bpl	.L134
 1569              	.L135:
1234:.\Generated_Source\PSoC4/CyLFClk.c ****                 {
 1570              		.loc 1 1234 0 discriminator 1
 1571 0018 0020     		mov	r0, #0
 1572 001a FFF7FEFF 		bl	CySysWdtGetEnabledStatus
 1573              	.LVL143:
 1574 001e 0028     		cmp	r0, #0
 1575 0020 FAD1     		bne	.L135
 1576              	.L134:
1240:.\Generated_Source\PSoC4/CyLFClk.c ****             {
 1577              		.loc 1 1240 0
 1578 0022 E305     		lsl	r3, r4, #23
 1579 0024 04D5     		bpl	.L136
 1580              	.L137:
1242:.\Generated_Source\PSoC4/CyLFClk.c ****                 {
 1581              		.loc 1 1242 0 discriminator 1
 1582 0026 0120     		mov	r0, #1
 1583 0028 FFF7FEFF 		bl	CySysWdtGetEnabledStatus
 1584              	.LVL144:
 1585 002c 0028     		cmp	r0, #0
 1586 002e FAD1     		bne	.L137
 1587              	.L136:
1248:.\Generated_Source\PSoC4/CyLFClk.c ****             {
 1588              		.loc 1 1248 0
 1589 0030 E303     		lsl	r3, r4, #15
 1590 0032 04D5     		bpl	.L132
 1591              	.L138:
1250:.\Generated_Source\PSoC4/CyLFClk.c ****                 {
 1592              		.loc 1 1250 0 discriminator 1
 1593 0034 0220     		mov	r0, #2
 1594 0036 FFF7FEFF 		bl	CySysWdtGetEnabledStatus
 1595              	.LVL145:
 1596 003a 0028     		cmp	r0, #0
 1597 003c FAD1     		bne	.L138
 1598              	.L132:
1256:.\Generated_Source\PSoC4/CyLFClk.c **** 
 1599              		.loc 1 1256 0
 1600              		@ sp needed
 1601              	.LVL146:
 1602 003e 10BD     		pop	{r4, pc}
 1603              	.L140:
 1604              		.align	2
 1605              	.L139:
 1606 0040 10020B40 		.word	1074463248
 1607              		.cfi_endproc
 1608              	.LFE27:
 1609              		.size	CySysWdtDisable, .-CySysWdtDisable
 1610              		.section	.text.CySysWdtSetCascade,"ax",%progbits
ARM GAS  C:\Users\310295~1\AppData\Local\Temp\ccIU8zba.s 			page 78


 1611              		.align	2
 1612              		.global	CySysWdtSetCascade
 1613              		.code	16
 1614              		.thumb_func
 1615              		.type	CySysWdtSetCascade, %function
 1616              	CySysWdtSetCascade:
 1617              	.LFB28:
1286:.\Generated_Source\PSoC4/CyLFClk.c ****         uint32 configRegValue;
 1618              		.loc 1 1286 0
 1619              		.cfi_startproc
 1620              	.LVL147:
 1621 0000 38B5     		push	{r3, r4, r5, lr}
 1622              		.cfi_def_cfa_offset 16
 1623              		.cfi_offset 3, -16
 1624              		.cfi_offset 4, -12
 1625              		.cfi_offset 5, -8
 1626              		.cfi_offset 14, -4
 1627 0002 051C     		mov	r5, r0
1290:.\Generated_Source\PSoC4/CyLFClk.c ****                             CySysWdtGetEnabledStatus(CY_SYS_WDT_COUNTER1) |
 1628              		.loc 1 1290 0
 1629 0004 0020     		mov	r0, #0
 1630              	.LVL148:
 1631 0006 FFF7FEFF 		bl	CySysWdtGetEnabledStatus
 1632              	.LVL149:
 1633 000a 041C     		mov	r4, r0
1291:.\Generated_Source\PSoC4/CyLFClk.c ****                             CySysWdtGetEnabledStatus(CY_SYS_WDT_COUNTER2);
 1634              		.loc 1 1291 0
 1635 000c 0120     		mov	r0, #1
 1636 000e FFF7FEFF 		bl	CySysWdtGetEnabledStatus
 1637              	.LVL150:
1290:.\Generated_Source\PSoC4/CyLFClk.c ****                             CySysWdtGetEnabledStatus(CY_SYS_WDT_COUNTER1) |
 1638              		.loc 1 1290 0
 1639 0012 0443     		orr	r4, r0
1292:.\Generated_Source\PSoC4/CyLFClk.c **** 
 1640              		.loc 1 1292 0
 1641 0014 0220     		mov	r0, #2
 1642 0016 FFF7FEFF 		bl	CySysWdtGetEnabledStatus
 1643              	.LVL151:
1290:.\Generated_Source\PSoC4/CyLFClk.c ****                             CySysWdtGetEnabledStatus(CY_SYS_WDT_COUNTER1) |
 1644              		.loc 1 1290 0
 1645 001a 2043     		orr	r0, r4
 1646              	.LVL152:
1294:.\Generated_Source\PSoC4/CyLFClk.c ****         {
 1647              		.loc 1 1294 0
 1648 001c 05D1     		bne	.L141
1296:.\Generated_Source\PSoC4/CyLFClk.c ****             configRegValue &= ((uint32)(~(CY_SYS_WDT_CASCADE_01|CY_SYS_WDT_CASCADE_12)));
 1649              		.loc 1 1296 0
 1650 001e 034A     		ldr	r2, .L143
 1651 0020 1168     		ldr	r1, [r2]
 1652              	.LVL153:
1297:.\Generated_Source\PSoC4/CyLFClk.c ****             configRegValue |= cascadeMask;
 1653              		.loc 1 1297 0
 1654 0022 034B     		ldr	r3, .L143+4
 1655 0024 0B40     		and	r3, r1
 1656              	.LVL154:
1298:.\Generated_Source\PSoC4/CyLFClk.c ****             CY_SYS_WDT_CONFIG_REG = configRegValue;
 1657              		.loc 1 1298 0
ARM GAS  C:\Users\310295~1\AppData\Local\Temp\ccIU8zba.s 			page 79


 1658 0026 1D43     		orr	r5, r3
 1659              	.LVL155:
1299:.\Generated_Source\PSoC4/CyLFClk.c ****         }
 1660              		.loc 1 1299 0
 1661 0028 1560     		str	r5, [r2]
 1662              	.LVL156:
 1663              	.L141:
1301:.\Generated_Source\PSoC4/CyLFClk.c **** 
 1664              		.loc 1 1301 0
 1665              		@ sp needed
 1666 002a 38BD     		pop	{r3, r4, r5, pc}
 1667              	.L144:
 1668              		.align	2
 1669              	.L143:
 1670 002c 0C020B40 		.word	1074463244
 1671 0030 F7F7FFFF 		.word	-2057
 1672              		.cfi_endproc
 1673              	.LFE28:
 1674              		.size	CySysWdtSetCascade, .-CySysWdtSetCascade
 1675              		.section	.text.CySysWdtGetCascade,"ax",%progbits
 1676              		.align	2
 1677              		.global	CySysWdtGetCascade
 1678              		.code	16
 1679              		.thumb_func
 1680              		.type	CySysWdtGetCascade, %function
 1681              	CySysWdtGetCascade:
 1682              	.LFB29:
1317:.\Generated_Source\PSoC4/CyLFClk.c ****         return (CY_SYS_WDT_CONFIG_REG & (CY_SYS_WDT_CASCADE_01 | CY_SYS_WDT_CASCADE_12));
 1683              		.loc 1 1317 0
 1684              		.cfi_startproc
1318:.\Generated_Source\PSoC4/CyLFClk.c ****     }
 1685              		.loc 1 1318 0
 1686 0000 024B     		ldr	r3, .L146
 1687 0002 1868     		ldr	r0, [r3]
 1688 0004 024B     		ldr	r3, .L146+4
 1689 0006 1840     		and	r0, r3
1319:.\Generated_Source\PSoC4/CyLFClk.c **** 
 1690              		.loc 1 1319 0
 1691              		@ sp needed
 1692 0008 7047     		bx	lr
 1693              	.L147:
 1694 000a C046     		.align	2
 1695              	.L146:
 1696 000c 0C020B40 		.word	1074463244
 1697 0010 08080000 		.word	2056
 1698              		.cfi_endproc
 1699              	.LFE29:
 1700              		.size	CySysWdtGetCascade, .-CySysWdtGetCascade
 1701              		.section	.text.CySysWdtSetMatch,"ax",%progbits
 1702              		.align	2
 1703              		.global	CySysWdtSetMatch
 1704              		.code	16
 1705              		.thumb_func
 1706              		.type	CySysWdtSetMatch, %function
 1707              	CySysWdtSetMatch:
 1708              	.LFB30:
1337:.\Generated_Source\PSoC4/CyLFClk.c ****         uint32 regValue;
ARM GAS  C:\Users\310295~1\AppData\Local\Temp\ccIU8zba.s 			page 80


 1709              		.loc 1 1337 0
 1710              		.cfi_startproc
 1711              	.LVL157:
 1712 0000 38B5     		push	{r3, r4, r5, lr}
 1713              		.cfi_def_cfa_offset 16
 1714              		.cfi_offset 3, -16
 1715              		.cfi_offset 4, -12
 1716              		.cfi_offset 5, -8
 1717              		.cfi_offset 14, -4
 1718 0002 041C     		mov	r4, r0
 1719 0004 0D1C     		mov	r5, r1
1340:.\Generated_Source\PSoC4/CyLFClk.c ****                  (counterNum == CY_SYS_WDT_COUNTER1));
 1720              		.loc 1 1340 0
 1721 0006 0128     		cmp	r0, #1
 1722 0008 02D9     		bls	.L149
1340:.\Generated_Source\PSoC4/CyLFClk.c ****                  (counterNum == CY_SYS_WDT_COUNTER1));
 1723              		.loc 1 1340 0 is_stmt 0 discriminator 1
 1724 000a 0020     		mov	r0, #0
 1725              	.LVL158:
 1726 000c FFF7FEFF 		bl	CyHalt
 1727              	.LVL159:
 1728              	.L149:
1344:.\Generated_Source\PSoC4/CyLFClk.c **** 
 1729              		.loc 1 1344 0 is_stmt 1
 1730 0010 0E4B     		ldr	r3, .L154
 1731 0012 1B68     		ldr	r3, [r3]
 1732 0014 9B0F     		lsr	r3, r3, #30
 1733 0016 01D1     		bne	.L152
 1734 0018 C920     		mov	r0, #201
 1735 001a 00E0     		b	.L150
 1736              	.L152:
 1737 001c 5D20     		mov	r0, #93
 1738              	.L150:
1344:.\Generated_Source\PSoC4/CyLFClk.c **** 
 1739              		.loc 1 1344 0 is_stmt 0 discriminator 4
 1740 001e FFF7FEFF 		bl	CyDelayUs
 1741              	.LVL160:
1346:.\Generated_Source\PSoC4/CyLFClk.c ****         regValue &= (uint32)~((uint32)(CY_SYS_WDT_LOWER_16BITS_MASK << (counterNum * CY_SYS_WDT_CNT
 1742              		.loc 1 1346 0 is_stmt 1 discriminator 4
 1743 0022 0B4A     		ldr	r2, .L154+4
 1744 0024 1068     		ldr	r0, [r2]
 1745              	.LVL161:
1347:.\Generated_Source\PSoC4/CyLFClk.c ****         CY_SYS_WDT_MATCH_REG = (regValue | (match << (counterNum * CY_SYS_WDT_CNT_MATCH_SHIFT)));
 1746              		.loc 1 1347 0 discriminator 4
 1747 0026 2401     		lsl	r4, r4, #4
 1748              	.LVL162:
 1749 0028 0A4B     		ldr	r3, .L154+8
 1750 002a A340     		lsl	r3, r3, r4
 1751 002c 9843     		bic	r0, r3
 1752              	.LVL163:
 1753 002e 031C     		mov	r3, r0
 1754              	.LVL164:
1348:.\Generated_Source\PSoC4/CyLFClk.c **** 
 1755              		.loc 1 1348 0 discriminator 4
 1756 0030 281C     		mov	r0, r5
 1757              	.LVL165:
 1758 0032 A040     		lsl	r0, r0, r4
ARM GAS  C:\Users\310295~1\AppData\Local\Temp\ccIU8zba.s 			page 81


 1759 0034 1843     		orr	r0, r3
 1760 0036 1060     		str	r0, [r2]
1351:.\Generated_Source\PSoC4/CyLFClk.c ****     }
 1761              		.loc 1 1351 0 discriminator 4
 1762 0038 044B     		ldr	r3, .L154
 1763              	.LVL166:
 1764 003a 1B68     		ldr	r3, [r3]
 1765 003c 9B0F     		lsr	r3, r3, #30
 1766 003e 01D1     		bne	.L153
1351:.\Generated_Source\PSoC4/CyLFClk.c ****     }
 1767              		.loc 1 1351 0 is_stmt 0
 1768 0040 4320     		mov	r0, #67
 1769 0042 00E0     		b	.L151
 1770              	.L153:
 1771 0044 1F20     		mov	r0, #31
 1772              	.L151:
1351:.\Generated_Source\PSoC4/CyLFClk.c ****     }
 1773              		.loc 1 1351 0 discriminator 4
 1774 0046 FFF7FEFF 		bl	CyDelayUs
 1775              	.LVL167:
1352:.\Generated_Source\PSoC4/CyLFClk.c **** 
 1776              		.loc 1 1352 0 is_stmt 1 discriminator 4
 1777              		@ sp needed
 1778              	.LVL168:
 1779 004a 38BD     		pop	{r3, r4, r5, pc}
 1780              	.L155:
 1781              		.align	2
 1782              	.L154:
 1783 004c 0C020B40 		.word	1074463244
 1784 0050 08020B40 		.word	1074463240
 1785 0054 FFFF0000 		.word	65535
 1786              		.cfi_endproc
 1787              	.LFE30:
 1788              		.size	CySysWdtSetMatch, .-CySysWdtSetMatch
 1789              		.section	.text.CySysWdtSetToggleBit,"ax",%progbits
 1790              		.align	2
 1791              		.global	CySysWdtSetToggleBit
 1792              		.code	16
 1793              		.thumb_func
 1794              		.type	CySysWdtSetToggleBit, %function
 1795              	CySysWdtSetToggleBit:
 1796              	.LFB31:
1376:.\Generated_Source\PSoC4/CyLFClk.c ****         uint32 configRegValue;
 1797              		.loc 1 1376 0
 1798              		.cfi_startproc
 1799              	.LVL169:
 1800 0000 10B5     		push	{r4, lr}
 1801              		.cfi_def_cfa_offset 8
 1802              		.cfi_offset 4, -8
 1803              		.cfi_offset 14, -4
 1804 0002 041C     		mov	r4, r0
1379:.\Generated_Source\PSoC4/CyLFClk.c ****         {
 1805              		.loc 1 1379 0
 1806 0004 0220     		mov	r0, #2
 1807              	.LVL170:
 1808 0006 FFF7FEFF 		bl	CySysWdtGetEnabledStatus
 1809              	.LVL171:
ARM GAS  C:\Users\310295~1\AppData\Local\Temp\ccIU8zba.s 			page 82


 1810 000a 0028     		cmp	r0, #0
 1811 000c 08D1     		bne	.L156
1381:.\Generated_Source\PSoC4/CyLFClk.c ****             configRegValue &= (uint32)(~((uint32)(CY_SYS_WDT_CONFIG_BITS2_MASK << CY_SYS_WDT_CONFIG
 1812              		.loc 1 1381 0
 1813 000e 054A     		ldr	r2, .L158
 1814 0010 1168     		ldr	r1, [r2]
 1815              	.LVL172:
1382:.\Generated_Source\PSoC4/CyLFClk.c ****             configRegValue |= ((bits & CY_SYS_WDT_CONFIG_BITS2_MASK) << CY_SYS_WDT_CONFIG_BITS2_POS
 1816              		.loc 1 1382 0
 1817 0012 054B     		ldr	r3, .L158+4
 1818 0014 0B40     		and	r3, r1
 1819              	.LVL173:
1383:.\Generated_Source\PSoC4/CyLFClk.c ****             CY_SYS_WDT_CONFIG_REG = configRegValue;
 1820              		.loc 1 1383 0
 1821 0016 1F21     		mov	r1, #31
 1822 0018 0C40     		and	r4, r1
 1823              	.LVL174:
 1824 001a 2406     		lsl	r4, r4, #24
 1825 001c 1C43     		orr	r4, r3
 1826              	.LVL175:
1384:.\Generated_Source\PSoC4/CyLFClk.c ****         }
 1827              		.loc 1 1384 0
 1828 001e 1460     		str	r4, [r2]
 1829              	.LVL176:
 1830              	.L156:
1386:.\Generated_Source\PSoC4/CyLFClk.c **** 
 1831              		.loc 1 1386 0
 1832              		@ sp needed
 1833 0020 10BD     		pop	{r4, pc}
 1834              	.L159:
 1835 0022 C046     		.align	2
 1836              	.L158:
 1837 0024 0C020B40 		.word	1074463244
 1838 0028 FFFFFFE0 		.word	-520093697
 1839              		.cfi_endproc
 1840              	.LFE31:
 1841              		.size	CySysWdtSetToggleBit, .-CySysWdtSetToggleBit
 1842              		.section	.text.CySysWdtGetToggleBit,"ax",%progbits
 1843              		.align	2
 1844              		.global	CySysWdtGetToggleBit
 1845              		.code	16
 1846              		.thumb_func
 1847              		.type	CySysWdtGetToggleBit, %function
 1848              	CySysWdtGetToggleBit:
 1849              	.LFB32:
1399:.\Generated_Source\PSoC4/CyLFClk.c ****         return ((CY_SYS_WDT_CONFIG_REG >> CY_SYS_WDT_CONFIG_BITS2_POS) & CY_SYS_WDT_CONFIG_BITS2_MA
 1850              		.loc 1 1399 0
 1851              		.cfi_startproc
1400:.\Generated_Source\PSoC4/CyLFClk.c ****     }
 1852              		.loc 1 1400 0
 1853 0000 024B     		ldr	r3, .L161
 1854 0002 1868     		ldr	r0, [r3]
 1855 0004 C000     		lsl	r0, r0, #3
 1856 0006 C00E     		lsr	r0, r0, #27
1401:.\Generated_Source\PSoC4/CyLFClk.c **** 
 1857              		.loc 1 1401 0
 1858              		@ sp needed
ARM GAS  C:\Users\310295~1\AppData\Local\Temp\ccIU8zba.s 			page 83


 1859 0008 7047     		bx	lr
 1860              	.L162:
 1861 000a C046     		.align	2
 1862              	.L161:
 1863 000c 0C020B40 		.word	1074463244
 1864              		.cfi_endproc
 1865              	.LFE32:
 1866              		.size	CySysWdtGetToggleBit, .-CySysWdtGetToggleBit
 1867              		.section	.text.CySysWdtGetMatch,"ax",%progbits
 1868              		.align	2
 1869              		.global	CySysWdtGetMatch
 1870              		.code	16
 1871              		.thumb_func
 1872              		.type	CySysWdtGetMatch, %function
 1873              	CySysWdtGetMatch:
 1874              	.LFB33:
1417:.\Generated_Source\PSoC4/CyLFClk.c ****         CYASSERT((counterNum == CY_SYS_WDT_COUNTER0) ||
 1875              		.loc 1 1417 0
 1876              		.cfi_startproc
 1877              	.LVL177:
 1878 0000 10B5     		push	{r4, lr}
 1879              		.cfi_def_cfa_offset 8
 1880              		.cfi_offset 4, -8
 1881              		.cfi_offset 14, -4
 1882 0002 041E     		sub	r4, r0, #0
1418:.\Generated_Source\PSoC4/CyLFClk.c ****                  (counterNum == CY_SYS_WDT_COUNTER1));
 1883              		.loc 1 1418 0
 1884 0004 012C     		cmp	r4, #1
 1885 0006 02D9     		bls	.L164
1418:.\Generated_Source\PSoC4/CyLFClk.c ****                  (counterNum == CY_SYS_WDT_COUNTER1));
 1886              		.loc 1 1418 0 is_stmt 0 discriminator 1
 1887 0008 0020     		mov	r0, #0
 1888              	.LVL178:
 1889 000a FFF7FEFF 		bl	CyHalt
 1890              	.LVL179:
 1891              	.L164:
1421:.\Generated_Source\PSoC4/CyLFClk.c ****                                             (counterNum * CY_SYS_WDT_CNT_MATCH_SHIFT)) & CY_SYS_WDT
 1892              		.loc 1 1421 0 is_stmt 1
 1893 000e 034B     		ldr	r3, .L165
 1894 0010 1B68     		ldr	r3, [r3]
1422:.\Generated_Source\PSoC4/CyLFClk.c ****     }
 1895              		.loc 1 1422 0
 1896 0012 2401     		lsl	r4, r4, #4
 1897              	.LVL180:
1421:.\Generated_Source\PSoC4/CyLFClk.c ****                                             (counterNum * CY_SYS_WDT_CNT_MATCH_SHIFT)) & CY_SYS_WDT
 1898              		.loc 1 1421 0
 1899 0014 E340     		lsr	r3, r3, r4
 1900 0016 1804     		lsl	r0, r3, #16
 1901 0018 000C     		lsr	r0, r0, #16
1423:.\Generated_Source\PSoC4/CyLFClk.c **** 
 1902              		.loc 1 1423 0
 1903              		@ sp needed
 1904 001a 10BD     		pop	{r4, pc}
 1905              	.L166:
 1906              		.align	2
 1907              	.L165:
 1908 001c 08020B40 		.word	1074463240
ARM GAS  C:\Users\310295~1\AppData\Local\Temp\ccIU8zba.s 			page 84


 1909              		.cfi_endproc
 1910              	.LFE33:
 1911              		.size	CySysWdtGetMatch, .-CySysWdtGetMatch
 1912              		.section	.text.CySysWdtGetCount,"ax",%progbits
 1913              		.align	2
 1914              		.global	CySysWdtGetCount
 1915              		.code	16
 1916              		.thumb_func
 1917              		.type	CySysWdtGetCount, %function
 1918              	CySysWdtGetCount:
 1919              	.LFB34:
1439:.\Generated_Source\PSoC4/CyLFClk.c ****         uint32 regValue = 0u;
 1920              		.loc 1 1439 0
 1921              		.cfi_startproc
 1922              	.LVL181:
 1923 0000 08B5     		push	{r3, lr}
 1924              		.cfi_def_cfa_offset 8
 1925              		.cfi_offset 3, -8
 1926              		.cfi_offset 14, -4
 1927              	.LVL182:
1442:.\Generated_Source\PSoC4/CyLFClk.c ****         {
 1928              		.loc 1 1442 0
 1929 0002 0128     		cmp	r0, #1
 1930 0004 09D0     		beq	.L169
 1931 0006 0028     		cmp	r0, #0
 1932 0008 02D0     		beq	.L170
 1933 000a 0228     		cmp	r0, #2
 1934 000c 09D0     		beq	.L171
 1935 000e 0BE0     		b	.L173
 1936              	.L170:
1446:.\Generated_Source\PSoC4/CyLFClk.c ****             break;
 1937              		.loc 1 1446 0
 1938 0010 084B     		ldr	r3, .L174
 1939 0012 1868     		ldr	r0, [r3]
 1940              	.LVL183:
 1941 0014 0004     		lsl	r0, r0, #16
 1942 0016 000C     		lsr	r0, r0, #16
 1943              	.LVL184:
1447:.\Generated_Source\PSoC4/CyLFClk.c **** 
 1944              		.loc 1 1447 0
 1945 0018 0AE0     		b	.L172
 1946              	.LVL185:
 1947              	.L169:
1451:.\Generated_Source\PSoC4/CyLFClk.c ****             break;
 1948              		.loc 1 1451 0
 1949 001a 064B     		ldr	r3, .L174
 1950 001c 1868     		ldr	r0, [r3]
 1951              	.LVL186:
 1952 001e 000C     		lsr	r0, r0, #16
 1953              	.LVL187:
1452:.\Generated_Source\PSoC4/CyLFClk.c **** 
 1954              		.loc 1 1452 0
 1955 0020 06E0     		b	.L172
 1956              	.LVL188:
 1957              	.L171:
1456:.\Generated_Source\PSoC4/CyLFClk.c ****             break;
 1958              		.loc 1 1456 0
ARM GAS  C:\Users\310295~1\AppData\Local\Temp\ccIU8zba.s 			page 85


 1959 0022 054B     		ldr	r3, .L174+4
 1960 0024 1868     		ldr	r0, [r3]
 1961              	.LVL189:
1457:.\Generated_Source\PSoC4/CyLFClk.c **** 
 1962              		.loc 1 1457 0
 1963 0026 03E0     		b	.L172
 1964              	.LVL190:
 1965              	.L173:
1460:.\Generated_Source\PSoC4/CyLFClk.c ****             break;
 1966              		.loc 1 1460 0 discriminator 1
 1967 0028 0020     		mov	r0, #0
 1968              	.LVL191:
 1969 002a FFF7FEFF 		bl	CyHalt
 1970              	.LVL192:
1440:.\Generated_Source\PSoC4/CyLFClk.c **** 
 1971              		.loc 1 1440 0 discriminator 1
 1972 002e 0020     		mov	r0, #0
 1973              	.LVL193:
 1974              	.L172:
1465:.\Generated_Source\PSoC4/CyLFClk.c **** 
 1975              		.loc 1 1465 0
 1976              		@ sp needed
 1977 0030 08BD     		pop	{r3, pc}
 1978              	.L175:
 1979 0032 C046     		.align	2
 1980              	.L174:
 1981 0034 00020B40 		.word	1074463232
 1982 0038 04020B40 		.word	1074463236
 1983              		.cfi_endproc
 1984              	.LFE34:
 1985              		.size	CySysWdtGetCount, .-CySysWdtGetCount
 1986              		.section	.text.CySysClkLfclkPosedgeCatch,"ax",%progbits
 1987              		.align	2
 1988              		.code	16
 1989              		.thumb_func
 1990              		.type	CySysClkLfclkPosedgeCatch, %function
 1991              	CySysClkLfclkPosedgeCatch:
 1992              	.LFB44:
1841:.\Generated_Source\PSoC4/CyLFClk.c ****         uint32 firstCount;
 1993              		.loc 1 1841 0
 1994              		.cfi_startproc
 1995 0000 10B5     		push	{r4, lr}
 1996              		.cfi_def_cfa_offset 8
 1997              		.cfi_offset 4, -8
 1998              		.cfi_offset 14, -4
1845:.\Generated_Source\PSoC4/CyLFClk.c ****         {
 1999              		.loc 1 1845 0
 2000 0002 0020     		mov	r0, #0
 2001 0004 FFF7FEFF 		bl	CySysWdtGetEnabledStatus
 2002              	.LVL194:
 2003 0008 0028     		cmp	r0, #0
 2004 000a 03D0     		beq	.L177
1847:.\Generated_Source\PSoC4/CyLFClk.c ****         }
 2005              		.loc 1 1847 0
 2006 000c 0022     		mov	r2, #0
 2007 000e 184B     		ldr	r3, .L182
 2008 0010 5A61     		str	r2, [r3, #20]
ARM GAS  C:\Users\310295~1\AppData\Local\Temp\ccIU8zba.s 			page 86


 2009 0012 21E0     		b	.L178
 2010              	.L177:
1849:.\Generated_Source\PSoC4/CyLFClk.c ****         {
 2011              		.loc 1 1849 0
 2012 0014 0120     		mov	r0, #1
 2013 0016 FFF7FEFF 		bl	CySysWdtGetEnabledStatus
 2014              	.LVL195:
 2015 001a 0028     		cmp	r0, #0
 2016 001c 03D0     		beq	.L179
1851:.\Generated_Source\PSoC4/CyLFClk.c ****         }
 2017              		.loc 1 1851 0
 2018 001e 0122     		mov	r2, #1
 2019 0020 134B     		ldr	r3, .L182
 2020 0022 5A61     		str	r2, [r3, #20]
 2021 0024 18E0     		b	.L178
 2022              	.L179:
1853:.\Generated_Source\PSoC4/CyLFClk.c ****         {
 2023              		.loc 1 1853 0
 2024 0026 0220     		mov	r0, #2
 2025 0028 FFF7FEFF 		bl	CySysWdtGetEnabledStatus
 2026              	.LVL196:
 2027 002c 0028     		cmp	r0, #0
 2028 002e 03D0     		beq	.L180
1855:.\Generated_Source\PSoC4/CyLFClk.c ****         }
 2029              		.loc 1 1855 0
 2030 0030 0222     		mov	r2, #2
 2031 0032 0F4B     		ldr	r3, .L182
 2032 0034 5A61     		str	r2, [r3, #20]
 2033 0036 0FE0     		b	.L178
 2034              	.L180:
1860:.\Generated_Source\PSoC4/CyLFClk.c ****             lfclkPosedgeEnabledWdtCounter = CY_SYS_WDT_COUNTER0;
 2035              		.loc 1 1860 0
 2036 0038 0D4C     		ldr	r4, .L182
 2037 003a 0123     		mov	r3, #1
 2038 003c E360     		str	r3, [r4, #12]
1861:.\Generated_Source\PSoC4/CyLFClk.c **** 
 2039              		.loc 1 1861 0
 2040 003e 0023     		mov	r3, #0
 2041 0040 6361     		str	r3, [r4, #20]
1863:.\Generated_Source\PSoC4/CyLFClk.c ****             CySysWdtSetMode(CY_SYS_WDT_COUNTER0, CY_SYS_WDT_MODE_NONE);
 2042              		.loc 1 1863 0
 2043 0042 0020     		mov	r0, #0
 2044 0044 FFF7FEFF 		bl	CySysWdtGetMode
 2045              	.LVL197:
 2046 0048 2061     		str	r0, [r4, #16]
1864:.\Generated_Source\PSoC4/CyLFClk.c ****             CySysWdtEnable(CY_SYS_WDT_COUNTER0_MASK);
 2047              		.loc 1 1864 0
 2048 004a 0020     		mov	r0, #0
 2049 004c 0021     		mov	r1, #0
 2050 004e FFF7FEFF 		bl	CySysWdtSetMode
 2051              	.LVL198:
1865:.\Generated_Source\PSoC4/CyLFClk.c ****         }
 2052              		.loc 1 1865 0
 2053 0052 0120     		mov	r0, #1
 2054 0054 FFF7FEFF 		bl	CySysWdtEnable
 2055              	.LVL199:
 2056              	.L178:
ARM GAS  C:\Users\310295~1\AppData\Local\Temp\ccIU8zba.s 			page 87


1868:.\Generated_Source\PSoC4/CyLFClk.c ****         while (CySysWdtGetCount(lfclkPosedgeEnabledWdtCounter) == firstCount)
 2057              		.loc 1 1868 0
 2058 0058 054B     		ldr	r3, .L182
 2059 005a 5869     		ldr	r0, [r3, #20]
 2060 005c FFF7FEFF 		bl	CySysWdtGetCount
 2061              	.LVL200:
 2062 0060 041C     		mov	r4, r0
 2063              	.LVL201:
 2064              	.L181:
1869:.\Generated_Source\PSoC4/CyLFClk.c ****         {
 2065              		.loc 1 1869 0 discriminator 1
 2066 0062 034B     		ldr	r3, .L182
 2067 0064 5869     		ldr	r0, [r3, #20]
 2068 0066 FFF7FEFF 		bl	CySysWdtGetCount
 2069              	.LVL202:
 2070 006a A042     		cmp	r0, r4
 2071 006c F9D0     		beq	.L181
1873:.\Generated_Source\PSoC4/CyLFClk.c **** 
 2072              		.loc 1 1873 0
 2073              		@ sp needed
 2074              	.LVL203:
 2075 006e 10BD     		pop	{r4, pc}
 2076              	.L183:
 2077              		.align	2
 2078              	.L182:
 2079 0070 00000000 		.word	.LANCHOR0
 2080              		.cfi_endproc
 2081              	.LFE44:
 2082              		.size	CySysClkLfclkPosedgeCatch, .-CySysClkLfclkPosedgeCatch
 2083              		.section	.text.CySysClkIloStop,"ax",%progbits
 2084              		.align	2
 2085              		.global	CySysClkIloStop
 2086              		.code	16
 2087              		.thumb_func
 2088              		.type	CySysClkIloStop, %function
 2089              	CySysClkIloStop:
 2090              	.LFB3:
 109:.\Generated_Source\PSoC4/CyLFClk.c ****     #if(CY_IP_SRSSV2)
 2091              		.loc 1 109 0
 2092              		.cfi_startproc
 2093 0000 10B5     		push	{r4, lr}
 2094              		.cfi_def_cfa_offset 8
 2095              		.cfi_offset 4, -8
 2096              		.cfi_offset 14, -4
 114:.\Generated_Source\PSoC4/CyLFClk.c ****         {
 2097              		.loc 1 114 0
 2098 0002 FFF7FEFF 		bl	CySysWdtLocked
 2099              	.LVL204:
 2100 0006 0028     		cmp	r0, #0
 2101 0008 1CD1     		bne	.L184
 116:.\Generated_Source\PSoC4/CyLFClk.c ****             {
 2102              		.loc 1 116 0
 2103 000a FFF7FEFF 		bl	CySysClkIloEnabled
 2104              	.LVL205:
 2105 000e 0028     		cmp	r0, #0
 2106 0010 18D0     		beq	.L184
 120:.\Generated_Source\PSoC4/CyLFClk.c ****                 {
ARM GAS  C:\Users\310295~1\AppData\Local\Temp\ccIU8zba.s 			page 88


 2107              		.loc 1 120 0
 2108 0012 FFF7FEFF 		bl	CySysClkGetLfclkSource
 2109              	.LVL206:
 2110 0016 0028     		cmp	r0, #0
 2111 0018 0FD1     		bne	.L186
 124:.\Generated_Source\PSoC4/CyLFClk.c ****                 CySysClkLfclkPosedgeCatch();
 2112              		.loc 1 124 0
 2113 001a FFF7FEFF 		bl	CyEnterCriticalSection
 2114              	.LVL207:
 2115 001e 041C     		mov	r4, r0
 2116              	.LVL208:
 125:.\Generated_Source\PSoC4/CyLFClk.c ****                 CY_SYS_CLK_ILO_CONFIG_REG &= (uint32) ( ~(uint32)CY_SYS_CLK_ILO_CONFIG_ENABLE);
 2117              		.loc 1 125 0
 2118 0020 FFF7FEFF 		bl	CySysClkLfclkPosedgeCatch
 2119              	.LVL209:
 126:.\Generated_Source\PSoC4/CyLFClk.c ****                 CySysClkLfclkPosedgeRestore();
 2120              		.loc 1 126 0
 2121 0024 084A     		ldr	r2, .L187
 2122 0026 1368     		ldr	r3, [r2]
 2123 0028 5B00     		lsl	r3, r3, #1
 2124 002a 5B08     		lsr	r3, r3, #1
 2125 002c 1360     		str	r3, [r2]
 127:.\Generated_Source\PSoC4/CyLFClk.c ****                 CyExitCriticalSection(interruptState);
 2126              		.loc 1 127 0
 2127 002e FFF7FEFF 		bl	CySysClkLfclkPosedgeRestore
 2128              	.LVL210:
 128:.\Generated_Source\PSoC4/CyLFClk.c **** 
 2129              		.loc 1 128 0
 2130 0032 201C     		mov	r0, r4
 2131 0034 FFF7FEFF 		bl	CyExitCriticalSection
 2132              	.LVL211:
 2133 0038 04E0     		b	.L184
 2134              	.LVL212:
 2135              	.L186:
 134:.\Generated_Source\PSoC4/CyLFClk.c ****                 }
 2136              		.loc 1 134 0
 2137 003a 034A     		ldr	r2, .L187
 2138 003c 1368     		ldr	r3, [r2]
 2139 003e 5B00     		lsl	r3, r3, #1
 2140 0040 5B08     		lsr	r3, r3, #1
 2141 0042 1360     		str	r3, [r2]
 2142              	.L184:
 143:.\Generated_Source\PSoC4/CyLFClk.c **** 
 2143              		.loc 1 143 0
 2144              		@ sp needed
 2145 0044 10BD     		pop	{r4, pc}
 2146              	.L188:
 2147 0046 C046     		.align	2
 2148              	.L187:
 2149 0048 04010B40 		.word	1074462980
 2150              		.cfi_endproc
 2151              	.LFE3:
 2152              		.size	CySysClkIloStop, .-CySysClkIloStop
 2153              		.section	.text.CySysClkSetLfclkSource,"ax",%progbits
 2154              		.align	2
 2155              		.global	CySysClkSetLfclkSource
 2156              		.code	16
ARM GAS  C:\Users\310295~1\AppData\Local\Temp\ccIU8zba.s 			page 89


 2157              		.thumb_func
 2158              		.type	CySysClkSetLfclkSource, %function
 2159              	CySysClkSetLfclkSource:
 2160              	.LFB12:
 735:.\Generated_Source\PSoC4/CyLFClk.c ****         uint8  interruptState;
 2161              		.loc 1 735 0
 2162              		.cfi_startproc
 2163              	.LVL213:
 2164 0000 38B5     		push	{r3, r4, r5, lr}
 2165              		.cfi_def_cfa_offset 16
 2166              		.cfi_offset 3, -16
 2167              		.cfi_offset 4, -12
 2168              		.cfi_offset 5, -8
 2169              		.cfi_offset 14, -4
 2170 0002 041C     		mov	r4, r0
 738:.\Generated_Source\PSoC4/CyLFClk.c ****         {
 2171              		.loc 1 738 0
 2172 0004 FFF7FEFF 		bl	CySysClkGetLfclkSource
 2173              	.LVL214:
 2174 0008 A042     		cmp	r0, r4
 2175 000a 11D0     		beq	.L189
 740:.\Generated_Source\PSoC4/CyLFClk.c ****             CySysClkLfclkPosedgeCatch();
 2176              		.loc 1 740 0
 2177 000c FFF7FEFF 		bl	CyEnterCriticalSection
 2178              	.LVL215:
 2179 0010 051C     		mov	r5, r0
 2180              	.LVL216:
 741:.\Generated_Source\PSoC4/CyLFClk.c ****             CY_SYS_WDT_CONFIG_REG = (CY_SYS_WDT_CONFIG_REG & (uint32)(~CY_SYS_CLK_LFCLK_SEL_MASK)) 
 2181              		.loc 1 741 0
 2182 0012 FFF7FEFF 		bl	CySysClkLfclkPosedgeCatch
 2183              	.LVL217:
 742:.\Generated_Source\PSoC4/CyLFClk.c ****                                     (source & CY_SYS_CLK_LFCLK_SEL_MASK);
 2184              		.loc 1 742 0
 2185 0016 074A     		ldr	r2, .L191
 2186 0018 1368     		ldr	r3, [r2]
 2187 001a 9B00     		lsl	r3, r3, #2
 2188 001c 9B08     		lsr	r3, r3, #2
 743:.\Generated_Source\PSoC4/CyLFClk.c ****             CySysClkLfclkPosedgeRestore();
 2189              		.loc 1 743 0
 2190 001e A40F     		lsr	r4, r4, #30
 2191              	.LVL218:
 2192 0020 A407     		lsl	r4, r4, #30
 742:.\Generated_Source\PSoC4/CyLFClk.c ****                                     (source & CY_SYS_CLK_LFCLK_SEL_MASK);
 2193              		.loc 1 742 0
 2194 0022 1C43     		orr	r4, r3
 2195 0024 1460     		str	r4, [r2]
 744:.\Generated_Source\PSoC4/CyLFClk.c ****             CyExitCriticalSection(interruptState);
 2196              		.loc 1 744 0
 2197 0026 FFF7FEFF 		bl	CySysClkLfclkPosedgeRestore
 2198              	.LVL219:
 745:.\Generated_Source\PSoC4/CyLFClk.c ****         }
 2199              		.loc 1 745 0
 2200 002a 281C     		mov	r0, r5
 2201 002c FFF7FEFF 		bl	CyExitCriticalSection
 2202              	.LVL220:
 2203              	.L189:
 747:.\Generated_Source\PSoC4/CyLFClk.c **** #endif /* (CY_IP_WCO && CY_IP_SRSSV2) */
ARM GAS  C:\Users\310295~1\AppData\Local\Temp\ccIU8zba.s 			page 90


 2204              		.loc 1 747 0
 2205              		@ sp needed
 2206 0030 38BD     		pop	{r3, r4, r5, pc}
 2207              	.L192:
 2208 0032 C046     		.align	2
 2209              	.L191:
 2210 0034 0C020B40 		.word	1074463244
 2211              		.cfi_endproc
 2212              	.LFE12:
 2213              		.size	CySysClkSetLfclkSource, .-CySysClkSetLfclkSource
 2214              		.section	.text.CySysClkWcoStop,"ax",%progbits
 2215              		.align	2
 2216              		.global	CySysClkWcoStop
 2217              		.code	16
 2218              		.thumb_func
 2219              		.type	CySysClkWcoStop, %function
 2220              	CySysClkWcoStop:
 2221              	.LFB14:
 790:.\Generated_Source\PSoC4/CyLFClk.c ****         #if (CY_IP_SRSSV2)
 2222              		.loc 1 790 0
 2223              		.cfi_startproc
 2224 0000 10B5     		push	{r4, lr}
 2225              		.cfi_def_cfa_offset 8
 2226              		.cfi_offset 4, -8
 2227              		.cfi_offset 14, -4
 795:.\Generated_Source\PSoC4/CyLFClk.c ****         {
 2228              		.loc 1 795 0
 2229 0002 FFF7FEFF 		bl	CySysClkWcoEnabled
 2230              	.LVL221:
 2231 0006 0028     		cmp	r0, #0
 2232 0008 1AD0     		beq	.L193
 798:.\Generated_Source\PSoC4/CyLFClk.c ****                 {
 2233              		.loc 1 798 0
 2234 000a FFF7FEFF 		bl	CySysClkGetLfclkSource
 2235              	.LVL222:
 2236 000e 8023     		mov	r3, #128
 2237 0010 DB05     		lsl	r3, r3, #23
 2238 0012 9842     		cmp	r0, r3
 2239 0014 0FD1     		bne	.L195
 800:.\Generated_Source\PSoC4/CyLFClk.c ****                     CySysClkLfclkPosedgeCatch();
 2240              		.loc 1 800 0
 2241 0016 FFF7FEFF 		bl	CyEnterCriticalSection
 2242              	.LVL223:
 2243 001a 041C     		mov	r4, r0
 2244              	.LVL224:
 801:.\Generated_Source\PSoC4/CyLFClk.c ****                     CY_SYS_CLK_WCO_CONFIG_REG &= (uint32) ~CY_SYS_CLK_WCO_CONFIG_LPM_ENABLE;
 2245              		.loc 1 801 0
 2246 001c FFF7FEFF 		bl	CySysClkLfclkPosedgeCatch
 2247              	.LVL225:
 802:.\Generated_Source\PSoC4/CyLFClk.c ****                     CySysClkLfclkPosedgeRestore();
 2248              		.loc 1 802 0
 2249 0020 084A     		ldr	r2, .L196
 2250 0022 1368     		ldr	r3, [r2]
 2251 0024 5B00     		lsl	r3, r3, #1
 2252 0026 5B08     		lsr	r3, r3, #1
 2253 0028 1360     		str	r3, [r2]
 803:.\Generated_Source\PSoC4/CyLFClk.c ****                     CyExitCriticalSection(interruptState);
ARM GAS  C:\Users\310295~1\AppData\Local\Temp\ccIU8zba.s 			page 91


 2254              		.loc 1 803 0
 2255 002a FFF7FEFF 		bl	CySysClkLfclkPosedgeRestore
 2256              	.LVL226:
 804:.\Generated_Source\PSoC4/CyLFClk.c ****                 }
 2257              		.loc 1 804 0
 2258 002e 201C     		mov	r0, r4
 2259 0030 FFF7FEFF 		bl	CyExitCriticalSection
 2260              	.LVL227:
 2261 0034 04E0     		b	.L193
 2262              	.LVL228:
 2263              	.L195:
 809:.\Generated_Source\PSoC4/CyLFClk.c ****             }
 2264              		.loc 1 809 0
 2265 0036 034A     		ldr	r2, .L196
 2266 0038 1368     		ldr	r3, [r2]
 2267 003a 5B00     		lsl	r3, r3, #1
 2268 003c 5B08     		lsr	r3, r3, #1
 2269 003e 1360     		str	r3, [r2]
 2270              	.L193:
 812:.\Generated_Source\PSoC4/CyLFClk.c **** 
 2271              		.loc 1 812 0
 2272              		@ sp needed
 2273 0040 10BD     		pop	{r4, pc}
 2274              	.L197:
 2275 0042 C046     		.align	2
 2276              	.L196:
 2277 0044 00F02E40 		.word	1076817920
 2278              		.cfi_endproc
 2279              	.LFE14:
 2280              		.size	CySysClkWcoStop, .-CySysClkWcoStop
 2281              		.section	.text.CySysWdtGetInterruptSource,"ax",%progbits
 2282              		.align	2
 2283              		.global	CySysWdtGetInterruptSource
 2284              		.code	16
 2285              		.thumb_func
 2286              		.type	CySysWdtGetInterruptSource, %function
 2287              	CySysWdtGetInterruptSource:
 2288              	.LFB35:
1482:.\Generated_Source\PSoC4/CyLFClk.c ****         return (CY_SYS_WDT_CONTROL_REG & (CY_SYS_WDT_COUNTER0_INT | CY_SYS_WDT_COUNTER1_INT | CY_SY
 2289              		.loc 1 1482 0
 2290              		.cfi_startproc
1483:.\Generated_Source\PSoC4/CyLFClk.c ****     }
 2291              		.loc 1 1483 0
 2292 0000 024B     		ldr	r3, .L199
 2293 0002 1868     		ldr	r0, [r3]
 2294 0004 024B     		ldr	r3, .L199+4
 2295 0006 1840     		and	r0, r3
1484:.\Generated_Source\PSoC4/CyLFClk.c **** 
 2296              		.loc 1 1484 0
 2297              		@ sp needed
 2298 0008 7047     		bx	lr
 2299              	.L200:
 2300 000a C046     		.align	2
 2301              	.L199:
 2302 000c 10020B40 		.word	1074463248
 2303 0010 04040400 		.word	263172
 2304              		.cfi_endproc
ARM GAS  C:\Users\310295~1\AppData\Local\Temp\ccIU8zba.s 			page 92


 2305              	.LFE35:
 2306              		.size	CySysWdtGetInterruptSource, .-CySysWdtGetInterruptSource
 2307              		.section	.text.CySysWdtClearInterrupt,"ax",%progbits
 2308              		.align	2
 2309              		.global	CySysWdtClearInterrupt
 2310              		.code	16
 2311              		.thumb_func
 2312              		.type	CySysWdtClearInterrupt, %function
 2313              	CySysWdtClearInterrupt:
 2314              	.LFB36:
1511:.\Generated_Source\PSoC4/CyLFClk.c ****         uint8 interruptState;
 2315              		.loc 1 1511 0
 2316              		.cfi_startproc
 2317              	.LVL229:
 2318 0000 70B5     		push	{r4, r5, r6, lr}
 2319              		.cfi_def_cfa_offset 16
 2320              		.cfi_offset 4, -16
 2321              		.cfi_offset 5, -12
 2322              		.cfi_offset 6, -8
 2323              		.cfi_offset 14, -4
 2324 0002 061C     		mov	r6, r0
1515:.\Generated_Source\PSoC4/CyLFClk.c **** 
 2325              		.loc 1 1515 0
 2326 0004 FFF7FEFF 		bl	CyEnterCriticalSection
 2327              	.LVL230:
 2328 0008 041C     		mov	r4, r0
 2329              	.LVL231:
1517:.\Generated_Source\PSoC4/CyLFClk.c ****         {
 2330              		.loc 1 1517 0
 2331 000a FFF7FEFF 		bl	CySysWdtLocked
 2332              	.LVL232:
 2333 000e 0028     		cmp	r0, #0
 2334 0010 03D0     		beq	.L204
 2335              	.LVL233:
1520:.\Generated_Source\PSoC4/CyLFClk.c ****         }
 2336              		.loc 1 1520 0
 2337 0012 FFF7FEFF 		bl	CySysWdtUnlock
 2338              	.LVL234:
1519:.\Generated_Source\PSoC4/CyLFClk.c ****             CySysWdtUnlock();
 2339              		.loc 1 1519 0
 2340 0016 0125     		mov	r5, #1
 2341 0018 00E0     		b	.L202
 2342              	.LVL235:
 2343              	.L204:
1524:.\Generated_Source\PSoC4/CyLFClk.c ****         }
 2344              		.loc 1 1524 0
 2345 001a 0025     		mov	r5, #0
 2346              	.L202:
 2347              	.LVL236:
1528:.\Generated_Source\PSoC4/CyLFClk.c ****                         CY_SYS_WDT_COUNTER1_INT |
 2348              		.loc 1 1528 0
 2349 001c 0848     		ldr	r0, .L205
 2350 001e 331C     		mov	r3, r6
 2351 0020 0340     		and	r3, r0
 2352              	.LVL237:
1532:.\Generated_Source\PSoC4/CyLFClk.c ****                                                                            CY_SYS_WDT_COUNTER1_INT 
 2353              		.loc 1 1532 0
ARM GAS  C:\Users\310295~1\AppData\Local\Temp\ccIU8zba.s 			page 93


 2354 0022 084A     		ldr	r2, .L205+4
 2355 0024 1068     		ldr	r0, [r2]
 2356 0026 0849     		ldr	r1, .L205+8
 2357 0028 0840     		and	r0, r1
 2358 002a 1843     		orr	r0, r3
 2359 002c 1060     		str	r0, [r2]
1539:.\Generated_Source\PSoC4/CyLFClk.c **** 
 2360              		.loc 1 1539 0
 2361 002e 1368     		ldr	r3, [r2]
 2362              	.LVL238:
1541:.\Generated_Source\PSoC4/CyLFClk.c ****         {
 2363              		.loc 1 1541 0
 2364 0030 012D     		cmp	r5, #1
 2365 0032 01D1     		bne	.L203
1543:.\Generated_Source\PSoC4/CyLFClk.c ****         }
 2366              		.loc 1 1543 0
 2367 0034 FFF7FEFF 		bl	CySysWdtLock
 2368              	.LVL239:
 2369              	.L203:
1546:.\Generated_Source\PSoC4/CyLFClk.c ****     }
 2370              		.loc 1 1546 0
 2371 0038 201C     		mov	r0, r4
 2372 003a FFF7FEFF 		bl	CyExitCriticalSection
 2373              	.LVL240:
1547:.\Generated_Source\PSoC4/CyLFClk.c **** 
 2374              		.loc 1 1547 0
 2375              		@ sp needed
 2376              	.LVL241:
 2377              	.LVL242:
 2378              	.LVL243:
 2379 003e 70BD     		pop	{r4, r5, r6, pc}
 2380              	.L206:
 2381              		.align	2
 2382              	.L205:
 2383 0040 04040400 		.word	263172
 2384 0044 10020B40 		.word	1074463248
 2385 0048 FBFBFBFF 		.word	-263173
 2386              		.cfi_endproc
 2387              	.LFE36:
 2388              		.size	CySysWdtClearInterrupt, .-CySysWdtClearInterrupt
 2389              		.section	.text.CySysWdtResetCounters,"ax",%progbits
 2390              		.align	2
 2391              		.global	CySysWdtResetCounters
 2392              		.code	16
 2393              		.thumb_func
 2394              		.type	CySysWdtResetCounters, %function
 2395              	CySysWdtResetCounters:
 2396              	.LFB37:
1569:.\Generated_Source\PSoC4/CyLFClk.c ****         /* Set new WDT reset value */
 2397              		.loc 1 1569 0
 2398              		.cfi_startproc
 2399              	.LVL244:
1571:.\Generated_Source\PSoC4/CyLFClk.c **** 
 2400              		.loc 1 1571 0
 2401 0000 054A     		ldr	r2, .L209
 2402 0002 1168     		ldr	r1, [r2]
 2403 0004 054B     		ldr	r3, .L209+4
ARM GAS  C:\Users\310295~1\AppData\Local\Temp\ccIU8zba.s 			page 94


 2404 0006 1840     		and	r0, r3
 2405              	.LVL245:
 2406 0008 0843     		orr	r0, r1
 2407 000a 1060     		str	r0, [r2]
 2408              	.L208:
1573:.\Generated_Source\PSoC4/CyLFClk.c ****         {
 2409              		.loc 1 1573 0 discriminator 1
 2410 000c 024B     		ldr	r3, .L209
 2411 000e 1A68     		ldr	r2, [r3]
 2412 0010 024B     		ldr	r3, .L209+4
 2413 0012 1A42     		tst	r2, r3
 2414 0014 FAD1     		bne	.L208
1577:.\Generated_Source\PSoC4/CyLFClk.c **** 
 2415              		.loc 1 1577 0
 2416              		@ sp needed
 2417 0016 7047     		bx	lr
 2418              	.L210:
 2419              		.align	2
 2420              	.L209:
 2421 0018 10020B40 		.word	1074463248
 2422 001c 08080800 		.word	526344
 2423              		.cfi_endproc
 2424              	.LFE37:
 2425              		.size	CySysWdtResetCounters, .-CySysWdtResetCounters
 2426              		.section	.text.CySysWdtSetInterruptCallback,"ax",%progbits
 2427              		.align	2
 2428              		.global	CySysWdtSetInterruptCallback
 2429              		.code	16
 2430              		.thumb_func
 2431              		.type	CySysWdtSetInterruptCallback, %function
 2432              	CySysWdtSetInterruptCallback:
 2433              	.LFB38:
1595:.\Generated_Source\PSoC4/CyLFClk.c ****         cyWdtCallback prevCallback = (void *)0;
 2434              		.loc 1 1595 0
 2435              		.cfi_startproc
 2436              	.LVL246:
 2437 0000 08B5     		push	{r3, lr}
 2438              		.cfi_def_cfa_offset 8
 2439              		.cfi_offset 3, -8
 2440              		.cfi_offset 14, -4
 2441              	.LVL247:
1598:.\Generated_Source\PSoC4/CyLFClk.c ****         {
 2442              		.loc 1 1598 0
 2443 0002 0228     		cmp	r0, #2
 2444 0004 05D8     		bhi	.L212
1600:.\Generated_Source\PSoC4/CyLFClk.c ****             cySysWdtCallback[counterNum] = function;
 2445              		.loc 1 1600 0
 2446 0006 8000     		lsl	r0, r0, #2
 2447              	.LVL248:
 2448 0008 044B     		ldr	r3, .L214
 2449 000a 1B18     		add	r3, r3, r0
 2450 000c 9869     		ldr	r0, [r3, #24]
 2451              	.LVL249:
1601:.\Generated_Source\PSoC4/CyLFClk.c ****         }
 2452              		.loc 1 1601 0
 2453 000e 9961     		str	r1, [r3, #24]
 2454 0010 03E0     		b	.L213
ARM GAS  C:\Users\310295~1\AppData\Local\Temp\ccIU8zba.s 			page 95


 2455              	.LVL250:
 2456              	.L212:
1605:.\Generated_Source\PSoC4/CyLFClk.c ****         }
 2457              		.loc 1 1605 0 discriminator 1
 2458 0012 0020     		mov	r0, #0
 2459              	.LVL251:
 2460 0014 FFF7FEFF 		bl	CyHalt
 2461              	.LVL252:
1596:.\Generated_Source\PSoC4/CyLFClk.c **** 
 2462              		.loc 1 1596 0 discriminator 1
 2463 0018 0020     		mov	r0, #0
 2464              	.LVL253:
 2465              	.L213:
1609:.\Generated_Source\PSoC4/CyLFClk.c **** 
 2466              		.loc 1 1609 0
 2467              		@ sp needed
 2468 001a 08BD     		pop	{r3, pc}
 2469              	.L215:
 2470              		.align	2
 2471              	.L214:
 2472 001c 00000000 		.word	.LANCHOR0
 2473              		.cfi_endproc
 2474              	.LFE38:
 2475              		.size	CySysWdtSetInterruptCallback, .-CySysWdtSetInterruptCallback
 2476              		.section	.text.CySysWdtGetInterruptCallback,"ax",%progbits
 2477              		.align	2
 2478              		.global	CySysWdtGetInterruptCallback
 2479              		.code	16
 2480              		.thumb_func
 2481              		.type	CySysWdtGetInterruptCallback, %function
 2482              	CySysWdtGetInterruptCallback:
 2483              	.LFB39:
1625:.\Generated_Source\PSoC4/CyLFClk.c ****         cyWdtCallback retCallback = (void *)0;
 2484              		.loc 1 1625 0
 2485              		.cfi_startproc
 2486              	.LVL254:
 2487 0000 08B5     		push	{r3, lr}
 2488              		.cfi_def_cfa_offset 8
 2489              		.cfi_offset 3, -8
 2490              		.cfi_offset 14, -4
 2491              	.LVL255:
1628:.\Generated_Source\PSoC4/CyLFClk.c ****         {
 2492              		.loc 1 1628 0
 2493 0002 0228     		cmp	r0, #2
 2494 0004 04D8     		bhi	.L217
1630:.\Generated_Source\PSoC4/CyLFClk.c ****         }
 2495              		.loc 1 1630 0
 2496 0006 8000     		lsl	r0, r0, #2
 2497              	.LVL256:
 2498 0008 044B     		ldr	r3, .L219
 2499 000a 1818     		add	r0, r3, r0
 2500 000c 8069     		ldr	r0, [r0, #24]
 2501              	.LVL257:
 2502 000e 03E0     		b	.L218
 2503              	.LVL258:
 2504              	.L217:
1634:.\Generated_Source\PSoC4/CyLFClk.c ****         }
ARM GAS  C:\Users\310295~1\AppData\Local\Temp\ccIU8zba.s 			page 96


 2505              		.loc 1 1634 0 discriminator 1
 2506 0010 0020     		mov	r0, #0
 2507              	.LVL259:
 2508 0012 FFF7FEFF 		bl	CyHalt
 2509              	.LVL260:
1626:.\Generated_Source\PSoC4/CyLFClk.c **** 
 2510              		.loc 1 1626 0 discriminator 1
 2511 0016 0020     		mov	r0, #0
 2512              	.LVL261:
 2513              	.L218:
1638:.\Generated_Source\PSoC4/CyLFClk.c **** 
 2514              		.loc 1 1638 0
 2515              		@ sp needed
 2516 0018 08BD     		pop	{r3, pc}
 2517              	.L220:
 2518 001a C046     		.align	2
 2519              	.L219:
 2520 001c 00000000 		.word	.LANCHOR0
 2521              		.cfi_endproc
 2522              	.LFE39:
 2523              		.size	CySysWdtGetInterruptCallback, .-CySysWdtGetInterruptCallback
 2524              		.section	.text.CySysWdtEnableCounterIsr,"ax",%progbits
 2525              		.align	2
 2526              		.global	CySysWdtEnableCounterIsr
 2527              		.code	16
 2528              		.thumb_func
 2529              		.type	CySysWdtEnableCounterIsr, %function
 2530              	CySysWdtEnableCounterIsr:
 2531              	.LFB40:
1654:.\Generated_Source\PSoC4/CyLFClk.c ****         if(counterNum <= CY_SYS_WDT_COUNTER2)
 2532              		.loc 1 1654 0
 2533              		.cfi_startproc
 2534              	.LVL262:
 2535 0000 08B5     		push	{r3, lr}
 2536              		.cfi_def_cfa_offset 8
 2537              		.cfi_offset 3, -8
 2538              		.cfi_offset 14, -4
1655:.\Generated_Source\PSoC4/CyLFClk.c ****         {
 2539              		.loc 1 1655 0
 2540 0002 0228     		cmp	r0, #2
 2541 0004 0BD8     		bhi	.L222
1657:.\Generated_Source\PSoC4/CyLFClk.c ****             wdtIsrMask |= counterIntMaskTbl[counterNum];
 2542              		.loc 1 1657 0
 2543 0006 8000     		lsl	r0, r0, #2
 2544              	.LVL263:
 2545 0008 074B     		ldr	r3, .L224
 2546 000a C158     		ldr	r1, [r0, r3]
 2547 000c 074B     		ldr	r3, .L224+4
 2548 000e 5A6A     		ldr	r2, [r3, #36]
 2549 0010 8A43     		bic	r2, r1
 2550 0012 5A62     		str	r2, [r3, #36]
1658:.\Generated_Source\PSoC4/CyLFClk.c ****         }
 2551              		.loc 1 1658 0
 2552 0014 064A     		ldr	r2, .L224+8
 2553 0016 5368     		ldr	r3, [r2, #4]
 2554 0018 0B43     		orr	r3, r1
 2555 001a 5360     		str	r3, [r2, #4]
ARM GAS  C:\Users\310295~1\AppData\Local\Temp\ccIU8zba.s 			page 97


 2556 001c 02E0     		b	.L221
 2557              	.LVL264:
 2558              	.L222:
1662:.\Generated_Source\PSoC4/CyLFClk.c ****         }
 2559              		.loc 1 1662 0 discriminator 1
 2560 001e 0020     		mov	r0, #0
 2561              	.LVL265:
 2562 0020 FFF7FEFF 		bl	CyHalt
 2563              	.LVL266:
 2564              	.L221:
1664:.\Generated_Source\PSoC4/CyLFClk.c **** 
 2565              		.loc 1 1664 0
 2566              		@ sp needed
 2567 0024 08BD     		pop	{r3, pc}
 2568              	.L225:
 2569 0026 C046     		.align	2
 2570              	.L224:
 2571 0028 00000000 		.word	.LANCHOR2
 2572 002c 00000000 		.word	.LANCHOR0
 2573 0030 00000000 		.word	.LANCHOR1
 2574              		.cfi_endproc
 2575              	.LFE40:
 2576              		.size	CySysWdtEnableCounterIsr, .-CySysWdtEnableCounterIsr
 2577              		.section	.text.CySysWdtDisableCounterIsr,"ax",%progbits
 2578              		.align	2
 2579              		.global	CySysWdtDisableCounterIsr
 2580              		.code	16
 2581              		.thumb_func
 2582              		.type	CySysWdtDisableCounterIsr, %function
 2583              	CySysWdtDisableCounterIsr:
 2584              	.LFB41:
1677:.\Generated_Source\PSoC4/CyLFClk.c ****         if(counterNum <= CY_SYS_WDT_COUNTER2)
 2585              		.loc 1 1677 0
 2586              		.cfi_startproc
 2587              	.LVL267:
 2588 0000 08B5     		push	{r3, lr}
 2589              		.cfi_def_cfa_offset 8
 2590              		.cfi_offset 3, -8
 2591              		.cfi_offset 14, -4
1678:.\Generated_Source\PSoC4/CyLFClk.c ****         {
 2592              		.loc 1 1678 0
 2593 0002 0228     		cmp	r0, #2
 2594 0004 07D8     		bhi	.L227
1680:.\Generated_Source\PSoC4/CyLFClk.c ****         }
 2595              		.loc 1 1680 0
 2596 0006 8000     		lsl	r0, r0, #2
 2597              	.LVL268:
 2598 0008 054B     		ldr	r3, .L229
 2599 000a C158     		ldr	r1, [r0, r3]
 2600 000c 054A     		ldr	r2, .L229+4
 2601 000e 5368     		ldr	r3, [r2, #4]
 2602 0010 8B43     		bic	r3, r1
 2603 0012 5360     		str	r3, [r2, #4]
 2604 0014 02E0     		b	.L226
 2605              	.LVL269:
 2606              	.L227:
1684:.\Generated_Source\PSoC4/CyLFClk.c ****         }
ARM GAS  C:\Users\310295~1\AppData\Local\Temp\ccIU8zba.s 			page 98


 2607              		.loc 1 1684 0 discriminator 1
 2608 0016 0020     		mov	r0, #0
 2609              	.LVL270:
 2610 0018 FFF7FEFF 		bl	CyHalt
 2611              	.LVL271:
 2612              	.L226:
1686:.\Generated_Source\PSoC4/CyLFClk.c **** 
 2613              		.loc 1 1686 0
 2614              		@ sp needed
 2615 001c 08BD     		pop	{r3, pc}
 2616              	.L230:
 2617 001e C046     		.align	2
 2618              	.L229:
 2619 0020 00000000 		.word	.LANCHOR2
 2620 0024 00000000 		.word	.LANCHOR1
 2621              		.cfi_endproc
 2622              	.LFE41:
 2623              		.size	CySysWdtDisableCounterIsr, .-CySysWdtDisableCounterIsr
 2624              		.section	.text.CySysWdtIsr,"ax",%progbits
 2625              		.align	2
 2626              		.global	CySysWdtIsr
 2627              		.code	16
 2628              		.thumb_func
 2629              		.type	CySysWdtIsr, %function
 2630              	CySysWdtIsr:
 2631              	.LFB42:
1710:.\Generated_Source\PSoC4/CyLFClk.c ****         if(0u != (CY_SYS_WDT_COUNTER0_INT & CY_SYS_WDT_CONTROL_REG))
 2632              		.loc 1 1710 0
 2633              		.cfi_startproc
 2634 0000 10B5     		push	{r4, lr}
 2635              		.cfi_def_cfa_offset 8
 2636              		.cfi_offset 4, -8
 2637              		.cfi_offset 14, -4
1711:.\Generated_Source\PSoC4/CyLFClk.c ****         {
 2638              		.loc 1 1711 0
 2639 0002 244B     		ldr	r3, .L238
 2640 0004 1B68     		ldr	r3, [r3]
 2641 0006 5B07     		lsl	r3, r3, #29
 2642 0008 15D5     		bpl	.L232
1713:.\Generated_Source\PSoC4/CyLFClk.c ****             {
 2643              		.loc 1 1713 0
 2644 000a 234B     		ldr	r3, .L238+4
 2645 000c 5B68     		ldr	r3, [r3, #4]
 2646 000e 5B07     		lsl	r3, r3, #29
 2647 0010 0ED5     		bpl	.L233
1715:.\Generated_Source\PSoC4/CyLFClk.c ****                 disableServicedIsr  &= ~CY_SYS_WDT_COUNTER0_INT;
 2648              		.loc 1 1715 0
 2649 0012 224B     		ldr	r3, .L238+8
 2650 0014 596A     		ldr	r1, [r3, #36]
 2651 0016 0420     		mov	r0, #4
 2652 0018 0140     		and	r1, r0
 2653 001a 1F4C     		ldr	r4, .L238+4
 2654 001c 6268     		ldr	r2, [r4, #4]
 2655 001e 8A43     		bic	r2, r1
 2656 0020 6260     		str	r2, [r4, #4]
1716:.\Generated_Source\PSoC4/CyLFClk.c ****                 if(cySysWdtCallback[CY_SYS_WDT_COUNTER0] != (void *) 0)
 2657              		.loc 1 1716 0
ARM GAS  C:\Users\310295~1\AppData\Local\Temp\ccIU8zba.s 			page 99


 2658 0022 5A6A     		ldr	r2, [r3, #36]
 2659 0024 8243     		bic	r2, r0
 2660 0026 5A62     		str	r2, [r3, #36]
1717:.\Generated_Source\PSoC4/CyLFClk.c ****                 {
 2661              		.loc 1 1717 0
 2662 0028 9B69     		ldr	r3, [r3, #24]
 2663 002a 002B     		cmp	r3, #0
 2664 002c 00D0     		beq	.L233
1719:.\Generated_Source\PSoC4/CyLFClk.c ****                 }
 2665              		.loc 1 1719 0
 2666 002e 9847     		blx	r3
 2667              	.LVL272:
 2668              	.L233:
1722:.\Generated_Source\PSoC4/CyLFClk.c ****         }
 2669              		.loc 1 1722 0
 2670 0030 0420     		mov	r0, #4
 2671 0032 FFF7FEFF 		bl	CySysWdtClearInterrupt
 2672              	.LVL273:
 2673              	.L232:
1725:.\Generated_Source\PSoC4/CyLFClk.c ****         {
 2674              		.loc 1 1725 0
 2675 0036 174B     		ldr	r3, .L238
 2676 0038 1B68     		ldr	r3, [r3]
 2677 003a 5B05     		lsl	r3, r3, #21
 2678 003c 18D5     		bpl	.L234
1727:.\Generated_Source\PSoC4/CyLFClk.c ****             {
 2679              		.loc 1 1727 0
 2680 003e 164B     		ldr	r3, .L238+4
 2681 0040 5B68     		ldr	r3, [r3, #4]
 2682 0042 5B05     		lsl	r3, r3, #21
 2683 0044 10D5     		bpl	.L235
1729:.\Generated_Source\PSoC4/CyLFClk.c ****                 disableServicedIsr  &= ~CY_SYS_WDT_COUNTER1_INT;
 2684              		.loc 1 1729 0
 2685 0046 154B     		ldr	r3, .L238+8
 2686 0048 596A     		ldr	r1, [r3, #36]
 2687 004a 8022     		mov	r2, #128
 2688 004c D200     		lsl	r2, r2, #3
 2689 004e 1140     		and	r1, r2
 2690 0050 1148     		ldr	r0, .L238+4
 2691 0052 4268     		ldr	r2, [r0, #4]
 2692 0054 8A43     		bic	r2, r1
 2693 0056 4260     		str	r2, [r0, #4]
1730:.\Generated_Source\PSoC4/CyLFClk.c ****                 if(cySysWdtCallback[CY_SYS_WDT_COUNTER1] != (void *) 0)
 2694              		.loc 1 1730 0
 2695 0058 596A     		ldr	r1, [r3, #36]
 2696 005a 114A     		ldr	r2, .L238+12
 2697 005c 0A40     		and	r2, r1
 2698 005e 5A62     		str	r2, [r3, #36]
1731:.\Generated_Source\PSoC4/CyLFClk.c ****                 {
 2699              		.loc 1 1731 0
 2700 0060 DB69     		ldr	r3, [r3, #28]
 2701 0062 002B     		cmp	r3, #0
 2702 0064 00D0     		beq	.L235
1733:.\Generated_Source\PSoC4/CyLFClk.c ****                 }
 2703              		.loc 1 1733 0
 2704 0066 9847     		blx	r3
 2705              	.LVL274:
ARM GAS  C:\Users\310295~1\AppData\Local\Temp\ccIU8zba.s 			page 100


 2706              	.L235:
1736:.\Generated_Source\PSoC4/CyLFClk.c ****         }
 2707              		.loc 1 1736 0
 2708 0068 8020     		mov	r0, #128
 2709 006a C000     		lsl	r0, r0, #3
 2710 006c FFF7FEFF 		bl	CySysWdtClearInterrupt
 2711              	.LVL275:
 2712              	.L234:
1739:.\Generated_Source\PSoC4/CyLFClk.c ****         {
 2713              		.loc 1 1739 0
 2714 0070 084B     		ldr	r3, .L238
 2715 0072 1B68     		ldr	r3, [r3]
 2716 0074 5B03     		lsl	r3, r3, #13
 2717 0076 0CD5     		bpl	.L231
1741:.\Generated_Source\PSoC4/CyLFClk.c ****             {
 2718              		.loc 1 1741 0
 2719 0078 074B     		ldr	r3, .L238+4
 2720 007a 5B68     		ldr	r3, [r3, #4]
 2721 007c 5B03     		lsl	r3, r3, #13
 2722 007e 04D5     		bpl	.L237
1743:.\Generated_Source\PSoC4/CyLFClk.c ****                 {
 2723              		.loc 1 1743 0
 2724 0080 064B     		ldr	r3, .L238+8
 2725 0082 1B6A     		ldr	r3, [r3, #32]
 2726 0084 002B     		cmp	r3, #0
 2727 0086 00D0     		beq	.L237
1745:.\Generated_Source\PSoC4/CyLFClk.c ****                 }
 2728              		.loc 1 1745 0
 2729 0088 9847     		blx	r3
 2730              	.LVL276:
 2731              	.L237:
1748:.\Generated_Source\PSoC4/CyLFClk.c ****         }
 2732              		.loc 1 1748 0
 2733 008a 8020     		mov	r0, #128
 2734 008c C002     		lsl	r0, r0, #11
 2735 008e FFF7FEFF 		bl	CySysWdtClearInterrupt
 2736              	.LVL277:
 2737              	.L231:
1750:.\Generated_Source\PSoC4/CyLFClk.c **** 
 2738              		.loc 1 1750 0
 2739              		@ sp needed
 2740 0092 10BD     		pop	{r4, pc}
 2741              	.L239:
 2742              		.align	2
 2743              	.L238:
 2744 0094 10020B40 		.word	1074463248
 2745 0098 00000000 		.word	.LANCHOR1
 2746 009c 00000000 		.word	.LANCHOR0
 2747 00a0 FFFBFFFF 		.word	-1025
 2748              		.cfi_endproc
 2749              	.LFE42:
 2750              		.size	CySysWdtIsr, .-CySysWdtIsr
 2751              		.section	.text.CySysWatchdogFeed,"ax",%progbits
 2752              		.align	2
 2753              		.global	CySysWatchdogFeed
 2754              		.code	16
 2755              		.thumb_func
ARM GAS  C:\Users\310295~1\AppData\Local\Temp\ccIU8zba.s 			page 101


 2756              		.type	CySysWatchdogFeed, %function
 2757              	CySysWatchdogFeed:
 2758              	.LFB43:
1775:.\Generated_Source\PSoC4/CyLFClk.c ****         if(counterNum == CY_SYS_WDT_COUNTER0)
 2759              		.loc 1 1775 0
 2760              		.cfi_startproc
 2761              	.LVL278:
 2762 0000 10B5     		push	{r4, lr}
 2763              		.cfi_def_cfa_offset 8
 2764              		.cfi_offset 4, -8
 2765              		.cfi_offset 14, -4
 2766 0002 041E     		sub	r4, r0, #0
1776:.\Generated_Source\PSoC4/CyLFClk.c ****         {
 2767              		.loc 1 1776 0
 2768 0004 13D1     		bne	.L241
1778:.\Generated_Source\PSoC4/CyLFClk.c ****             {
 2769              		.loc 1 1778 0
 2770 0006 FFF7FEFF 		bl	CySysWdtGetMode
 2771              	.LVL279:
 2772 000a 0328     		cmp	r0, #3
 2773 000c 03D1     		bne	.L242
1780:.\Generated_Source\PSoC4/CyLFClk.c ****             }
 2774              		.loc 1 1780 0
 2775 000e 0130     		add	r0, r0, #1
 2776 0010 FFF7FEFF 		bl	CySysWdtClearInterrupt
 2777              	.LVL280:
 2778 0014 23E0     		b	.L240
 2779              	.L242:
1782:.\Generated_Source\PSoC4/CyLFClk.c ****             {
 2780              		.loc 1 1782 0
 2781 0016 201C     		mov	r0, r4
 2782 0018 FFF7FEFF 		bl	CySysWdtGetMode
 2783              	.LVL281:
 2784 001c 0228     		cmp	r0, #2
 2785 001e 1ED1     		bne	.L240
1784:.\Generated_Source\PSoC4/CyLFClk.c ****                 CySysWdtClearInterrupt(CY_SYS_WDT_COUNTER0_INT);
 2786              		.loc 1 1784 0
 2787 0020 0630     		add	r0, r0, #6
 2788 0022 FFF7FEFF 		bl	CySysWdtResetCounters
 2789              	.LVL282:
1785:.\Generated_Source\PSoC4/CyLFClk.c ****             }
 2790              		.loc 1 1785 0
 2791 0026 0420     		mov	r0, #4
 2792 0028 FFF7FEFF 		bl	CySysWdtClearInterrupt
 2793              	.LVL283:
 2794 002c 17E0     		b	.L240
 2795              	.LVL284:
 2796              	.L241:
1792:.\Generated_Source\PSoC4/CyLFClk.c ****         {
 2797              		.loc 1 1792 0
 2798 002e 0128     		cmp	r0, #1
 2799 0030 15D1     		bne	.L240
1794:.\Generated_Source\PSoC4/CyLFClk.c ****             {
 2800              		.loc 1 1794 0
 2801 0032 FFF7FEFF 		bl	CySysWdtGetMode
 2802              	.LVL285:
 2803 0036 0328     		cmp	r0, #3
ARM GAS  C:\Users\310295~1\AppData\Local\Temp\ccIU8zba.s 			page 102


 2804 0038 04D1     		bne	.L244
1796:.\Generated_Source\PSoC4/CyLFClk.c ****             }
 2805              		.loc 1 1796 0
 2806 003a 8020     		mov	r0, #128
 2807 003c C000     		lsl	r0, r0, #3
 2808 003e FFF7FEFF 		bl	CySysWdtClearInterrupt
 2809              	.LVL286:
 2810 0042 0CE0     		b	.L240
 2811              	.L244:
1798:.\Generated_Source\PSoC4/CyLFClk.c ****             {
 2812              		.loc 1 1798 0
 2813 0044 201C     		mov	r0, r4
 2814 0046 FFF7FEFF 		bl	CySysWdtGetMode
 2815              	.LVL287:
 2816 004a 0228     		cmp	r0, #2
 2817 004c 07D1     		bne	.L240
1800:.\Generated_Source\PSoC4/CyLFClk.c ****                 CySysWdtClearInterrupt(CY_SYS_WDT_COUNTER1_INT);
 2818              		.loc 1 1800 0
 2819 004e 8020     		mov	r0, #128
 2820 0050 0001     		lsl	r0, r0, #4
 2821 0052 FFF7FEFF 		bl	CySysWdtResetCounters
 2822              	.LVL288:
1801:.\Generated_Source\PSoC4/CyLFClk.c ****             }
 2823              		.loc 1 1801 0
 2824 0056 8020     		mov	r0, #128
 2825 0058 C000     		lsl	r0, r0, #3
 2826 005a FFF7FEFF 		bl	CySysWdtClearInterrupt
 2827              	.LVL289:
 2828              	.L240:
1812:.\Generated_Source\PSoC4/CyLFClk.c **** 
 2829              		.loc 1 1812 0
 2830              		@ sp needed
 2831              	.LVL290:
 2832 005e 10BD     		pop	{r4, pc}
 2833              		.cfi_endproc
 2834              	.LFE43:
 2835              		.size	CySysWatchdogFeed, .-CySysWatchdogFeed
 2836              		.section	.text.CySysTimerDelayUntilMatch,"ax",%progbits
 2837              		.align	2
 2838              		.global	CySysTimerDelayUntilMatch
 2839              		.code	16
 2840              		.thumb_func
 2841              		.type	CySysTimerDelayUntilMatch, %function
 2842              	CySysTimerDelayUntilMatch:
 2843              	.LFB47:
1904:.\Generated_Source\PSoC4/CyLFClk.c **** 
1905:.\Generated_Source\PSoC4/CyLFClk.c **** #else
1906:.\Generated_Source\PSoC4/CyLFClk.c **** 
1907:.\Generated_Source\PSoC4/CyLFClk.c ****     /*******************************************************************************
1908:.\Generated_Source\PSoC4/CyLFClk.c ****     * Function Name: CySysWdtGetEnabledStatus
1909:.\Generated_Source\PSoC4/CyLFClk.c ****     ****************************************************************************//**
1910:.\Generated_Source\PSoC4/CyLFClk.c ****     *
1911:.\Generated_Source\PSoC4/CyLFClk.c ****     * \brief Reads the enabled status of the WDT counter.
1912:.\Generated_Source\PSoC4/CyLFClk.c ****     *
1913:.\Generated_Source\PSoC4/CyLFClk.c ****     * \return The status of the WDT counter:
1914:.\Generated_Source\PSoC4/CyLFClk.c ****     * \return 0 - Counter is disabled
1915:.\Generated_Source\PSoC4/CyLFClk.c ****     * \return 1 - Counter is enabled
ARM GAS  C:\Users\310295~1\AppData\Local\Temp\ccIU8zba.s 			page 103


1916:.\Generated_Source\PSoC4/CyLFClk.c ****     *
1917:.\Generated_Source\PSoC4/CyLFClk.c ****     *******************************************************************************/
1918:.\Generated_Source\PSoC4/CyLFClk.c ****     uint32 CySysWdtGetEnabledStatus(void)
1919:.\Generated_Source\PSoC4/CyLFClk.c ****     {
1920:.\Generated_Source\PSoC4/CyLFClk.c ****         return ((CY_SYS_WDT_DISABLE_KEY_REG == CY_SYS_WDT_KEY) ? (uint32) 0u : (uint32) 1u);
1921:.\Generated_Source\PSoC4/CyLFClk.c ****     }
1922:.\Generated_Source\PSoC4/CyLFClk.c **** 
1923:.\Generated_Source\PSoC4/CyLFClk.c **** 
1924:.\Generated_Source\PSoC4/CyLFClk.c ****     /*******************************************************************************
1925:.\Generated_Source\PSoC4/CyLFClk.c ****     * Function Name: CySysWdtEnable
1926:.\Generated_Source\PSoC4/CyLFClk.c ****     ****************************************************************************//**
1927:.\Generated_Source\PSoC4/CyLFClk.c ****     *
1928:.\Generated_Source\PSoC4/CyLFClk.c ****     * \brief
1929:.\Generated_Source\PSoC4/CyLFClk.c ****     * Enables watchdog timer reset generation.
1930:.\Generated_Source\PSoC4/CyLFClk.c ****     *
1931:.\Generated_Source\PSoC4/CyLFClk.c ****     * CySysWdtClearInterrupt() feeds the watchdog. Two unserviced interrupts lead 
1932:.\Generated_Source\PSoC4/CyLFClk.c ****     * to a system reset (i.e. at the third match).
1933:.\Generated_Source\PSoC4/CyLFClk.c ****     *
1934:.\Generated_Source\PSoC4/CyLFClk.c ****     * ILO is enabled by the hardware once WDT is started.
1935:.\Generated_Source\PSoC4/CyLFClk.c ****     *
1936:.\Generated_Source\PSoC4/CyLFClk.c ****     *******************************************************************************/
1937:.\Generated_Source\PSoC4/CyLFClk.c ****     void CySysWdtEnable(void)
1938:.\Generated_Source\PSoC4/CyLFClk.c ****     {
1939:.\Generated_Source\PSoC4/CyLFClk.c ****         CY_SYS_WDT_DISABLE_KEY_REG = 0u;
1940:.\Generated_Source\PSoC4/CyLFClk.c ****     }
1941:.\Generated_Source\PSoC4/CyLFClk.c **** 
1942:.\Generated_Source\PSoC4/CyLFClk.c **** 
1943:.\Generated_Source\PSoC4/CyLFClk.c ****     /*******************************************************************************
1944:.\Generated_Source\PSoC4/CyLFClk.c ****     * Function Name: CySysWdtDisable
1945:.\Generated_Source\PSoC4/CyLFClk.c ****     ****************************************************************************//**
1946:.\Generated_Source\PSoC4/CyLFClk.c ****     *
1947:.\Generated_Source\PSoC4/CyLFClk.c ****     * \brief Disables the WDT reset generation.
1948:.\Generated_Source\PSoC4/CyLFClk.c ****     *
1949:.\Generated_Source\PSoC4/CyLFClk.c ****     * This function unlocks the ENABLE bit in the CLK_ILO_CONFIG registers and
1950:.\Generated_Source\PSoC4/CyLFClk.c ****     * enables the user to disable ILO.
1951:.\Generated_Source\PSoC4/CyLFClk.c ****     *
1952:.\Generated_Source\PSoC4/CyLFClk.c ****     *******************************************************************************/
1953:.\Generated_Source\PSoC4/CyLFClk.c ****     void CySysWdtDisable(void)
1954:.\Generated_Source\PSoC4/CyLFClk.c ****     {
1955:.\Generated_Source\PSoC4/CyLFClk.c ****         CY_SYS_WDT_DISABLE_KEY_REG = CY_SYS_WDT_KEY;
1956:.\Generated_Source\PSoC4/CyLFClk.c ****     }
1957:.\Generated_Source\PSoC4/CyLFClk.c **** 
1958:.\Generated_Source\PSoC4/CyLFClk.c **** 
1959:.\Generated_Source\PSoC4/CyLFClk.c ****     /*******************************************************************************
1960:.\Generated_Source\PSoC4/CyLFClk.c ****     * Function Name: CySysWdtSetMatch
1961:.\Generated_Source\PSoC4/CyLFClk.c ****     ****************************************************************************//**
1962:.\Generated_Source\PSoC4/CyLFClk.c ****     *
1963:.\Generated_Source\PSoC4/CyLFClk.c ****     * \brief Configures the WDT counter match comparison value.
1964:.\Generated_Source\PSoC4/CyLFClk.c ****     *
1965:.\Generated_Source\PSoC4/CyLFClk.c ****     * \param match Valid range [0-65535]. The value to be used to match against 
1966:.\Generated_Source\PSoC4/CyLFClk.c ****     * the counter.
1967:.\Generated_Source\PSoC4/CyLFClk.c ****     *
1968:.\Generated_Source\PSoC4/CyLFClk.c ****     *******************************************************************************/
1969:.\Generated_Source\PSoC4/CyLFClk.c ****     void CySysWdtSetMatch(uint32 match)
1970:.\Generated_Source\PSoC4/CyLFClk.c ****     {
1971:.\Generated_Source\PSoC4/CyLFClk.c ****         match &= CY_SYS_WDT_MATCH_MASK;
1972:.\Generated_Source\PSoC4/CyLFClk.c ****         CY_SYS_WDT_MATCH_REG = (CY_SYS_WDT_MATCH_REG & (uint32)(~CY_SYS_WDT_MATCH_MASK)) | match;
ARM GAS  C:\Users\310295~1\AppData\Local\Temp\ccIU8zba.s 			page 104


1973:.\Generated_Source\PSoC4/CyLFClk.c ****     }
1974:.\Generated_Source\PSoC4/CyLFClk.c **** 
1975:.\Generated_Source\PSoC4/CyLFClk.c **** 
1976:.\Generated_Source\PSoC4/CyLFClk.c ****     /*******************************************************************************
1977:.\Generated_Source\PSoC4/CyLFClk.c ****     * Function Name: CySysWdtGetMatch
1978:.\Generated_Source\PSoC4/CyLFClk.c ****     ****************************************************************************//**
1979:.\Generated_Source\PSoC4/CyLFClk.c ****     *
1980:.\Generated_Source\PSoC4/CyLFClk.c ****     * \brief Reads the WDT counter match comparison value.
1981:.\Generated_Source\PSoC4/CyLFClk.c ****     *
1982:.\Generated_Source\PSoC4/CyLFClk.c ****     * \return The counter match value.
1983:.\Generated_Source\PSoC4/CyLFClk.c ****     *
1984:.\Generated_Source\PSoC4/CyLFClk.c ****     *******************************************************************************/
1985:.\Generated_Source\PSoC4/CyLFClk.c ****     uint32 CySysWdtGetMatch(void)
1986:.\Generated_Source\PSoC4/CyLFClk.c ****     {
1987:.\Generated_Source\PSoC4/CyLFClk.c ****         return (CY_SYS_WDT_MATCH_REG & CY_SYS_WDT_MATCH_MASK);
1988:.\Generated_Source\PSoC4/CyLFClk.c ****     }
1989:.\Generated_Source\PSoC4/CyLFClk.c **** 
1990:.\Generated_Source\PSoC4/CyLFClk.c **** 
1991:.\Generated_Source\PSoC4/CyLFClk.c ****     /*******************************************************************************
1992:.\Generated_Source\PSoC4/CyLFClk.c ****     * Function Name: CySysWdtGetCount
1993:.\Generated_Source\PSoC4/CyLFClk.c ****     ****************************************************************************//**
1994:.\Generated_Source\PSoC4/CyLFClk.c ****     *
1995:.\Generated_Source\PSoC4/CyLFClk.c ****     * \brief Reads the current WDT counter value.
1996:.\Generated_Source\PSoC4/CyLFClk.c ****     *
1997:.\Generated_Source\PSoC4/CyLFClk.c ****     * \return A live counter value.
1998:.\Generated_Source\PSoC4/CyLFClk.c ****     *
1999:.\Generated_Source\PSoC4/CyLFClk.c ****     *******************************************************************************/
2000:.\Generated_Source\PSoC4/CyLFClk.c ****     uint32 CySysWdtGetCount(void)
2001:.\Generated_Source\PSoC4/CyLFClk.c ****     {
2002:.\Generated_Source\PSoC4/CyLFClk.c ****         return ((uint32)CY_SYS_WDT_COUNTER_REG);
2003:.\Generated_Source\PSoC4/CyLFClk.c ****     }
2004:.\Generated_Source\PSoC4/CyLFClk.c **** 
2005:.\Generated_Source\PSoC4/CyLFClk.c **** 
2006:.\Generated_Source\PSoC4/CyLFClk.c ****     /*******************************************************************************
2007:.\Generated_Source\PSoC4/CyLFClk.c ****     * Function Name: CySysWdtSetIgnoreBits
2008:.\Generated_Source\PSoC4/CyLFClk.c ****     ****************************************************************************//**
2009:.\Generated_Source\PSoC4/CyLFClk.c ****     *
2010:.\Generated_Source\PSoC4/CyLFClk.c ****     * \brief
2011:.\Generated_Source\PSoC4/CyLFClk.c ****     * Configures the number of the MSB bits of the watchdog timer that are not
2012:.\Generated_Source\PSoC4/CyLFClk.c ****     * checked against the match.
2013:.\Generated_Source\PSoC4/CyLFClk.c ****     *
2014:.\Generated_Source\PSoC4/CyLFClk.c ****     * \param bitsNum Valid range [0-15]. The number of the MSB bits.
2015:.\Generated_Source\PSoC4/CyLFClk.c ****     *
2016:.\Generated_Source\PSoC4/CyLFClk.c ****     * \details The value of bitsNum controls the time-to-reset of the watchdog
2017:.\Generated_Source\PSoC4/CyLFClk.c ****     * (which happens after 3 successive matches).
2018:.\Generated_Source\PSoC4/CyLFClk.c ****     *
2019:.\Generated_Source\PSoC4/CyLFClk.c ****     *******************************************************************************/
2020:.\Generated_Source\PSoC4/CyLFClk.c ****     void CySysWdtSetIgnoreBits(uint32 bitsNum)
2021:.\Generated_Source\PSoC4/CyLFClk.c ****     {
2022:.\Generated_Source\PSoC4/CyLFClk.c ****         bitsNum = ((uint32)(bitsNum << CY_SYS_WDT_IGNORE_BITS_SHIFT) & CY_SYS_WDT_IGNORE_BITS_MASK)
2023:.\Generated_Source\PSoC4/CyLFClk.c ****         CY_SYS_WDT_MATCH_REG = (CY_SYS_WDT_MATCH_REG & (uint32)(~CY_SYS_WDT_IGNORE_BITS_MASK)) | bi
2024:.\Generated_Source\PSoC4/CyLFClk.c ****     }
2025:.\Generated_Source\PSoC4/CyLFClk.c **** 
2026:.\Generated_Source\PSoC4/CyLFClk.c **** 
2027:.\Generated_Source\PSoC4/CyLFClk.c ****     /*******************************************************************************
2028:.\Generated_Source\PSoC4/CyLFClk.c ****     * Function Name: CySysWdtGetIgnoreBits
2029:.\Generated_Source\PSoC4/CyLFClk.c ****     ****************************************************************************//**
ARM GAS  C:\Users\310295~1\AppData\Local\Temp\ccIU8zba.s 			page 105


2030:.\Generated_Source\PSoC4/CyLFClk.c ****     *
2031:.\Generated_Source\PSoC4/CyLFClk.c ****     * \brief
2032:.\Generated_Source\PSoC4/CyLFClk.c ****     * Reads the number of the  MSB bits of the watchdog timer that are not
2033:.\Generated_Source\PSoC4/CyLFClk.c ****     * checked against the match.
2034:.\Generated_Source\PSoC4/CyLFClk.c ****     *
2035:.\Generated_Source\PSoC4/CyLFClk.c ****     * \return The number of the MSB bits.
2036:.\Generated_Source\PSoC4/CyLFClk.c ****     *
2037:.\Generated_Source\PSoC4/CyLFClk.c ****     *******************************************************************************/
2038:.\Generated_Source\PSoC4/CyLFClk.c ****     uint32 CySysWdtGetIgnoreBits(void)
2039:.\Generated_Source\PSoC4/CyLFClk.c ****     {
2040:.\Generated_Source\PSoC4/CyLFClk.c ****         return((uint32)((CY_SYS_WDT_MATCH_REG & CY_SYS_WDT_IGNORE_BITS_MASK) >> CY_SYS_WDT_IGNORE_B
2041:.\Generated_Source\PSoC4/CyLFClk.c ****     }
2042:.\Generated_Source\PSoC4/CyLFClk.c **** 
2043:.\Generated_Source\PSoC4/CyLFClk.c **** 
2044:.\Generated_Source\PSoC4/CyLFClk.c ****     /*******************************************************************************
2045:.\Generated_Source\PSoC4/CyLFClk.c ****     * Function Name: CySysWdtClearInterrupt
2046:.\Generated_Source\PSoC4/CyLFClk.c ****     ****************************************************************************//**
2047:.\Generated_Source\PSoC4/CyLFClk.c ****     *
2048:.\Generated_Source\PSoC4/CyLFClk.c ****     * \brief
2049:.\Generated_Source\PSoC4/CyLFClk.c ****     * Feeds the watchdog.
2050:.\Generated_Source\PSoC4/CyLFClk.c ****     * Cleans the WDT match flag which is set every time the WDT counter reaches a 
2051:.\Generated_Source\PSoC4/CyLFClk.c ****     * WDT match value. Two unserviced interrupts lead to a system reset 
2052:.\Generated_Source\PSoC4/CyLFClk.c ****     * (i.e. at the third match).
2053:.\Generated_Source\PSoC4/CyLFClk.c ****     *
2054:.\Generated_Source\PSoC4/CyLFClk.c ****     *******************************************************************************/
2055:.\Generated_Source\PSoC4/CyLFClk.c ****     void CySysWdtClearInterrupt(void)
2056:.\Generated_Source\PSoC4/CyLFClk.c ****     {
2057:.\Generated_Source\PSoC4/CyLFClk.c ****         CY_SYS_SRSS_INTR_REG |= CY_SYS_WDT_LOWER_BIT_MASK;
2058:.\Generated_Source\PSoC4/CyLFClk.c ****     }
2059:.\Generated_Source\PSoC4/CyLFClk.c **** 
2060:.\Generated_Source\PSoC4/CyLFClk.c **** 
2061:.\Generated_Source\PSoC4/CyLFClk.c ****     /*******************************************************************************
2062:.\Generated_Source\PSoC4/CyLFClk.c ****     * Function Name: CySysWdtMaskInterrupt
2063:.\Generated_Source\PSoC4/CyLFClk.c ****     ****************************************************************************//**
2064:.\Generated_Source\PSoC4/CyLFClk.c ****     *
2065:.\Generated_Source\PSoC4/CyLFClk.c ****     * \brief
2066:.\Generated_Source\PSoC4/CyLFClk.c ****     * After masking interrupts from WDT, they are not passed to CPU.
2067:.\Generated_Source\PSoC4/CyLFClk.c ****     * This function does not disable WDT reset generation.
2068:.\Generated_Source\PSoC4/CyLFClk.c ****     *
2069:.\Generated_Source\PSoC4/CyLFClk.c ****     *******************************************************************************/
2070:.\Generated_Source\PSoC4/CyLFClk.c ****     void CySysWdtMaskInterrupt(void)
2071:.\Generated_Source\PSoC4/CyLFClk.c ****     {
2072:.\Generated_Source\PSoC4/CyLFClk.c ****         CY_SYS_SRSS_INTR_MASK_REG &= (uint32)(~ (uint32)CY_SYS_WDT_LOWER_BIT_MASK);
2073:.\Generated_Source\PSoC4/CyLFClk.c ****     }
2074:.\Generated_Source\PSoC4/CyLFClk.c **** 
2075:.\Generated_Source\PSoC4/CyLFClk.c **** 
2076:.\Generated_Source\PSoC4/CyLFClk.c ****     /*******************************************************************************
2077:.\Generated_Source\PSoC4/CyLFClk.c ****     * Function Name: CySysWdtUnmaskInterrupt
2078:.\Generated_Source\PSoC4/CyLFClk.c ****     ****************************************************************************//**
2079:.\Generated_Source\PSoC4/CyLFClk.c ****     *
2080:.\Generated_Source\PSoC4/CyLFClk.c ****     * \brief
2081:.\Generated_Source\PSoC4/CyLFClk.c ****     * After unmasking interrupts from WDT, they are passed to CPU.
2082:.\Generated_Source\PSoC4/CyLFClk.c ****     * This function does not impact the reset generation.
2083:.\Generated_Source\PSoC4/CyLFClk.c ****     *
2084:.\Generated_Source\PSoC4/CyLFClk.c ****     *******************************************************************************/
2085:.\Generated_Source\PSoC4/CyLFClk.c ****     void CySysWdtUnmaskInterrupt(void)
2086:.\Generated_Source\PSoC4/CyLFClk.c ****     {
ARM GAS  C:\Users\310295~1\AppData\Local\Temp\ccIU8zba.s 			page 106


2087:.\Generated_Source\PSoC4/CyLFClk.c ****         CY_SYS_SRSS_INTR_MASK_REG |= CY_SYS_WDT_LOWER_BIT_MASK;
2088:.\Generated_Source\PSoC4/CyLFClk.c ****     }
2089:.\Generated_Source\PSoC4/CyLFClk.c **** 
2090:.\Generated_Source\PSoC4/CyLFClk.c **** 
2091:.\Generated_Source\PSoC4/CyLFClk.c ****     /*******************************************************************************
2092:.\Generated_Source\PSoC4/CyLFClk.c ****     * Function Name: CySysWdtSetIsrCallback
2093:.\Generated_Source\PSoC4/CyLFClk.c ****     ****************************************************************************//**
2094:.\Generated_Source\PSoC4/CyLFClk.c ****     *
2095:.\Generated_Source\PSoC4/CyLFClk.c ****     * \brief
2096:.\Generated_Source\PSoC4/CyLFClk.c ****     * Sets the ISR callback function for the WDT counter
2097:.\Generated_Source\PSoC4/CyLFClk.c ****     *
2098:.\Generated_Source\PSoC4/CyLFClk.c ****     * \param function The pointer to the callback function.
2099:.\Generated_Source\PSoC4/CyLFClk.c ****     *
2100:.\Generated_Source\PSoC4/CyLFClk.c ****     * \return The pointer to a previous callback function.
2101:.\Generated_Source\PSoC4/CyLFClk.c ****     *
2102:.\Generated_Source\PSoC4/CyLFClk.c ****     *******************************************************************************/
2103:.\Generated_Source\PSoC4/CyLFClk.c ****     cyWdtCallback CySysWdtSetInterruptCallback(cyWdtCallback function)
2104:.\Generated_Source\PSoC4/CyLFClk.c ****     {
2105:.\Generated_Source\PSoC4/CyLFClk.c ****         cyWdtCallback prevCallback = (void *)0;
2106:.\Generated_Source\PSoC4/CyLFClk.c **** 
2107:.\Generated_Source\PSoC4/CyLFClk.c ****         prevCallback = cySysWdtCallback;
2108:.\Generated_Source\PSoC4/CyLFClk.c ****         cySysWdtCallback = function;
2109:.\Generated_Source\PSoC4/CyLFClk.c **** 
2110:.\Generated_Source\PSoC4/CyLFClk.c ****         return(prevCallback);
2111:.\Generated_Source\PSoC4/CyLFClk.c ****     }
2112:.\Generated_Source\PSoC4/CyLFClk.c **** 
2113:.\Generated_Source\PSoC4/CyLFClk.c **** 
2114:.\Generated_Source\PSoC4/CyLFClk.c ****     /*******************************************************************************
2115:.\Generated_Source\PSoC4/CyLFClk.c ****     * Function Name: CySysWdtGetIsrCallback
2116:.\Generated_Source\PSoC4/CyLFClk.c ****     ****************************************************************************//**
2117:.\Generated_Source\PSoC4/CyLFClk.c ****     *
2118:.\Generated_Source\PSoC4/CyLFClk.c ****     * \brief
2119:.\Generated_Source\PSoC4/CyLFClk.c ****     * Gets the ISR callback function for the WDT counter
2120:.\Generated_Source\PSoC4/CyLFClk.c ****     *
2121:.\Generated_Source\PSoC4/CyLFClk.c ****     * \return The pointer to the callback function registered for WDT.
2122:.\Generated_Source\PSoC4/CyLFClk.c ****     *
2123:.\Generated_Source\PSoC4/CyLFClk.c ****     *******************************************************************************/
2124:.\Generated_Source\PSoC4/CyLFClk.c ****     cyWdtCallback CySysWdtGetInterruptCallback(void)
2125:.\Generated_Source\PSoC4/CyLFClk.c ****     {
2126:.\Generated_Source\PSoC4/CyLFClk.c ****         return(cySysWdtCallback);
2127:.\Generated_Source\PSoC4/CyLFClk.c ****     }
2128:.\Generated_Source\PSoC4/CyLFClk.c **** 
2129:.\Generated_Source\PSoC4/CyLFClk.c **** 
2130:.\Generated_Source\PSoC4/CyLFClk.c ****     /*******************************************************************************
2131:.\Generated_Source\PSoC4/CyLFClk.c ****     * Function Name: CySysWdtIsr
2132:.\Generated_Source\PSoC4/CyLFClk.c ****     ****************************************************************************//**
2133:.\Generated_Source\PSoC4/CyLFClk.c ****     *
2134:.\Generated_Source\PSoC4/CyLFClk.c ****     * \brief
2135:.\Generated_Source\PSoC4/CyLFClk.c ****     * This is the handler of the WDT interrupt in CPU NVIC.
2136:.\Generated_Source\PSoC4/CyLFClk.c ****     *
2137:.\Generated_Source\PSoC4/CyLFClk.c ****     * The handler calls the respective callback functions configured by the user 
2138:.\Generated_Source\PSoC4/CyLFClk.c ****     * by using CySysWdtSetIsrCallback() API.
2139:.\Generated_Source\PSoC4/CyLFClk.c ****     *
2140:.\Generated_Source\PSoC4/CyLFClk.c ****     *
2141:.\Generated_Source\PSoC4/CyLFClk.c ****     * \details
2142:.\Generated_Source\PSoC4/CyLFClk.c ****     * This function clears the WDT interrupt every time when it is called.
2143:.\Generated_Source\PSoC4/CyLFClk.c ****     * Reset after the 3rd interrupt does not happen if this function is registered
ARM GAS  C:\Users\310295~1\AppData\Local\Temp\ccIU8zba.s 			page 107


2144:.\Generated_Source\PSoC4/CyLFClk.c ****     * as the interrupt handler even if the "Watchdog with Interrupt" mode is
2145:.\Generated_Source\PSoC4/CyLFClk.c ****     * selected on the "Low Frequency Clocks" tab.
2146:.\Generated_Source\PSoC4/CyLFClk.c ****     *
2147:.\Generated_Source\PSoC4/CyLFClk.c ****     *******************************************************************************/
2148:.\Generated_Source\PSoC4/CyLFClk.c ****     void CySysWdtIsr(void)
2149:.\Generated_Source\PSoC4/CyLFClk.c ****     {
2150:.\Generated_Source\PSoC4/CyLFClk.c ****         if(cySysWdtCallback != (void *) 0)
2151:.\Generated_Source\PSoC4/CyLFClk.c ****         {
2152:.\Generated_Source\PSoC4/CyLFClk.c ****             (void)(cySysWdtCallback)();
2153:.\Generated_Source\PSoC4/CyLFClk.c ****         }
2154:.\Generated_Source\PSoC4/CyLFClk.c **** 
2155:.\Generated_Source\PSoC4/CyLFClk.c ****         CySysWdtClearInterrupt();
2156:.\Generated_Source\PSoC4/CyLFClk.c ****     }
2157:.\Generated_Source\PSoC4/CyLFClk.c **** 
2158:.\Generated_Source\PSoC4/CyLFClk.c **** #endif /* (CY_IP_SRSSV2) */
2159:.\Generated_Source\PSoC4/CyLFClk.c **** 
2160:.\Generated_Source\PSoC4/CyLFClk.c **** 
2161:.\Generated_Source\PSoC4/CyLFClk.c **** #if(CY_IP_SRSSLT && CY_IP_WCO && CY_IP_WCO_WDT_EN)
2162:.\Generated_Source\PSoC4/CyLFClk.c **** 
2163:.\Generated_Source\PSoC4/CyLFClk.c **** /*******************************************************************************
2164:.\Generated_Source\PSoC4/CyLFClk.c **** * Function Name: CySysClkGetTimerSource
2165:.\Generated_Source\PSoC4/CyLFClk.c **** ********************************************************************************
2166:.\Generated_Source\PSoC4/CyLFClk.c **** *
2167:.\Generated_Source\PSoC4/CyLFClk.c **** * \brief Gets the clock source for the DeepSleep Timers.
2168:.\Generated_Source\PSoC4/CyLFClk.c **** *
2169:.\Generated_Source\PSoC4/CyLFClk.c **** * The function is applicable only for PSoC 4100S / PSoC Analog Coprocessor.
2170:.\Generated_Source\PSoC4/CyLFClk.c **** *
2171:.\Generated_Source\PSoC4/CyLFClk.c **** * \return The DeepSleep Timer source
2172:.\Generated_Source\PSoC4/CyLFClk.c **** * CY_SYS_CLK_TIMER_SRC_ILO Internal Low Frequency (32 kHz) Oscillator (ILO)
2173:.\Generated_Source\PSoC4/CyLFClk.c **** * CY_SYS_CLK_TIMER_SRC_WCO Low Frequency Watch Crystal Oscillator (WCO)
2174:.\Generated_Source\PSoC4/CyLFClk.c **** *
2175:.\Generated_Source\PSoC4/CyLFClk.c **** *******************************************************************************/
2176:.\Generated_Source\PSoC4/CyLFClk.c ****     static uint32 CySysClkGetTimerSource(void)
2177:.\Generated_Source\PSoC4/CyLFClk.c ****     {
2178:.\Generated_Source\PSoC4/CyLFClk.c ****         uint32 timerSource;
2179:.\Generated_Source\PSoC4/CyLFClk.c ****         timerSource = CY_SYS_WCO_WDT_CONFIG_REG & CY_SYS_CLK_TIMER_SEL_MASK;
2180:.\Generated_Source\PSoC4/CyLFClk.c ****         return (timerSource);
2181:.\Generated_Source\PSoC4/CyLFClk.c ****     }    
2182:.\Generated_Source\PSoC4/CyLFClk.c **** 
2183:.\Generated_Source\PSoC4/CyLFClk.c **** 
2184:.\Generated_Source\PSoC4/CyLFClk.c **** /*******************************************************************************
2185:.\Generated_Source\PSoC4/CyLFClk.c **** * Function Name: CySysClkSetTimerSource
2186:.\Generated_Source\PSoC4/CyLFClk.c **** ****************************************************************************//**
2187:.\Generated_Source\PSoC4/CyLFClk.c **** *
2188:.\Generated_Source\PSoC4/CyLFClk.c **** * \brief Sets the clock source for the DeepSleep Timers.
2189:.\Generated_Source\PSoC4/CyLFClk.c **** *
2190:.\Generated_Source\PSoC4/CyLFClk.c **** * The function is applicable only for PSoC 4100S / PSoC Analog Coprocessor 
2191:.\Generated_Source\PSoC4/CyLFClk.c **** * devices.
2192:.\Generated_Source\PSoC4/CyLFClk.c **** *
2193:.\Generated_Source\PSoC4/CyLFClk.c **** * \param source
2194:.\Generated_Source\PSoC4/CyLFClk.c **** *  CY_SYS_CLK_TIMER_SRC_ILO - Internal Low Frequency (32 kHz) Oscillator 
2195:.\Generated_Source\PSoC4/CyLFClk.c **** * (ILO).<br>
2196:.\Generated_Source\PSoC4/CyLFClk.c **** * CY_SYS_CLK_TIMER_SRC_WCO - Low Frequency Watch Crystal Oscillator 
2197:.\Generated_Source\PSoC4/CyLFClk.c **** * (WCO).
2198:.\Generated_Source\PSoC4/CyLFClk.c **** *
2199:.\Generated_Source\PSoC4/CyLFClk.c **** * \details Both the current source and the new source must be running and stable 
2200:.\Generated_Source\PSoC4/CyLFClk.c **** * before calling this function.
ARM GAS  C:\Users\310295~1\AppData\Local\Temp\ccIU8zba.s 			page 108


2201:.\Generated_Source\PSoC4/CyLFClk.c **** *
2202:.\Generated_Source\PSoC4/CyLFClk.c **** * \warning DeepSleep Timer reset is required if Timer source was switched while 
2203:.\Generated_Source\PSoC4/CyLFClk.c **** * DeepSleep Timers were running. Call CySysTimerResetCounters() API after 
2204:.\Generated_Source\PSoC4/CyLFClk.c **** * Timer source switching.
2205:.\Generated_Source\PSoC4/CyLFClk.c **** * It is highly recommended to disable DeepSleep Timers before Timer source 
2206:.\Generated_Source\PSoC4/CyLFClk.c **** * switching. Changing the Timer source may change the functionality that uses 
2207:.\Generated_Source\PSoC4/CyLFClk.c **** * this Timers as clock source.
2208:.\Generated_Source\PSoC4/CyLFClk.c **** *******************************************************************************/
2209:.\Generated_Source\PSoC4/CyLFClk.c ****     void CySysClkSetTimerSource(uint32 source)
2210:.\Generated_Source\PSoC4/CyLFClk.c ****     {
2211:.\Generated_Source\PSoC4/CyLFClk.c ****         uint8  interruptState;
2212:.\Generated_Source\PSoC4/CyLFClk.c **** 
2213:.\Generated_Source\PSoC4/CyLFClk.c ****         if (CySysClkGetTimerSource() != source)
2214:.\Generated_Source\PSoC4/CyLFClk.c ****         {
2215:.\Generated_Source\PSoC4/CyLFClk.c **** 
2216:.\Generated_Source\PSoC4/CyLFClk.c ****             /* Reset both _EN bits in WCO_WDT_CLKEN register */
2217:.\Generated_Source\PSoC4/CyLFClk.c ****             CY_SYS_WCO_WDT_CLKEN_REG &= ~CY_SYS_WCO_WDT_CLKEN_RESET_MASK;
2218:.\Generated_Source\PSoC4/CyLFClk.c ****             
2219:.\Generated_Source\PSoC4/CyLFClk.c ****             /* Wait 4 new clock source-cycles for change to come into effect */
2220:.\Generated_Source\PSoC4/CyLFClk.c ****             CyDelayUs(CY_SYS_4TIMER_DELAY_US);
2221:.\Generated_Source\PSoC4/CyLFClk.c **** 
2222:.\Generated_Source\PSoC4/CyLFClk.c ****             interruptState = CyEnterCriticalSection();
2223:.\Generated_Source\PSoC4/CyLFClk.c ****             CY_SYS_WCO_WDT_CONFIG_REG = (CY_SYS_WCO_WDT_CONFIG_REG & (uint32)(~CY_SYS_CLK_TIMER_SEL
2224:.\Generated_Source\PSoC4/CyLFClk.c ****                                     (source & CY_SYS_CLK_TIMER_SEL_MASK);
2225:.\Generated_Source\PSoC4/CyLFClk.c ****             CyExitCriticalSection(interruptState);
2226:.\Generated_Source\PSoC4/CyLFClk.c ****         }
2227:.\Generated_Source\PSoC4/CyLFClk.c **** 
2228:.\Generated_Source\PSoC4/CyLFClk.c ****         CY_SYS_WCO_WDT_CLKEN_REG = (CY_SYS_WCO_WDT_CLKEN_REG & (uint32)(~CY_SYS_WCO_WDT_CLKEN_RESET
2229:.\Generated_Source\PSoC4/CyLFClk.c ****                                     CY_SYS_SET_CURRENT_TIMER_SOURCE_BIT;
2230:.\Generated_Source\PSoC4/CyLFClk.c ****     }
2231:.\Generated_Source\PSoC4/CyLFClk.c **** 
2232:.\Generated_Source\PSoC4/CyLFClk.c **** 
2233:.\Generated_Source\PSoC4/CyLFClk.c ****     /*******************************************************************************
2234:.\Generated_Source\PSoC4/CyLFClk.c ****     * Function Name: CySysTimerGetEnabledStatus
2235:.\Generated_Source\PSoC4/CyLFClk.c ****     ****************************************************************************//**
2236:.\Generated_Source\PSoC4/CyLFClk.c ****     *
2237:.\Generated_Source\PSoC4/CyLFClk.c ****     * \brief Reads the enabled status of one of the three DeepSleep Timer 
2238:.\Generated_Source\PSoC4/CyLFClk.c ****     * counters.
2239:.\Generated_Source\PSoC4/CyLFClk.c ****     *
2240:.\Generated_Source\PSoC4/CyLFClk.c ****     * \param counterNum: Valid range [0-2]. The number of the DeepSleep Timer 
2241:.\Generated_Source\PSoC4/CyLFClk.c ****     * counter.
2242:.\Generated_Source\PSoC4/CyLFClk.c ****     *
2243:.\Generated_Source\PSoC4/CyLFClk.c ****     * \return The status of the Timers counter:
2244:.\Generated_Source\PSoC4/CyLFClk.c ****     * \return 0 - If the Counter is disabled.
2245:.\Generated_Source\PSoC4/CyLFClk.c ****     * \return 1 - If the Counter is enabled.
2246:.\Generated_Source\PSoC4/CyLFClk.c ****     *
2247:.\Generated_Source\PSoC4/CyLFClk.c ****     * \details
2248:.\Generated_Source\PSoC4/CyLFClk.c ****     * This function returns an actual DeepSleep Timer counter status from the 
2249:.\Generated_Source\PSoC4/CyLFClk.c ****     * status register. It may take up to 3 LFCLK cycles for the Timer status 
2250:.\Generated_Source\PSoC4/CyLFClk.c ****     * register to contain actual data after the Timer counter is enabled.
2251:.\Generated_Source\PSoC4/CyLFClk.c ****     *
2252:.\Generated_Source\PSoC4/CyLFClk.c ****     *******************************************************************************/
2253:.\Generated_Source\PSoC4/CyLFClk.c ****     uint32 CySysTimerGetEnabledStatus(uint32 counterNum)
2254:.\Generated_Source\PSoC4/CyLFClk.c ****     {
2255:.\Generated_Source\PSoC4/CyLFClk.c ****         CYASSERT(counterNum < CY_SYS_TIMER_COUNTERS_MAX);
2256:.\Generated_Source\PSoC4/CyLFClk.c ****         return ((CY_SYS_WCO_WDT_CONTROL_REG >> ((CY_SYS_TIMER_CNT_SHIFT * counterNum) + 
2257:.\Generated_Source\PSoC4/CyLFClk.c ****                                                  CY_SYS_TIMER_CNT_STTS_SHIFT)) & 0x01u);
ARM GAS  C:\Users\310295~1\AppData\Local\Temp\ccIU8zba.s 			page 109


2258:.\Generated_Source\PSoC4/CyLFClk.c ****     }
2259:.\Generated_Source\PSoC4/CyLFClk.c **** 
2260:.\Generated_Source\PSoC4/CyLFClk.c **** 
2261:.\Generated_Source\PSoC4/CyLFClk.c ****     /*******************************************************************************
2262:.\Generated_Source\PSoC4/CyLFClk.c ****     * Function Name: CySysTimerSetMode
2263:.\Generated_Source\PSoC4/CyLFClk.c ****     ****************************************************************************//**
2264:.\Generated_Source\PSoC4/CyLFClk.c ****     *
2265:.\Generated_Source\PSoC4/CyLFClk.c ****     * \brief Writes the mode of one of the three DeepSleep Timer counters.
2266:.\Generated_Source\PSoC4/CyLFClk.c ****     *
2267:.\Generated_Source\PSoC4/CyLFClk.c ****     * \param counterNum: Valid range [0-2]. The number of the DeepSleep Timer 
2268:.\Generated_Source\PSoC4/CyLFClk.c ****     * counter.
2269:.\Generated_Source\PSoC4/CyLFClk.c ****     *
2270:.\Generated_Source\PSoC4/CyLFClk.c ****     * \param mode
2271:.\Generated_Source\PSoC4/CyLFClk.c ****     *  CY_SYS_TIMER_MODE_NONE - Free running.<br>
2272:.\Generated_Source\PSoC4/CyLFClk.c ****     * CY_SYS_TIMER_MODE_INT - The interrupt generated on match for counter 0
2273:.\Generated_Source\PSoC4/CyLFClk.c ****     * and 1, and on bit toggle for counter 2.
2274:.\Generated_Source\PSoC4/CyLFClk.c ****     *
2275:.\Generated_Source\PSoC4/CyLFClk.c ****     * \details
2276:.\Generated_Source\PSoC4/CyLFClk.c ****     * DeepSleep Timer counter counterNum should be disabled to set a mode. 
2277:.\Generated_Source\PSoC4/CyLFClk.c ****     * Otherwise, this function call has no effect. If the specified counter is 
2278:.\Generated_Source\PSoC4/CyLFClk.c ****     * enabled, call the CySysTimerDisable() function with the corresponding 
2279:.\Generated_Source\PSoC4/CyLFClk.c ****     * parameter to disable the specified counter and wait for it to stop.
2280:.\Generated_Source\PSoC4/CyLFClk.c ****     *
2281:.\Generated_Source\PSoC4/CyLFClk.c ****     *******************************************************************************/
2282:.\Generated_Source\PSoC4/CyLFClk.c ****     void CySysTimerSetMode(uint32 counterNum, uint32 mode)
2283:.\Generated_Source\PSoC4/CyLFClk.c ****     {
2284:.\Generated_Source\PSoC4/CyLFClk.c ****         uint32 configRegValue;
2285:.\Generated_Source\PSoC4/CyLFClk.c **** 
2286:.\Generated_Source\PSoC4/CyLFClk.c ****         CYASSERT(counterNum < CY_SYS_TIMER_COUNTERS_MAX);
2287:.\Generated_Source\PSoC4/CyLFClk.c **** 
2288:.\Generated_Source\PSoC4/CyLFClk.c ****         CYASSERT(mode <= CY_SYS_TIMER_MODE_MASK);
2289:.\Generated_Source\PSoC4/CyLFClk.c **** 
2290:.\Generated_Source\PSoC4/CyLFClk.c ****         if(0u == CySysTimerGetEnabledStatus(counterNum))
2291:.\Generated_Source\PSoC4/CyLFClk.c ****         {
2292:.\Generated_Source\PSoC4/CyLFClk.c ****             configRegValue = CY_SYS_WCO_WDT_CONFIG_REG &
2293:.\Generated_Source\PSoC4/CyLFClk.c ****                                 (uint32)~((uint32)(CY_SYS_TIMER_MODE_MASK << (counterNum * CY_SYS_T
2294:.\Generated_Source\PSoC4/CyLFClk.c ****             configRegValue |= (uint32)((mode & CY_SYS_TIMER_MODE_MASK) << (counterNum * CY_SYS_TIME
2295:.\Generated_Source\PSoC4/CyLFClk.c ****             CY_SYS_WCO_WDT_CONFIG_REG = configRegValue;
2296:.\Generated_Source\PSoC4/CyLFClk.c ****         }
2297:.\Generated_Source\PSoC4/CyLFClk.c ****     }
2298:.\Generated_Source\PSoC4/CyLFClk.c **** 
2299:.\Generated_Source\PSoC4/CyLFClk.c **** 
2300:.\Generated_Source\PSoC4/CyLFClk.c ****     /*******************************************************************************
2301:.\Generated_Source\PSoC4/CyLFClk.c ****     * Function Name: CySysTimerGetMode
2302:.\Generated_Source\PSoC4/CyLFClk.c ****     ****************************************************************************//**
2303:.\Generated_Source\PSoC4/CyLFClk.c ****     *
2304:.\Generated_Source\PSoC4/CyLFClk.c ****     * \brief Reads the mode of one of the three DeepSleep Timer counters.
2305:.\Generated_Source\PSoC4/CyLFClk.c ****     *
2306:.\Generated_Source\PSoC4/CyLFClk.c ****     * \param counterNum Valid range [0-2]. The number of the Timer counter.
2307:.\Generated_Source\PSoC4/CyLFClk.c ****     *
2308:.\Generated_Source\PSoC4/CyLFClk.c ****     * \return The mode of the counter. The same enumerated values as the mode 
2309:.\Generated_Source\PSoC4/CyLFClk.c ****     * parameter used in CySysTimerSetMode().
2310:.\Generated_Source\PSoC4/CyLFClk.c ****     *
2311:.\Generated_Source\PSoC4/CyLFClk.c ****     *******************************************************************************/
2312:.\Generated_Source\PSoC4/CyLFClk.c ****     uint32 CySysTimerGetMode(uint32 counterNum)
2313:.\Generated_Source\PSoC4/CyLFClk.c ****     {
2314:.\Generated_Source\PSoC4/CyLFClk.c ****         return ((CY_SYS_WCO_WDT_CONFIG_REG >> (counterNum * CY_SYS_TIMER_CNT_SHIFT)) & CY_SYS_TIMER
ARM GAS  C:\Users\310295~1\AppData\Local\Temp\ccIU8zba.s 			page 110


2315:.\Generated_Source\PSoC4/CyLFClk.c ****     }
2316:.\Generated_Source\PSoC4/CyLFClk.c **** 
2317:.\Generated_Source\PSoC4/CyLFClk.c **** 
2318:.\Generated_Source\PSoC4/CyLFClk.c ****     /*******************************************************************************
2319:.\Generated_Source\PSoC4/CyLFClk.c ****     * Function Name: CySysTimerSetClearOnMatch
2320:.\Generated_Source\PSoC4/CyLFClk.c ****     ****************************************************************************//**
2321:.\Generated_Source\PSoC4/CyLFClk.c ****     *
2322:.\Generated_Source\PSoC4/CyLFClk.c ****     * \brief Configures the DeepSleep Timer counter "clear on match" setting.
2323:.\Generated_Source\PSoC4/CyLFClk.c ****     *
2324:.\Generated_Source\PSoC4/CyLFClk.c ****     * If configured to "clear on match", the counter counts from 0 to MatchValue 
2325:.\Generated_Source\PSoC4/CyLFClk.c ****     * giving it a period of (MatchValue + 1).
2326:.\Generated_Source\PSoC4/CyLFClk.c ****     *
2327:.\Generated_Source\PSoC4/CyLFClk.c ****     * \param counterNum
2328:.\Generated_Source\PSoC4/CyLFClk.c ****     * Valid range [0-1]. The number of the Timer counter. The match values are not
2329:.\Generated_Source\PSoC4/CyLFClk.c ****     * supported by counter 2.
2330:.\Generated_Source\PSoC4/CyLFClk.c ****     * \param enable 0 to disable appropriate counter <br>
2331:.\Generated_Source\PSoC4/CyLFClk.c ****     * 1 to enable appropriate counter
2332:.\Generated_Source\PSoC4/CyLFClk.c ****     *
2333:.\Generated_Source\PSoC4/CyLFClk.c ****     * \details
2334:.\Generated_Source\PSoC4/CyLFClk.c ****     * Timer counter counterNum should be disabled. Otherwise this function call
2335:.\Generated_Source\PSoC4/CyLFClk.c ****     * has no effect. If the specified counter is enabled, call the CySysTimerDisable()
2336:.\Generated_Source\PSoC4/CyLFClk.c ****     * function with the corresponding parameter to disable the specified counter and
2337:.\Generated_Source\PSoC4/CyLFClk.c ****     * wait for it to stop. This may take up to three Timer source-cycles.
2338:.\Generated_Source\PSoC4/CyLFClk.c ****     *
2339:.\Generated_Source\PSoC4/CyLFClk.c ****     *******************************************************************************/
2340:.\Generated_Source\PSoC4/CyLFClk.c ****     void CySysTimerSetClearOnMatch(uint32 counterNum, uint32 enable)
2341:.\Generated_Source\PSoC4/CyLFClk.c ****     {
2342:.\Generated_Source\PSoC4/CyLFClk.c ****         uint32 configRegValue;
2343:.\Generated_Source\PSoC4/CyLFClk.c **** 
2344:.\Generated_Source\PSoC4/CyLFClk.c ****         CYASSERT((counterNum == CY_SYS_TIMER0) ||
2345:.\Generated_Source\PSoC4/CyLFClk.c ****                  (counterNum == CY_SYS_TIMER1));
2346:.\Generated_Source\PSoC4/CyLFClk.c **** 
2347:.\Generated_Source\PSoC4/CyLFClk.c ****         if(0u == CySysTimerGetEnabledStatus(counterNum))
2348:.\Generated_Source\PSoC4/CyLFClk.c ****         {
2349:.\Generated_Source\PSoC4/CyLFClk.c ****             configRegValue = CY_SYS_WCO_WDT_CONFIG_REG & (uint32)~((uint32)((uint32)1u << 
2350:.\Generated_Source\PSoC4/CyLFClk.c ****              ((counterNum * CY_SYS_TIMER_CNT_SHIFT) + CY_SYS_TIMER_CNT_MATCH_CLR_SHIFT)));
2351:.\Generated_Source\PSoC4/CyLFClk.c **** 
2352:.\Generated_Source\PSoC4/CyLFClk.c ****             configRegValue
2353:.\Generated_Source\PSoC4/CyLFClk.c ****                 |= (uint32)(enable << ((counterNum * CY_SYS_TIMER_CNT_SHIFT) + CY_SYS_TIMER_CNT_MAT
2354:.\Generated_Source\PSoC4/CyLFClk.c **** 
2355:.\Generated_Source\PSoC4/CyLFClk.c ****             CY_SYS_WCO_WDT_CONFIG_REG = configRegValue;
2356:.\Generated_Source\PSoC4/CyLFClk.c ****         }
2357:.\Generated_Source\PSoC4/CyLFClk.c ****     }
2358:.\Generated_Source\PSoC4/CyLFClk.c **** 
2359:.\Generated_Source\PSoC4/CyLFClk.c **** 
2360:.\Generated_Source\PSoC4/CyLFClk.c ****     /*******************************************************************************
2361:.\Generated_Source\PSoC4/CyLFClk.c ****     * Function Name: CySysTimerGetClearOnMatch
2362:.\Generated_Source\PSoC4/CyLFClk.c ****     ****************************************************************************//**
2363:.\Generated_Source\PSoC4/CyLFClk.c ****     *
2364:.\Generated_Source\PSoC4/CyLFClk.c ****     * \brief Reads the "clear on match" setting for the specified DeepSleep Timer 
2365:.\Generated_Source\PSoC4/CyLFClk.c ****     * counter.
2366:.\Generated_Source\PSoC4/CyLFClk.c ****     *
2367:.\Generated_Source\PSoC4/CyLFClk.c ****     * \param counterNum Valid range [0-1].  The number of the Timer counter. The 
2368:.\Generated_Source\PSoC4/CyLFClk.c ****     * match values are not supported by counter 2.
2369:.\Generated_Source\PSoC4/CyLFClk.c ****     *
2370:.\Generated_Source\PSoC4/CyLFClk.c ****     * \return The "clear on match" status: <br>1 if enabled <br>0 if disabled
2371:.\Generated_Source\PSoC4/CyLFClk.c ****     *
ARM GAS  C:\Users\310295~1\AppData\Local\Temp\ccIU8zba.s 			page 111


2372:.\Generated_Source\PSoC4/CyLFClk.c ****     *******************************************************************************/
2373:.\Generated_Source\PSoC4/CyLFClk.c ****     uint32 CySysTimerGetClearOnMatch(uint32 counterNum)
2374:.\Generated_Source\PSoC4/CyLFClk.c ****     {
2375:.\Generated_Source\PSoC4/CyLFClk.c ****         CYASSERT((counterNum == CY_SYS_TIMER0) ||
2376:.\Generated_Source\PSoC4/CyLFClk.c ****                  (counterNum == CY_SYS_TIMER1));
2377:.\Generated_Source\PSoC4/CyLFClk.c **** 
2378:.\Generated_Source\PSoC4/CyLFClk.c ****         return (uint32)((CY_SYS_WCO_WDT_CONFIG_REG >>
2379:.\Generated_Source\PSoC4/CyLFClk.c ****                         ((counterNum * CY_SYS_TIMER_CNT_SHIFT) + CY_SYS_TIMER_CNT_MATCH_CLR_SHIFT))
2380:.\Generated_Source\PSoC4/CyLFClk.c ****     }
2381:.\Generated_Source\PSoC4/CyLFClk.c **** 
2382:.\Generated_Source\PSoC4/CyLFClk.c **** 
2383:.\Generated_Source\PSoC4/CyLFClk.c ****     /*******************************************************************************
2384:.\Generated_Source\PSoC4/CyLFClk.c ****     * Function Name: CySysTimerEnable
2385:.\Generated_Source\PSoC4/CyLFClk.c ****     ****************************************************************************//**
2386:.\Generated_Source\PSoC4/CyLFClk.c ****     *
2387:.\Generated_Source\PSoC4/CyLFClk.c ****     * \brief Enables the specified DeepSleep Timer counters. All the counters 
2388:.\Generated_Source\PSoC4/CyLFClk.c ****     * specified in the mask are enabled.
2389:.\Generated_Source\PSoC4/CyLFClk.c ****     *
2390:.\Generated_Source\PSoC4/CyLFClk.c ****     * \param counterMask  CY_SYS_TIMER0_MASK - The mask for counter 0 to enable.<br>
2391:.\Generated_Source\PSoC4/CyLFClk.c ****     * CY_SYS_TIMER1_MASK - The mask for counter 1 to enable.<br>
2392:.\Generated_Source\PSoC4/CyLFClk.c ****     * CY_SYS_TIMER2_MASK - The mask for counter 2 to enable.
2393:.\Generated_Source\PSoC4/CyLFClk.c ****     *
2394:.\Generated_Source\PSoC4/CyLFClk.c ****     * \details
2395:.\Generated_Source\PSoC4/CyLFClk.c ****     * Enabling or disabling Timer requires 3 Timer source-cycles to come into effect.
2396:.\Generated_Source\PSoC4/CyLFClk.c ****     * Therefore, the Timer enable state must not be changed more than once in
2397:.\Generated_Source\PSoC4/CyLFClk.c ****     * that period.
2398:.\Generated_Source\PSoC4/CyLFClk.c ****     *
2399:.\Generated_Source\PSoC4/CyLFClk.c ****     * After Timer is enabled, it is illegal to write Timer configuration 
2400:.\Generated_Source\PSoC4/CyLFClk.c ****     * (WCO_WDT_CONFIG) and control (WCO_WDT_CONTROL) registers. This means that all
2401:.\Generated_Source\PSoC4/CyLFClk.c ****     * Timer functions that contain 'write' in the name (with the exception of 
2402:.\Generated_Source\PSoC4/CyLFClk.c ****     * CySysTimerSetMatch() function) are illegal to call once Timer enabled.
2403:.\Generated_Source\PSoC4/CyLFClk.c ****     *
2404:.\Generated_Source\PSoC4/CyLFClk.c ****     * Timer current source must be running and stable before calling this 
2405:.\Generated_Source\PSoC4/CyLFClk.c ****     * function.
2406:.\Generated_Source\PSoC4/CyLFClk.c ****     *
2407:.\Generated_Source\PSoC4/CyLFClk.c ****     *******************************************************************************/
2408:.\Generated_Source\PSoC4/CyLFClk.c ****     void CySysTimerEnable(uint32 counterMask)
2409:.\Generated_Source\PSoC4/CyLFClk.c ****     {
2410:.\Generated_Source\PSoC4/CyLFClk.c ****         CY_SYS_WCO_WDT_CONTROL_REG |= counterMask;
2411:.\Generated_Source\PSoC4/CyLFClk.c **** 
2412:.\Generated_Source\PSoC4/CyLFClk.c ****         if(0u != (counterMask & CY_SYS_TIMER0_MASK))
2413:.\Generated_Source\PSoC4/CyLFClk.c ****         {
2414:.\Generated_Source\PSoC4/CyLFClk.c ****             while (0u == CySysTimerGetEnabledStatus(CY_SYS_TIMER0))
2415:.\Generated_Source\PSoC4/CyLFClk.c ****             {
2416:.\Generated_Source\PSoC4/CyLFClk.c ****                 /* Wait for changes to come into effect */
2417:.\Generated_Source\PSoC4/CyLFClk.c ****             }
2418:.\Generated_Source\PSoC4/CyLFClk.c ****         }
2419:.\Generated_Source\PSoC4/CyLFClk.c **** 
2420:.\Generated_Source\PSoC4/CyLFClk.c ****         if(0u != (counterMask & CY_SYS_TIMER1_MASK))
2421:.\Generated_Source\PSoC4/CyLFClk.c ****         {
2422:.\Generated_Source\PSoC4/CyLFClk.c ****             while (0u == CySysTimerGetEnabledStatus(CY_SYS_TIMER1))
2423:.\Generated_Source\PSoC4/CyLFClk.c ****             {
2424:.\Generated_Source\PSoC4/CyLFClk.c ****                 /* Wait for changes to come into effect */
2425:.\Generated_Source\PSoC4/CyLFClk.c ****             }
2426:.\Generated_Source\PSoC4/CyLFClk.c ****         }
2427:.\Generated_Source\PSoC4/CyLFClk.c **** 
2428:.\Generated_Source\PSoC4/CyLFClk.c ****         if(0u != (counterMask & CY_SYS_TIMER2_MASK))
ARM GAS  C:\Users\310295~1\AppData\Local\Temp\ccIU8zba.s 			page 112


2429:.\Generated_Source\PSoC4/CyLFClk.c ****         {
2430:.\Generated_Source\PSoC4/CyLFClk.c ****             while (0u == CySysTimerGetEnabledStatus(CY_SYS_TIMER2))
2431:.\Generated_Source\PSoC4/CyLFClk.c ****             {
2432:.\Generated_Source\PSoC4/CyLFClk.c ****                 /* Wait for changes to come into effect */
2433:.\Generated_Source\PSoC4/CyLFClk.c ****             }
2434:.\Generated_Source\PSoC4/CyLFClk.c ****         }
2435:.\Generated_Source\PSoC4/CyLFClk.c ****     }
2436:.\Generated_Source\PSoC4/CyLFClk.c **** 
2437:.\Generated_Source\PSoC4/CyLFClk.c **** 
2438:.\Generated_Source\PSoC4/CyLFClk.c ****     /*******************************************************************************
2439:.\Generated_Source\PSoC4/CyLFClk.c ****     * Function Name: CySysTimerDisable
2440:.\Generated_Source\PSoC4/CyLFClk.c ****     ****************************************************************************//**
2441:.\Generated_Source\PSoC4/CyLFClk.c ****     *
2442:.\Generated_Source\PSoC4/CyLFClk.c ****     * \brief Disables the specified DeepSleep Timer counters.
2443:.\Generated_Source\PSoC4/CyLFClk.c ****     *
2444:.\Generated_Source\PSoC4/CyLFClk.c ****     * All the counters specified in the mask are disabled. The function waits for 
2445:.\Generated_Source\PSoC4/CyLFClk.c ****     * the changes to come into effect.
2446:.\Generated_Source\PSoC4/CyLFClk.c ****     *
2447:.\Generated_Source\PSoC4/CyLFClk.c ****     * \param counterMask
2448:.\Generated_Source\PSoC4/CyLFClk.c ****     *  CY_SYS_TIMER0_MASK - The mask for Counter 0 to disable.<br>
2449:.\Generated_Source\PSoC4/CyLFClk.c ****     * CY_SYS_TIMER1_MASK - The mask for Counter 1 to disable.<br>
2450:.\Generated_Source\PSoC4/CyLFClk.c ****     * CY_SYS_TIMER2_MASK - The mask for Counter 2 to disable.
2451:.\Generated_Source\PSoC4/CyLFClk.c ****     *
2452:.\Generated_Source\PSoC4/CyLFClk.c ****     *******************************************************************************/
2453:.\Generated_Source\PSoC4/CyLFClk.c ****     void CySysTimerDisable(uint32 counterMask)
2454:.\Generated_Source\PSoC4/CyLFClk.c ****     {
2455:.\Generated_Source\PSoC4/CyLFClk.c **** 
2456:.\Generated_Source\PSoC4/CyLFClk.c ****         CY_SYS_WCO_WDT_CONTROL_REG &= ~counterMask;
2457:.\Generated_Source\PSoC4/CyLFClk.c **** 
2458:.\Generated_Source\PSoC4/CyLFClk.c ****         if(0u != (counterMask & CY_SYS_TIMER0_MASK))
2459:.\Generated_Source\PSoC4/CyLFClk.c ****         {
2460:.\Generated_Source\PSoC4/CyLFClk.c ****             while (0u != CySysTimerGetEnabledStatus(CY_SYS_TIMER0))
2461:.\Generated_Source\PSoC4/CyLFClk.c ****             {
2462:.\Generated_Source\PSoC4/CyLFClk.c ****                 /* Wait for changes to come into effect */
2463:.\Generated_Source\PSoC4/CyLFClk.c ****             }
2464:.\Generated_Source\PSoC4/CyLFClk.c ****         }
2465:.\Generated_Source\PSoC4/CyLFClk.c **** 
2466:.\Generated_Source\PSoC4/CyLFClk.c ****         if(0u != (counterMask & CY_SYS_TIMER1_MASK))
2467:.\Generated_Source\PSoC4/CyLFClk.c ****         {
2468:.\Generated_Source\PSoC4/CyLFClk.c ****             while (0u != CySysTimerGetEnabledStatus(CY_SYS_TIMER1))
2469:.\Generated_Source\PSoC4/CyLFClk.c ****             {
2470:.\Generated_Source\PSoC4/CyLFClk.c ****                 /* Wait for changes to come into effect */
2471:.\Generated_Source\PSoC4/CyLFClk.c ****             }
2472:.\Generated_Source\PSoC4/CyLFClk.c ****         }
2473:.\Generated_Source\PSoC4/CyLFClk.c **** 
2474:.\Generated_Source\PSoC4/CyLFClk.c ****         if(0u != (counterMask & CY_SYS_TIMER2_MASK))
2475:.\Generated_Source\PSoC4/CyLFClk.c ****         {
2476:.\Generated_Source\PSoC4/CyLFClk.c ****             while (0u != CySysTimerGetEnabledStatus(CY_SYS_TIMER2))
2477:.\Generated_Source\PSoC4/CyLFClk.c ****             {
2478:.\Generated_Source\PSoC4/CyLFClk.c ****                 /* Wait for changes to come into effect */
2479:.\Generated_Source\PSoC4/CyLFClk.c ****             }
2480:.\Generated_Source\PSoC4/CyLFClk.c ****         }
2481:.\Generated_Source\PSoC4/CyLFClk.c **** 
2482:.\Generated_Source\PSoC4/CyLFClk.c ****     }
2483:.\Generated_Source\PSoC4/CyLFClk.c **** 
2484:.\Generated_Source\PSoC4/CyLFClk.c **** 
2485:.\Generated_Source\PSoC4/CyLFClk.c ****     /*******************************************************************************
ARM GAS  C:\Users\310295~1\AppData\Local\Temp\ccIU8zba.s 			page 113


2486:.\Generated_Source\PSoC4/CyLFClk.c ****     * Function Name: CySysTimerSetCascade
2487:.\Generated_Source\PSoC4/CyLFClk.c ****     ****************************************************************************//**
2488:.\Generated_Source\PSoC4/CyLFClk.c ****     *
2489:.\Generated_Source\PSoC4/CyLFClk.c ****     * \brief
2490:.\Generated_Source\PSoC4/CyLFClk.c ****     * Writes the two DeepSleep Timers cascade values based on the combination of 
2491:.\Generated_Source\PSoC4/CyLFClk.c ****     * mask values specified.
2492:.\Generated_Source\PSoC4/CyLFClk.c ****     *
2493:.\Generated_Source\PSoC4/CyLFClk.c ****     * \param cascadeMask The mask value used to set or clear the cascade values:
2494:.\Generated_Source\PSoC4/CyLFClk.c ****     * CY_SYS_TIMER_CASCADE_NONE - Neither<br>
2495:.\Generated_Source\PSoC4/CyLFClk.c ****     * CY_SYS_TIMER_CASCADE_01 - Cascade 01<br>
2496:.\Generated_Source\PSoC4/CyLFClk.c ****     * CY_SYS_TIMER_CASCADE_12 - Cascade 12
2497:.\Generated_Source\PSoC4/CyLFClk.c ****     *
2498:.\Generated_Source\PSoC4/CyLFClk.c ****     * If only one cascade mask is specified, the second cascade is disabled.
2499:.\Generated_Source\PSoC4/CyLFClk.c ****     * To set both cascade modes, two defines should be ORed:
2500:.\Generated_Source\PSoC4/CyLFClk.c ****     * (CY_SYS_TIMER_CASCADE_01 | CY_SYS_TIMER_CASCADE_12).
2501:.\Generated_Source\PSoC4/CyLFClk.c ****     * \note If CySysTimerSetCascade() was called with ORed defines it is necessary 
2502:.\Generated_Source\PSoC4/CyLFClk.c ****     * to call CySysTimeSetClearOnMatch(1,1). It is needed to make sure that 
2503:.\Generated_Source\PSoC4/CyLFClk.c ****     * Counter 2 will be updated in the expected way.
2504:.\Generated_Source\PSoC4/CyLFClk.c ****     *
2505:.\Generated_Source\PSoC4/CyLFClk.c ****     * Timer counters that are part of the specified cascade should be disabled.
2506:.\Generated_Source\PSoC4/CyLFClk.c ****     * Otherwise this function call has no effect. If the specified
2507:.\Generated_Source\PSoC4/CyLFClk.c ****     * counter is enabled, call CySysTimerDisable() function with the corresponding
2508:.\Generated_Source\PSoC4/CyLFClk.c ****     * parameter to disable the specified counter and wait for it to stop. This may
2509:.\Generated_Source\PSoC4/CyLFClk.c ****     * take up to 3 Timers source-cycles.
2510:.\Generated_Source\PSoC4/CyLFClk.c ****     *
2511:.\Generated_Source\PSoC4/CyLFClk.c ****     *******************************************************************************/
2512:.\Generated_Source\PSoC4/CyLFClk.c ****     void CySysTimerSetCascade(uint32 cascadeMask)
2513:.\Generated_Source\PSoC4/CyLFClk.c ****     {
2514:.\Generated_Source\PSoC4/CyLFClk.c ****         uint32 configRegValue;
2515:.\Generated_Source\PSoC4/CyLFClk.c ****         uint32 countersEnableStatus;
2516:.\Generated_Source\PSoC4/CyLFClk.c **** 
2517:.\Generated_Source\PSoC4/CyLFClk.c ****         countersEnableStatus = CySysTimerGetEnabledStatus(CY_SYS_TIMER0) |
2518:.\Generated_Source\PSoC4/CyLFClk.c ****                             CySysTimerGetEnabledStatus(CY_SYS_TIMER1) |
2519:.\Generated_Source\PSoC4/CyLFClk.c ****                             CySysTimerGetEnabledStatus(CY_SYS_TIMER2);
2520:.\Generated_Source\PSoC4/CyLFClk.c **** 
2521:.\Generated_Source\PSoC4/CyLFClk.c ****         if (0u == countersEnableStatus)
2522:.\Generated_Source\PSoC4/CyLFClk.c ****         {
2523:.\Generated_Source\PSoC4/CyLFClk.c ****             configRegValue = CY_SYS_WCO_WDT_CONFIG_REG;
2524:.\Generated_Source\PSoC4/CyLFClk.c ****             configRegValue &= ((uint32)(~(CY_SYS_TIMER_CASCADE_01|CY_SYS_TIMER_CASCADE_12)));
2525:.\Generated_Source\PSoC4/CyLFClk.c ****             configRegValue |= cascadeMask;
2526:.\Generated_Source\PSoC4/CyLFClk.c ****             CY_SYS_WCO_WDT_CONFIG_REG = configRegValue;
2527:.\Generated_Source\PSoC4/CyLFClk.c ****         }
2528:.\Generated_Source\PSoC4/CyLFClk.c ****     }
2529:.\Generated_Source\PSoC4/CyLFClk.c **** 
2530:.\Generated_Source\PSoC4/CyLFClk.c **** 
2531:.\Generated_Source\PSoC4/CyLFClk.c ****     /*******************************************************************************
2532:.\Generated_Source\PSoC4/CyLFClk.c ****     * Function Name: CySysTimerGetCascade
2533:.\Generated_Source\PSoC4/CyLFClk.c ****     ****************************************************************************//**
2534:.\Generated_Source\PSoC4/CyLFClk.c ****     *
2535:.\Generated_Source\PSoC4/CyLFClk.c ****     * \brief Reads the two DeepSleep Timer cascade values returning a mask of the 
2536:.\Generated_Source\PSoC4/CyLFClk.c ****     * bits set.
2537:.\Generated_Source\PSoC4/CyLFClk.c ****     *
2538:.\Generated_Source\PSoC4/CyLFClk.c ****     * \return The mask of the cascade values set.
2539:.\Generated_Source\PSoC4/CyLFClk.c ****     * \return CY_SYS_TIMER_CASCADE_NONE - Neither
2540:.\Generated_Source\PSoC4/CyLFClk.c ****     * \return CY_SYS_TIMER_CASCADE_01 - Cascade 01
2541:.\Generated_Source\PSoC4/CyLFClk.c ****     * \return CY_SYS_TIMER_CASCADE_12 - Cascade 12
2542:.\Generated_Source\PSoC4/CyLFClk.c ****     *
ARM GAS  C:\Users\310295~1\AppData\Local\Temp\ccIU8zba.s 			page 114


2543:.\Generated_Source\PSoC4/CyLFClk.c ****     *******************************************************************************/
2544:.\Generated_Source\PSoC4/CyLFClk.c ****     uint32 CySysTimerGetCascade(void)
2545:.\Generated_Source\PSoC4/CyLFClk.c ****     {
2546:.\Generated_Source\PSoC4/CyLFClk.c ****         return (CY_SYS_WCO_WDT_CONFIG_REG & (CY_SYS_TIMER_CASCADE_01 | CY_SYS_TIMER_CASCADE_12));
2547:.\Generated_Source\PSoC4/CyLFClk.c ****     }
2548:.\Generated_Source\PSoC4/CyLFClk.c **** 
2549:.\Generated_Source\PSoC4/CyLFClk.c **** 
2550:.\Generated_Source\PSoC4/CyLFClk.c ****     /*******************************************************************************
2551:.\Generated_Source\PSoC4/CyLFClk.c ****     * Function Name: CySysTimerSetMatch
2552:.\Generated_Source\PSoC4/CyLFClk.c ****     ****************************************************************************//**
2553:.\Generated_Source\PSoC4/CyLFClk.c ****     *
2554:.\Generated_Source\PSoC4/CyLFClk.c ****     * \brief Configures the Timer counter match comparison value.
2555:.\Generated_Source\PSoC4/CyLFClk.c ****     *
2556:.\Generated_Source\PSoC4/CyLFClk.c ****     * \param counterNum Valid range [0-1]. The number of the Timer counter. The 
2557:.\Generated_Source\PSoC4/CyLFClk.c ****     * match values are not supported by counter 2.
2558:.\Generated_Source\PSoC4/CyLFClk.c ****     *
2559:.\Generated_Source\PSoC4/CyLFClk.c ****     * \param match Valid range [0-65535]. The value to be used to match against 
2560:.\Generated_Source\PSoC4/CyLFClk.c ****     * the counter.
2561:.\Generated_Source\PSoC4/CyLFClk.c ****     *
2562:.\Generated_Source\PSoC4/CyLFClk.c ****     *******************************************************************************/
2563:.\Generated_Source\PSoC4/CyLFClk.c ****     void CySysTimerSetMatch(uint32 counterNum, uint32 match)
2564:.\Generated_Source\PSoC4/CyLFClk.c ****     {
2565:.\Generated_Source\PSoC4/CyLFClk.c ****         uint32 regValue;
2566:.\Generated_Source\PSoC4/CyLFClk.c **** 
2567:.\Generated_Source\PSoC4/CyLFClk.c ****         CYASSERT((counterNum == CY_SYS_TIMER0) ||
2568:.\Generated_Source\PSoC4/CyLFClk.c ****                  (counterNum == CY_SYS_TIMER1));
2569:.\Generated_Source\PSoC4/CyLFClk.c **** 
2570:.\Generated_Source\PSoC4/CyLFClk.c ****         /* Wait for previous changes to come into effect */
2571:.\Generated_Source\PSoC4/CyLFClk.c ****         CyDelayUs(CY_SYS_3TIMER_DELAY_US);
2572:.\Generated_Source\PSoC4/CyLFClk.c **** 
2573:.\Generated_Source\PSoC4/CyLFClk.c ****         regValue = CY_SYS_WCO_WDT_MATCH_REG;
2574:.\Generated_Source\PSoC4/CyLFClk.c ****         regValue &= (uint32)~((uint32)(CY_SYS_TIMER_LOWER_16BITS_MASK << (counterNum * CY_SYS_TIMER
2575:.\Generated_Source\PSoC4/CyLFClk.c ****         CY_SYS_WCO_WDT_MATCH_REG = (regValue | (match << (counterNum * CY_SYS_TIMER_CNT_MATCH_SHIFT
2576:.\Generated_Source\PSoC4/CyLFClk.c **** 
2577:.\Generated_Source\PSoC4/CyLFClk.c ****         /* Make sure match synchronization has started */
2578:.\Generated_Source\PSoC4/CyLFClk.c ****         CyDelayUs(CY_SYS_1TIMER_DELAY_US);
2579:.\Generated_Source\PSoC4/CyLFClk.c ****     }
2580:.\Generated_Source\PSoC4/CyLFClk.c **** 
2581:.\Generated_Source\PSoC4/CyLFClk.c **** 
2582:.\Generated_Source\PSoC4/CyLFClk.c ****     /*******************************************************************************
2583:.\Generated_Source\PSoC4/CyLFClk.c ****     * Function Name: CySysTimerSetToggleBit
2584:.\Generated_Source\PSoC4/CyLFClk.c ****     ****************************************************************************//**
2585:.\Generated_Source\PSoC4/CyLFClk.c ****     *
2586:.\Generated_Source\PSoC4/CyLFClk.c ****     * \brief Configures which bit in Timer counter 2 to monitor for a toggle.
2587:.\Generated_Source\PSoC4/CyLFClk.c ****     *
2588:.\Generated_Source\PSoC4/CyLFClk.c ****     * When that bit toggles, an interrupt is generated if mode for counter 2 has
2589:.\Generated_Source\PSoC4/CyLFClk.c ****     * enabled interrupts.
2590:.\Generated_Source\PSoC4/CyLFClk.c ****     *
2591:.\Generated_Source\PSoC4/CyLFClk.c ****     * \param bits Valid range [0-31]. Counter 2 bit to monitor for a toggle.
2592:.\Generated_Source\PSoC4/CyLFClk.c ****     *
2593:.\Generated_Source\PSoC4/CyLFClk.c ****     * \details Timer counter 2 should be disabled. Otherwise this function call has
2594:.\Generated_Source\PSoC4/CyLFClk.c ****     * no effect.
2595:.\Generated_Source\PSoC4/CyLFClk.c ****     *
2596:.\Generated_Source\PSoC4/CyLFClk.c ****     * If the specified counter is enabled, call the CySysTimerDisable() function with
2597:.\Generated_Source\PSoC4/CyLFClk.c ****     * the corresponding parameter to disable the specified counter and wait for it to
2598:.\Generated_Source\PSoC4/CyLFClk.c ****     * stop. This may take up to three Timer source-cycles.
2599:.\Generated_Source\PSoC4/CyLFClk.c ****     *
ARM GAS  C:\Users\310295~1\AppData\Local\Temp\ccIU8zba.s 			page 115


2600:.\Generated_Source\PSoC4/CyLFClk.c ****     *******************************************************************************/
2601:.\Generated_Source\PSoC4/CyLFClk.c ****     void CySysTimerSetToggleBit(uint32 bits)
2602:.\Generated_Source\PSoC4/CyLFClk.c ****     {
2603:.\Generated_Source\PSoC4/CyLFClk.c ****         uint32 configRegValue;
2604:.\Generated_Source\PSoC4/CyLFClk.c **** 
2605:.\Generated_Source\PSoC4/CyLFClk.c ****         if (0u == CySysTimerGetEnabledStatus(CY_SYS_TIMER2))
2606:.\Generated_Source\PSoC4/CyLFClk.c ****         {
2607:.\Generated_Source\PSoC4/CyLFClk.c ****             configRegValue = CY_SYS_WCO_WDT_CONFIG_REG;
2608:.\Generated_Source\PSoC4/CyLFClk.c ****             configRegValue &= (uint32)(~((uint32)(CY_SYS_TIMER_CONFIG_BITS2_MASK << CY_SYS_TIMER_CO
2609:.\Generated_Source\PSoC4/CyLFClk.c ****             configRegValue |= ((bits & CY_SYS_TIMER_CONFIG_BITS2_MASK) << CY_SYS_TIMER_CONFIG_BITS2
2610:.\Generated_Source\PSoC4/CyLFClk.c ****             CY_SYS_WCO_WDT_CONFIG_REG = configRegValue;
2611:.\Generated_Source\PSoC4/CyLFClk.c ****         }
2612:.\Generated_Source\PSoC4/CyLFClk.c ****     }
2613:.\Generated_Source\PSoC4/CyLFClk.c **** 
2614:.\Generated_Source\PSoC4/CyLFClk.c **** 
2615:.\Generated_Source\PSoC4/CyLFClk.c ****     /*******************************************************************************
2616:.\Generated_Source\PSoC4/CyLFClk.c ****     * Function Name: CySysTimerGetToggleBit
2617:.\Generated_Source\PSoC4/CyLFClk.c ****     ****************************************************************************//**
2618:.\Generated_Source\PSoC4/CyLFClk.c ****     *
2619:.\Generated_Source\PSoC4/CyLFClk.c ****     * \brief Reads which bit in Timer counter 2 is monitored for a toggle.
2620:.\Generated_Source\PSoC4/CyLFClk.c ****     *
2621:.\Generated_Source\PSoC4/CyLFClk.c ****     * \return The bit that is monitored (range of 0 to 31)
2622:.\Generated_Source\PSoC4/CyLFClk.c ****     *
2623:.\Generated_Source\PSoC4/CyLFClk.c ****     *******************************************************************************/
2624:.\Generated_Source\PSoC4/CyLFClk.c ****     uint32 CySysTimerGetToggleBit(void)
2625:.\Generated_Source\PSoC4/CyLFClk.c ****     {
2626:.\Generated_Source\PSoC4/CyLFClk.c ****         return ((CY_SYS_WCO_WDT_CONFIG_REG >> CY_SYS_TIMER_CONFIG_BITS2_POS) & CY_SYS_TIMER_CONFIG_
2627:.\Generated_Source\PSoC4/CyLFClk.c ****     }
2628:.\Generated_Source\PSoC4/CyLFClk.c **** 
2629:.\Generated_Source\PSoC4/CyLFClk.c **** 
2630:.\Generated_Source\PSoC4/CyLFClk.c ****     /*******************************************************************************
2631:.\Generated_Source\PSoC4/CyLFClk.c ****     * Function Name: CySysTimerGetMatch
2632:.\Generated_Source\PSoC4/CyLFClk.c ****     ****************************************************************************//**
2633:.\Generated_Source\PSoC4/CyLFClk.c ****     *
2634:.\Generated_Source\PSoC4/CyLFClk.c ****     * \brief Reads the Timer counter match comparison value.
2635:.\Generated_Source\PSoC4/CyLFClk.c ****     *
2636:.\Generated_Source\PSoC4/CyLFClk.c ****     * \param counterNum Valid range [0-1]. The number of the DeepSleep Timer 
2637:.\Generated_Source\PSoC4/CyLFClk.c ****     * counter. The match values are not supported by counter 2.
2638:.\Generated_Source\PSoC4/CyLFClk.c ****     *
2639:.\Generated_Source\PSoC4/CyLFClk.c ****     * \return A 16-bit match value.
2640:.\Generated_Source\PSoC4/CyLFClk.c ****     *
2641:.\Generated_Source\PSoC4/CyLFClk.c ****     *******************************************************************************/
2642:.\Generated_Source\PSoC4/CyLFClk.c ****     uint32 CySysTimerGetMatch(uint32 counterNum)
2643:.\Generated_Source\PSoC4/CyLFClk.c ****     {
2644:.\Generated_Source\PSoC4/CyLFClk.c ****         CYASSERT((counterNum == CY_SYS_TIMER0) ||
2645:.\Generated_Source\PSoC4/CyLFClk.c ****                  (counterNum == CY_SYS_TIMER1));
2646:.\Generated_Source\PSoC4/CyLFClk.c **** 
2647:.\Generated_Source\PSoC4/CyLFClk.c ****         return ((uint32)(CY_SYS_WCO_WDT_MATCH_REG >> (counterNum * CY_SYS_TIMER_CNT_MATCH_SHIFT)) &
2648:.\Generated_Source\PSoC4/CyLFClk.c ****                                                                   CY_SYS_TIMER_LOWER_16BITS_MASK);
2649:.\Generated_Source\PSoC4/CyLFClk.c ****     }
2650:.\Generated_Source\PSoC4/CyLFClk.c **** 
2651:.\Generated_Source\PSoC4/CyLFClk.c **** 
2652:.\Generated_Source\PSoC4/CyLFClk.c ****     /*******************************************************************************
2653:.\Generated_Source\PSoC4/CyLFClk.c ****     * Function Name: CySysTimerGetCount
2654:.\Generated_Source\PSoC4/CyLFClk.c ****     ****************************************************************************//**
2655:.\Generated_Source\PSoC4/CyLFClk.c ****     *
2656:.\Generated_Source\PSoC4/CyLFClk.c ****     * \brief Reads the current DeepSleep Timer counter value.
ARM GAS  C:\Users\310295~1\AppData\Local\Temp\ccIU8zba.s 			page 116


2657:.\Generated_Source\PSoC4/CyLFClk.c ****     *
2658:.\Generated_Source\PSoC4/CyLFClk.c ****     * \param counterNum Valid range [0-2]. The number of the Timer counter.
2659:.\Generated_Source\PSoC4/CyLFClk.c ****     *
2660:.\Generated_Source\PSoC4/CyLFClk.c ****     * \return A live counter value. Counter 0 and Counter 1 are 16 bit counters 
2661:.\Generated_Source\PSoC4/CyLFClk.c ****     * and counter 2 is a 32 bit counter.
2662:.\Generated_Source\PSoC4/CyLFClk.c ****     *
2663:.\Generated_Source\PSoC4/CyLFClk.c ****     *******************************************************************************/
2664:.\Generated_Source\PSoC4/CyLFClk.c ****     uint32 CySysTimerGetCount(uint32 counterNum)
2665:.\Generated_Source\PSoC4/CyLFClk.c ****     {
2666:.\Generated_Source\PSoC4/CyLFClk.c ****         uint32 regValue = 0u;
2667:.\Generated_Source\PSoC4/CyLFClk.c **** 
2668:.\Generated_Source\PSoC4/CyLFClk.c ****         switch(counterNum)
2669:.\Generated_Source\PSoC4/CyLFClk.c ****         {
2670:.\Generated_Source\PSoC4/CyLFClk.c ****             /* Timer Counter 0 */
2671:.\Generated_Source\PSoC4/CyLFClk.c ****             case 0u:
2672:.\Generated_Source\PSoC4/CyLFClk.c ****                 regValue = CY_SYS_WCO_WDT_CTRLOW_REG & CY_SYS_TIMER_LOWER_16BITS_MASK;
2673:.\Generated_Source\PSoC4/CyLFClk.c ****             break;
2674:.\Generated_Source\PSoC4/CyLFClk.c **** 
2675:.\Generated_Source\PSoC4/CyLFClk.c ****             /* Timer Counter 1 */
2676:.\Generated_Source\PSoC4/CyLFClk.c ****             case 1u:
2677:.\Generated_Source\PSoC4/CyLFClk.c ****                 regValue = (CY_SYS_WCO_WDT_CTRLOW_REG >> CY_SYS_TIMER_CNT_MATCH_SHIFT) & CY_SYS_TIM
2678:.\Generated_Source\PSoC4/CyLFClk.c ****             break;
2679:.\Generated_Source\PSoC4/CyLFClk.c **** 
2680:.\Generated_Source\PSoC4/CyLFClk.c ****             /* Timer Counter 2 */
2681:.\Generated_Source\PSoC4/CyLFClk.c ****             case 2u:
2682:.\Generated_Source\PSoC4/CyLFClk.c ****                 regValue = CY_SYS_WCO_WDT_CTRHIGH_REG;
2683:.\Generated_Source\PSoC4/CyLFClk.c ****             break;
2684:.\Generated_Source\PSoC4/CyLFClk.c **** 
2685:.\Generated_Source\PSoC4/CyLFClk.c ****             default:
2686:.\Generated_Source\PSoC4/CyLFClk.c ****                 CYASSERT(0u != 0u);
2687:.\Generated_Source\PSoC4/CyLFClk.c ****             break;
2688:.\Generated_Source\PSoC4/CyLFClk.c ****         }
2689:.\Generated_Source\PSoC4/CyLFClk.c **** 
2690:.\Generated_Source\PSoC4/CyLFClk.c ****         return (regValue);
2691:.\Generated_Source\PSoC4/CyLFClk.c ****     }
2692:.\Generated_Source\PSoC4/CyLFClk.c **** 
2693:.\Generated_Source\PSoC4/CyLFClk.c **** 
2694:.\Generated_Source\PSoC4/CyLFClk.c ****     /*******************************************************************************
2695:.\Generated_Source\PSoC4/CyLFClk.c ****     * Function Name: CySysTimerGetInterruptSource
2696:.\Generated_Source\PSoC4/CyLFClk.c ****     ****************************************************************************//**
2697:.\Generated_Source\PSoC4/CyLFClk.c ****     *
2698:.\Generated_Source\PSoC4/CyLFClk.c ****     * \brief
2699:.\Generated_Source\PSoC4/CyLFClk.c ****     * Reads a mask containing all the DeepSleep Timer counters interrupts that are 
2700:.\Generated_Source\PSoC4/CyLFClk.c ****     * currently set by the hardware, if a corresponding mode is selected.
2701:.\Generated_Source\PSoC4/CyLFClk.c ****     *
2702:.\Generated_Source\PSoC4/CyLFClk.c ****     * \return The mask of interrupts set
2703:.\Generated_Source\PSoC4/CyLFClk.c ****     * \return CY_SYS_TIMER0_INT - Set interrupt for Counter 0
2704:.\Generated_Source\PSoC4/CyLFClk.c ****     * \return CY_SYS_TIMER1_INT - Set interrupt for Counter 1
2705:.\Generated_Source\PSoC4/CyLFClk.c ****     * \return CY_SYS_TIMER2_INT - Set interrupt for Counter 2
2706:.\Generated_Source\PSoC4/CyLFClk.c ****     *
2707:.\Generated_Source\PSoC4/CyLFClk.c ****     *******************************************************************************/
2708:.\Generated_Source\PSoC4/CyLFClk.c ****     uint32 CySysTimerGetInterruptSource(void)
2709:.\Generated_Source\PSoC4/CyLFClk.c ****     {
2710:.\Generated_Source\PSoC4/CyLFClk.c ****         return (CY_SYS_WCO_WDT_CONTROL_REG & (CY_SYS_TIMER0_INT | CY_SYS_TIMER1_INT | CY_SYS_TIMER2
2711:.\Generated_Source\PSoC4/CyLFClk.c ****     }
2712:.\Generated_Source\PSoC4/CyLFClk.c **** 
2713:.\Generated_Source\PSoC4/CyLFClk.c **** 
ARM GAS  C:\Users\310295~1\AppData\Local\Temp\ccIU8zba.s 			page 117


2714:.\Generated_Source\PSoC4/CyLFClk.c ****     /*******************************************************************************
2715:.\Generated_Source\PSoC4/CyLFClk.c ****     * Function Name: CySysTimerClearInterrupt
2716:.\Generated_Source\PSoC4/CyLFClk.c ****     ****************************************************************************//**
2717:.\Generated_Source\PSoC4/CyLFClk.c ****     *
2718:.\Generated_Source\PSoC4/CyLFClk.c ****     * \brief Clears all the DeepSleep Timer counter interrupts set in the mask.
2719:.\Generated_Source\PSoC4/CyLFClk.c ****     *
2720:.\Generated_Source\PSoC4/CyLFClk.c ****     * All the Timer interrupts are to be cleared by the firmware, otherwise
2721:.\Generated_Source\PSoC4/CyLFClk.c ****     * interrupts are generated continuously.
2722:.\Generated_Source\PSoC4/CyLFClk.c ****     *
2723:.\Generated_Source\PSoC4/CyLFClk.c ****     * \param counterMask
2724:.\Generated_Source\PSoC4/CyLFClk.c ****     *  CY_SYS_TIMER0_INT - Clear counter 0<br>
2725:.\Generated_Source\PSoC4/CyLFClk.c ****     * CY_SYS_TIMER1_INT - Clear counter 1<br>
2726:.\Generated_Source\PSoC4/CyLFClk.c ****     * CY_SYS_TIMER2_INT - Clear counter 2
2727:.\Generated_Source\PSoC4/CyLFClk.c ****     *
2728:.\Generated_Source\PSoC4/CyLFClk.c ****     *******************************************************************************/
2729:.\Generated_Source\PSoC4/CyLFClk.c ****     void CySysTimerClearInterrupt(uint32 counterMask)
2730:.\Generated_Source\PSoC4/CyLFClk.c ****     {
2731:.\Generated_Source\PSoC4/CyLFClk.c ****         uint8 interruptState;
2732:.\Generated_Source\PSoC4/CyLFClk.c ****         interruptState = CyEnterCriticalSection();
2733:.\Generated_Source\PSoC4/CyLFClk.c **** 
2734:.\Generated_Source\PSoC4/CyLFClk.c ****         /* Set new WCO_TIMER control register value */
2735:.\Generated_Source\PSoC4/CyLFClk.c ****         counterMask &= (CY_SYS_TIMER0_INT |
2736:.\Generated_Source\PSoC4/CyLFClk.c ****                         CY_SYS_TIMER1_INT |
2737:.\Generated_Source\PSoC4/CyLFClk.c ****                         CY_SYS_TIMER2_INT);
2738:.\Generated_Source\PSoC4/CyLFClk.c **** 
2739:.\Generated_Source\PSoC4/CyLFClk.c ****         CY_SYS_WCO_WDT_CONTROL_REG = counterMask | (CY_SYS_WCO_WDT_CONTROL_REG & ~(CY_SYS_TIMER0_IN
2740:.\Generated_Source\PSoC4/CyLFClk.c ****                                                                            CY_SYS_TIMER1_INT |
2741:.\Generated_Source\PSoC4/CyLFClk.c ****                                                                            CY_SYS_TIMER2_INT));
2742:.\Generated_Source\PSoC4/CyLFClk.c **** 
2743:.\Generated_Source\PSoC4/CyLFClk.c ****         /* Read the CY_SYS_WDT_CONTROL_REG to clear the interrupt request.
2744:.\Generated_Source\PSoC4/CyLFClk.c ****          * Cypress ID #207093, #206231
2745:.\Generated_Source\PSoC4/CyLFClk.c ****         */
2746:.\Generated_Source\PSoC4/CyLFClk.c ****         (void)CY_SYS_WCO_WDT_CONTROL_REG;
2747:.\Generated_Source\PSoC4/CyLFClk.c **** 
2748:.\Generated_Source\PSoC4/CyLFClk.c ****         CyExitCriticalSection(interruptState);
2749:.\Generated_Source\PSoC4/CyLFClk.c ****     }
2750:.\Generated_Source\PSoC4/CyLFClk.c **** 
2751:.\Generated_Source\PSoC4/CyLFClk.c **** 
2752:.\Generated_Source\PSoC4/CyLFClk.c ****     /*******************************************************************************
2753:.\Generated_Source\PSoC4/CyLFClk.c ****     * Function Name: CySysTimerSetInterruptCallback
2754:.\Generated_Source\PSoC4/CyLFClk.c ****     ****************************************************************************//**
2755:.\Generated_Source\PSoC4/CyLFClk.c ****     *
2756:.\Generated_Source\PSoC4/CyLFClk.c ****     * \brief
2757:.\Generated_Source\PSoC4/CyLFClk.c ****     * Sets the ISR callback function for the particular DeepSleep Timer counter.
2758:.\Generated_Source\PSoC4/CyLFClk.c ****     *
2759:.\Generated_Source\PSoC4/CyLFClk.c ****     * These functions are called on the Timer interrupt.
2760:.\Generated_Source\PSoC4/CyLFClk.c ****     *
2761:.\Generated_Source\PSoC4/CyLFClk.c ****     * \param counterNum The number of the Timer counter.
2762:.\Generated_Source\PSoC4/CyLFClk.c ****     * \param function The pointer to the callback function.
2763:.\Generated_Source\PSoC4/CyLFClk.c ****     *
2764:.\Generated_Source\PSoC4/CyLFClk.c ****     * \return  The pointer to the previous callback function. 
2765:.\Generated_Source\PSoC4/CyLFClk.c ****     * \return NULL is returned if the specified address is not set.
2766:.\Generated_Source\PSoC4/CyLFClk.c ****     *
2767:.\Generated_Source\PSoC4/CyLFClk.c ****     *******************************************************************************/
2768:.\Generated_Source\PSoC4/CyLFClk.c ****     cyTimerCallback CySysTimerSetInterruptCallback(uint32 counterNum, cyTimerCallback function)
2769:.\Generated_Source\PSoC4/CyLFClk.c ****     {
2770:.\Generated_Source\PSoC4/CyLFClk.c ****         cyTimerCallback prevCallback = (void *)0;
ARM GAS  C:\Users\310295~1\AppData\Local\Temp\ccIU8zba.s 			page 118


2771:.\Generated_Source\PSoC4/CyLFClk.c **** 
2772:.\Generated_Source\PSoC4/CyLFClk.c ****         if(counterNum < CY_SYS_NUM_OF_TIMERS)
2773:.\Generated_Source\PSoC4/CyLFClk.c ****         {
2774:.\Generated_Source\PSoC4/CyLFClk.c ****             prevCallback = cySysTimerCallback[counterNum];
2775:.\Generated_Source\PSoC4/CyLFClk.c ****             cySysTimerCallback[counterNum] = function;
2776:.\Generated_Source\PSoC4/CyLFClk.c ****         }
2777:.\Generated_Source\PSoC4/CyLFClk.c ****         else
2778:.\Generated_Source\PSoC4/CyLFClk.c ****         {
2779:.\Generated_Source\PSoC4/CyLFClk.c ****             CYASSERT(0u != 0u);
2780:.\Generated_Source\PSoC4/CyLFClk.c ****         }
2781:.\Generated_Source\PSoC4/CyLFClk.c **** 
2782:.\Generated_Source\PSoC4/CyLFClk.c ****         return((cyTimerCallback)prevCallback);
2783:.\Generated_Source\PSoC4/CyLFClk.c ****     }
2784:.\Generated_Source\PSoC4/CyLFClk.c **** 
2785:.\Generated_Source\PSoC4/CyLFClk.c **** 
2786:.\Generated_Source\PSoC4/CyLFClk.c ****     /*******************************************************************************
2787:.\Generated_Source\PSoC4/CyLFClk.c ****     * Function Name: CySysTimerGetInterruptCallback
2788:.\Generated_Source\PSoC4/CyLFClk.c ****     ****************************************************************************//**
2789:.\Generated_Source\PSoC4/CyLFClk.c ****     *
2790:.\Generated_Source\PSoC4/CyLFClk.c ****     * \brief Gets the ISR callback function for the particular DeepSleep Timer 
2791:.\Generated_Source\PSoC4/CyLFClk.c ****     * counter.
2792:.\Generated_Source\PSoC4/CyLFClk.c ****     *
2793:.\Generated_Source\PSoC4/CyLFClk.c ****     * \param counterNum The number of the Timer counter.
2794:.\Generated_Source\PSoC4/CyLFClk.c ****     *
2795:.\Generated_Source\PSoC4/CyLFClk.c ****     * \return
2796:.\Generated_Source\PSoC4/CyLFClk.c ****     * The pointer to the callback function registered for a particular Timer by
2797:.\Generated_Source\PSoC4/CyLFClk.c ****     * a particular address that are passed through arguments.
2798:.\Generated_Source\PSoC4/CyLFClk.c ****     *
2799:.\Generated_Source\PSoC4/CyLFClk.c ****     *******************************************************************************/
2800:.\Generated_Source\PSoC4/CyLFClk.c ****     cyTimerCallback CySysTimerGetInterruptCallback(uint32 counterNum)
2801:.\Generated_Source\PSoC4/CyLFClk.c ****     {
2802:.\Generated_Source\PSoC4/CyLFClk.c ****         cyTimerCallback retCallback = (void *)0;
2803:.\Generated_Source\PSoC4/CyLFClk.c **** 
2804:.\Generated_Source\PSoC4/CyLFClk.c ****         if(counterNum < CY_SYS_NUM_OF_TIMERS)
2805:.\Generated_Source\PSoC4/CyLFClk.c ****         {
2806:.\Generated_Source\PSoC4/CyLFClk.c ****             retCallback = (cyTimerCallback)cySysTimerCallback[counterNum];
2807:.\Generated_Source\PSoC4/CyLFClk.c ****         }
2808:.\Generated_Source\PSoC4/CyLFClk.c ****         else
2809:.\Generated_Source\PSoC4/CyLFClk.c ****         {
2810:.\Generated_Source\PSoC4/CyLFClk.c ****             CYASSERT(0u != 0u);
2811:.\Generated_Source\PSoC4/CyLFClk.c ****         }
2812:.\Generated_Source\PSoC4/CyLFClk.c **** 
2813:.\Generated_Source\PSoC4/CyLFClk.c ****         return(retCallback);
2814:.\Generated_Source\PSoC4/CyLFClk.c ****     }
2815:.\Generated_Source\PSoC4/CyLFClk.c **** 
2816:.\Generated_Source\PSoC4/CyLFClk.c **** 
2817:.\Generated_Source\PSoC4/CyLFClk.c ****     /*******************************************************************************
2818:.\Generated_Source\PSoC4/CyLFClk.c ****     * Function Name: CySysTimerEnableIsr
2819:.\Generated_Source\PSoC4/CyLFClk.c ****     ****************************************************************************//**
2820:.\Generated_Source\PSoC4/CyLFClk.c ****     *
2821:.\Generated_Source\PSoC4/CyLFClk.c ****     * \brief Enables the ISR callback servicing for the particular Timer counter
2822:.\Generated_Source\PSoC4/CyLFClk.c ****     *
2823:.\Generated_Source\PSoC4/CyLFClk.c ****     * \param counterNum Valid range [0-2]. The number of the Timer counter.
2824:.\Generated_Source\PSoC4/CyLFClk.c ****     *
2825:.\Generated_Source\PSoC4/CyLFClk.c ****     * Value corresponds to appropriate Timer counter. For example value 1 
2826:.\Generated_Source\PSoC4/CyLFClk.c ****     * corresponds to second Timer counter.
2827:.\Generated_Source\PSoC4/CyLFClk.c ****     *
ARM GAS  C:\Users\310295~1\AppData\Local\Temp\ccIU8zba.s 			page 119


2828:.\Generated_Source\PSoC4/CyLFClk.c ****     *******************************************************************************/
2829:.\Generated_Source\PSoC4/CyLFClk.c ****     void CySysTimerEnableIsr(uint32 counterNum)
2830:.\Generated_Source\PSoC4/CyLFClk.c ****     {
2831:.\Generated_Source\PSoC4/CyLFClk.c ****         if(counterNum <= CY_SYS_TIMER2)
2832:.\Generated_Source\PSoC4/CyLFClk.c ****         {
2833:.\Generated_Source\PSoC4/CyLFClk.c ****             disableTimerServicedIsr &= ~counterTimerIntMaskTbl[counterNum];
2834:.\Generated_Source\PSoC4/CyLFClk.c ****             timerIsrMask |= counterTimerIntMaskTbl[counterNum];
2835:.\Generated_Source\PSoC4/CyLFClk.c ****         }
2836:.\Generated_Source\PSoC4/CyLFClk.c ****         else
2837:.\Generated_Source\PSoC4/CyLFClk.c ****         {
2838:.\Generated_Source\PSoC4/CyLFClk.c ****             CYASSERT(0u != 0u);
2839:.\Generated_Source\PSoC4/CyLFClk.c ****         }
2840:.\Generated_Source\PSoC4/CyLFClk.c ****     }
2841:.\Generated_Source\PSoC4/CyLFClk.c **** 
2842:.\Generated_Source\PSoC4/CyLFClk.c **** 
2843:.\Generated_Source\PSoC4/CyLFClk.c ****     /*******************************************************************************
2844:.\Generated_Source\PSoC4/CyLFClk.c ****     * Function Name: CySysTimerDisableIsr
2845:.\Generated_Source\PSoC4/CyLFClk.c ****     ****************************************************************************//**
2846:.\Generated_Source\PSoC4/CyLFClk.c ****     *
2847:.\Generated_Source\PSoC4/CyLFClk.c ****     * \brief Disables the ISR callback servicing for the particular Timer counter
2848:.\Generated_Source\PSoC4/CyLFClk.c ****     *
2849:.\Generated_Source\PSoC4/CyLFClk.c ****     * \param counterNum Valid range [0-2]. The number of the Timer counter.
2850:.\Generated_Source\PSoC4/CyLFClk.c ****     *
2851:.\Generated_Source\PSoC4/CyLFClk.c ****     *******************************************************************************/
2852:.\Generated_Source\PSoC4/CyLFClk.c ****     void CySysTimerDisableIsr(uint32 counterNum)
2853:.\Generated_Source\PSoC4/CyLFClk.c ****     {
2854:.\Generated_Source\PSoC4/CyLFClk.c ****         if(counterNum <= CY_SYS_TIMER2)
2855:.\Generated_Source\PSoC4/CyLFClk.c ****         {
2856:.\Generated_Source\PSoC4/CyLFClk.c ****             timerIsrMask &= ~counterTimerIntMaskTbl[counterNum];
2857:.\Generated_Source\PSoC4/CyLFClk.c ****         }
2858:.\Generated_Source\PSoC4/CyLFClk.c ****         else
2859:.\Generated_Source\PSoC4/CyLFClk.c ****         {
2860:.\Generated_Source\PSoC4/CyLFClk.c ****             CYASSERT(0u != 0u);
2861:.\Generated_Source\PSoC4/CyLFClk.c ****         }
2862:.\Generated_Source\PSoC4/CyLFClk.c ****     }
2863:.\Generated_Source\PSoC4/CyLFClk.c **** 
2864:.\Generated_Source\PSoC4/CyLFClk.c **** 
2865:.\Generated_Source\PSoC4/CyLFClk.c ****     /*******************************************************************************
2866:.\Generated_Source\PSoC4/CyLFClk.c ****     * Function Name: CySysTimerIsr
2867:.\Generated_Source\PSoC4/CyLFClk.c ****     ****************************************************************************//**
2868:.\Generated_Source\PSoC4/CyLFClk.c ****     *
2869:.\Generated_Source\PSoC4/CyLFClk.c ****     * \brief This is the handler of the DeepSleep Timer interrupt in CPU NVIC.
2870:.\Generated_Source\PSoC4/CyLFClk.c ****     *
2871:.\Generated_Source\PSoC4/CyLFClk.c ****     * The handler checks which Timer triggered in the interrupt and calls the 
2872:.\Generated_Source\PSoC4/CyLFClk.c ****     * respective callback functions configured by the user by using 
2873:.\Generated_Source\PSoC4/CyLFClk.c ****     * CySysTimerSetIsrCallback() API.
2874:.\Generated_Source\PSoC4/CyLFClk.c ****     *
2875:.\Generated_Source\PSoC4/CyLFClk.c ****     * The order of the callback execution is incremental. Callback-0 is
2876:.\Generated_Source\PSoC4/CyLFClk.c ****     * run as the first one and callback-2 is called as the last one.
2877:.\Generated_Source\PSoC4/CyLFClk.c ****     *
2878:.\Generated_Source\PSoC4/CyLFClk.c ****     * \details This function clears the DeepSleep Timer interrupt every time when 
2879:.\Generated_Source\PSoC4/CyLFClk.c ****     * it is called.
2880:.\Generated_Source\PSoC4/CyLFClk.c ****     *
2881:.\Generated_Source\PSoC4/CyLFClk.c ****     *******************************************************************************/
2882:.\Generated_Source\PSoC4/CyLFClk.c ****     void CySysTimerIsr(void)
2883:.\Generated_Source\PSoC4/CyLFClk.c ****     {
2884:.\Generated_Source\PSoC4/CyLFClk.c ****         if(0u != (CY_SYS_TIMER0_INT & CY_SYS_WCO_WDT_CONTROL_REG))
ARM GAS  C:\Users\310295~1\AppData\Local\Temp\ccIU8zba.s 			page 120


2885:.\Generated_Source\PSoC4/CyLFClk.c ****         {
2886:.\Generated_Source\PSoC4/CyLFClk.c ****             if(0u != (CY_SYS_TIMER0_INT & timerIsrMask))
2887:.\Generated_Source\PSoC4/CyLFClk.c ****             {
2888:.\Generated_Source\PSoC4/CyLFClk.c ****                 timerIsrMask &= ~(disableTimerServicedIsr & CY_SYS_TIMER0_INT);
2889:.\Generated_Source\PSoC4/CyLFClk.c ****                 disableTimerServicedIsr  &= ~CY_SYS_TIMER0_INT;
2890:.\Generated_Source\PSoC4/CyLFClk.c ****                 if(cySysTimerCallback[CY_SYS_TIMER0] != (void *) 0)
2891:.\Generated_Source\PSoC4/CyLFClk.c ****                 {
2892:.\Generated_Source\PSoC4/CyLFClk.c ****                     (void)(cySysTimerCallback[CY_SYS_TIMER0])();
2893:.\Generated_Source\PSoC4/CyLFClk.c ****                 }
2894:.\Generated_Source\PSoC4/CyLFClk.c ****             }
2895:.\Generated_Source\PSoC4/CyLFClk.c ****             CySysTimerClearInterrupt(CY_SYS_TIMER0_INT);
2896:.\Generated_Source\PSoC4/CyLFClk.c ****         }
2897:.\Generated_Source\PSoC4/CyLFClk.c **** 
2898:.\Generated_Source\PSoC4/CyLFClk.c ****         if(0u != (CY_SYS_TIMER1_INT & CY_SYS_WCO_WDT_CONTROL_REG))
2899:.\Generated_Source\PSoC4/CyLFClk.c ****         {
2900:.\Generated_Source\PSoC4/CyLFClk.c ****             if(0u != (CY_SYS_TIMER1_INT & timerIsrMask))
2901:.\Generated_Source\PSoC4/CyLFClk.c ****             {
2902:.\Generated_Source\PSoC4/CyLFClk.c ****                 timerIsrMask &= ~(disableTimerServicedIsr & CY_SYS_TIMER1_INT);
2903:.\Generated_Source\PSoC4/CyLFClk.c ****                 disableTimerServicedIsr  &= ~CY_SYS_TIMER1_INT;
2904:.\Generated_Source\PSoC4/CyLFClk.c ****                 if(cySysTimerCallback[CY_SYS_TIMER1] != (void *) 0)
2905:.\Generated_Source\PSoC4/CyLFClk.c ****                 {
2906:.\Generated_Source\PSoC4/CyLFClk.c ****                     (void)(cySysTimerCallback[CY_SYS_TIMER1])();
2907:.\Generated_Source\PSoC4/CyLFClk.c ****                 }
2908:.\Generated_Source\PSoC4/CyLFClk.c ****             }
2909:.\Generated_Source\PSoC4/CyLFClk.c ****             CySysTimerClearInterrupt(CY_SYS_TIMER1_INT);
2910:.\Generated_Source\PSoC4/CyLFClk.c ****         }
2911:.\Generated_Source\PSoC4/CyLFClk.c **** 
2912:.\Generated_Source\PSoC4/CyLFClk.c ****         if(0u != (CY_SYS_TIMER2_INT & CY_SYS_WCO_WDT_CONTROL_REG))
2913:.\Generated_Source\PSoC4/CyLFClk.c ****         {
2914:.\Generated_Source\PSoC4/CyLFClk.c ****             if(0u != (CY_SYS_TIMER2_INT & timerIsrMask))
2915:.\Generated_Source\PSoC4/CyLFClk.c ****             {
2916:.\Generated_Source\PSoC4/CyLFClk.c ****                 if(cySysTimerCallback[CY_SYS_TIMER2] != (void *) 0)
2917:.\Generated_Source\PSoC4/CyLFClk.c ****                 {
2918:.\Generated_Source\PSoC4/CyLFClk.c ****                     (void)(cySysTimerCallback[CY_SYS_TIMER2])();
2919:.\Generated_Source\PSoC4/CyLFClk.c ****                 }
2920:.\Generated_Source\PSoC4/CyLFClk.c ****             }
2921:.\Generated_Source\PSoC4/CyLFClk.c ****             CySysTimerClearInterrupt(CY_SYS_TIMER2_INT);
2922:.\Generated_Source\PSoC4/CyLFClk.c ****         }
2923:.\Generated_Source\PSoC4/CyLFClk.c ****     }
2924:.\Generated_Source\PSoC4/CyLFClk.c **** 
2925:.\Generated_Source\PSoC4/CyLFClk.c **** 
2926:.\Generated_Source\PSoC4/CyLFClk.c ****     /*******************************************************************************
2927:.\Generated_Source\PSoC4/CyLFClk.c ****     * Function Name: CySysTimerResetCounters
2928:.\Generated_Source\PSoC4/CyLFClk.c ****     ****************************************************************************//**
2929:.\Generated_Source\PSoC4/CyLFClk.c ****     *
2930:.\Generated_Source\PSoC4/CyLFClk.c ****     * \brief Resets all the Timer counters set in the mask.
2931:.\Generated_Source\PSoC4/CyLFClk.c ****     *
2932:.\Generated_Source\PSoC4/CyLFClk.c ****     * \param countersMask
2933:.\Generated_Source\PSoC4/CyLFClk.c ****     * CY_SYS_TIMER0_RESET - Reset the Counter 0<br>
2934:.\Generated_Source\PSoC4/CyLFClk.c ****     * CY_SYS_TIMER1_RESET - Reset the Counter 1<br>
2935:.\Generated_Source\PSoC4/CyLFClk.c ****     * CY_SYS_TIMER2_RESET - Reset the Counter 2
2936:.\Generated_Source\PSoC4/CyLFClk.c ****     *
2937:.\Generated_Source\PSoC4/CyLFClk.c ****     * \details
2938:.\Generated_Source\PSoC4/CyLFClk.c ****     * This function waits while corresponding counters will be reset. This may
2939:.\Generated_Source\PSoC4/CyLFClk.c ****     * take up to 3 DeepSleep Timer source-cycles. DeepSleep Timer source must be 
2940:.\Generated_Source\PSoC4/CyLFClk.c ****     * enabled. Otherwise, the function will never exit.
2941:.\Generated_Source\PSoC4/CyLFClk.c ****     *
ARM GAS  C:\Users\310295~1\AppData\Local\Temp\ccIU8zba.s 			page 121


2942:.\Generated_Source\PSoC4/CyLFClk.c ****     *******************************************************************************/
2943:.\Generated_Source\PSoC4/CyLFClk.c ****     void CySysTimerResetCounters(uint32 countersMask)
2944:.\Generated_Source\PSoC4/CyLFClk.c ****     {
2945:.\Generated_Source\PSoC4/CyLFClk.c ****         /* Set new Timer reset value */
2946:.\Generated_Source\PSoC4/CyLFClk.c ****         CY_SYS_WCO_WDT_CONTROL_REG |= (countersMask & CY_SYS_TIMER_RESET);
2947:.\Generated_Source\PSoC4/CyLFClk.c **** 
2948:.\Generated_Source\PSoC4/CyLFClk.c ****         while (0uL != (CY_SYS_WCO_WDT_CONTROL_REG & CY_SYS_TIMER_RESET))
2949:.\Generated_Source\PSoC4/CyLFClk.c ****         {
2950:.\Generated_Source\PSoC4/CyLFClk.c ****             /* Wait for reset to come into effect */
2951:.\Generated_Source\PSoC4/CyLFClk.c ****         }
2952:.\Generated_Source\PSoC4/CyLFClk.c ****     }
2953:.\Generated_Source\PSoC4/CyLFClk.c **** #endif /* (CY_IP_SRSSLT && CY_IP_WCO && CY_IP_WCO_WDT_EN) */
2954:.\Generated_Source\PSoC4/CyLFClk.c **** 
2955:.\Generated_Source\PSoC4/CyLFClk.c **** 
2956:.\Generated_Source\PSoC4/CyLFClk.c **** #if(CY_IP_SRSSV2 || (CY_IP_WCO_WDT_EN && CY_IP_SRSSLT))
2957:.\Generated_Source\PSoC4/CyLFClk.c ****     /*******************************************************************************
2958:.\Generated_Source\PSoC4/CyLFClk.c ****     * Function Name: CySysTimerDelay
2959:.\Generated_Source\PSoC4/CyLFClk.c ****     ****************************************************************************//**
2960:.\Generated_Source\PSoC4/CyLFClk.c ****     *
2961:.\Generated_Source\PSoC4/CyLFClk.c ****     * \brief
2962:.\Generated_Source\PSoC4/CyLFClk.c ****     * The function implements the delay specified in the LFCLK clock ticks.
2963:.\Generated_Source\PSoC4/CyLFClk.c ****     *
2964:.\Generated_Source\PSoC4/CyLFClk.c ****     * This API is applicable for PSoC 4100 / PSoC 4200 / PSoC 4100 BLE / 
2965:.\Generated_Source\PSoC4/CyLFClk.c ****     * PSoC 4200 BLE / PRoC BLE / PSoC 4200L / PSoC 4100M / PSoC 4200M devices to 
2966:.\Generated_Source\PSoC4/CyLFClk.c ****     * use WDT. Also this API is available to use for PSoC4100S and / PSoC Analog 
2967:.\Generated_Source\PSoC4/CyLFClk.c ****     * Coprocessor devices to use DeepSleep Timers.
2968:.\Generated_Source\PSoC4/CyLFClk.c ****     *
2969:.\Generated_Source\PSoC4/CyLFClk.c ****     * For PSoC 4100 / PSoC 4200 / PSoC 4100 BLE / PSoC 4200 BLE / PRoC BLE / PSoC 
2970:.\Generated_Source\PSoC4/CyLFClk.c ****     * 4200L / PSoC 4100M / PSoC 4200M devices:
2971:.\Generated_Source\PSoC4/CyLFClk.c ****     * The specified WDT counter should be configured as described below and started.
2972:.\Generated_Source\PSoC4/CyLFClk.c ****     *
2973:.\Generated_Source\PSoC4/CyLFClk.c ****     * For PSoC 4100S / PSoC Analog Coprocessor devices:
2974:.\Generated_Source\PSoC4/CyLFClk.c ****     * The specified DeepSleep Timer counter should be configured as described below
2975:.\Generated_Source\PSoC4/CyLFClk.c ****     * and started.
2976:.\Generated_Source\PSoC4/CyLFClk.c ****     *
2977:.\Generated_Source\PSoC4/CyLFClk.c ****     * This function can operate in two modes: the "WAIT" and "INTERRUPT" modes. In
2978:.\Generated_Source\PSoC4/CyLFClk.c ****     * the "WAIT" mode, the function waits for the specified number of ticks. In the
2979:.\Generated_Source\PSoC4/CyLFClk.c ****     * "INTERRUPT" mode, the interrupt is generated after the specified number of
2980:.\Generated_Source\PSoC4/CyLFClk.c ****     * ticks.
2981:.\Generated_Source\PSoC4/CyLFClk.c ****     *
2982:.\Generated_Source\PSoC4/CyLFClk.c ****     * For the correct function operation, the "Clear On Match" option should be
2983:.\Generated_Source\PSoC4/CyLFClk.c ****     * disabled for the specified WDT or DeepSleep Timer counter. Use 
2984:.\Generated_Source\PSoC4/CyLFClk.c ****     * CySysWdtSetClearOnMatch() for WDT or CySysTimerSetClearOnMatch() for DeepSleep
2985:.\Generated_Source\PSoC4/CyLFClk.c ****     * Timer function with the "enable" parameter equal to zero for the used WDT 
2986:.\Generated_Source\PSoC4/CyLFClk.c ****     * counter or DeepSleep Timer counter.
2987:.\Generated_Source\PSoC4/CyLFClk.c ****     *
2988:.\Generated_Source\PSoC4/CyLFClk.c ****     * The corresponding WDT counter should be configured to match the selected
2989:.\Generated_Source\PSoC4/CyLFClk.c ****     * mode: "Free running Timer" for the "WAIT" mode, and
2990:.\Generated_Source\PSoC4/CyLFClk.c ****     * "Periodic Timer" / "Watchdog (w/Interrupt)" for the "INTERRUPT" mode.
2991:.\Generated_Source\PSoC4/CyLFClk.c ****     *
2992:.\Generated_Source\PSoC4/CyLFClk.c ****     * Or the corresponding DeepSleep Timer counter should be configured to match the
2993:.\Generated_Source\PSoC4/CyLFClk.c ****     * selected mode: "Free running Timer" for the "WAIT" mode, and
2994:.\Generated_Source\PSoC4/CyLFClk.c ****     * "Periodic Timer" for the "INTERRUPT" mode.
2995:.\Generated_Source\PSoC4/CyLFClk.c ****     *
2996:.\Generated_Source\PSoC4/CyLFClk.c ****     * This can be configured in two ways:
2997:.\Generated_Source\PSoC4/CyLFClk.c ****     * - Through the DWR page. Open the "Clocks" tab, click the "Edit Clocks..."
2998:.\Generated_Source\PSoC4/CyLFClk.c ****     * button, in the "Configure System Clocks" window click on the
ARM GAS  C:\Users\310295~1\AppData\Local\Temp\ccIU8zba.s 			page 122


2999:.\Generated_Source\PSoC4/CyLFClk.c ****     * "Low Frequency Clocks" tab and choose the appropriate option for the used
3000:.\Generated_Source\PSoC4/CyLFClk.c ****     * WDT or DeepSleep Timer counter.
3001:.\Generated_Source\PSoC4/CyLFClk.c ****     *
3002:.\Generated_Source\PSoC4/CyLFClk.c ****     * - Through the CySysWdtSetMode() for WDT or CySysTimerSetMode() for DeepSleep
3003:.\Generated_Source\PSoC4/CyLFClk.c ****     * Timer function. Call it with the appropriate "mode" parameter for the 
3004:.\Generated_Source\PSoC4/CyLFClk.c ****     * used WDT or DeepSleep Timer counter.
3005:.\Generated_Source\PSoC4/CyLFClk.c ****     *
3006:.\Generated_Source\PSoC4/CyLFClk.c ****     * For the "INTERRUPT" mode, the recommended sequence is the following:
3007:.\Generated_Source\PSoC4/CyLFClk.c ****     * - Call the CySysWdtDisableCounterIsr() for WDT or 
3008:.\Generated_Source\PSoC4/CyLFClk.c ****     * CySysTimerDisableIsr() for DeepSleep Timer function to disable servicing
3009:.\Generated_Source\PSoC4/CyLFClk.c ****     * interrupts of the specified WDT or DeepSleep Timer counter.
3010:.\Generated_Source\PSoC4/CyLFClk.c ****     *
3011:.\Generated_Source\PSoC4/CyLFClk.c ****     * - Call the CySysWdtSetInterruptCallback() for WDT or 
3012:.\Generated_Source\PSoC4/CyLFClk.c ****     * CySysTimerSetIsrCallback() for DeepSleep Timer function to register 
3013:.\Generated_Source\PSoC4/CyLFClk.c ****     * the callback function for the corresponding WDT or DeepSleep Timer counter.
3014:.\Generated_Source\PSoC4/CyLFClk.c ****     *
3015:.\Generated_Source\PSoC4/CyLFClk.c ****     * - Call the CySysTimerDelay() function.
3016:.\Generated_Source\PSoC4/CyLFClk.c ****     *
3017:.\Generated_Source\PSoC4/CyLFClk.c ****     * \param counterNum Valid range [0-1]. The number of the counter 
3018:.\Generated_Source\PSoC4/CyLFClk.c ****     * (Timer0 or Timer1).
3019:.\Generated_Source\PSoC4/CyLFClk.c ****     * \param delayType
3020:.\Generated_Source\PSoC4/CyLFClk.c ****     * CY_SYS_TIMER_WAIT - "WAIT" mode. <br>
3021:.\Generated_Source\PSoC4/CyLFClk.c ****     * CY_SYS_TIMER_INTERRUPT - "INTERRUPT" mode.
3022:.\Generated_Source\PSoC4/CyLFClk.c ****     * \param delay The delay value in the LFCLK ticks 
3023:.\Generated_Source\PSoC4/CyLFClk.c ****     * (allowable range - 16-bit value).
3024:.\Generated_Source\PSoC4/CyLFClk.c ****     *
3025:.\Generated_Source\PSoC4/CyLFClk.c ****     * \details
3026:.\Generated_Source\PSoC4/CyLFClk.c ****     * In the "INTERRUPT" mode, this function enables ISR callback servicing
3027:.\Generated_Source\PSoC4/CyLFClk.c ****     * from the corresponding WDT or DeepSleep Timer counter. Servicing of this ISR 
3028:.\Generated_Source\PSoC4/CyLFClk.c ****     * callback will be disabled after the expiration of the delay time.
3029:.\Generated_Source\PSoC4/CyLFClk.c ****     *
3030:.\Generated_Source\PSoC4/CyLFClk.c ****     *******************************************************************************/
3031:.\Generated_Source\PSoC4/CyLFClk.c ****     void CySysTimerDelay(uint32 counterNum, cy_sys_timer_delaytype_enum delayType, uint32 delay)
3032:.\Generated_Source\PSoC4/CyLFClk.c ****     {
3033:.\Generated_Source\PSoC4/CyLFClk.c ****         uint32 regValue;
3034:.\Generated_Source\PSoC4/CyLFClk.c ****         uint32 matchValue;
3035:.\Generated_Source\PSoC4/CyLFClk.c **** 
3036:.\Generated_Source\PSoC4/CyLFClk.c ****         #if(CY_IP_SRSSV2)
3037:.\Generated_Source\PSoC4/CyLFClk.c ****             if((counterNum < CY_SYS_WDT_COUNTER2) && (0uL == CySysWdtGetClearOnMatch(counterNum)) &
3038:.\Generated_Source\PSoC4/CyLFClk.c ****                                                                 (delay <= CY_SYS_UINT16_MAX_VAL))
3039:.\Generated_Source\PSoC4/CyLFClk.c ****             {
3040:.\Generated_Source\PSoC4/CyLFClk.c ****                 regValue   = CySysWdtGetCount(counterNum);
3041:.\Generated_Source\PSoC4/CyLFClk.c ****                 matchValue = (regValue + delay) & (uint32)CY_SYS_UINT16_MAX_VAL;
3042:.\Generated_Source\PSoC4/CyLFClk.c **** 
3043:.\Generated_Source\PSoC4/CyLFClk.c ****                 CySysTimerDelayUntilMatch(counterNum, delayType, matchValue);
3044:.\Generated_Source\PSoC4/CyLFClk.c ****             }
3045:.\Generated_Source\PSoC4/CyLFClk.c ****             else
3046:.\Generated_Source\PSoC4/CyLFClk.c ****             {
3047:.\Generated_Source\PSoC4/CyLFClk.c ****                 CYASSERT(0u != 0u);
3048:.\Generated_Source\PSoC4/CyLFClk.c ****             }
3049:.\Generated_Source\PSoC4/CyLFClk.c ****         #endif /* (CY_IP_SRSSV2) */
3050:.\Generated_Source\PSoC4/CyLFClk.c **** 
3051:.\Generated_Source\PSoC4/CyLFClk.c ****         #if(CY_IP_WCO_WDT_EN && CY_IP_SRSSLT)
3052:.\Generated_Source\PSoC4/CyLFClk.c ****             if((counterNum < CY_SYS_TIMER2) && (0uL == CySysTimerGetClearOnMatch(counterNum)) && 
3053:.\Generated_Source\PSoC4/CyLFClk.c ****                                                             (delay <= CY_SYS_UINT16_MAX_VAL))
3054:.\Generated_Source\PSoC4/CyLFClk.c ****             {
3055:.\Generated_Source\PSoC4/CyLFClk.c ****                 regValue   = CySysTimerGetCount(counterNum);
ARM GAS  C:\Users\310295~1\AppData\Local\Temp\ccIU8zba.s 			page 123


3056:.\Generated_Source\PSoC4/CyLFClk.c ****                 matchValue = (regValue + delay) & (uint32)CY_SYS_UINT16_MAX_VAL;
3057:.\Generated_Source\PSoC4/CyLFClk.c **** 
3058:.\Generated_Source\PSoC4/CyLFClk.c ****                 CySysTimerDelayUntilMatch(counterNum, delayType, matchValue);
3059:.\Generated_Source\PSoC4/CyLFClk.c ****             }
3060:.\Generated_Source\PSoC4/CyLFClk.c ****             else
3061:.\Generated_Source\PSoC4/CyLFClk.c ****             {
3062:.\Generated_Source\PSoC4/CyLFClk.c ****                 CYASSERT(0u != 0u);
3063:.\Generated_Source\PSoC4/CyLFClk.c ****             }
3064:.\Generated_Source\PSoC4/CyLFClk.c ****         #endif /* (CY_IP_WCO_WDT_EN) */
3065:.\Generated_Source\PSoC4/CyLFClk.c ****     }
3066:.\Generated_Source\PSoC4/CyLFClk.c **** 
3067:.\Generated_Source\PSoC4/CyLFClk.c **** 
3068:.\Generated_Source\PSoC4/CyLFClk.c ****     /*******************************************************************************
3069:.\Generated_Source\PSoC4/CyLFClk.c ****     * Function Name: CySysTimerDelayUntilMatch
3070:.\Generated_Source\PSoC4/CyLFClk.c ****     ****************************************************************************//**
3071:.\Generated_Source\PSoC4/CyLFClk.c ****     *
3072:.\Generated_Source\PSoC4/CyLFClk.c ****     * \brief
3073:.\Generated_Source\PSoC4/CyLFClk.c ****     * The function implements the delay specified as the number of WDT or DeepSleep
3074:.\Generated_Source\PSoC4/CyLFClk.c ****     * Timer clock source ticks between WDT or DeepSleep Timer current value and 
3075:.\Generated_Source\PSoC4/CyLFClk.c ****     * match" value.
3076:.\Generated_Source\PSoC4/CyLFClk.c ****     *
3077:.\Generated_Source\PSoC4/CyLFClk.c ****     * This API is applicable for PSoC 4100 / PSoC 4200 / PRoC BLE / PSoC 4100 BLE /
3078:.\Generated_Source\PSoC4/CyLFClk.c ****     * PSoC 4200 BLE / PSoC 4200L / PSoC 4100M / PSoC 4200M devices to use WDT.
3079:.\Generated_Source\PSoC4/CyLFClk.c ****     * Also this API is available to use for PSoC4100S / Analog Coprocessor devices
3080:.\Generated_Source\PSoC4/CyLFClk.c ****     * to use DeepSleep Timers.
3081:.\Generated_Source\PSoC4/CyLFClk.c ****     * 
3082:.\Generated_Source\PSoC4/CyLFClk.c ****     * For PSoC 4100 / PSoC 4200 / PSoC 4100 BLE / PSoC 4200 BLE / PRoC BLE / PSoC 
3083:.\Generated_Source\PSoC4/CyLFClk.c ****     * 4200L / PSoC 4100M / PSoC 4200M devices:
3084:.\Generated_Source\PSoC4/CyLFClk.c ****     * The function implements the delay specified as the number of LFCLK ticks
3085:.\Generated_Source\PSoC4/CyLFClk.c ****     * between the specified WDT counter's current value and the "match"
3086:.\Generated_Source\PSoC4/CyLFClk.c ****     * passed as the parameter to this function. The current WDT counter value can 
3087:.\Generated_Source\PSoC4/CyLFClk.c ****     * be obtained using the CySysWdtGetCount() function.
3088:.\Generated_Source\PSoC4/CyLFClk.c ****     *
3089:.\Generated_Source\PSoC4/CyLFClk.c ****     * For PSoC4100 S and Analog Coprocessor devices:
3090:.\Generated_Source\PSoC4/CyLFClk.c ****     * The function implements the delay specified as the number of DeepSleep Timer 
3091:.\Generated_Source\PSoC4/CyLFClk.c ****     * input clock ticks for Timer0/Timer1 counter's current value and the "match" 
3092:.\Generated_Source\PSoC4/CyLFClk.c ****     * passed as the parameter to this function. The current DeepSleep Timer counter
3093:.\Generated_Source\PSoC4/CyLFClk.c ****     * value can be obtained using the CySysWdtGetCount() function.
3094:.\Generated_Source\PSoC4/CyLFClk.c ****     *
3095:.\Generated_Source\PSoC4/CyLFClk.c ****     * For PSoC 4100 / PSoC 4200 / PSoC 4100 BLE / PSoC 4200 BLE / PRoC BLE / PSoC 
3096:.\Generated_Source\PSoC4/CyLFClk.c ****     * 4200L / PSoC 4100M / PSoC 4200M devices:
3097:.\Generated_Source\PSoC4/CyLFClk.c ****     * The specified WDT counter should be configured as described below and started.
3098:.\Generated_Source\PSoC4/CyLFClk.c ****     *
3099:.\Generated_Source\PSoC4/CyLFClk.c ****     * For PSoC PSoC 4100S / PSoC Analog Coprocessor devices:
3100:.\Generated_Source\PSoC4/CyLFClk.c ****     * The specified DeepSleep Timer counter should be configured as described below
3101:.\Generated_Source\PSoC4/CyLFClk.c ****     * and started.
3102:.\Generated_Source\PSoC4/CyLFClk.c ****     *
3103:.\Generated_Source\PSoC4/CyLFClk.c ****     * This function can operate in two modes: the "WAIT" and "INTERRUPT" modes. In
3104:.\Generated_Source\PSoC4/CyLFClk.c ****     * the "WAIT" mode, the function waits for the specified number of ticks. In the
3105:.\Generated_Source\PSoC4/CyLFClk.c ****     * "INTERRUPT" mode, the interrupt is generated after the specified number of
3106:.\Generated_Source\PSoC4/CyLFClk.c ****     * ticks.
3107:.\Generated_Source\PSoC4/CyLFClk.c ****     *
3108:.\Generated_Source\PSoC4/CyLFClk.c ****     * For the correct function operation, the "Clear On Match" option should be
3109:.\Generated_Source\PSoC4/CyLFClk.c ****     * disabled for the specified WDT or DeepSleep Timer counter. Use 
3110:.\Generated_Source\PSoC4/CyLFClk.c ****     * CySysWdtSetClearOnMatch() for WDT or CySysTimerSetClearOnMatch() for DeepSleep
3111:.\Generated_Source\PSoC4/CyLFClk.c ****     * Timer function with the "enable" parameter equal to zero for the used WDT 
3112:.\Generated_Source\PSoC4/CyLFClk.c ****     * or DeepSleep Timer counter.
ARM GAS  C:\Users\310295~1\AppData\Local\Temp\ccIU8zba.s 			page 124


3113:.\Generated_Source\PSoC4/CyLFClk.c ****     *
3114:.\Generated_Source\PSoC4/CyLFClk.c ****     * For PSoC 4100 / PSoC 4200 / PSoC 4100 BLE / PSoC 4200 BLE / PRoC BLE / PSoC 
3115:.\Generated_Source\PSoC4/CyLFClk.c ****     * 4200L / PSoC 4100M/PSoC 4200M devices:
3116:.\Generated_Source\PSoC4/CyLFClk.c ****     * The corresponding WDT counter should be configured to match the selected
3117:.\Generated_Source\PSoC4/CyLFClk.c ****     * mode: "Free running Timer" for the "WAIT" mode, and
3118:.\Generated_Source\PSoC4/CyLFClk.c ****     * "Periodic Timer" / "Watchdog (w/Interrupt)" for the "INTERRUPT" mode.
3119:.\Generated_Source\PSoC4/CyLFClk.c ****     *
3120:.\Generated_Source\PSoC4/CyLFClk.c ****     * For PSoC 4100S / PSoC Analog Coprocessor devices:
3121:.\Generated_Source\PSoC4/CyLFClk.c ****     * Corresponding DeepSleep Timer counter should be configured to match the 
3122:.\Generated_Source\PSoC4/CyLFClk.c ****     * selected mode: "Free running Timer" for the "WAIT" mode, and
3123:.\Generated_Source\PSoC4/CyLFClk.c ****     * "Periodic Timer" for the "INTERRUPT" mode.
3124:.\Generated_Source\PSoC4/CyLFClk.c ****     *
3125:.\Generated_Source\PSoC4/CyLFClk.c ****     * This can be configured in two ways:
3126:.\Generated_Source\PSoC4/CyLFClk.c ****     * - Through the DWR page. Open the "Clocks" tab, click the "Edit Clocks..."
3127:.\Generated_Source\PSoC4/CyLFClk.c ****     * button, in the "Configure System Clocks" window click on the
3128:.\Generated_Source\PSoC4/CyLFClk.c ****     * "Low Frequency Clocks" tab and choose the appropriate option for the used
3129:.\Generated_Source\PSoC4/CyLFClk.c ****     * WDT or DeepSleep Timer counter.
3130:.\Generated_Source\PSoC4/CyLFClk.c ****     *
3131:.\Generated_Source\PSoC4/CyLFClk.c ****     * - Through the CySysWdtSetMode() for WDT or CySysTimerSetMode() for DeepSleep
3132:.\Generated_Source\PSoC4/CyLFClk.c ****     * Timer function. Call it with the appropriate "mode" parameter for the 
3133:.\Generated_Source\PSoC4/CyLFClk.c ****     * used WDT or DeepSleep Timer counter.
3134:.\Generated_Source\PSoC4/CyLFClk.c ****     *
3135:.\Generated_Source\PSoC4/CyLFClk.c ****     * For the "INTERRUPT" mode, the recommended sequence is the following:
3136:.\Generated_Source\PSoC4/CyLFClk.c ****     * - Call the CySysWdtDisableCounterIsr() for WDT or 
3137:.\Generated_Source\PSoC4/CyLFClk.c ****     * CySysTimerDisableIsr() for DeepSleep Timer function to disable servicing
3138:.\Generated_Source\PSoC4/CyLFClk.c ****     * interrupts of the specified WDT or DeepSleep Timer counter.
3139:.\Generated_Source\PSoC4/CyLFClk.c ****     *
3140:.\Generated_Source\PSoC4/CyLFClk.c ****     * - Call the CySysWdtSetInterruptCallback() for WDT or 
3141:.\Generated_Source\PSoC4/CyLFClk.c ****     * CySysTimerSetInterruptCallback() for DeepSleep Timer function to register 
3142:.\Generated_Source\PSoC4/CyLFClk.c ****     * the callback function for the corresponding WDT or DeepSleep Timer counter.
3143:.\Generated_Source\PSoC4/CyLFClk.c ****     *
3144:.\Generated_Source\PSoC4/CyLFClk.c ****     * - Call the CySysTimerDelay() function.
3145:.\Generated_Source\PSoC4/CyLFClk.c ****     *
3146:.\Generated_Source\PSoC4/CyLFClk.c ****     * \param counterNum Valid range [0-1]. The number of the WDT or DeepSleep 
3147:.\Generated_Source\PSoC4/CyLFClk.c ****     * Timer.
3148:.\Generated_Source\PSoC4/CyLFClk.c ****     * counter (Timer0 or Timer1).
3149:.\Generated_Source\PSoC4/CyLFClk.c ****     * \param delayType  CY_SYS_TIMER_WAIT - "WAIT" mode.<br>
3150:.\Generated_Source\PSoC4/CyLFClk.c ****     * CY_SYS_TIMER_INTERRUPT - "INTERRUPT" mode.
3151:.\Generated_Source\PSoC4/CyLFClk.c ****     * \param delay The delay value in the LFCLK ticks
3152:.\Generated_Source\PSoC4/CyLFClk.c ****     * (allowable range - 16-bit value).
3153:.\Generated_Source\PSoC4/CyLFClk.c ****     *
3154:.\Generated_Source\PSoC4/CyLFClk.c ****     * \details
3155:.\Generated_Source\PSoC4/CyLFClk.c ****     * In the "INTERRUPT" mode, this function enables ISR callback servicing
3156:.\Generated_Source\PSoC4/CyLFClk.c ****     * from the corresponding WDT counter. Servicing of this ISR callback will be
3157:.\Generated_Source\PSoC4/CyLFClk.c ****     * disabled after the expiration of the delay time.
3158:.\Generated_Source\PSoC4/CyLFClk.c ****     *
3159:.\Generated_Source\PSoC4/CyLFClk.c ****     *******************************************************************************/
3160:.\Generated_Source\PSoC4/CyLFClk.c ****     void CySysTimerDelayUntilMatch(uint32 counterNum, cy_sys_timer_delaytype_enum delayType, uint32
3161:.\Generated_Source\PSoC4/CyLFClk.c ****     {
 2844              		.loc 1 3161 0
 2845              		.cfi_startproc
 2846              	.LVL291:
 2847 0000 70B5     		push	{r4, r5, r6, lr}
 2848              		.cfi_def_cfa_offset 16
 2849              		.cfi_offset 4, -16
 2850              		.cfi_offset 5, -12
 2851              		.cfi_offset 6, -8
ARM GAS  C:\Users\310295~1\AppData\Local\Temp\ccIU8zba.s 			page 125


 2852              		.cfi_offset 14, -4
 2853 0002 041C     		mov	r4, r0
 2854 0004 0E1C     		mov	r6, r1
 2855 0006 151C     		mov	r5, r2
3162:.\Generated_Source\PSoC4/CyLFClk.c ****         uint32 tmpValue;
3163:.\Generated_Source\PSoC4/CyLFClk.c **** 
3164:.\Generated_Source\PSoC4/CyLFClk.c ****         #if(CY_IP_SRSSV2)
3165:.\Generated_Source\PSoC4/CyLFClk.c ****             if((counterNum < CY_SYS_WDT_COUNTER2) && (0uL == CySysWdtGetClearOnMatch(counterNum)) &
 2856              		.loc 1 3165 0
 2857 0008 0128     		cmp	r0, #1
 2858 000a 23D8     		bhi	.L246
 2859              		.loc 1 3165 0 is_stmt 0 discriminator 1
 2860 000c FFF7FEFF 		bl	CySysWdtGetClearOnMatch
 2861              	.LVL292:
 2862 0010 0028     		cmp	r0, #0
 2863 0012 1FD1     		bne	.L246
 2864              		.loc 1 3165 0 discriminator 2
 2865 0014 114B     		ldr	r3, .L251
 2866 0016 9D42     		cmp	r5, r3
 2867 0018 1CD8     		bhi	.L246
3166:.\Generated_Source\PSoC4/CyLFClk.c ****                                                                 (match <= CY_SYS_UINT16_MAX_VAL))
3167:.\Generated_Source\PSoC4/CyLFClk.c ****             {
3168:.\Generated_Source\PSoC4/CyLFClk.c ****                 if(delayType == CY_SYS_TIMER_WAIT)
 2868              		.loc 1 3168 0 is_stmt 1
 2869 001a 002E     		cmp	r6, #0
 2870 001c 0AD1     		bne	.L247
 2871              	.L248:
3169:.\Generated_Source\PSoC4/CyLFClk.c ****                 {
3170:.\Generated_Source\PSoC4/CyLFClk.c ****                     do
3171:.\Generated_Source\PSoC4/CyLFClk.c ****                     {
3172:.\Generated_Source\PSoC4/CyLFClk.c ****                         tmpValue = CySysWdtGetCount(counterNum);
 2872              		.loc 1 3172 0 discriminator 1
 2873 001e 201C     		mov	r0, r4
 2874 0020 FFF7FEFF 		bl	CySysWdtGetCount
 2875              	.LVL293:
3173:.\Generated_Source\PSoC4/CyLFClk.c ****                     }while(tmpValue > match);
 2876              		.loc 1 3173 0 discriminator 1
 2877 0024 A842     		cmp	r0, r5
 2878 0026 FAD8     		bhi	.L248
 2879              	.L249:
3174:.\Generated_Source\PSoC4/CyLFClk.c **** 
3175:.\Generated_Source\PSoC4/CyLFClk.c ****                     do
3176:.\Generated_Source\PSoC4/CyLFClk.c ****                     {
3177:.\Generated_Source\PSoC4/CyLFClk.c ****                         tmpValue = CySysWdtGetCount(counterNum);
 2880              		.loc 1 3177 0 discriminator 1
 2881 0028 201C     		mov	r0, r4
 2882              	.LVL294:
 2883 002a FFF7FEFF 		bl	CySysWdtGetCount
 2884              	.LVL295:
3178:.\Generated_Source\PSoC4/CyLFClk.c ****                     }while(tmpValue < match);
 2885              		.loc 1 3178 0 discriminator 1
 2886 002e A842     		cmp	r0, r5
 2887 0030 FAD3     		bcc	.L249
 2888 0032 12E0     		b	.L245
 2889              	.LVL296:
 2890              	.L247:
3179:.\Generated_Source\PSoC4/CyLFClk.c ****                 }
ARM GAS  C:\Users\310295~1\AppData\Local\Temp\ccIU8zba.s 			page 126


3180:.\Generated_Source\PSoC4/CyLFClk.c ****                 else
3181:.\Generated_Source\PSoC4/CyLFClk.c ****                 {
3182:.\Generated_Source\PSoC4/CyLFClk.c ****                     tmpValue = counterIntMaskTbl[counterNum];
 2891              		.loc 1 3182 0
 2892 0034 A200     		lsl	r2, r4, #2
 2893 0036 0A4B     		ldr	r3, .L251+4
 2894 0038 D658     		ldr	r6, [r2, r3]
 2895              	.LVL297:
3183:.\Generated_Source\PSoC4/CyLFClk.c ****                     CySysWdtSetMatch(counterNum, match);
 2896              		.loc 1 3183 0
 2897 003a 201C     		mov	r0, r4
 2898 003c 291C     		mov	r1, r5
 2899 003e FFF7FEFF 		bl	CySysWdtSetMatch
 2900              	.LVL298:
3184:.\Generated_Source\PSoC4/CyLFClk.c **** 
3185:.\Generated_Source\PSoC4/CyLFClk.c ****                     disableServicedIsr  |= tmpValue;
 2901              		.loc 1 3185 0
 2902 0042 084A     		ldr	r2, .L251+8
 2903 0044 536A     		ldr	r3, [r2, #36]
 2904 0046 3343     		orr	r3, r6
 2905 0048 5362     		str	r3, [r2, #36]
3186:.\Generated_Source\PSoC4/CyLFClk.c ****                     wdtIsrMask |= tmpValue;
 2906              		.loc 1 3186 0
 2907 004a 074B     		ldr	r3, .L251+12
 2908 004c 5A68     		ldr	r2, [r3, #4]
 2909 004e 1643     		orr	r6, r2
 2910              	.LVL299:
 2911 0050 5E60     		str	r6, [r3, #4]
 2912 0052 02E0     		b	.L245
 2913              	.LVL300:
 2914              	.L246:
3187:.\Generated_Source\PSoC4/CyLFClk.c ****                 }
3188:.\Generated_Source\PSoC4/CyLFClk.c ****             }
3189:.\Generated_Source\PSoC4/CyLFClk.c ****             else
3190:.\Generated_Source\PSoC4/CyLFClk.c ****             {
3191:.\Generated_Source\PSoC4/CyLFClk.c ****                 CYASSERT(0u != 0u);
 2915              		.loc 1 3191 0 discriminator 1
 2916 0054 0020     		mov	r0, #0
 2917 0056 FFF7FEFF 		bl	CyHalt
 2918              	.LVL301:
 2919              	.L245:
3192:.\Generated_Source\PSoC4/CyLFClk.c ****             }
3193:.\Generated_Source\PSoC4/CyLFClk.c **** 
3194:.\Generated_Source\PSoC4/CyLFClk.c ****         #endif /* (CY_IP_SRSSV2) */  
3195:.\Generated_Source\PSoC4/CyLFClk.c **** 
3196:.\Generated_Source\PSoC4/CyLFClk.c ****         #if(CY_IP_WCO_WDT_EN && CY_IP_SRSSLT)
3197:.\Generated_Source\PSoC4/CyLFClk.c ****         if((counterNum < CY_SYS_TIMER2) && (0uL == CySysTimerGetClearOnMatch(counterNum)) &&
3198:.\Generated_Source\PSoC4/CyLFClk.c ****                                                         (match <= CY_SYS_UINT16_MAX_VAL))
3199:.\Generated_Source\PSoC4/CyLFClk.c ****         {
3200:.\Generated_Source\PSoC4/CyLFClk.c ****             if(delayType == CY_SYS_TIMER_WAIT)
3201:.\Generated_Source\PSoC4/CyLFClk.c ****             {
3202:.\Generated_Source\PSoC4/CyLFClk.c ****                 do
3203:.\Generated_Source\PSoC4/CyLFClk.c ****                 {
3204:.\Generated_Source\PSoC4/CyLFClk.c ****                     tmpValue = CySysTimerGetCount(counterNum);
3205:.\Generated_Source\PSoC4/CyLFClk.c ****                 }while(tmpValue > match);
3206:.\Generated_Source\PSoC4/CyLFClk.c **** 
3207:.\Generated_Source\PSoC4/CyLFClk.c ****                 do
ARM GAS  C:\Users\310295~1\AppData\Local\Temp\ccIU8zba.s 			page 127


3208:.\Generated_Source\PSoC4/CyLFClk.c ****                 {
3209:.\Generated_Source\PSoC4/CyLFClk.c ****                     tmpValue = CySysTimerGetCount(counterNum);
3210:.\Generated_Source\PSoC4/CyLFClk.c ****                 }while(tmpValue < match);
3211:.\Generated_Source\PSoC4/CyLFClk.c ****             }
3212:.\Generated_Source\PSoC4/CyLFClk.c ****             else
3213:.\Generated_Source\PSoC4/CyLFClk.c ****             {
3214:.\Generated_Source\PSoC4/CyLFClk.c ****                 tmpValue = counterTimerIntMaskTbl[counterNum];
3215:.\Generated_Source\PSoC4/CyLFClk.c ****                 CySysTimerSetMatch(counterNum, match);
3216:.\Generated_Source\PSoC4/CyLFClk.c **** 
3217:.\Generated_Source\PSoC4/CyLFClk.c ****                 disableTimerServicedIsr  |= tmpValue;
3218:.\Generated_Source\PSoC4/CyLFClk.c ****                 timerIsrMask |= tmpValue;
3219:.\Generated_Source\PSoC4/CyLFClk.c ****             }
3220:.\Generated_Source\PSoC4/CyLFClk.c ****         }
3221:.\Generated_Source\PSoC4/CyLFClk.c ****         else
3222:.\Generated_Source\PSoC4/CyLFClk.c ****         {
3223:.\Generated_Source\PSoC4/CyLFClk.c ****             CYASSERT(0u != 0u);
3224:.\Generated_Source\PSoC4/CyLFClk.c ****         }
3225:.\Generated_Source\PSoC4/CyLFClk.c ****         #endif /* (CY_IP_WCO_WDT_EN && CY_IP_SRSSLT) */
3226:.\Generated_Source\PSoC4/CyLFClk.c ****     }
 2920              		.loc 1 3226 0
 2921              		@ sp needed
 2922              	.LVL302:
 2923              	.LVL303:
 2924 005a 70BD     		pop	{r4, r5, r6, pc}
 2925              	.L252:
 2926              		.align	2
 2927              	.L251:
 2928 005c FFFF0000 		.word	65535
 2929 0060 00000000 		.word	.LANCHOR2
 2930 0064 00000000 		.word	.LANCHOR0
 2931 0068 00000000 		.word	.LANCHOR1
 2932              		.cfi_endproc
 2933              	.LFE47:
 2934              		.size	CySysTimerDelayUntilMatch, .-CySysTimerDelayUntilMatch
 2935              		.section	.text.CySysTimerDelay,"ax",%progbits
 2936              		.align	2
 2937              		.global	CySysTimerDelay
 2938              		.code	16
 2939              		.thumb_func
 2940              		.type	CySysTimerDelay, %function
 2941              	CySysTimerDelay:
 2942              	.LFB46:
3032:.\Generated_Source\PSoC4/CyLFClk.c ****         uint32 regValue;
 2943              		.loc 1 3032 0
 2944              		.cfi_startproc
 2945              	.LVL304:
 2946 0000 70B5     		push	{r4, r5, r6, lr}
 2947              		.cfi_def_cfa_offset 16
 2948              		.cfi_offset 4, -16
 2949              		.cfi_offset 5, -12
 2950              		.cfi_offset 6, -8
 2951              		.cfi_offset 14, -4
 2952 0002 041C     		mov	r4, r0
 2953 0004 0E1C     		mov	r6, r1
 2954 0006 151C     		mov	r5, r2
3037:.\Generated_Source\PSoC4/CyLFClk.c ****                                                                 (delay <= CY_SYS_UINT16_MAX_VAL))
 2955              		.loc 1 3037 0
ARM GAS  C:\Users\310295~1\AppData\Local\Temp\ccIU8zba.s 			page 128


 2956 0008 0128     		cmp	r0, #1
 2957 000a 11D8     		bhi	.L254
3037:.\Generated_Source\PSoC4/CyLFClk.c ****                                                                 (delay <= CY_SYS_UINT16_MAX_VAL))
 2958              		.loc 1 3037 0 is_stmt 0 discriminator 1
 2959 000c FFF7FEFF 		bl	CySysWdtGetClearOnMatch
 2960              	.LVL305:
 2961 0010 0028     		cmp	r0, #0
 2962 0012 0DD1     		bne	.L254
3037:.\Generated_Source\PSoC4/CyLFClk.c ****                                                                 (delay <= CY_SYS_UINT16_MAX_VAL))
 2963              		.loc 1 3037 0 discriminator 2
 2964 0014 084B     		ldr	r3, .L256
 2965 0016 9D42     		cmp	r5, r3
 2966 0018 0AD8     		bhi	.L254
3040:.\Generated_Source\PSoC4/CyLFClk.c ****                 matchValue = (regValue + delay) & (uint32)CY_SYS_UINT16_MAX_VAL;
 2967              		.loc 1 3040 0 is_stmt 1
 2968 001a 201C     		mov	r0, r4
 2969 001c FFF7FEFF 		bl	CySysWdtGetCount
 2970              	.LVL306:
3041:.\Generated_Source\PSoC4/CyLFClk.c **** 
 2971              		.loc 1 3041 0
 2972 0020 4219     		add	r2, r0, r5
 2973 0022 1204     		lsl	r2, r2, #16
 2974 0024 120C     		lsr	r2, r2, #16
 2975              	.LVL307:
3043:.\Generated_Source\PSoC4/CyLFClk.c ****             }
 2976              		.loc 1 3043 0
 2977 0026 201C     		mov	r0, r4
 2978              	.LVL308:
 2979 0028 311C     		mov	r1, r6
 2980 002a FFF7FEFF 		bl	CySysTimerDelayUntilMatch
 2981              	.LVL309:
 2982 002e 02E0     		b	.L253
 2983              	.L254:
3047:.\Generated_Source\PSoC4/CyLFClk.c ****             }
 2984              		.loc 1 3047 0 discriminator 1
 2985 0030 0020     		mov	r0, #0
 2986 0032 FFF7FEFF 		bl	CyHalt
 2987              	.LVL310:
 2988              	.L253:
3065:.\Generated_Source\PSoC4/CyLFClk.c **** 
 2989              		.loc 1 3065 0
 2990              		@ sp needed
 2991              	.LVL311:
 2992              	.LVL312:
 2993 0036 70BD     		pop	{r4, r5, r6, pc}
 2994              	.L257:
 2995              		.align	2
 2996              	.L256:
 2997 0038 FFFF0000 		.word	65535
 2998              		.cfi_endproc
 2999              	.LFE46:
 3000              		.size	CySysTimerDelay, .-CySysTimerDelay
 3001              		.section	.rodata
 3002              		.align	2
 3003              		.set	.LANCHOR2,. + 0
 3004              		.type	counterIntMaskTbl, %object
 3005              		.size	counterIntMaskTbl, 12
ARM GAS  C:\Users\310295~1\AppData\Local\Temp\ccIU8zba.s 			page 129


 3006              	counterIntMaskTbl:
 3007 0000 04000000 		.word	4
 3008 0004 00040000 		.word	1024
 3009 0008 00000400 		.word	262144
 3010              		.data
 3011              		.align	2
 3012              		.set	.LANCHOR1,. + 0
 3013              		.type	defaultIloTrimRegValue, %object
 3014              		.size	defaultIloTrimRegValue, 2
 3015              	defaultIloTrimRegValue:
 3016 0000 F000     		.short	240
 3017 0002 0000     		.space	2
 3018              		.type	wdtIsrMask, %object
 3019              		.size	wdtIsrMask, 4
 3020              	wdtIsrMask:
 3021 0004 04040400 		.word	263172
 3022              		.bss
 3023              		.align	2
 3024              		.set	.LANCHOR0,. + 0
 3025              		.type	iloTrimTrig.4741, %object
 3026              		.size	iloTrimTrig.4741, 1
 3027              	iloTrimTrig.4741:
 3028 0000 00       		.space	1
 3029 0001 000000   		.space	3
 3030              		.type	compensateRunningStatus.4751, %object
 3031              		.size	compensateRunningStatus.4751, 4
 3032              	compensateRunningStatus.4751:
 3033 0004 00000000 		.space	4
 3034              		.type	trimRunningStatus.4763, %object
 3035              		.size	trimRunningStatus.4763, 4
 3036              	trimRunningStatus.4763:
 3037 0008 00000000 		.space	4
 3038              		.type	lfclkPosedgeWdtCounter0Enabled, %object
 3039              		.size	lfclkPosedgeWdtCounter0Enabled, 4
 3040              	lfclkPosedgeWdtCounter0Enabled:
 3041 000c 00000000 		.space	4
 3042              		.type	lfclkPosedgeWdtCounter0Mode, %object
 3043              		.size	lfclkPosedgeWdtCounter0Mode, 4
 3044              	lfclkPosedgeWdtCounter0Mode:
 3045 0010 00000000 		.space	4
 3046              		.type	lfclkPosedgeEnabledWdtCounter.4937, %object
 3047              		.size	lfclkPosedgeEnabledWdtCounter.4937, 4
 3048              	lfclkPosedgeEnabledWdtCounter.4937:
 3049 0014 00000000 		.space	4
 3050              		.type	cySysWdtCallback, %object
 3051              		.size	cySysWdtCallback, 12
 3052              	cySysWdtCallback:
 3053 0018 00000000 		.space	12
 3053      00000000 
 3053      00000000 
 3054              		.type	disableServicedIsr, %object
 3055              		.size	disableServicedIsr, 4
 3056              	disableServicedIsr:
 3057 0024 00000000 		.space	4
 3058              		.text
 3059              	.Letext0:
 3060              		.file 3 ".\\Generated_Source\\PSoC4\\cytypes.h"
ARM GAS  C:\Users\310295~1\AppData\Local\Temp\ccIU8zba.s 			page 130


 3061              		.file 4 ".\\Generated_Source\\PSoC4\\CyLib.h"
 3062              		.section	.debug_info,"",%progbits
 3063              	.Ldebug_info0:
 3064 0000 6B100000 		.4byte	0x106b
 3065 0004 0400     		.2byte	0x4
 3066 0006 00000000 		.4byte	.Ldebug_abbrev0
 3067 000a 04       		.byte	0x4
 3068 000b 01       		.uleb128 0x1
 3069 000c 9D050000 		.4byte	.LASF122
 3070 0010 01       		.byte	0x1
 3071 0011 BF040000 		.4byte	.LASF123
 3072 0015 54010000 		.4byte	.LASF124
 3073 0019 00000000 		.4byte	.Ldebug_ranges0+0
 3074 001d 00000000 		.4byte	0
 3075 0021 00000000 		.4byte	.Ldebug_line0
 3076 0025 02       		.uleb128 0x2
 3077 0026 01       		.byte	0x1
 3078 0027 06       		.byte	0x6
 3079 0028 9B010000 		.4byte	.LASF0
 3080 002c 02       		.uleb128 0x2
 3081 002d 01       		.byte	0x1
 3082 002e 08       		.byte	0x8
 3083 002f CC060000 		.4byte	.LASF1
 3084 0033 02       		.uleb128 0x2
 3085 0034 02       		.byte	0x2
 3086 0035 05       		.byte	0x5
 3087 0036 16070000 		.4byte	.LASF2
 3088 003a 02       		.uleb128 0x2
 3089 003b 02       		.byte	0x2
 3090 003c 07       		.byte	0x7
 3091 003d FD030000 		.4byte	.LASF3
 3092 0041 02       		.uleb128 0x2
 3093 0042 04       		.byte	0x4
 3094 0043 05       		.byte	0x5
 3095 0044 0D020000 		.4byte	.LASF4
 3096 0048 02       		.uleb128 0x2
 3097 0049 04       		.byte	0x4
 3098 004a 07       		.byte	0x7
 3099 004b 93030000 		.4byte	.LASF5
 3100 004f 02       		.uleb128 0x2
 3101 0050 08       		.byte	0x8
 3102 0051 05       		.byte	0x5
 3103 0052 8D010000 		.4byte	.LASF6
 3104 0056 02       		.uleb128 0x2
 3105 0057 08       		.byte	0x8
 3106 0058 07       		.byte	0x7
 3107 0059 05010000 		.4byte	.LASF7
 3108 005d 03       		.uleb128 0x3
 3109 005e 04       		.byte	0x4
 3110 005f 05       		.byte	0x5
 3111 0060 696E7400 		.ascii	"int\000"
 3112 0064 02       		.uleb128 0x2
 3113 0065 04       		.byte	0x4
 3114 0066 07       		.byte	0x7
 3115 0067 4B030000 		.4byte	.LASF8
 3116 006b 04       		.uleb128 0x4
 3117 006c 28020000 		.4byte	.LASF9
ARM GAS  C:\Users\310295~1\AppData\Local\Temp\ccIU8zba.s 			page 131


 3118 0070 03       		.byte	0x3
 3119 0071 9801     		.2byte	0x198
 3120 0073 2C000000 		.4byte	0x2c
 3121 0077 04       		.uleb128 0x4
 3122 0078 00000000 		.4byte	.LASF10
 3123 007c 03       		.byte	0x3
 3124 007d 9901     		.2byte	0x199
 3125 007f 3A000000 		.4byte	0x3a
 3126 0083 04       		.uleb128 0x4
 3127 0084 80020000 		.4byte	.LASF11
 3128 0088 03       		.byte	0x3
 3129 0089 9A01     		.2byte	0x19a
 3130 008b 48000000 		.4byte	0x48
 3131 008f 04       		.uleb128 0x4
 3132 0090 CB010000 		.4byte	.LASF12
 3133 0094 03       		.byte	0x3
 3134 0095 9D01     		.2byte	0x19d
 3135 0097 41000000 		.4byte	0x41
 3136 009b 02       		.uleb128 0x2
 3137 009c 04       		.byte	0x4
 3138 009d 04       		.byte	0x4
 3139 009e 86060000 		.4byte	.LASF13
 3140 00a2 02       		.uleb128 0x2
 3141 00a3 08       		.byte	0x8
 3142 00a4 04       		.byte	0x4
 3143 00a5 35020000 		.4byte	.LASF14
 3144 00a9 02       		.uleb128 0x2
 3145 00aa 01       		.byte	0x1
 3146 00ab 08       		.byte	0x8
 3147 00ac CB070000 		.4byte	.LASF15
 3148 00b0 04       		.uleb128 0x4
 3149 00b1 CE080000 		.4byte	.LASF16
 3150 00b5 03       		.byte	0x3
 3151 00b6 3A02     		.2byte	0x23a
 3152 00b8 48000000 		.4byte	0x48
 3153 00bc 05       		.uleb128 0x5
 3154 00bd 77000000 		.4byte	0x77
 3155 00c1 04       		.uleb128 0x4
 3156 00c2 E2040000 		.4byte	.LASF17
 3157 00c6 03       		.byte	0x3
 3158 00c7 4402     		.2byte	0x244
 3159 00c9 CD000000 		.4byte	0xcd
 3160 00cd 05       		.uleb128 0x5
 3161 00ce 83000000 		.4byte	0x83
 3162 00d2 06       		.uleb128 0x6
 3163 00d3 04       		.byte	0x4
 3164 00d4 D8000000 		.4byte	0xd8
 3165 00d8 07       		.uleb128 0x7
 3166 00d9 08       		.uleb128 0x8
 3167 00da 01       		.byte	0x1
 3168 00db 02       		.byte	0x2
 3169 00dc 1B       		.byte	0x1b
 3170 00dd EE000000 		.4byte	0xee
 3171 00e1 09       		.uleb128 0x9
 3172 00e2 8B050000 		.4byte	.LASF18
 3173 00e6 00       		.sleb128 0
 3174 00e7 09       		.uleb128 0x9
ARM GAS  C:\Users\310295~1\AppData\Local\Temp\ccIU8zba.s 			page 132


 3175 00e8 0E090000 		.4byte	.LASF19
 3176 00ec 01       		.sleb128 1
 3177 00ed 00       		.byte	0
 3178 00ee 0A       		.uleb128 0xa
 3179 00ef EC010000 		.4byte	.LASF20
 3180 00f3 02       		.byte	0x2
 3181 00f4 1E       		.byte	0x1e
 3182 00f5 D9000000 		.4byte	0xd9
 3183 00f9 0A       		.uleb128 0xa
 3184 00fa BD010000 		.4byte	.LASF21
 3185 00fe 02       		.byte	0x2
 3186 00ff 58       		.byte	0x58
 3187 0100 D2000000 		.4byte	0xd2
 3188 0104 02       		.uleb128 0x2
 3189 0105 04       		.byte	0x4
 3190 0106 07       		.byte	0x7
 3191 0107 4D050000 		.4byte	.LASF22
 3192 010b 0B       		.uleb128 0xb
 3193 010c 4A070000 		.4byte	.LASF23
 3194 0110 01       		.byte	0x1
 3195 0111 7201     		.2byte	0x172
 3196 0113 83000000 		.4byte	0x83
 3197 0117 00000000 		.4byte	.LFB7
 3198 011b 14000000 		.4byte	.LFE7-.LFB7
 3199 011f 01       		.uleb128 0x1
 3200 0120 9C       		.byte	0x9c
 3201 0121 0C       		.uleb128 0xc
 3202 0122 B3000000 		.4byte	.LASF125
 3203 0126 01       		.byte	0x1
 3204 0127 AD02     		.2byte	0x2ad
 3205 0129 83000000 		.4byte	0x83
 3206 012d 00000000 		.4byte	.LFB11
 3207 0131 10000000 		.4byte	.LFE11-.LFB11
 3208 0135 01       		.uleb128 0x1
 3209 0136 9C       		.byte	0x9c
 3210 0137 4A010000 		.4byte	0x14a
 3211 013b 0D       		.uleb128 0xd
 3212 013c 1D000000 		.4byte	.LASF25
 3213 0140 01       		.byte	0x1
 3214 0141 AF02     		.2byte	0x2af
 3215 0143 83000000 		.4byte	0x83
 3216 0147 01       		.uleb128 0x1
 3217 0148 50       		.byte	0x50
 3218 0149 00       		.byte	0
 3219 014a 0B       		.uleb128 0xb
 3220 014b B6060000 		.4byte	.LASF24
 3221 014f 01       		.byte	0x1
 3222 0150 C903     		.2byte	0x3c9
 3223 0152 83000000 		.4byte	0x83
 3224 0156 00000000 		.4byte	.LFB19
 3225 015a 14000000 		.4byte	.LFE19-.LFB19
 3226 015e 01       		.uleb128 0x1
 3227 015f 9C       		.byte	0x9c
 3228 0160 0E       		.uleb128 0xe
 3229 0161 6B040000 		.4byte	.LASF27
 3230 0165 01       		.byte	0x1
 3231 0166 53       		.byte	0x53
ARM GAS  C:\Users\310295~1\AppData\Local\Temp\ccIU8zba.s 			page 133


 3232 0167 00000000 		.4byte	.LFB2
 3233 016b 14000000 		.4byte	.LFE2-.LFB2
 3234 016f 01       		.uleb128 0x1
 3235 0170 9C       		.byte	0x9c
 3236 0171 0F       		.uleb128 0xf
 3237 0172 CA000000 		.4byte	.LASF50
 3238 0176 01       		.byte	0x1
 3239 0177 A8       		.byte	0xa8
 3240 0178 00000000 		.4byte	.LFB4
 3241 017c 5C000000 		.4byte	.LFE4-.LFB4
 3242 0180 01       		.uleb128 0x1
 3243 0181 9C       		.byte	0x9c
 3244 0182 98010000 		.4byte	0x198
 3245 0186 10       		.uleb128 0x10
 3246 0187 46040000 		.4byte	.LASF26
 3247 018b 01       		.byte	0x1
 3248 018c AB       		.byte	0xab
 3249 018d 6B000000 		.4byte	0x6b
 3250 0191 05       		.uleb128 0x5
 3251 0192 03       		.byte	0x3
 3252 0193 00000000 		.4byte	iloTrimTrig.4741
 3253 0197 00       		.byte	0
 3254 0198 0E       		.uleb128 0xe
 3255 0199 87020000 		.4byte	.LASF28
 3256 019d 01       		.byte	0x1
 3257 019e C9       		.byte	0xc9
 3258 019f 00000000 		.4byte	.LFB5
 3259 01a3 14000000 		.4byte	.LFE5-.LFB5
 3260 01a7 01       		.uleb128 0x1
 3261 01a8 9C       		.byte	0x9c
 3262 01a9 11       		.uleb128 0x11
 3263 01aa F8080000 		.4byte	.LASF36
 3264 01ae 01       		.byte	0x1
 3265 01af 0B01     		.2byte	0x10b
 3266 01b1 B0000000 		.4byte	0xb0
 3267 01b5 00000000 		.4byte	.LFB6
 3268 01b9 08010000 		.4byte	.LFE6-.LFB6
 3269 01bd 01       		.uleb128 0x1
 3270 01be 9C       		.byte	0x9c
 3271 01bf 36020000 		.4byte	0x236
 3272 01c3 12       		.uleb128 0x12
 3273 01c4 86030000 		.4byte	.LASF29
 3274 01c8 01       		.byte	0x1
 3275 01c9 0B01     		.2byte	0x10b
 3276 01cb 83000000 		.4byte	0x83
 3277 01cf 00000000 		.4byte	.LLST0
 3278 01d3 12       		.uleb128 0x12
 3279 01d4 3C020000 		.4byte	.LASF30
 3280 01d8 01       		.byte	0x1
 3281 01d9 0B01     		.2byte	0x10b
 3282 01db 36020000 		.4byte	0x236
 3283 01df 02010000 		.4byte	.LLST1
 3284 01e3 13       		.uleb128 0x13
 3285 01e4 5E020000 		.4byte	.LASF31
 3286 01e8 01       		.byte	0x1
 3287 01e9 0D01     		.2byte	0x10d
 3288 01eb 83000000 		.4byte	0x83
ARM GAS  C:\Users\310295~1\AppData\Local\Temp\ccIU8zba.s 			page 134


 3289 01ef 4F010000 		.4byte	.LLST2
 3290 01f3 13       		.uleb128 0x13
 3291 01f4 54080000 		.4byte	.LASF32
 3292 01f8 01       		.byte	0x1
 3293 01f9 0E01     		.2byte	0x10e
 3294 01fb 83000000 		.4byte	0x83
 3295 01ff 79010000 		.4byte	.LLST3
 3296 0203 0D       		.uleb128 0xd
 3297 0204 DA060000 		.4byte	.LASF33
 3298 0208 01       		.byte	0x1
 3299 0209 0F01     		.2byte	0x10f
 3300 020b 83000000 		.4byte	0x83
 3301 020f 05       		.uleb128 0x5
 3302 0210 03       		.byte	0x3
 3303 0211 04000000 		.4byte	compensateRunningStatus.4751
 3304 0215 13       		.uleb128 0x13
 3305 0216 2B060000 		.4byte	.LASF34
 3306 021a 01       		.byte	0x1
 3307 021b 1001     		.2byte	0x110
 3308 021d 83000000 		.4byte	0x83
 3309 0221 AD010000 		.4byte	.LLST4
 3310 0225 13       		.uleb128 0x13
 3311 0226 1F050000 		.4byte	.LASF35
 3312 022a 01       		.byte	0x1
 3313 022b 1101     		.2byte	0x111
 3314 022d B0000000 		.4byte	0xb0
 3315 0231 CB010000 		.4byte	.LLST5
 3316 0235 00       		.byte	0
 3317 0236 06       		.uleb128 0x6
 3318 0237 04       		.byte	0x4
 3319 0238 83000000 		.4byte	0x83
 3320 023c 11       		.uleb128 0x11
 3321 023d 52040000 		.4byte	.LASF37
 3322 0241 01       		.byte	0x1
 3323 0242 3B02     		.2byte	0x23b
 3324 0244 B0000000 		.4byte	0xb0
 3325 0248 00000000 		.4byte	.LFB9
 3326 024c A4000000 		.4byte	.LFE9-.LFB9
 3327 0250 01       		.uleb128 0x1
 3328 0251 9C       		.byte	0x9c
 3329 0252 B7020000 		.4byte	0x2b7
 3330 0256 12       		.uleb128 0x12
 3331 0257 78070000 		.4byte	.LASF38
 3332 025b 01       		.byte	0x1
 3333 025c 3B02     		.2byte	0x23b
 3334 025e B7020000 		.4byte	0x2b7
 3335 0262 F6010000 		.4byte	.LLST6
 3336 0266 13       		.uleb128 0x13
 3337 0267 6B000000 		.4byte	.LASF39
 3338 026b 01       		.byte	0x1
 3339 026c 3D02     		.2byte	0x23d
 3340 026e 83000000 		.4byte	0x83
 3341 0272 2D020000 		.4byte	.LLST7
 3342 0276 13       		.uleb128 0x13
 3343 0277 1C010000 		.4byte	.LASF40
 3344 027b 01       		.byte	0x1
 3345 027c 3E02     		.2byte	0x23e
ARM GAS  C:\Users\310295~1\AppData\Local\Temp\ccIU8zba.s 			page 135


 3346 027e 83000000 		.4byte	0x83
 3347 0282 4F020000 		.4byte	.LLST8
 3348 0286 13       		.uleb128 0x13
 3349 0287 DB010000 		.4byte	.LASF41
 3350 028b 01       		.byte	0x1
 3351 028c 3F02     		.2byte	0x23f
 3352 028e 8F000000 		.4byte	0x8f
 3353 0292 62020000 		.4byte	.LLST9
 3354 0296 13       		.uleb128 0x13
 3355 0297 F4030000 		.4byte	.LASF42
 3356 029b 01       		.byte	0x1
 3357 029c 4002     		.2byte	0x240
 3358 029e 8F000000 		.4byte	0x8f
 3359 02a2 97020000 		.4byte	.LLST10
 3360 02a6 13       		.uleb128 0x13
 3361 02a7 43010000 		.4byte	.LASF43
 3362 02ab 01       		.byte	0x1
 3363 02ac 4102     		.2byte	0x241
 3364 02ae B0000000 		.4byte	0xb0
 3365 02b2 B5020000 		.4byte	.LLST11
 3366 02b6 00       		.byte	0
 3367 02b7 06       		.uleb128 0x6
 3368 02b8 04       		.byte	0x4
 3369 02b9 8F000000 		.4byte	0x8f
 3370 02bd 14       		.uleb128 0x14
 3371 02be 3A070000 		.4byte	.LASF44
 3372 02c2 01       		.byte	0x1
 3373 02c3 C101     		.2byte	0x1c1
 3374 02c5 B0000000 		.4byte	0xb0
 3375 02c9 00000000 		.4byte	.LFB8
 3376 02cd D8000000 		.4byte	.LFE8-.LFB8
 3377 02d1 01       		.uleb128 0x1
 3378 02d2 9C       		.byte	0x9c
 3379 02d3 6E030000 		.4byte	0x36e
 3380 02d7 12       		.uleb128 0x12
 3381 02d8 D0070000 		.4byte	.LASF45
 3382 02dc 01       		.byte	0x1
 3383 02dd C101     		.2byte	0x1c1
 3384 02df 83000000 		.4byte	0x83
 3385 02e3 E0020000 		.4byte	.LLST12
 3386 02e7 12       		.uleb128 0x12
 3387 02e8 78070000 		.4byte	.LASF38
 3388 02ec 01       		.byte	0x1
 3389 02ed C101     		.2byte	0x1c1
 3390 02ef B7020000 		.4byte	0x2b7
 3391 02f3 97030000 		.4byte	.LLST13
 3392 02f7 13       		.uleb128 0x13
 3393 02f8 24080000 		.4byte	.LASF46
 3394 02fc 01       		.byte	0x1
 3395 02fd C301     		.2byte	0x1c3
 3396 02ff 83000000 		.4byte	0x83
 3397 0303 FA030000 		.4byte	.LLST14
 3398 0307 13       		.uleb128 0x13
 3399 0308 5B060000 		.4byte	.LASF47
 3400 030c 01       		.byte	0x1
 3401 030d C401     		.2byte	0x1c4
 3402 030f 83000000 		.4byte	0x83
ARM GAS  C:\Users\310295~1\AppData\Local\Temp\ccIU8zba.s 			page 136


 3403 0313 3C040000 		.4byte	.LLST15
 3404 0317 0D       		.uleb128 0xd
 3405 0318 32080000 		.4byte	.LASF48
 3406 031c 01       		.byte	0x1
 3407 031d C501     		.2byte	0x1c5
 3408 031f 83000000 		.4byte	0x83
 3409 0323 05       		.uleb128 0x5
 3410 0324 03       		.byte	0x3
 3411 0325 08000000 		.4byte	trimRunningStatus.4763
 3412 0329 13       		.uleb128 0x13
 3413 032a 2B060000 		.4byte	.LASF34
 3414 032e 01       		.byte	0x1
 3415 032f C601     		.2byte	0x1c6
 3416 0331 83000000 		.4byte	0x83
 3417 0335 5A040000 		.4byte	.LLST16
 3418 0339 13       		.uleb128 0x13
 3419 033a 1F050000 		.4byte	.LASF35
 3420 033e 01       		.byte	0x1
 3421 033f C701     		.2byte	0x1c7
 3422 0341 B0000000 		.4byte	0xb0
 3423 0345 78040000 		.4byte	.LLST17
 3424 0349 15       		.uleb128 0x15
 3425 034a 4E000000 		.4byte	.LVL68
 3426 034e 3C020000 		.4byte	0x23c
 3427 0352 5D030000 		.4byte	0x35d
 3428 0356 16       		.uleb128 0x16
 3429 0357 01       		.uleb128 0x1
 3430 0358 50       		.byte	0x50
 3431 0359 02       		.uleb128 0x2
 3432 035a 75       		.byte	0x75
 3433 035b 00       		.sleb128 0
 3434 035c 00       		.byte	0
 3435 035d 17       		.uleb128 0x17
 3436 035e 88000000 		.4byte	.LVL73
 3437 0362 3C020000 		.4byte	0x23c
 3438 0366 16       		.uleb128 0x16
 3439 0367 01       		.uleb128 0x1
 3440 0368 50       		.byte	0x50
 3441 0369 02       		.uleb128 0x2
 3442 036a 75       		.byte	0x75
 3443 036b 00       		.sleb128 0
 3444 036c 00       		.byte	0
 3445 036d 00       		.byte	0
 3446 036e 14       		.uleb128 0x14
 3447 036f 6D050000 		.4byte	.LASF49
 3448 0373 01       		.byte	0x1
 3449 0374 8802     		.2byte	0x288
 3450 0376 B0000000 		.4byte	0xb0
 3451 037a 00000000 		.4byte	.LFB10
 3452 037e 30000000 		.4byte	.LFE10-.LFB10
 3453 0382 01       		.uleb128 0x1
 3454 0383 9C       		.byte	0x9c
 3455 0384 99030000 		.4byte	0x399
 3456 0388 13       		.uleb128 0x13
 3457 0389 1F050000 		.4byte	.LASF35
 3458 038d 01       		.byte	0x1
 3459 038e 8A02     		.2byte	0x28a
ARM GAS  C:\Users\310295~1\AppData\Local\Temp\ccIU8zba.s 			page 137


 3460 0390 B0000000 		.4byte	0xb0
 3461 0394 AE040000 		.4byte	.LLST18
 3462 0398 00       		.byte	0
 3463 0399 18       		.uleb128 0x18
 3464 039a B2080000 		.4byte	.LASF52
 3465 039e 02       		.byte	0x2
 3466 039f 9002     		.2byte	0x290
 3467 03a1 03       		.byte	0x3
 3468 03a2 19       		.uleb128 0x19
 3469 03a3 69080000 		.4byte	.LASF51
 3470 03a7 01       		.byte	0x1
 3471 03a8 0303     		.2byte	0x303
 3472 03aa 00000000 		.4byte	.LFB13
 3473 03ae 40000000 		.4byte	.LFE13-.LFB13
 3474 03b2 01       		.uleb128 0x1
 3475 03b3 9C       		.byte	0x9c
 3476 03b4 C9030000 		.4byte	0x3c9
 3477 03b8 1A       		.uleb128 0x1a
 3478 03b9 99030000 		.4byte	0x399
 3479 03bd 02000000 		.4byte	.LBB4
 3480 03c1 2A000000 		.4byte	.LBE4-.LBB4
 3481 03c5 01       		.byte	0x1
 3482 03c6 0503     		.2byte	0x305
 3483 03c8 00       		.byte	0
 3484 03c9 1B       		.uleb128 0x1b
 3485 03ca 30010000 		.4byte	.LASF75
 3486 03ce 01       		.byte	0x1
 3487 03cf 3803     		.2byte	0x338
 3488 03d1 83000000 		.4byte	0x83
 3489 03d5 00000000 		.4byte	.LFB15
 3490 03d9 14000000 		.4byte	.LFE15-.LFB15
 3491 03dd 01       		.uleb128 0x1
 3492 03de 9C       		.byte	0x9c
 3493 03df 18       		.uleb128 0x18
 3494 03e0 A2020000 		.4byte	.LASF53
 3495 03e4 02       		.byte	0x2
 3496 03e5 A902     		.2byte	0x2a9
 3497 03e7 03       		.byte	0x3
 3498 03e8 14       		.uleb128 0x14
 3499 03e9 99070000 		.4byte	.LASF54
 3500 03ed 01       		.byte	0x1
 3501 03ee 5303     		.2byte	0x353
 3502 03f0 83000000 		.4byte	0x83
 3503 03f4 00000000 		.4byte	.LFB16
 3504 03f8 80000000 		.4byte	.LFE16-.LFB16
 3505 03fc 01       		.uleb128 0x1
 3506 03fd 9C       		.byte	0x9c
 3507 03fe 52040000 		.4byte	0x452
 3508 0402 12       		.uleb128 0x12
 3509 0403 D0070000 		.4byte	.LASF45
 3510 0407 01       		.byte	0x1
 3511 0408 5303     		.2byte	0x353
 3512 040a 83000000 		.4byte	0x83
 3513 040e CD040000 		.4byte	.LLST19
 3514 0412 13       		.uleb128 0x13
 3515 0413 91040000 		.4byte	.LASF55
 3516 0417 01       		.byte	0x1
ARM GAS  C:\Users\310295~1\AppData\Local\Temp\ccIU8zba.s 			page 138


 3517 0418 5503     		.2byte	0x355
 3518 041a 83000000 		.4byte	0x83
 3519 041e 20050000 		.4byte	.LLST20
 3520 0422 1A       		.uleb128 0x1a
 3521 0423 99030000 		.4byte	0x399
 3522 0427 14000000 		.4byte	.LBB10
 3523 042b 2C000000 		.4byte	.LBE10-.LBB10
 3524 042f 01       		.byte	0x1
 3525 0430 5C03     		.2byte	0x35c
 3526 0432 1A       		.uleb128 0x1a
 3527 0433 DF030000 		.4byte	0x3df
 3528 0437 40000000 		.4byte	.LBB12
 3529 043b 2C000000 		.4byte	.LBE12-.LBB12
 3530 043f 01       		.byte	0x1
 3531 0440 6103     		.2byte	0x361
 3532 0442 17       		.uleb128 0x17
 3533 0443 72000000 		.4byte	.LVL95
 3534 0447 34100000 		.4byte	0x1034
 3535 044b 16       		.uleb128 0x16
 3536 044c 01       		.uleb128 0x1
 3537 044d 50       		.byte	0x50
 3538 044e 01       		.uleb128 0x1
 3539 044f 30       		.byte	0x30
 3540 0450 00       		.byte	0
 3541 0451 00       		.byte	0
 3542 0452 19       		.uleb128 0x19
 3543 0453 33050000 		.4byte	.LASF56
 3544 0457 01       		.byte	0x1
 3545 0458 9603     		.2byte	0x396
 3546 045a 00000000 		.4byte	.LFB17
 3547 045e 2C000000 		.4byte	.LFE17-.LFB17
 3548 0462 01       		.uleb128 0x1
 3549 0463 9C       		.byte	0x9c
 3550 0464 91040000 		.4byte	0x491
 3551 0468 12       		.uleb128 0x12
 3552 0469 1F020000 		.4byte	.LASF57
 3553 046d 01       		.byte	0x1
 3554 046e 9603     		.2byte	0x396
 3555 0470 83000000 		.4byte	0x83
 3556 0474 3E050000 		.4byte	.LLST21
 3557 0478 1C       		.uleb128 0x1c
 3558 0479 08000000 		.4byte	.LVL98
 3559 047d C9030000 		.4byte	0x3c9
 3560 0481 17       		.uleb128 0x17
 3561 0482 26000000 		.4byte	.LVL101
 3562 0486 34100000 		.4byte	0x1034
 3563 048a 16       		.uleb128 0x16
 3564 048b 01       		.uleb128 0x1
 3565 048c 50       		.byte	0x50
 3566 048d 01       		.uleb128 0x1
 3567 048e 30       		.byte	0x30
 3568 048f 00       		.byte	0
 3569 0490 00       		.byte	0
 3570 0491 19       		.uleb128 0x19
 3571 0492 B0010000 		.4byte	.LASF58
 3572 0496 01       		.byte	0x1
 3573 0497 B403     		.2byte	0x3b4
ARM GAS  C:\Users\310295~1\AppData\Local\Temp\ccIU8zba.s 			page 139


 3574 0499 00000000 		.4byte	.LFB18
 3575 049d 1C000000 		.4byte	.LFE18-.LFB18
 3576 04a1 01       		.uleb128 0x1
 3577 04a2 9C       		.byte	0x9c
 3578 04a3 CA040000 		.4byte	0x4ca
 3579 04a7 13       		.uleb128 0x13
 3580 04a8 A5030000 		.4byte	.LASF59
 3581 04ac 01       		.byte	0x1
 3582 04ad B603     		.2byte	0x3b6
 3583 04af 6B000000 		.4byte	0x6b
 3584 04b3 83050000 		.4byte	.LLST22
 3585 04b7 1C       		.uleb128 0x1c
 3586 04b8 06000000 		.4byte	.LVL102
 3587 04bc 45100000 		.4byte	0x1045
 3588 04c0 1C       		.uleb128 0x1c
 3589 04c1 16000000 		.4byte	.LVL103
 3590 04c5 50100000 		.4byte	0x1050
 3591 04c9 00       		.byte	0
 3592 04ca 19       		.uleb128 0x19
 3593 04cb 5C000000 		.4byte	.LASF60
 3594 04cf 01       		.byte	0x1
 3595 04d0 D703     		.2byte	0x3d7
 3596 04d2 00000000 		.4byte	.LFB20
 3597 04d6 30000000 		.4byte	.LFE20-.LFB20
 3598 04da 01       		.uleb128 0x1
 3599 04db 9C       		.byte	0x9c
 3600 04dc 03050000 		.4byte	0x503
 3601 04e0 13       		.uleb128 0x13
 3602 04e1 A5030000 		.4byte	.LASF59
 3603 04e5 01       		.byte	0x1
 3604 04e6 D903     		.2byte	0x3d9
 3605 04e8 6B000000 		.4byte	0x6b
 3606 04ec 96050000 		.4byte	.LLST23
 3607 04f0 1C       		.uleb128 0x1c
 3608 04f1 06000000 		.4byte	.LVL104
 3609 04f5 45100000 		.4byte	0x1045
 3610 04f9 1C       		.uleb128 0x1c
 3611 04fa 26000000 		.4byte	.LVL105
 3612 04fe 50100000 		.4byte	0x1050
 3613 0502 00       		.byte	0
 3614 0503 14       		.uleb128 0x14
 3615 0504 10040000 		.4byte	.LASF61
 3616 0508 01       		.byte	0x1
 3617 0509 F903     		.2byte	0x3f9
 3618 050b 83000000 		.4byte	0x83
 3619 050f 00000000 		.4byte	.LFB21
 3620 0513 24000000 		.4byte	.LFE21-.LFB21
 3621 0517 01       		.uleb128 0x1
 3622 0518 9C       		.byte	0x9c
 3623 0519 3D050000 		.4byte	0x53d
 3624 051d 12       		.uleb128 0x12
 3625 051e 7B000000 		.4byte	.LASF62
 3626 0522 01       		.byte	0x1
 3627 0523 F903     		.2byte	0x3f9
 3628 0525 83000000 		.4byte	0x83
 3629 0529 A9050000 		.4byte	.LLST24
 3630 052d 17       		.uleb128 0x17
ARM GAS  C:\Users\310295~1\AppData\Local\Temp\ccIU8zba.s 			page 140


 3631 052e 0E000000 		.4byte	.LVL108
 3632 0532 34100000 		.4byte	0x1034
 3633 0536 16       		.uleb128 0x16
 3634 0537 01       		.uleb128 0x1
 3635 0538 50       		.byte	0x50
 3636 0539 01       		.uleb128 0x1
 3637 053a 30       		.byte	0x30
 3638 053b 00       		.byte	0
 3639 053c 00       		.byte	0
 3640 053d 19       		.uleb128 0x19
 3641 053e 4C000000 		.4byte	.LASF63
 3642 0542 01       		.byte	0x1
 3643 0543 1704     		.2byte	0x417
 3644 0545 00000000 		.4byte	.LFB22
 3645 0549 38000000 		.4byte	.LFE22-.LFB22
 3646 054d 01       		.uleb128 0x1
 3647 054e 9C       		.byte	0x9c
 3648 054f A7050000 		.4byte	0x5a7
 3649 0553 12       		.uleb128 0x12
 3650 0554 7B000000 		.4byte	.LASF62
 3651 0558 01       		.byte	0x1
 3652 0559 1704     		.2byte	0x417
 3653 055b 83000000 		.4byte	0x83
 3654 055f D5050000 		.4byte	.LLST25
 3655 0563 12       		.uleb128 0x12
 3656 0564 D0070000 		.4byte	.LASF45
 3657 0568 01       		.byte	0x1
 3658 0569 1704     		.2byte	0x417
 3659 056b 83000000 		.4byte	0x83
 3660 056f 01060000 		.4byte	.LLST26
 3661 0573 13       		.uleb128 0x13
 3662 0574 87080000 		.4byte	.LASF64
 3663 0578 01       		.byte	0x1
 3664 0579 1904     		.2byte	0x419
 3665 057b 83000000 		.4byte	0x83
 3666 057f 2D060000 		.4byte	.LLST27
 3667 0583 15       		.uleb128 0x15
 3668 0584 10000000 		.4byte	.LVL112
 3669 0588 34100000 		.4byte	0x1034
 3670 058c 96050000 		.4byte	0x596
 3671 0590 16       		.uleb128 0x16
 3672 0591 01       		.uleb128 0x1
 3673 0592 50       		.byte	0x50
 3674 0593 01       		.uleb128 0x1
 3675 0594 30       		.byte	0x30
 3676 0595 00       		.byte	0
 3677 0596 17       		.uleb128 0x17
 3678 0597 16000000 		.4byte	.LVL113
 3679 059b 03050000 		.4byte	0x503
 3680 059f 16       		.uleb128 0x16
 3681 05a0 01       		.uleb128 0x1
 3682 05a1 50       		.byte	0x50
 3683 05a2 02       		.uleb128 0x2
 3684 05a3 74       		.byte	0x74
 3685 05a4 00       		.sleb128 0
 3686 05a5 00       		.byte	0
 3687 05a6 00       		.byte	0
ARM GAS  C:\Users\310295~1\AppData\Local\Temp\ccIU8zba.s 			page 141


 3688 05a7 1D       		.uleb128 0x1d
 3689 05a8 BF030000 		.4byte	.LASF85
 3690 05ac 01       		.byte	0x1
 3691 05ad 6607     		.2byte	0x766
 3692 05af 00000000 		.4byte	.LFB45
 3693 05b3 2C000000 		.4byte	.LFE45-.LFB45
 3694 05b7 01       		.uleb128 0x1
 3695 05b8 9C       		.byte	0x9c
 3696 05b9 CD050000 		.4byte	0x5cd
 3697 05bd 17       		.uleb128 0x17
 3698 05be 1E000000 		.4byte	.LVL119
 3699 05c2 3D050000 		.4byte	0x53d
 3700 05c6 16       		.uleb128 0x16
 3701 05c7 01       		.uleb128 0x1
 3702 05c8 50       		.byte	0x50
 3703 05c9 01       		.uleb128 0x1
 3704 05ca 30       		.byte	0x30
 3705 05cb 00       		.byte	0
 3706 05cc 00       		.byte	0
 3707 05cd 14       		.uleb128 0x14
 3708 05ce 44080000 		.4byte	.LASF65
 3709 05d2 01       		.byte	0x1
 3710 05d3 3304     		.2byte	0x433
 3711 05d5 83000000 		.4byte	0x83
 3712 05d9 00000000 		.4byte	.LFB23
 3713 05dd 14000000 		.4byte	.LFE23-.LFB23
 3714 05e1 01       		.uleb128 0x1
 3715 05e2 9C       		.byte	0x9c
 3716 05e3 F8050000 		.4byte	0x5f8
 3717 05e7 12       		.uleb128 0x12
 3718 05e8 7B000000 		.4byte	.LASF62
 3719 05ec 01       		.byte	0x1
 3720 05ed 3304     		.2byte	0x433
 3721 05ef 83000000 		.4byte	0x83
 3722 05f3 4B060000 		.4byte	.LLST28
 3723 05f7 00       		.byte	0
 3724 05f8 19       		.uleb128 0x19
 3725 05f9 F9070000 		.4byte	.LASF66
 3726 05fd 01       		.byte	0x1
 3727 05fe 5004     		.2byte	0x450
 3728 0600 00000000 		.4byte	.LFB24
 3729 0604 38000000 		.4byte	.LFE24-.LFB24
 3730 0608 01       		.uleb128 0x1
 3731 0609 9C       		.byte	0x9c
 3732 060a 62060000 		.4byte	0x662
 3733 060e 12       		.uleb128 0x12
 3734 060f 7B000000 		.4byte	.LASF62
 3735 0613 01       		.byte	0x1
 3736 0614 5004     		.2byte	0x450
 3737 0616 83000000 		.4byte	0x83
 3738 061a 6C060000 		.4byte	.LLST29
 3739 061e 12       		.uleb128 0x12
 3740 061f 2E020000 		.4byte	.LASF67
 3741 0623 01       		.byte	0x1
 3742 0624 5004     		.2byte	0x450
 3743 0626 83000000 		.4byte	0x83
 3744 062a 98060000 		.4byte	.LLST30
ARM GAS  C:\Users\310295~1\AppData\Local\Temp\ccIU8zba.s 			page 142


 3745 062e 13       		.uleb128 0x13
 3746 062f 87080000 		.4byte	.LASF64
 3747 0633 01       		.byte	0x1
 3748 0634 5204     		.2byte	0x452
 3749 0636 83000000 		.4byte	0x83
 3750 063a C4060000 		.4byte	.LLST31
 3751 063e 15       		.uleb128 0x15
 3752 063f 10000000 		.4byte	.LVL124
 3753 0643 34100000 		.4byte	0x1034
 3754 0647 51060000 		.4byte	0x651
 3755 064b 16       		.uleb128 0x16
 3756 064c 01       		.uleb128 0x1
 3757 064d 50       		.byte	0x50
 3758 064e 01       		.uleb128 0x1
 3759 064f 30       		.byte	0x30
 3760 0650 00       		.byte	0
 3761 0651 17       		.uleb128 0x17
 3762 0652 16000000 		.4byte	.LVL125
 3763 0656 03050000 		.4byte	0x503
 3764 065a 16       		.uleb128 0x16
 3765 065b 01       		.uleb128 0x1
 3766 065c 50       		.byte	0x50
 3767 065d 02       		.uleb128 0x2
 3768 065e 74       		.byte	0x74
 3769 065f 00       		.sleb128 0
 3770 0660 00       		.byte	0
 3771 0661 00       		.byte	0
 3772 0662 14       		.uleb128 0x14
 3773 0663 33030000 		.4byte	.LASF68
 3774 0667 01       		.byte	0x1
 3775 0668 7104     		.2byte	0x471
 3776 066a 83000000 		.4byte	0x83
 3777 066e 00000000 		.4byte	.LFB25
 3778 0672 24000000 		.4byte	.LFE25-.LFB25
 3779 0676 01       		.uleb128 0x1
 3780 0677 9C       		.byte	0x9c
 3781 0678 9C060000 		.4byte	0x69c
 3782 067c 12       		.uleb128 0x12
 3783 067d 7B000000 		.4byte	.LASF62
 3784 0681 01       		.byte	0x1
 3785 0682 7104     		.2byte	0x471
 3786 0684 83000000 		.4byte	0x83
 3787 0688 E2060000 		.4byte	.LLST32
 3788 068c 17       		.uleb128 0x17
 3789 068d 0E000000 		.4byte	.LVL133
 3790 0691 34100000 		.4byte	0x1034
 3791 0695 16       		.uleb128 0x16
 3792 0696 01       		.uleb128 0x1
 3793 0697 50       		.byte	0x50
 3794 0698 01       		.uleb128 0x1
 3795 0699 30       		.byte	0x30
 3796 069a 00       		.byte	0
 3797 069b 00       		.byte	0
 3798 069c 19       		.uleb128 0x19
 3799 069d FB020000 		.4byte	.LASF69
 3800 06a1 01       		.byte	0x1
 3801 06a2 9A04     		.2byte	0x49a
ARM GAS  C:\Users\310295~1\AppData\Local\Temp\ccIU8zba.s 			page 143


 3802 06a4 00000000 		.4byte	.LFB26
 3803 06a8 3C000000 		.4byte	.LFE26-.LFB26
 3804 06ac 01       		.uleb128 0x1
 3805 06ad 9C       		.byte	0x9c
 3806 06ae F8060000 		.4byte	0x6f8
 3807 06b2 12       		.uleb128 0x12
 3808 06b3 27030000 		.4byte	.LASF70
 3809 06b7 01       		.byte	0x1
 3810 06b8 9A04     		.2byte	0x49a
 3811 06ba 83000000 		.4byte	0x83
 3812 06be 0E070000 		.4byte	.LLST33
 3813 06c2 15       		.uleb128 0x15
 3814 06c3 16000000 		.4byte	.LVL137
 3815 06c7 03050000 		.4byte	0x503
 3816 06cb D5060000 		.4byte	0x6d5
 3817 06cf 16       		.uleb128 0x16
 3818 06d0 01       		.uleb128 0x1
 3819 06d1 50       		.byte	0x50
 3820 06d2 01       		.uleb128 0x1
 3821 06d3 30       		.byte	0x30
 3822 06d4 00       		.byte	0
 3823 06d5 15       		.uleb128 0x15
 3824 06d6 24000000 		.4byte	.LVL138
 3825 06da 03050000 		.4byte	0x503
 3826 06de E8060000 		.4byte	0x6e8
 3827 06e2 16       		.uleb128 0x16
 3828 06e3 01       		.uleb128 0x1
 3829 06e4 50       		.byte	0x50
 3830 06e5 01       		.uleb128 0x1
 3831 06e6 31       		.byte	0x31
 3832 06e7 00       		.byte	0
 3833 06e8 17       		.uleb128 0x17
 3834 06e9 32000000 		.4byte	.LVL139
 3835 06ed 03050000 		.4byte	0x503
 3836 06f1 16       		.uleb128 0x16
 3837 06f2 01       		.uleb128 0x1
 3838 06f3 50       		.byte	0x50
 3839 06f4 01       		.uleb128 0x1
 3840 06f5 32       		.byte	0x32
 3841 06f6 00       		.byte	0
 3842 06f7 00       		.byte	0
 3843 06f8 19       		.uleb128 0x19
 3844 06f9 2A070000 		.4byte	.LASF71
 3845 06fd 01       		.byte	0x1
 3846 06fe CA04     		.2byte	0x4ca
 3847 0700 00000000 		.4byte	.LFB27
 3848 0704 44000000 		.4byte	.LFE27-.LFB27
 3849 0708 01       		.uleb128 0x1
 3850 0709 9C       		.byte	0x9c
 3851 070a 5D070000 		.4byte	0x75d
 3852 070e 12       		.uleb128 0x12
 3853 070f 27030000 		.4byte	.LASF70
 3854 0713 01       		.byte	0x1
 3855 0714 CA04     		.2byte	0x4ca
 3856 0716 83000000 		.4byte	0x83
 3857 071a 3A070000 		.4byte	.LLST34
 3858 071e 1C       		.uleb128 0x1c
ARM GAS  C:\Users\310295~1\AppData\Local\Temp\ccIU8zba.s 			page 144


 3859 071f 08000000 		.4byte	.LVL142
 3860 0723 4A010000 		.4byte	0x14a
 3861 0727 15       		.uleb128 0x15
 3862 0728 1E000000 		.4byte	.LVL143
 3863 072c 03050000 		.4byte	0x503
 3864 0730 3A070000 		.4byte	0x73a
 3865 0734 16       		.uleb128 0x16
 3866 0735 01       		.uleb128 0x1
 3867 0736 50       		.byte	0x50
 3868 0737 01       		.uleb128 0x1
 3869 0738 30       		.byte	0x30
 3870 0739 00       		.byte	0
 3871 073a 15       		.uleb128 0x15
 3872 073b 2C000000 		.4byte	.LVL144
 3873 073f 03050000 		.4byte	0x503
 3874 0743 4D070000 		.4byte	0x74d
 3875 0747 16       		.uleb128 0x16
 3876 0748 01       		.uleb128 0x1
 3877 0749 50       		.byte	0x50
 3878 074a 01       		.uleb128 0x1
 3879 074b 31       		.byte	0x31
 3880 074c 00       		.byte	0
 3881 074d 17       		.uleb128 0x17
 3882 074e 3A000000 		.4byte	.LVL145
 3883 0752 03050000 		.4byte	0x503
 3884 0756 16       		.uleb128 0x16
 3885 0757 01       		.uleb128 0x1
 3886 0758 50       		.byte	0x50
 3887 0759 01       		.uleb128 0x1
 3888 075a 32       		.byte	0x32
 3889 075b 00       		.byte	0
 3890 075c 00       		.byte	0
 3891 075d 19       		.uleb128 0x19
 3892 075e 11080000 		.4byte	.LASF72
 3893 0762 01       		.byte	0x1
 3894 0763 0505     		.2byte	0x505
 3895 0765 00000000 		.4byte	.LFB28
 3896 0769 34000000 		.4byte	.LFE28-.LFB28
 3897 076d 01       		.uleb128 0x1
 3898 076e 9C       		.byte	0x9c
 3899 076f D7070000 		.4byte	0x7d7
 3900 0773 12       		.uleb128 0x12
 3901 0774 B3040000 		.4byte	.LASF73
 3902 0778 01       		.byte	0x1
 3903 0779 0505     		.2byte	0x505
 3904 077b 83000000 		.4byte	0x83
 3905 077f 66070000 		.4byte	.LLST35
 3906 0783 13       		.uleb128 0x13
 3907 0784 87080000 		.4byte	.LASF64
 3908 0788 01       		.byte	0x1
 3909 0789 0705     		.2byte	0x507
 3910 078b 83000000 		.4byte	0x83
 3911 078f 92070000 		.4byte	.LLST36
 3912 0793 0D       		.uleb128 0xd
 3913 0794 DB020000 		.4byte	.LASF74
 3914 0798 01       		.byte	0x1
 3915 0799 0805     		.2byte	0x508
ARM GAS  C:\Users\310295~1\AppData\Local\Temp\ccIU8zba.s 			page 145


 3916 079b 83000000 		.4byte	0x83
 3917 079f 01       		.uleb128 0x1
 3918 07a0 50       		.byte	0x50
 3919 07a1 15       		.uleb128 0x15
 3920 07a2 0A000000 		.4byte	.LVL149
 3921 07a6 03050000 		.4byte	0x503
 3922 07aa B4070000 		.4byte	0x7b4
 3923 07ae 16       		.uleb128 0x16
 3924 07af 01       		.uleb128 0x1
 3925 07b0 50       		.byte	0x50
 3926 07b1 01       		.uleb128 0x1
 3927 07b2 30       		.byte	0x30
 3928 07b3 00       		.byte	0
 3929 07b4 15       		.uleb128 0x15
 3930 07b5 12000000 		.4byte	.LVL150
 3931 07b9 03050000 		.4byte	0x503
 3932 07bd C7070000 		.4byte	0x7c7
 3933 07c1 16       		.uleb128 0x16
 3934 07c2 01       		.uleb128 0x1
 3935 07c3 50       		.byte	0x50
 3936 07c4 01       		.uleb128 0x1
 3937 07c5 31       		.byte	0x31
 3938 07c6 00       		.byte	0
 3939 07c7 17       		.uleb128 0x17
 3940 07c8 1A000000 		.4byte	.LVL151
 3941 07cc 03050000 		.4byte	0x503
 3942 07d0 16       		.uleb128 0x16
 3943 07d1 01       		.uleb128 0x1
 3944 07d2 50       		.byte	0x50
 3945 07d3 01       		.uleb128 0x1
 3946 07d4 32       		.byte	0x32
 3947 07d5 00       		.byte	0
 3948 07d6 00       		.byte	0
 3949 07d7 1B       		.uleb128 0x1b
 3950 07d8 A0000000 		.4byte	.LASF76
 3951 07dc 01       		.byte	0x1
 3952 07dd 2405     		.2byte	0x524
 3953 07df 83000000 		.4byte	0x83
 3954 07e3 00000000 		.4byte	.LFB29
 3955 07e7 14000000 		.4byte	.LFE29-.LFB29
 3956 07eb 01       		.uleb128 0x1
 3957 07ec 9C       		.byte	0x9c
 3958 07ed 19       		.uleb128 0x19
 3959 07ee CA020000 		.4byte	.LASF77
 3960 07f2 01       		.byte	0x1
 3961 07f3 3805     		.2byte	0x538
 3962 07f5 00000000 		.4byte	.LFB30
 3963 07f9 58000000 		.4byte	.LFE30-.LFB30
 3964 07fd 01       		.uleb128 0x1
 3965 07fe 9C       		.byte	0x9c
 3966 07ff 59080000 		.4byte	0x859
 3967 0803 12       		.uleb128 0x12
 3968 0804 7B000000 		.4byte	.LASF62
 3969 0808 01       		.byte	0x1
 3970 0809 3805     		.2byte	0x538
 3971 080b 83000000 		.4byte	0x83
 3972 080f BB070000 		.4byte	.LLST37
ARM GAS  C:\Users\310295~1\AppData\Local\Temp\ccIU8zba.s 			page 146


 3973 0813 12       		.uleb128 0x12
 3974 0814 67050000 		.4byte	.LASF78
 3975 0818 01       		.byte	0x1
 3976 0819 3805     		.2byte	0x538
 3977 081b 83000000 		.4byte	0x83
 3978 081f E7070000 		.4byte	.LLST38
 3979 0823 13       		.uleb128 0x13
 3980 0824 16020000 		.4byte	.LASF79
 3981 0828 01       		.byte	0x1
 3982 0829 3A05     		.2byte	0x53a
 3983 082b 83000000 		.4byte	0x83
 3984 082f 13080000 		.4byte	.LLST39
 3985 0833 15       		.uleb128 0x15
 3986 0834 10000000 		.4byte	.LVL159
 3987 0838 34100000 		.4byte	0x1034
 3988 083c 46080000 		.4byte	0x846
 3989 0840 16       		.uleb128 0x16
 3990 0841 01       		.uleb128 0x1
 3991 0842 50       		.byte	0x50
 3992 0843 01       		.uleb128 0x1
 3993 0844 30       		.byte	0x30
 3994 0845 00       		.byte	0
 3995 0846 1C       		.uleb128 0x1c
 3996 0847 22000000 		.4byte	.LVL160
 3997 084b 61100000 		.4byte	0x1061
 3998 084f 1C       		.uleb128 0x1c
 3999 0850 4A000000 		.4byte	.LVL167
 4000 0854 61100000 		.4byte	0x1061
 4001 0858 00       		.byte	0
 4002 0859 19       		.uleb128 0x19
 4003 085a 7C040000 		.4byte	.LASF80
 4004 085e 01       		.byte	0x1
 4005 085f 5F05     		.2byte	0x55f
 4006 0861 00000000 		.4byte	.LFB31
 4007 0865 2C000000 		.4byte	.LFE31-.LFB31
 4008 0869 01       		.uleb128 0x1
 4009 086a 9C       		.byte	0x9c
 4010 086b 9F080000 		.4byte	0x89f
 4011 086f 12       		.uleb128 0x12
 4012 0870 08020000 		.4byte	.LASF81
 4013 0874 01       		.byte	0x1
 4014 0875 5F05     		.2byte	0x55f
 4015 0877 83000000 		.4byte	0x83
 4016 087b 3C080000 		.4byte	.LLST40
 4017 087f 13       		.uleb128 0x13
 4018 0880 87080000 		.4byte	.LASF64
 4019 0884 01       		.byte	0x1
 4020 0885 6105     		.2byte	0x561
 4021 0887 83000000 		.4byte	0x83
 4022 088b 68080000 		.4byte	.LLST41
 4023 088f 17       		.uleb128 0x17
 4024 0890 0A000000 		.4byte	.LVL171
 4025 0894 03050000 		.4byte	0x503
 4026 0898 16       		.uleb128 0x16
 4027 0899 01       		.uleb128 0x1
 4028 089a 50       		.byte	0x50
 4029 089b 01       		.uleb128 0x1
ARM GAS  C:\Users\310295~1\AppData\Local\Temp\ccIU8zba.s 			page 147


 4030 089c 32       		.byte	0x32
 4031 089d 00       		.byte	0
 4032 089e 00       		.byte	0
 4033 089f 1B       		.uleb128 0x1b
 4034 08a0 E3080000 		.4byte	.LASF82
 4035 08a4 01       		.byte	0x1
 4036 08a5 7605     		.2byte	0x576
 4037 08a7 83000000 		.4byte	0x83
 4038 08ab 00000000 		.4byte	.LFB32
 4039 08af 10000000 		.4byte	.LFE32-.LFB32
 4040 08b3 01       		.uleb128 0x1
 4041 08b4 9C       		.byte	0x9c
 4042 08b5 14       		.uleb128 0x14
 4043 08b6 56050000 		.4byte	.LASF83
 4044 08ba 01       		.byte	0x1
 4045 08bb 8805     		.2byte	0x588
 4046 08bd 83000000 		.4byte	0x83
 4047 08c1 00000000 		.4byte	.LFB33
 4048 08c5 20000000 		.4byte	.LFE33-.LFB33
 4049 08c9 01       		.uleb128 0x1
 4050 08ca 9C       		.byte	0x9c
 4051 08cb EF080000 		.4byte	0x8ef
 4052 08cf 12       		.uleb128 0x12
 4053 08d0 7B000000 		.4byte	.LASF62
 4054 08d4 01       		.byte	0x1
 4055 08d5 8805     		.2byte	0x588
 4056 08d7 83000000 		.4byte	0x83
 4057 08db 91080000 		.4byte	.LLST42
 4058 08df 17       		.uleb128 0x17
 4059 08e0 0E000000 		.4byte	.LVL179
 4060 08e4 34100000 		.4byte	0x1034
 4061 08e8 16       		.uleb128 0x16
 4062 08e9 01       		.uleb128 0x1
 4063 08ea 50       		.byte	0x50
 4064 08eb 01       		.uleb128 0x1
 4065 08ec 30       		.byte	0x30
 4066 08ed 00       		.byte	0
 4067 08ee 00       		.byte	0
 4068 08ef 14       		.uleb128 0x14
 4069 08f0 D5070000 		.4byte	.LASF84
 4070 08f4 01       		.byte	0x1
 4071 08f5 9E05     		.2byte	0x59e
 4072 08f7 83000000 		.4byte	0x83
 4073 08fb 00000000 		.4byte	.LFB34
 4074 08ff 3C000000 		.4byte	.LFE34-.LFB34
 4075 0903 01       		.uleb128 0x1
 4076 0904 9C       		.byte	0x9c
 4077 0905 39090000 		.4byte	0x939
 4078 0909 12       		.uleb128 0x12
 4079 090a 7B000000 		.4byte	.LASF62
 4080 090e 01       		.byte	0x1
 4081 090f 9E05     		.2byte	0x59e
 4082 0911 83000000 		.4byte	0x83
 4083 0915 BD080000 		.4byte	.LLST43
 4084 0919 13       		.uleb128 0x13
 4085 091a 16020000 		.4byte	.LASF79
 4086 091e 01       		.byte	0x1
ARM GAS  C:\Users\310295~1\AppData\Local\Temp\ccIU8zba.s 			page 148


 4087 091f A005     		.2byte	0x5a0
 4088 0921 83000000 		.4byte	0x83
 4089 0925 29090000 		.4byte	.LLST44
 4090 0929 17       		.uleb128 0x17
 4091 092a 2E000000 		.4byte	.LVL192
 4092 092e 34100000 		.4byte	0x1034
 4093 0932 16       		.uleb128 0x16
 4094 0933 01       		.uleb128 0x1
 4095 0934 50       		.byte	0x50
 4096 0935 01       		.uleb128 0x1
 4097 0936 30       		.byte	0x30
 4098 0937 00       		.byte	0
 4099 0938 00       		.byte	0
 4100 0939 1D       		.uleb128 0x1d
 4101 093a 86000000 		.4byte	.LASF86
 4102 093e 01       		.byte	0x1
 4103 093f 3007     		.2byte	0x730
 4104 0941 00000000 		.4byte	.LFB44
 4105 0945 74000000 		.4byte	.LFE44-.LFB44
 4106 0949 01       		.uleb128 0x1
 4107 094a 9C       		.byte	0x9c
 4108 094b FB090000 		.4byte	0x9fb
 4109 094f 13       		.uleb128 0x13
 4110 0950 6F030000 		.4byte	.LASF87
 4111 0954 01       		.byte	0x1
 4112 0955 3207     		.2byte	0x732
 4113 0957 83000000 		.4byte	0x83
 4114 095b 8D090000 		.4byte	.LLST45
 4115 095f 0D       		.uleb128 0xd
 4116 0960 F2060000 		.4byte	.LASF88
 4117 0964 01       		.byte	0x1
 4118 0965 3307     		.2byte	0x733
 4119 0967 83000000 		.4byte	0x83
 4120 096b 05       		.uleb128 0x5
 4121 096c 03       		.byte	0x3
 4122 096d 14000000 		.4byte	lfclkPosedgeEnabledWdtCounter.4937
 4123 0971 15       		.uleb128 0x15
 4124 0972 08000000 		.4byte	.LVL194
 4125 0976 03050000 		.4byte	0x503
 4126 097a 84090000 		.4byte	0x984
 4127 097e 16       		.uleb128 0x16
 4128 097f 01       		.uleb128 0x1
 4129 0980 50       		.byte	0x50
 4130 0981 01       		.uleb128 0x1
 4131 0982 30       		.byte	0x30
 4132 0983 00       		.byte	0
 4133 0984 15       		.uleb128 0x15
 4134 0985 1A000000 		.4byte	.LVL195
 4135 0989 03050000 		.4byte	0x503
 4136 098d 97090000 		.4byte	0x997
 4137 0991 16       		.uleb128 0x16
 4138 0992 01       		.uleb128 0x1
 4139 0993 50       		.byte	0x50
 4140 0994 01       		.uleb128 0x1
 4141 0995 31       		.byte	0x31
 4142 0996 00       		.byte	0
 4143 0997 15       		.uleb128 0x15
ARM GAS  C:\Users\310295~1\AppData\Local\Temp\ccIU8zba.s 			page 149


 4144 0998 2C000000 		.4byte	.LVL196
 4145 099c 03050000 		.4byte	0x503
 4146 09a0 AA090000 		.4byte	0x9aa
 4147 09a4 16       		.uleb128 0x16
 4148 09a5 01       		.uleb128 0x1
 4149 09a6 50       		.byte	0x50
 4150 09a7 01       		.uleb128 0x1
 4151 09a8 32       		.byte	0x32
 4152 09a9 00       		.byte	0
 4153 09aa 15       		.uleb128 0x15
 4154 09ab 48000000 		.4byte	.LVL197
 4155 09af CD050000 		.4byte	0x5cd
 4156 09b3 BD090000 		.4byte	0x9bd
 4157 09b7 16       		.uleb128 0x16
 4158 09b8 01       		.uleb128 0x1
 4159 09b9 50       		.byte	0x50
 4160 09ba 01       		.uleb128 0x1
 4161 09bb 30       		.byte	0x30
 4162 09bc 00       		.byte	0
 4163 09bd 15       		.uleb128 0x15
 4164 09be 52000000 		.4byte	.LVL198
 4165 09c2 3D050000 		.4byte	0x53d
 4166 09c6 D5090000 		.4byte	0x9d5
 4167 09ca 16       		.uleb128 0x16
 4168 09cb 01       		.uleb128 0x1
 4169 09cc 51       		.byte	0x51
 4170 09cd 01       		.uleb128 0x1
 4171 09ce 30       		.byte	0x30
 4172 09cf 16       		.uleb128 0x16
 4173 09d0 01       		.uleb128 0x1
 4174 09d1 50       		.byte	0x50
 4175 09d2 01       		.uleb128 0x1
 4176 09d3 30       		.byte	0x30
 4177 09d4 00       		.byte	0
 4178 09d5 15       		.uleb128 0x15
 4179 09d6 58000000 		.4byte	.LVL199
 4180 09da 9C060000 		.4byte	0x69c
 4181 09de E8090000 		.4byte	0x9e8
 4182 09e2 16       		.uleb128 0x16
 4183 09e3 01       		.uleb128 0x1
 4184 09e4 50       		.byte	0x50
 4185 09e5 01       		.uleb128 0x1
 4186 09e6 31       		.byte	0x31
 4187 09e7 00       		.byte	0
 4188 09e8 1C       		.uleb128 0x1c
 4189 09e9 60000000 		.4byte	.LVL200
 4190 09ed EF080000 		.4byte	0x8ef
 4191 09f1 1C       		.uleb128 0x1c
 4192 09f2 6A000000 		.4byte	.LVL202
 4193 09f6 EF080000 		.4byte	0x8ef
 4194 09fa 00       		.byte	0
 4195 09fb 0F       		.uleb128 0xf
 4196 09fc 4E020000 		.4byte	.LASF89
 4197 0a00 01       		.byte	0x1
 4198 0a01 6C       		.byte	0x6c
 4199 0a02 00000000 		.4byte	.LFB3
 4200 0a06 4C000000 		.4byte	.LFE3-.LFB3
ARM GAS  C:\Users\310295~1\AppData\Local\Temp\ccIU8zba.s 			page 150


 4201 0a0a 01       		.uleb128 0x1
 4202 0a0b 9C       		.byte	0x9c
 4203 0a0c 660A0000 		.4byte	0xa66
 4204 0a10 1E       		.uleb128 0x1e
 4205 0a11 A5030000 		.4byte	.LASF59
 4206 0a15 01       		.byte	0x1
 4207 0a16 6F       		.byte	0x6f
 4208 0a17 6B000000 		.4byte	0x6b
 4209 0a1b A0090000 		.4byte	.LLST46
 4210 0a1f 1C       		.uleb128 0x1c
 4211 0a20 06000000 		.4byte	.LVL204
 4212 0a24 4A010000 		.4byte	0x14a
 4213 0a28 1C       		.uleb128 0x1c
 4214 0a29 0E000000 		.4byte	.LVL205
 4215 0a2d 0B010000 		.4byte	0x10b
 4216 0a31 1C       		.uleb128 0x1c
 4217 0a32 16000000 		.4byte	.LVL206
 4218 0a36 21010000 		.4byte	0x121
 4219 0a3a 1C       		.uleb128 0x1c
 4220 0a3b 1E000000 		.4byte	.LVL207
 4221 0a3f 45100000 		.4byte	0x1045
 4222 0a43 1C       		.uleb128 0x1c
 4223 0a44 24000000 		.4byte	.LVL209
 4224 0a48 39090000 		.4byte	0x939
 4225 0a4c 1C       		.uleb128 0x1c
 4226 0a4d 32000000 		.4byte	.LVL210
 4227 0a51 A7050000 		.4byte	0x5a7
 4228 0a55 17       		.uleb128 0x17
 4229 0a56 38000000 		.4byte	.LVL211
 4230 0a5a 50100000 		.4byte	0x1050
 4231 0a5e 16       		.uleb128 0x16
 4232 0a5f 01       		.uleb128 0x1
 4233 0a60 50       		.byte	0x50
 4234 0a61 02       		.uleb128 0x2
 4235 0a62 74       		.byte	0x74
 4236 0a63 00       		.sleb128 0
 4237 0a64 00       		.byte	0
 4238 0a65 00       		.byte	0
 4239 0a66 19       		.uleb128 0x19
 4240 0a67 58030000 		.4byte	.LASF90
 4241 0a6b 01       		.byte	0x1
 4242 0a6c DE02     		.2byte	0x2de
 4243 0a6e 00000000 		.4byte	.LFB12
 4244 0a72 38000000 		.4byte	.LFE12-.LFB12
 4245 0a76 01       		.uleb128 0x1
 4246 0a77 9C       		.byte	0x9c
 4247 0a78 D10A0000 		.4byte	0xad1
 4248 0a7c 12       		.uleb128 0x12
 4249 0a7d 2C050000 		.4byte	.LASF91
 4250 0a81 01       		.byte	0x1
 4251 0a82 DE02     		.2byte	0x2de
 4252 0a84 83000000 		.4byte	0x83
 4253 0a88 B3090000 		.4byte	.LLST47
 4254 0a8c 13       		.uleb128 0x13
 4255 0a8d A5030000 		.4byte	.LASF59
 4256 0a91 01       		.byte	0x1
 4257 0a92 E002     		.2byte	0x2e0
ARM GAS  C:\Users\310295~1\AppData\Local\Temp\ccIU8zba.s 			page 151


 4258 0a94 6B000000 		.4byte	0x6b
 4259 0a98 DF090000 		.4byte	.LLST48
 4260 0a9c 1C       		.uleb128 0x1c
 4261 0a9d 08000000 		.4byte	.LVL214
 4262 0aa1 21010000 		.4byte	0x121
 4263 0aa5 1C       		.uleb128 0x1c
 4264 0aa6 10000000 		.4byte	.LVL215
 4265 0aaa 45100000 		.4byte	0x1045
 4266 0aae 1C       		.uleb128 0x1c
 4267 0aaf 16000000 		.4byte	.LVL217
 4268 0ab3 39090000 		.4byte	0x939
 4269 0ab7 1C       		.uleb128 0x1c
 4270 0ab8 2A000000 		.4byte	.LVL219
 4271 0abc A7050000 		.4byte	0x5a7
 4272 0ac0 17       		.uleb128 0x17
 4273 0ac1 30000000 		.4byte	.LVL220
 4274 0ac5 50100000 		.4byte	0x1050
 4275 0ac9 16       		.uleb128 0x16
 4276 0aca 01       		.uleb128 0x1
 4277 0acb 50       		.byte	0x50
 4278 0acc 02       		.uleb128 0x2
 4279 0acd 75       		.byte	0x75
 4280 0ace 00       		.sleb128 0
 4281 0acf 00       		.byte	0
 4282 0ad0 00       		.byte	0
 4283 0ad1 19       		.uleb128 0x19
 4284 0ad2 89070000 		.4byte	.LASF92
 4285 0ad6 01       		.byte	0x1
 4286 0ad7 1503     		.2byte	0x315
 4287 0ad9 00000000 		.4byte	.LFB14
 4288 0add 48000000 		.4byte	.LFE14-.LFB14
 4289 0ae1 01       		.uleb128 0x1
 4290 0ae2 9C       		.byte	0x9c
 4291 0ae3 350B0000 		.4byte	0xb35
 4292 0ae7 13       		.uleb128 0x13
 4293 0ae8 A5030000 		.4byte	.LASF59
 4294 0aec 01       		.byte	0x1
 4295 0aed 1803     		.2byte	0x318
 4296 0aef 6B000000 		.4byte	0x6b
 4297 0af3 F2090000 		.4byte	.LLST49
 4298 0af7 1C       		.uleb128 0x1c
 4299 0af8 06000000 		.4byte	.LVL221
 4300 0afc C9030000 		.4byte	0x3c9
 4301 0b00 1C       		.uleb128 0x1c
 4302 0b01 0E000000 		.4byte	.LVL222
 4303 0b05 21010000 		.4byte	0x121
 4304 0b09 1C       		.uleb128 0x1c
 4305 0b0a 1A000000 		.4byte	.LVL223
 4306 0b0e 45100000 		.4byte	0x1045
 4307 0b12 1C       		.uleb128 0x1c
 4308 0b13 20000000 		.4byte	.LVL225
 4309 0b17 39090000 		.4byte	0x939
 4310 0b1b 1C       		.uleb128 0x1c
 4311 0b1c 2E000000 		.4byte	.LVL226
 4312 0b20 A7050000 		.4byte	0x5a7
 4313 0b24 17       		.uleb128 0x17
 4314 0b25 34000000 		.4byte	.LVL227
ARM GAS  C:\Users\310295~1\AppData\Local\Temp\ccIU8zba.s 			page 152


 4315 0b29 50100000 		.4byte	0x1050
 4316 0b2d 16       		.uleb128 0x16
 4317 0b2e 01       		.uleb128 0x1
 4318 0b2f 50       		.byte	0x50
 4319 0b30 02       		.uleb128 0x2
 4320 0b31 74       		.byte	0x74
 4321 0b32 00       		.sleb128 0
 4322 0b33 00       		.byte	0
 4323 0b34 00       		.byte	0
 4324 0b35 1B       		.uleb128 0x1b
 4325 0b36 5D070000 		.4byte	.LASF93
 4326 0b3a 01       		.byte	0x1
 4327 0b3b C905     		.2byte	0x5c9
 4328 0b3d 83000000 		.4byte	0x83
 4329 0b41 00000000 		.4byte	.LFB35
 4330 0b45 14000000 		.4byte	.LFE35-.LFB35
 4331 0b49 01       		.uleb128 0x1
 4332 0b4a 9C       		.byte	0x9c
 4333 0b4b 19       		.uleb128 0x19
 4334 0b4c 6F060000 		.4byte	.LASF94
 4335 0b50 01       		.byte	0x1
 4336 0b51 E605     		.2byte	0x5e6
 4337 0b53 00000000 		.4byte	.LFB36
 4338 0b57 4C000000 		.4byte	.LFE36-.LFB36
 4339 0b5b 01       		.uleb128 0x1
 4340 0b5c 9C       		.byte	0x9c
 4341 0b5d C60B0000 		.4byte	0xbc6
 4342 0b61 12       		.uleb128 0x12
 4343 0b62 27030000 		.4byte	.LASF70
 4344 0b66 01       		.byte	0x1
 4345 0b67 E605     		.2byte	0x5e6
 4346 0b69 83000000 		.4byte	0x83
 4347 0b6d 050A0000 		.4byte	.LLST50
 4348 0b71 13       		.uleb128 0x13
 4349 0b72 A5030000 		.4byte	.LASF59
 4350 0b76 01       		.byte	0x1
 4351 0b77 E805     		.2byte	0x5e8
 4352 0b79 6B000000 		.4byte	0x6b
 4353 0b7d 550A0000 		.4byte	.LLST51
 4354 0b81 13       		.uleb128 0x13
 4355 0b82 7A080000 		.4byte	.LASF95
 4356 0b86 01       		.byte	0x1
 4357 0b87 E905     		.2byte	0x5e9
 4358 0b89 83000000 		.4byte	0x83
 4359 0b8d 680A0000 		.4byte	.LLST52
 4360 0b91 1C       		.uleb128 0x1c
 4361 0b92 08000000 		.4byte	.LVL230
 4362 0b96 45100000 		.4byte	0x1045
 4363 0b9a 1C       		.uleb128 0x1c
 4364 0b9b 0E000000 		.4byte	.LVL232
 4365 0b9f 4A010000 		.4byte	0x14a
 4366 0ba3 1C       		.uleb128 0x1c
 4367 0ba4 16000000 		.4byte	.LVL234
 4368 0ba8 CA040000 		.4byte	0x4ca
 4369 0bac 1C       		.uleb128 0x1c
 4370 0bad 38000000 		.4byte	.LVL239
 4371 0bb1 91040000 		.4byte	0x491
ARM GAS  C:\Users\310295~1\AppData\Local\Temp\ccIU8zba.s 			page 153


 4372 0bb5 17       		.uleb128 0x17
 4373 0bb6 3E000000 		.4byte	.LVL240
 4374 0bba 50100000 		.4byte	0x1050
 4375 0bbe 16       		.uleb128 0x16
 4376 0bbf 01       		.uleb128 0x1
 4377 0bc0 50       		.byte	0x50
 4378 0bc1 02       		.uleb128 0x2
 4379 0bc2 74       		.byte	0x74
 4380 0bc3 00       		.sleb128 0
 4381 0bc4 00       		.byte	0
 4382 0bc5 00       		.byte	0
 4383 0bc6 19       		.uleb128 0x19
 4384 0bc7 45060000 		.4byte	.LASF96
 4385 0bcb 01       		.byte	0x1
 4386 0bcc 2006     		.2byte	0x620
 4387 0bce 00000000 		.4byte	.LFB37
 4388 0bd2 20000000 		.4byte	.LFE37-.LFB37
 4389 0bd6 01       		.uleb128 0x1
 4390 0bd7 9C       		.byte	0x9c
 4391 0bd8 ED0B0000 		.4byte	0xbed
 4392 0bdc 12       		.uleb128 0x12
 4393 0bdd 73020000 		.4byte	.LASF97
 4394 0be1 01       		.byte	0x1
 4395 0be2 2006     		.2byte	0x620
 4396 0be4 83000000 		.4byte	0x83
 4397 0be8 870A0000 		.4byte	.LLST53
 4398 0bec 00       		.byte	0
 4399 0bed 14       		.uleb128 0x14
 4400 0bee 0A030000 		.4byte	.LASF98
 4401 0bf2 01       		.byte	0x1
 4402 0bf3 3A06     		.2byte	0x63a
 4403 0bf5 F9000000 		.4byte	0xf9
 4404 0bf9 00000000 		.4byte	.LFB38
 4405 0bfd 20000000 		.4byte	.LFE38-.LFB38
 4406 0c01 01       		.uleb128 0x1
 4407 0c02 9C       		.byte	0x9c
 4408 0c03 470C0000 		.4byte	0xc47
 4409 0c07 12       		.uleb128 0x12
 4410 0c08 7B000000 		.4byte	.LASF62
 4411 0c0c 01       		.byte	0x1
 4412 0c0d 3A06     		.2byte	0x63a
 4413 0c0f 83000000 		.4byte	0x83
 4414 0c13 A80A0000 		.4byte	.LLST54
 4415 0c17 12       		.uleb128 0x12
 4416 0c18 A7010000 		.4byte	.LASF99
 4417 0c1c 01       		.byte	0x1
 4418 0c1d 3A06     		.2byte	0x63a
 4419 0c1f F9000000 		.4byte	0xf9
 4420 0c23 E20A0000 		.4byte	.LLST55
 4421 0c27 13       		.uleb128 0x13
 4422 0c28 BD020000 		.4byte	.LASF100
 4423 0c2c 01       		.byte	0x1
 4424 0c2d 3C06     		.2byte	0x63c
 4425 0c2f F9000000 		.4byte	0xf9
 4426 0c33 030B0000 		.4byte	.LLST56
 4427 0c37 17       		.uleb128 0x17
 4428 0c38 18000000 		.4byte	.LVL252
ARM GAS  C:\Users\310295~1\AppData\Local\Temp\ccIU8zba.s 			page 154


 4429 0c3c 34100000 		.4byte	0x1034
 4430 0c40 16       		.uleb128 0x16
 4431 0c41 01       		.uleb128 0x1
 4432 0c42 50       		.byte	0x50
 4433 0c43 01       		.uleb128 0x1
 4434 0c44 30       		.byte	0x30
 4435 0c45 00       		.byte	0
 4436 0c46 00       		.byte	0
 4437 0c47 14       		.uleb128 0x14
 4438 0c48 29040000 		.4byte	.LASF101
 4439 0c4c 01       		.byte	0x1
 4440 0c4d 5806     		.2byte	0x658
 4441 0c4f F9000000 		.4byte	0xf9
 4442 0c53 00000000 		.4byte	.LFB39
 4443 0c57 20000000 		.4byte	.LFE39-.LFB39
 4444 0c5b 01       		.uleb128 0x1
 4445 0c5c 9C       		.byte	0x9c
 4446 0c5d 910C0000 		.4byte	0xc91
 4447 0c61 12       		.uleb128 0x12
 4448 0c62 7B000000 		.4byte	.LASF62
 4449 0c66 01       		.byte	0x1
 4450 0c67 5806     		.2byte	0x658
 4451 0c69 83000000 		.4byte	0x83
 4452 0c6d 390B0000 		.4byte	.LLST57
 4453 0c71 13       		.uleb128 0x13
 4454 0c72 7A030000 		.4byte	.LASF102
 4455 0c76 01       		.byte	0x1
 4456 0c77 5A06     		.2byte	0x65a
 4457 0c79 F9000000 		.4byte	0xf9
 4458 0c7d 730B0000 		.4byte	.LLST58
 4459 0c81 17       		.uleb128 0x17
 4460 0c82 16000000 		.4byte	.LVL260
 4461 0c86 34100000 		.4byte	0x1034
 4462 0c8a 16       		.uleb128 0x16
 4463 0c8b 01       		.uleb128 0x1
 4464 0c8c 50       		.byte	0x50
 4465 0c8d 01       		.uleb128 0x1
 4466 0c8e 30       		.byte	0x30
 4467 0c8f 00       		.byte	0
 4468 0c90 00       		.byte	0
 4469 0c91 19       		.uleb128 0x19
 4470 0c92 DB030000 		.4byte	.LASF103
 4471 0c96 01       		.byte	0x1
 4472 0c97 7506     		.2byte	0x675
 4473 0c99 00000000 		.4byte	.LFB40
 4474 0c9d 34000000 		.4byte	.LFE40-.LFB40
 4475 0ca1 01       		.uleb128 0x1
 4476 0ca2 9C       		.byte	0x9c
 4477 0ca3 C70C0000 		.4byte	0xcc7
 4478 0ca7 12       		.uleb128 0x12
 4479 0ca8 7B000000 		.4byte	.LASF62
 4480 0cac 01       		.byte	0x1
 4481 0cad 7506     		.2byte	0x675
 4482 0caf 83000000 		.4byte	0x83
 4483 0cb3 A90B0000 		.4byte	.LLST59
 4484 0cb7 17       		.uleb128 0x17
 4485 0cb8 24000000 		.4byte	.LVL266
ARM GAS  C:\Users\310295~1\AppData\Local\Temp\ccIU8zba.s 			page 155


 4486 0cbc 34100000 		.4byte	0x1034
 4487 0cc0 16       		.uleb128 0x16
 4488 0cc1 01       		.uleb128 0x1
 4489 0cc2 50       		.byte	0x50
 4490 0cc3 01       		.uleb128 0x1
 4491 0cc4 30       		.byte	0x30
 4492 0cc5 00       		.byte	0
 4493 0cc6 00       		.byte	0
 4494 0cc7 19       		.uleb128 0x19
 4495 0cc8 B1070000 		.4byte	.LASF104
 4496 0ccc 01       		.byte	0x1
 4497 0ccd 8C06     		.2byte	0x68c
 4498 0ccf 00000000 		.4byte	.LFB41
 4499 0cd3 28000000 		.4byte	.LFE41-.LFB41
 4500 0cd7 01       		.uleb128 0x1
 4501 0cd8 9C       		.byte	0x9c
 4502 0cd9 FD0C0000 		.4byte	0xcfd
 4503 0cdd 12       		.uleb128 0x12
 4504 0cde 7B000000 		.4byte	.LASF62
 4505 0ce2 01       		.byte	0x1
 4506 0ce3 8C06     		.2byte	0x68c
 4507 0ce5 83000000 		.4byte	0x83
 4508 0ce9 E30B0000 		.4byte	.LLST60
 4509 0ced 17       		.uleb128 0x17
 4510 0cee 1C000000 		.4byte	.LVL271
 4511 0cf2 34100000 		.4byte	0x1034
 4512 0cf6 16       		.uleb128 0x16
 4513 0cf7 01       		.uleb128 0x1
 4514 0cf8 50       		.byte	0x50
 4515 0cf9 01       		.uleb128 0x1
 4516 0cfa 30       		.byte	0x30
 4517 0cfb 00       		.byte	0
 4518 0cfc 00       		.byte	0
 4519 0cfd 1F       		.uleb128 0x1f
 4520 0cfe D7080000 		.4byte	.LASF105
 4521 0d02 01       		.byte	0x1
 4522 0d03 AD06     		.2byte	0x6ad
 4523 0d05 00000000 		.4byte	.LFB42
 4524 0d09 A4000000 		.4byte	.LFE42-.LFB42
 4525 0d0d 01       		.uleb128 0x1
 4526 0d0e 9C       		.byte	0x9c
 4527 0d0f 4D0D0000 		.4byte	0xd4d
 4528 0d13 15       		.uleb128 0x15
 4529 0d14 36000000 		.4byte	.LVL273
 4530 0d18 4B0B0000 		.4byte	0xb4b
 4531 0d1c 260D0000 		.4byte	0xd26
 4532 0d20 16       		.uleb128 0x16
 4533 0d21 01       		.uleb128 0x1
 4534 0d22 50       		.byte	0x50
 4535 0d23 01       		.uleb128 0x1
 4536 0d24 34       		.byte	0x34
 4537 0d25 00       		.byte	0
 4538 0d26 15       		.uleb128 0x15
 4539 0d27 70000000 		.4byte	.LVL275
 4540 0d2b 4B0B0000 		.4byte	0xb4b
 4541 0d2f 3B0D0000 		.4byte	0xd3b
 4542 0d33 16       		.uleb128 0x16
ARM GAS  C:\Users\310295~1\AppData\Local\Temp\ccIU8zba.s 			page 156


 4543 0d34 01       		.uleb128 0x1
 4544 0d35 50       		.byte	0x50
 4545 0d36 03       		.uleb128 0x3
 4546 0d37 0A       		.byte	0xa
 4547 0d38 0004     		.2byte	0x400
 4548 0d3a 00       		.byte	0
 4549 0d3b 17       		.uleb128 0x17
 4550 0d3c 92000000 		.4byte	.LVL277
 4551 0d40 4B0B0000 		.4byte	0xb4b
 4552 0d44 16       		.uleb128 0x16
 4553 0d45 01       		.uleb128 0x1
 4554 0d46 50       		.byte	0x50
 4555 0d47 03       		.uleb128 0x3
 4556 0d48 40       		.byte	0x40
 4557 0d49 3E       		.byte	0x3e
 4558 0d4a 24       		.byte	0x24
 4559 0d4b 00       		.byte	0
 4560 0d4c 00       		.byte	0
 4561 0d4d 19       		.uleb128 0x19
 4562 0d4e A1040000 		.4byte	.LASF106
 4563 0d52 01       		.byte	0x1
 4564 0d53 EE06     		.2byte	0x6ee
 4565 0d55 00000000 		.4byte	.LFB43
 4566 0d59 60000000 		.4byte	.LFE43-.LFB43
 4567 0d5d 01       		.uleb128 0x1
 4568 0d5e 9C       		.byte	0x9c
 4569 0d5f 190E0000 		.4byte	0xe19
 4570 0d63 12       		.uleb128 0x12
 4571 0d64 7B000000 		.4byte	.LASF62
 4572 0d68 01       		.byte	0x1
 4573 0d69 EE06     		.2byte	0x6ee
 4574 0d6b 83000000 		.4byte	0x83
 4575 0d6f 1D0C0000 		.4byte	.LLST61
 4576 0d73 15       		.uleb128 0x15
 4577 0d74 0A000000 		.4byte	.LVL279
 4578 0d78 CD050000 		.4byte	0x5cd
 4579 0d7c 870D0000 		.4byte	0xd87
 4580 0d80 16       		.uleb128 0x16
 4581 0d81 01       		.uleb128 0x1
 4582 0d82 50       		.byte	0x50
 4583 0d83 02       		.uleb128 0x2
 4584 0d84 74       		.byte	0x74
 4585 0d85 00       		.sleb128 0
 4586 0d86 00       		.byte	0
 4587 0d87 1C       		.uleb128 0x1c
 4588 0d88 14000000 		.4byte	.LVL280
 4589 0d8c 4B0B0000 		.4byte	0xb4b
 4590 0d90 15       		.uleb128 0x15
 4591 0d91 1C000000 		.4byte	.LVL281
 4592 0d95 CD050000 		.4byte	0x5cd
 4593 0d99 A40D0000 		.4byte	0xda4
 4594 0d9d 16       		.uleb128 0x16
 4595 0d9e 01       		.uleb128 0x1
 4596 0d9f 50       		.byte	0x50
 4597 0da0 02       		.uleb128 0x2
 4598 0da1 74       		.byte	0x74
 4599 0da2 00       		.sleb128 0
ARM GAS  C:\Users\310295~1\AppData\Local\Temp\ccIU8zba.s 			page 157


 4600 0da3 00       		.byte	0
 4601 0da4 1C       		.uleb128 0x1c
 4602 0da5 26000000 		.4byte	.LVL282
 4603 0da9 C60B0000 		.4byte	0xbc6
 4604 0dad 15       		.uleb128 0x15
 4605 0dae 2C000000 		.4byte	.LVL283
 4606 0db2 4B0B0000 		.4byte	0xb4b
 4607 0db6 C00D0000 		.4byte	0xdc0
 4608 0dba 16       		.uleb128 0x16
 4609 0dbb 01       		.uleb128 0x1
 4610 0dbc 50       		.byte	0x50
 4611 0dbd 01       		.uleb128 0x1
 4612 0dbe 34       		.byte	0x34
 4613 0dbf 00       		.byte	0
 4614 0dc0 1C       		.uleb128 0x1c
 4615 0dc1 36000000 		.4byte	.LVL285
 4616 0dc5 CD050000 		.4byte	0x5cd
 4617 0dc9 15       		.uleb128 0x15
 4618 0dca 42000000 		.4byte	.LVL286
 4619 0dce 4B0B0000 		.4byte	0xb4b
 4620 0dd2 DE0D0000 		.4byte	0xdde
 4621 0dd6 16       		.uleb128 0x16
 4622 0dd7 01       		.uleb128 0x1
 4623 0dd8 50       		.byte	0x50
 4624 0dd9 03       		.uleb128 0x3
 4625 0dda 0A       		.byte	0xa
 4626 0ddb 0004     		.2byte	0x400
 4627 0ddd 00       		.byte	0
 4628 0dde 15       		.uleb128 0x15
 4629 0ddf 4A000000 		.4byte	.LVL287
 4630 0de3 CD050000 		.4byte	0x5cd
 4631 0de7 F20D0000 		.4byte	0xdf2
 4632 0deb 16       		.uleb128 0x16
 4633 0dec 01       		.uleb128 0x1
 4634 0ded 50       		.byte	0x50
 4635 0dee 02       		.uleb128 0x2
 4636 0def 74       		.byte	0x74
 4637 0df0 00       		.sleb128 0
 4638 0df1 00       		.byte	0
 4639 0df2 15       		.uleb128 0x15
 4640 0df3 56000000 		.4byte	.LVL288
 4641 0df7 C60B0000 		.4byte	0xbc6
 4642 0dfb 070E0000 		.4byte	0xe07
 4643 0dff 16       		.uleb128 0x16
 4644 0e00 01       		.uleb128 0x1
 4645 0e01 50       		.byte	0x50
 4646 0e02 03       		.uleb128 0x3
 4647 0e03 0A       		.byte	0xa
 4648 0e04 0008     		.2byte	0x800
 4649 0e06 00       		.byte	0
 4650 0e07 17       		.uleb128 0x17
 4651 0e08 5E000000 		.4byte	.LVL289
 4652 0e0c 4B0B0000 		.4byte	0xb4b
 4653 0e10 16       		.uleb128 0x16
 4654 0e11 01       		.uleb128 0x1
 4655 0e12 50       		.byte	0x50
 4656 0e13 03       		.uleb128 0x3
ARM GAS  C:\Users\310295~1\AppData\Local\Temp\ccIU8zba.s 			page 158


 4657 0e14 0A       		.byte	0xa
 4658 0e15 0004     		.2byte	0x400
 4659 0e17 00       		.byte	0
 4660 0e18 00       		.byte	0
 4661 0e19 19       		.uleb128 0x19
 4662 0e1a 8C060000 		.4byte	.LASF107
 4663 0e1e 01       		.byte	0x1
 4664 0e1f 580C     		.2byte	0xc58
 4665 0e21 00000000 		.4byte	.LFB47
 4666 0e25 6C000000 		.4byte	.LFE47-.LFB47
 4667 0e29 01       		.uleb128 0x1
 4668 0e2a 9C       		.byte	0x9c
 4669 0e2b D50E0000 		.4byte	0xed5
 4670 0e2f 12       		.uleb128 0x12
 4671 0e30 7B000000 		.4byte	.LASF62
 4672 0e34 01       		.byte	0x1
 4673 0e35 580C     		.2byte	0xc58
 4674 0e37 83000000 		.4byte	0x83
 4675 0e3b 5F0C0000 		.4byte	.LLST62
 4676 0e3f 12       		.uleb128 0x12
 4677 0e40 20070000 		.4byte	.LASF108
 4678 0e44 01       		.byte	0x1
 4679 0e45 580C     		.2byte	0xc58
 4680 0e47 EE000000 		.4byte	0xee
 4681 0e4b 8B0C0000 		.4byte	.LLST63
 4682 0e4f 12       		.uleb128 0x12
 4683 0e50 67050000 		.4byte	.LASF78
 4684 0e54 01       		.byte	0x1
 4685 0e55 580C     		.2byte	0xc58
 4686 0e57 83000000 		.4byte	0x83
 4687 0e5b AC0C0000 		.4byte	.LLST64
 4688 0e5f 13       		.uleb128 0x13
 4689 0e60 16050000 		.4byte	.LASF109
 4690 0e64 01       		.byte	0x1
 4691 0e65 5A0C     		.2byte	0xc5a
 4692 0e67 83000000 		.4byte	0x83
 4693 0e6b D80C0000 		.4byte	.LLST65
 4694 0e6f 15       		.uleb128 0x15
 4695 0e70 10000000 		.4byte	.LVL292
 4696 0e74 62060000 		.4byte	0x662
 4697 0e78 830E0000 		.4byte	0xe83
 4698 0e7c 16       		.uleb128 0x16
 4699 0e7d 01       		.uleb128 0x1
 4700 0e7e 50       		.byte	0x50
 4701 0e7f 02       		.uleb128 0x2
 4702 0e80 74       		.byte	0x74
 4703 0e81 00       		.sleb128 0
 4704 0e82 00       		.byte	0
 4705 0e83 15       		.uleb128 0x15
 4706 0e84 24000000 		.4byte	.LVL293
 4707 0e88 EF080000 		.4byte	0x8ef
 4708 0e8c 970E0000 		.4byte	0xe97
 4709 0e90 16       		.uleb128 0x16
 4710 0e91 01       		.uleb128 0x1
 4711 0e92 50       		.byte	0x50
 4712 0e93 02       		.uleb128 0x2
 4713 0e94 74       		.byte	0x74
ARM GAS  C:\Users\310295~1\AppData\Local\Temp\ccIU8zba.s 			page 159


 4714 0e95 00       		.sleb128 0
 4715 0e96 00       		.byte	0
 4716 0e97 15       		.uleb128 0x15
 4717 0e98 2E000000 		.4byte	.LVL295
 4718 0e9c EF080000 		.4byte	0x8ef
 4719 0ea0 AB0E0000 		.4byte	0xeab
 4720 0ea4 16       		.uleb128 0x16
 4721 0ea5 01       		.uleb128 0x1
 4722 0ea6 50       		.byte	0x50
 4723 0ea7 02       		.uleb128 0x2
 4724 0ea8 74       		.byte	0x74
 4725 0ea9 00       		.sleb128 0
 4726 0eaa 00       		.byte	0
 4727 0eab 15       		.uleb128 0x15
 4728 0eac 42000000 		.4byte	.LVL298
 4729 0eb0 ED070000 		.4byte	0x7ed
 4730 0eb4 C50E0000 		.4byte	0xec5
 4731 0eb8 16       		.uleb128 0x16
 4732 0eb9 01       		.uleb128 0x1
 4733 0eba 51       		.byte	0x51
 4734 0ebb 02       		.uleb128 0x2
 4735 0ebc 75       		.byte	0x75
 4736 0ebd 00       		.sleb128 0
 4737 0ebe 16       		.uleb128 0x16
 4738 0ebf 01       		.uleb128 0x1
 4739 0ec0 50       		.byte	0x50
 4740 0ec1 02       		.uleb128 0x2
 4741 0ec2 74       		.byte	0x74
 4742 0ec3 00       		.sleb128 0
 4743 0ec4 00       		.byte	0
 4744 0ec5 17       		.uleb128 0x17
 4745 0ec6 5A000000 		.4byte	.LVL301
 4746 0eca 34100000 		.4byte	0x1034
 4747 0ece 16       		.uleb128 0x16
 4748 0ecf 01       		.uleb128 0x1
 4749 0ed0 50       		.byte	0x50
 4750 0ed1 01       		.uleb128 0x1
 4751 0ed2 30       		.byte	0x30
 4752 0ed3 00       		.byte	0
 4753 0ed4 00       		.byte	0
 4754 0ed5 19       		.uleb128 0x19
 4755 0ed6 A6060000 		.4byte	.LASF110
 4756 0eda 01       		.byte	0x1
 4757 0edb D70B     		.2byte	0xbd7
 4758 0edd 00000000 		.4byte	.LFB46
 4759 0ee1 3C000000 		.4byte	.LFE46-.LFB46
 4760 0ee5 01       		.uleb128 0x1
 4761 0ee6 9C       		.byte	0x9c
 4762 0ee7 8D0F0000 		.4byte	0xf8d
 4763 0eeb 12       		.uleb128 0x12
 4764 0eec 7B000000 		.4byte	.LASF62
 4765 0ef0 01       		.byte	0x1
 4766 0ef1 D70B     		.2byte	0xbd7
 4767 0ef3 83000000 		.4byte	0x83
 4768 0ef7 150D0000 		.4byte	.LLST66
 4769 0efb 12       		.uleb128 0x12
 4770 0efc 20070000 		.4byte	.LASF108
ARM GAS  C:\Users\310295~1\AppData\Local\Temp\ccIU8zba.s 			page 160


 4771 0f00 01       		.byte	0x1
 4772 0f01 D70B     		.2byte	0xbd7
 4773 0f03 EE000000 		.4byte	0xee
 4774 0f07 410D0000 		.4byte	.LLST67
 4775 0f0b 12       		.uleb128 0x12
 4776 0f0c 10070000 		.4byte	.LASF111
 4777 0f10 01       		.byte	0x1
 4778 0f11 D70B     		.2byte	0xbd7
 4779 0f13 83000000 		.4byte	0x83
 4780 0f17 620D0000 		.4byte	.LLST68
 4781 0f1b 13       		.uleb128 0x13
 4782 0f1c 16020000 		.4byte	.LASF79
 4783 0f20 01       		.byte	0x1
 4784 0f21 D90B     		.2byte	0xbd9
 4785 0f23 83000000 		.4byte	0x83
 4786 0f27 8E0D0000 		.4byte	.LLST69
 4787 0f2b 13       		.uleb128 0x13
 4788 0f2c B4030000 		.4byte	.LASF112
 4789 0f30 01       		.byte	0x1
 4790 0f31 DA0B     		.2byte	0xbda
 4791 0f33 83000000 		.4byte	0x83
 4792 0f37 A10D0000 		.4byte	.LLST70
 4793 0f3b 15       		.uleb128 0x15
 4794 0f3c 10000000 		.4byte	.LVL305
 4795 0f40 62060000 		.4byte	0x662
 4796 0f44 4F0F0000 		.4byte	0xf4f
 4797 0f48 16       		.uleb128 0x16
 4798 0f49 01       		.uleb128 0x1
 4799 0f4a 50       		.byte	0x50
 4800 0f4b 02       		.uleb128 0x2
 4801 0f4c 74       		.byte	0x74
 4802 0f4d 00       		.sleb128 0
 4803 0f4e 00       		.byte	0
 4804 0f4f 15       		.uleb128 0x15
 4805 0f50 20000000 		.4byte	.LVL306
 4806 0f54 EF080000 		.4byte	0x8ef
 4807 0f58 630F0000 		.4byte	0xf63
 4808 0f5c 16       		.uleb128 0x16
 4809 0f5d 01       		.uleb128 0x1
 4810 0f5e 50       		.byte	0x50
 4811 0f5f 02       		.uleb128 0x2
 4812 0f60 74       		.byte	0x74
 4813 0f61 00       		.sleb128 0
 4814 0f62 00       		.byte	0
 4815 0f63 15       		.uleb128 0x15
 4816 0f64 2E000000 		.4byte	.LVL309
 4817 0f68 190E0000 		.4byte	0xe19
 4818 0f6c 7D0F0000 		.4byte	0xf7d
 4819 0f70 16       		.uleb128 0x16
 4820 0f71 01       		.uleb128 0x1
 4821 0f72 51       		.byte	0x51
 4822 0f73 02       		.uleb128 0x2
 4823 0f74 76       		.byte	0x76
 4824 0f75 00       		.sleb128 0
 4825 0f76 16       		.uleb128 0x16
 4826 0f77 01       		.uleb128 0x1
 4827 0f78 50       		.byte	0x50
ARM GAS  C:\Users\310295~1\AppData\Local\Temp\ccIU8zba.s 			page 161


 4828 0f79 02       		.uleb128 0x2
 4829 0f7a 74       		.byte	0x74
 4830 0f7b 00       		.sleb128 0
 4831 0f7c 00       		.byte	0
 4832 0f7d 17       		.uleb128 0x17
 4833 0f7e 36000000 		.4byte	.LVL310
 4834 0f82 34100000 		.4byte	0x1034
 4835 0f86 16       		.uleb128 0x16
 4836 0f87 01       		.uleb128 0x1
 4837 0f88 50       		.byte	0x50
 4838 0f89 01       		.uleb128 0x1
 4839 0f8a 30       		.byte	0x30
 4840 0f8b 00       		.byte	0
 4841 0f8c 00       		.byte	0
 4842 0f8d 10       		.uleb128 0x10
 4843 0f8e E8040000 		.4byte	.LASF113
 4844 0f92 01       		.byte	0x1
 4845 0f93 1D       		.byte	0x1d
 4846 0f94 BC000000 		.4byte	0xbc
 4847 0f98 05       		.uleb128 0x5
 4848 0f99 03       		.byte	0x3
 4849 0f9a 00000000 		.4byte	defaultIloTrimRegValue
 4850 0f9e 10       		.uleb128 0x10
 4851 0f9f E6000000 		.4byte	.LASF114
 4852 0fa3 01       		.byte	0x1
 4853 0fa4 22       		.byte	0x22
 4854 0fa5 83000000 		.4byte	0x83
 4855 0fa9 05       		.uleb128 0x5
 4856 0faa 03       		.byte	0x3
 4857 0fab 0C000000 		.4byte	lfclkPosedgeWdtCounter0Enabled
 4858 0faf 10       		.uleb128 0x10
 4859 0fb0 96080000 		.4byte	.LASF115
 4860 0fb4 01       		.byte	0x1
 4861 0fb5 23       		.byte	0x23
 4862 0fb6 83000000 		.4byte	0x83
 4863 0fba 05       		.uleb128 0x5
 4864 0fbb 03       		.byte	0x3
 4865 0fbc 10000000 		.4byte	lfclkPosedgeWdtCounter0Mode
 4866 0fc0 10       		.uleb128 0x10
 4867 0fc1 E6070000 		.4byte	.LASF116
 4868 0fc5 01       		.byte	0x1
 4869 0fc6 25       		.byte	0x25
 4870 0fc7 CD000000 		.4byte	0xcd
 4871 0fcb 05       		.uleb128 0x5
 4872 0fcc 03       		.byte	0x3
 4873 0fcd 24000000 		.4byte	disableServicedIsr
 4874 0fd1 10       		.uleb128 0x10
 4875 0fd2 F0020000 		.4byte	.LASF117
 4876 0fd6 01       		.byte	0x1
 4877 0fd7 26       		.byte	0x26
 4878 0fd8 CD000000 		.4byte	0xcd
 4879 0fdc 05       		.uleb128 0x5
 4880 0fdd 03       		.byte	0x3
 4881 0fde 04000000 		.4byte	wdtIsrMask
 4882 0fe2 20       		.uleb128 0x20
 4883 0fe3 83000000 		.4byte	0x83
 4884 0fe7 F20F0000 		.4byte	0xff2
ARM GAS  C:\Users\310295~1\AppData\Local\Temp\ccIU8zba.s 			page 162


 4885 0feb 21       		.uleb128 0x21
 4886 0fec 04010000 		.4byte	0x104
 4887 0ff0 02       		.byte	0x2
 4888 0ff1 00       		.byte	0
 4889 0ff2 10       		.uleb128 0x10
 4890 0ff3 29000000 		.4byte	.LASF118
 4891 0ff7 01       		.byte	0x1
 4892 0ff8 2A       		.byte	0x2a
 4893 0ff9 03100000 		.4byte	0x1003
 4894 0ffd 05       		.uleb128 0x5
 4895 0ffe 03       		.byte	0x3
 4896 0fff 00000000 		.4byte	counterIntMaskTbl
 4897 1003 22       		.uleb128 0x22
 4898 1004 E20F0000 		.4byte	0xfe2
 4899 1008 20       		.uleb128 0x20
 4900 1009 F9000000 		.4byte	0xf9
 4901 100d 18100000 		.4byte	0x1018
 4902 1011 21       		.uleb128 0x21
 4903 1012 04010000 		.4byte	0x104
 4904 1016 02       		.byte	0x2
 4905 1017 00       		.byte	0
 4906 1018 10       		.uleb128 0x10
 4907 1019 3B000000 		.4byte	.LASF119
 4908 101d 01       		.byte	0x1
 4909 101e 44       		.byte	0x44
 4910 101f 08100000 		.4byte	0x1008
 4911 1023 05       		.uleb128 0x5
 4912 1024 03       		.byte	0x3
 4913 1025 18000000 		.4byte	cySysWdtCallback
 4914 1029 23       		.uleb128 0x23
 4915 102a 37060000 		.4byte	.LASF126
 4916 102e 04       		.byte	0x4
 4917 102f D2       		.byte	0xd2
 4918 1030 83000000 		.4byte	0x83
 4919 1034 24       		.uleb128 0x24
 4920 1035 C5060000 		.4byte	.LASF120
 4921 1039 04       		.byte	0x4
 4922 103a E5       		.byte	0xe5
 4923 103b 45100000 		.4byte	0x1045
 4924 103f 25       		.uleb128 0x25
 4925 1040 6B000000 		.4byte	0x6b
 4926 1044 00       		.byte	0
 4927 1045 26       		.uleb128 0x26
 4928 1046 FF040000 		.4byte	.LASF127
 4929 104a 04       		.byte	0x4
 4930 104b E3       		.byte	0xe3
 4931 104c 6B000000 		.4byte	0x6b
 4932 1050 24       		.uleb128 0x24
 4933 1051 07000000 		.4byte	.LASF121
 4934 1055 04       		.byte	0x4
 4935 1056 E4       		.byte	0xe4
 4936 1057 61100000 		.4byte	0x1061
 4937 105b 25       		.uleb128 0x25
 4938 105c 6B000000 		.4byte	0x6b
 4939 1060 00       		.byte	0
 4940 1061 27       		.uleb128 0x27
 4941 1062 D1010000 		.4byte	.LASF128
ARM GAS  C:\Users\310295~1\AppData\Local\Temp\ccIU8zba.s 			page 163


 4942 1066 04       		.byte	0x4
 4943 1067 D8       		.byte	0xd8
 4944 1068 25       		.uleb128 0x25
 4945 1069 77000000 		.4byte	0x77
 4946 106d 00       		.byte	0
 4947 106e 00       		.byte	0
 4948              		.section	.debug_abbrev,"",%progbits
 4949              	.Ldebug_abbrev0:
 4950 0000 01       		.uleb128 0x1
 4951 0001 11       		.uleb128 0x11
 4952 0002 01       		.byte	0x1
 4953 0003 25       		.uleb128 0x25
 4954 0004 0E       		.uleb128 0xe
 4955 0005 13       		.uleb128 0x13
 4956 0006 0B       		.uleb128 0xb
 4957 0007 03       		.uleb128 0x3
 4958 0008 0E       		.uleb128 0xe
 4959 0009 1B       		.uleb128 0x1b
 4960 000a 0E       		.uleb128 0xe
 4961 000b 55       		.uleb128 0x55
 4962 000c 17       		.uleb128 0x17
 4963 000d 11       		.uleb128 0x11
 4964 000e 01       		.uleb128 0x1
 4965 000f 10       		.uleb128 0x10
 4966 0010 17       		.uleb128 0x17
 4967 0011 00       		.byte	0
 4968 0012 00       		.byte	0
 4969 0013 02       		.uleb128 0x2
 4970 0014 24       		.uleb128 0x24
 4971 0015 00       		.byte	0
 4972 0016 0B       		.uleb128 0xb
 4973 0017 0B       		.uleb128 0xb
 4974 0018 3E       		.uleb128 0x3e
 4975 0019 0B       		.uleb128 0xb
 4976 001a 03       		.uleb128 0x3
 4977 001b 0E       		.uleb128 0xe
 4978 001c 00       		.byte	0
 4979 001d 00       		.byte	0
 4980 001e 03       		.uleb128 0x3
 4981 001f 24       		.uleb128 0x24
 4982 0020 00       		.byte	0
 4983 0021 0B       		.uleb128 0xb
 4984 0022 0B       		.uleb128 0xb
 4985 0023 3E       		.uleb128 0x3e
 4986 0024 0B       		.uleb128 0xb
 4987 0025 03       		.uleb128 0x3
 4988 0026 08       		.uleb128 0x8
 4989 0027 00       		.byte	0
 4990 0028 00       		.byte	0
 4991 0029 04       		.uleb128 0x4
 4992 002a 16       		.uleb128 0x16
 4993 002b 00       		.byte	0
 4994 002c 03       		.uleb128 0x3
 4995 002d 0E       		.uleb128 0xe
 4996 002e 3A       		.uleb128 0x3a
 4997 002f 0B       		.uleb128 0xb
 4998 0030 3B       		.uleb128 0x3b
ARM GAS  C:\Users\310295~1\AppData\Local\Temp\ccIU8zba.s 			page 164


 4999 0031 05       		.uleb128 0x5
 5000 0032 49       		.uleb128 0x49
 5001 0033 13       		.uleb128 0x13
 5002 0034 00       		.byte	0
 5003 0035 00       		.byte	0
 5004 0036 05       		.uleb128 0x5
 5005 0037 35       		.uleb128 0x35
 5006 0038 00       		.byte	0
 5007 0039 49       		.uleb128 0x49
 5008 003a 13       		.uleb128 0x13
 5009 003b 00       		.byte	0
 5010 003c 00       		.byte	0
 5011 003d 06       		.uleb128 0x6
 5012 003e 0F       		.uleb128 0xf
 5013 003f 00       		.byte	0
 5014 0040 0B       		.uleb128 0xb
 5015 0041 0B       		.uleb128 0xb
 5016 0042 49       		.uleb128 0x49
 5017 0043 13       		.uleb128 0x13
 5018 0044 00       		.byte	0
 5019 0045 00       		.byte	0
 5020 0046 07       		.uleb128 0x7
 5021 0047 15       		.uleb128 0x15
 5022 0048 00       		.byte	0
 5023 0049 27       		.uleb128 0x27
 5024 004a 19       		.uleb128 0x19
 5025 004b 00       		.byte	0
 5026 004c 00       		.byte	0
 5027 004d 08       		.uleb128 0x8
 5028 004e 04       		.uleb128 0x4
 5029 004f 01       		.byte	0x1
 5030 0050 0B       		.uleb128 0xb
 5031 0051 0B       		.uleb128 0xb
 5032 0052 3A       		.uleb128 0x3a
 5033 0053 0B       		.uleb128 0xb
 5034 0054 3B       		.uleb128 0x3b
 5035 0055 0B       		.uleb128 0xb
 5036 0056 01       		.uleb128 0x1
 5037 0057 13       		.uleb128 0x13
 5038 0058 00       		.byte	0
 5039 0059 00       		.byte	0
 5040 005a 09       		.uleb128 0x9
 5041 005b 28       		.uleb128 0x28
 5042 005c 00       		.byte	0
 5043 005d 03       		.uleb128 0x3
 5044 005e 0E       		.uleb128 0xe
 5045 005f 1C       		.uleb128 0x1c
 5046 0060 0D       		.uleb128 0xd
 5047 0061 00       		.byte	0
 5048 0062 00       		.byte	0
 5049 0063 0A       		.uleb128 0xa
 5050 0064 16       		.uleb128 0x16
 5051 0065 00       		.byte	0
 5052 0066 03       		.uleb128 0x3
 5053 0067 0E       		.uleb128 0xe
 5054 0068 3A       		.uleb128 0x3a
 5055 0069 0B       		.uleb128 0xb
ARM GAS  C:\Users\310295~1\AppData\Local\Temp\ccIU8zba.s 			page 165


 5056 006a 3B       		.uleb128 0x3b
 5057 006b 0B       		.uleb128 0xb
 5058 006c 49       		.uleb128 0x49
 5059 006d 13       		.uleb128 0x13
 5060 006e 00       		.byte	0
 5061 006f 00       		.byte	0
 5062 0070 0B       		.uleb128 0xb
 5063 0071 2E       		.uleb128 0x2e
 5064 0072 00       		.byte	0
 5065 0073 03       		.uleb128 0x3
 5066 0074 0E       		.uleb128 0xe
 5067 0075 3A       		.uleb128 0x3a
 5068 0076 0B       		.uleb128 0xb
 5069 0077 3B       		.uleb128 0x3b
 5070 0078 05       		.uleb128 0x5
 5071 0079 27       		.uleb128 0x27
 5072 007a 19       		.uleb128 0x19
 5073 007b 49       		.uleb128 0x49
 5074 007c 13       		.uleb128 0x13
 5075 007d 11       		.uleb128 0x11
 5076 007e 01       		.uleb128 0x1
 5077 007f 12       		.uleb128 0x12
 5078 0080 06       		.uleb128 0x6
 5079 0081 40       		.uleb128 0x40
 5080 0082 18       		.uleb128 0x18
 5081 0083 9742     		.uleb128 0x2117
 5082 0085 19       		.uleb128 0x19
 5083 0086 00       		.byte	0
 5084 0087 00       		.byte	0
 5085 0088 0C       		.uleb128 0xc
 5086 0089 2E       		.uleb128 0x2e
 5087 008a 01       		.byte	0x1
 5088 008b 03       		.uleb128 0x3
 5089 008c 0E       		.uleb128 0xe
 5090 008d 3A       		.uleb128 0x3a
 5091 008e 0B       		.uleb128 0xb
 5092 008f 3B       		.uleb128 0x3b
 5093 0090 05       		.uleb128 0x5
 5094 0091 27       		.uleb128 0x27
 5095 0092 19       		.uleb128 0x19
 5096 0093 49       		.uleb128 0x49
 5097 0094 13       		.uleb128 0x13
 5098 0095 11       		.uleb128 0x11
 5099 0096 01       		.uleb128 0x1
 5100 0097 12       		.uleb128 0x12
 5101 0098 06       		.uleb128 0x6
 5102 0099 40       		.uleb128 0x40
 5103 009a 18       		.uleb128 0x18
 5104 009b 9742     		.uleb128 0x2117
 5105 009d 19       		.uleb128 0x19
 5106 009e 01       		.uleb128 0x1
 5107 009f 13       		.uleb128 0x13
 5108 00a0 00       		.byte	0
 5109 00a1 00       		.byte	0
 5110 00a2 0D       		.uleb128 0xd
 5111 00a3 34       		.uleb128 0x34
 5112 00a4 00       		.byte	0
ARM GAS  C:\Users\310295~1\AppData\Local\Temp\ccIU8zba.s 			page 166


 5113 00a5 03       		.uleb128 0x3
 5114 00a6 0E       		.uleb128 0xe
 5115 00a7 3A       		.uleb128 0x3a
 5116 00a8 0B       		.uleb128 0xb
 5117 00a9 3B       		.uleb128 0x3b
 5118 00aa 05       		.uleb128 0x5
 5119 00ab 49       		.uleb128 0x49
 5120 00ac 13       		.uleb128 0x13
 5121 00ad 02       		.uleb128 0x2
 5122 00ae 18       		.uleb128 0x18
 5123 00af 00       		.byte	0
 5124 00b0 00       		.byte	0
 5125 00b1 0E       		.uleb128 0xe
 5126 00b2 2E       		.uleb128 0x2e
 5127 00b3 00       		.byte	0
 5128 00b4 3F       		.uleb128 0x3f
 5129 00b5 19       		.uleb128 0x19
 5130 00b6 03       		.uleb128 0x3
 5131 00b7 0E       		.uleb128 0xe
 5132 00b8 3A       		.uleb128 0x3a
 5133 00b9 0B       		.uleb128 0xb
 5134 00ba 3B       		.uleb128 0x3b
 5135 00bb 0B       		.uleb128 0xb
 5136 00bc 27       		.uleb128 0x27
 5137 00bd 19       		.uleb128 0x19
 5138 00be 11       		.uleb128 0x11
 5139 00bf 01       		.uleb128 0x1
 5140 00c0 12       		.uleb128 0x12
 5141 00c1 06       		.uleb128 0x6
 5142 00c2 40       		.uleb128 0x40
 5143 00c3 18       		.uleb128 0x18
 5144 00c4 9742     		.uleb128 0x2117
 5145 00c6 19       		.uleb128 0x19
 5146 00c7 00       		.byte	0
 5147 00c8 00       		.byte	0
 5148 00c9 0F       		.uleb128 0xf
 5149 00ca 2E       		.uleb128 0x2e
 5150 00cb 01       		.byte	0x1
 5151 00cc 3F       		.uleb128 0x3f
 5152 00cd 19       		.uleb128 0x19
 5153 00ce 03       		.uleb128 0x3
 5154 00cf 0E       		.uleb128 0xe
 5155 00d0 3A       		.uleb128 0x3a
 5156 00d1 0B       		.uleb128 0xb
 5157 00d2 3B       		.uleb128 0x3b
 5158 00d3 0B       		.uleb128 0xb
 5159 00d4 27       		.uleb128 0x27
 5160 00d5 19       		.uleb128 0x19
 5161 00d6 11       		.uleb128 0x11
 5162 00d7 01       		.uleb128 0x1
 5163 00d8 12       		.uleb128 0x12
 5164 00d9 06       		.uleb128 0x6
 5165 00da 40       		.uleb128 0x40
 5166 00db 18       		.uleb128 0x18
 5167 00dc 9742     		.uleb128 0x2117
 5168 00de 19       		.uleb128 0x19
 5169 00df 01       		.uleb128 0x1
ARM GAS  C:\Users\310295~1\AppData\Local\Temp\ccIU8zba.s 			page 167


 5170 00e0 13       		.uleb128 0x13
 5171 00e1 00       		.byte	0
 5172 00e2 00       		.byte	0
 5173 00e3 10       		.uleb128 0x10
 5174 00e4 34       		.uleb128 0x34
 5175 00e5 00       		.byte	0
 5176 00e6 03       		.uleb128 0x3
 5177 00e7 0E       		.uleb128 0xe
 5178 00e8 3A       		.uleb128 0x3a
 5179 00e9 0B       		.uleb128 0xb
 5180 00ea 3B       		.uleb128 0x3b
 5181 00eb 0B       		.uleb128 0xb
 5182 00ec 49       		.uleb128 0x49
 5183 00ed 13       		.uleb128 0x13
 5184 00ee 02       		.uleb128 0x2
 5185 00ef 18       		.uleb128 0x18
 5186 00f0 00       		.byte	0
 5187 00f1 00       		.byte	0
 5188 00f2 11       		.uleb128 0x11
 5189 00f3 2E       		.uleb128 0x2e
 5190 00f4 01       		.byte	0x1
 5191 00f5 3F       		.uleb128 0x3f
 5192 00f6 19       		.uleb128 0x19
 5193 00f7 03       		.uleb128 0x3
 5194 00f8 0E       		.uleb128 0xe
 5195 00f9 3A       		.uleb128 0x3a
 5196 00fa 0B       		.uleb128 0xb
 5197 00fb 3B       		.uleb128 0x3b
 5198 00fc 05       		.uleb128 0x5
 5199 00fd 27       		.uleb128 0x27
 5200 00fe 19       		.uleb128 0x19
 5201 00ff 49       		.uleb128 0x49
 5202 0100 13       		.uleb128 0x13
 5203 0101 11       		.uleb128 0x11
 5204 0102 01       		.uleb128 0x1
 5205 0103 12       		.uleb128 0x12
 5206 0104 06       		.uleb128 0x6
 5207 0105 40       		.uleb128 0x40
 5208 0106 18       		.uleb128 0x18
 5209 0107 9642     		.uleb128 0x2116
 5210 0109 19       		.uleb128 0x19
 5211 010a 01       		.uleb128 0x1
 5212 010b 13       		.uleb128 0x13
 5213 010c 00       		.byte	0
 5214 010d 00       		.byte	0
 5215 010e 12       		.uleb128 0x12
 5216 010f 05       		.uleb128 0x5
 5217 0110 00       		.byte	0
 5218 0111 03       		.uleb128 0x3
 5219 0112 0E       		.uleb128 0xe
 5220 0113 3A       		.uleb128 0x3a
 5221 0114 0B       		.uleb128 0xb
 5222 0115 3B       		.uleb128 0x3b
 5223 0116 05       		.uleb128 0x5
 5224 0117 49       		.uleb128 0x49
 5225 0118 13       		.uleb128 0x13
 5226 0119 02       		.uleb128 0x2
ARM GAS  C:\Users\310295~1\AppData\Local\Temp\ccIU8zba.s 			page 168


 5227 011a 17       		.uleb128 0x17
 5228 011b 00       		.byte	0
 5229 011c 00       		.byte	0
 5230 011d 13       		.uleb128 0x13
 5231 011e 34       		.uleb128 0x34
 5232 011f 00       		.byte	0
 5233 0120 03       		.uleb128 0x3
 5234 0121 0E       		.uleb128 0xe
 5235 0122 3A       		.uleb128 0x3a
 5236 0123 0B       		.uleb128 0xb
 5237 0124 3B       		.uleb128 0x3b
 5238 0125 05       		.uleb128 0x5
 5239 0126 49       		.uleb128 0x49
 5240 0127 13       		.uleb128 0x13
 5241 0128 02       		.uleb128 0x2
 5242 0129 17       		.uleb128 0x17
 5243 012a 00       		.byte	0
 5244 012b 00       		.byte	0
 5245 012c 14       		.uleb128 0x14
 5246 012d 2E       		.uleb128 0x2e
 5247 012e 01       		.byte	0x1
 5248 012f 3F       		.uleb128 0x3f
 5249 0130 19       		.uleb128 0x19
 5250 0131 03       		.uleb128 0x3
 5251 0132 0E       		.uleb128 0xe
 5252 0133 3A       		.uleb128 0x3a
 5253 0134 0B       		.uleb128 0xb
 5254 0135 3B       		.uleb128 0x3b
 5255 0136 05       		.uleb128 0x5
 5256 0137 27       		.uleb128 0x27
 5257 0138 19       		.uleb128 0x19
 5258 0139 49       		.uleb128 0x49
 5259 013a 13       		.uleb128 0x13
 5260 013b 11       		.uleb128 0x11
 5261 013c 01       		.uleb128 0x1
 5262 013d 12       		.uleb128 0x12
 5263 013e 06       		.uleb128 0x6
 5264 013f 40       		.uleb128 0x40
 5265 0140 18       		.uleb128 0x18
 5266 0141 9742     		.uleb128 0x2117
 5267 0143 19       		.uleb128 0x19
 5268 0144 01       		.uleb128 0x1
 5269 0145 13       		.uleb128 0x13
 5270 0146 00       		.byte	0
 5271 0147 00       		.byte	0
 5272 0148 15       		.uleb128 0x15
 5273 0149 898201   		.uleb128 0x4109
 5274 014c 01       		.byte	0x1
 5275 014d 11       		.uleb128 0x11
 5276 014e 01       		.uleb128 0x1
 5277 014f 31       		.uleb128 0x31
 5278 0150 13       		.uleb128 0x13
 5279 0151 01       		.uleb128 0x1
 5280 0152 13       		.uleb128 0x13
 5281 0153 00       		.byte	0
 5282 0154 00       		.byte	0
 5283 0155 16       		.uleb128 0x16
ARM GAS  C:\Users\310295~1\AppData\Local\Temp\ccIU8zba.s 			page 169


 5284 0156 8A8201   		.uleb128 0x410a
 5285 0159 00       		.byte	0
 5286 015a 02       		.uleb128 0x2
 5287 015b 18       		.uleb128 0x18
 5288 015c 9142     		.uleb128 0x2111
 5289 015e 18       		.uleb128 0x18
 5290 015f 00       		.byte	0
 5291 0160 00       		.byte	0
 5292 0161 17       		.uleb128 0x17
 5293 0162 898201   		.uleb128 0x4109
 5294 0165 01       		.byte	0x1
 5295 0166 11       		.uleb128 0x11
 5296 0167 01       		.uleb128 0x1
 5297 0168 31       		.uleb128 0x31
 5298 0169 13       		.uleb128 0x13
 5299 016a 00       		.byte	0
 5300 016b 00       		.byte	0
 5301 016c 18       		.uleb128 0x18
 5302 016d 2E       		.uleb128 0x2e
 5303 016e 00       		.byte	0
 5304 016f 03       		.uleb128 0x3
 5305 0170 0E       		.uleb128 0xe
 5306 0171 3A       		.uleb128 0x3a
 5307 0172 0B       		.uleb128 0xb
 5308 0173 3B       		.uleb128 0x3b
 5309 0174 05       		.uleb128 0x5
 5310 0175 27       		.uleb128 0x27
 5311 0176 19       		.uleb128 0x19
 5312 0177 20       		.uleb128 0x20
 5313 0178 0B       		.uleb128 0xb
 5314 0179 00       		.byte	0
 5315 017a 00       		.byte	0
 5316 017b 19       		.uleb128 0x19
 5317 017c 2E       		.uleb128 0x2e
 5318 017d 01       		.byte	0x1
 5319 017e 3F       		.uleb128 0x3f
 5320 017f 19       		.uleb128 0x19
 5321 0180 03       		.uleb128 0x3
 5322 0181 0E       		.uleb128 0xe
 5323 0182 3A       		.uleb128 0x3a
 5324 0183 0B       		.uleb128 0xb
 5325 0184 3B       		.uleb128 0x3b
 5326 0185 05       		.uleb128 0x5
 5327 0186 27       		.uleb128 0x27
 5328 0187 19       		.uleb128 0x19
 5329 0188 11       		.uleb128 0x11
 5330 0189 01       		.uleb128 0x1
 5331 018a 12       		.uleb128 0x12
 5332 018b 06       		.uleb128 0x6
 5333 018c 40       		.uleb128 0x40
 5334 018d 18       		.uleb128 0x18
 5335 018e 9742     		.uleb128 0x2117
 5336 0190 19       		.uleb128 0x19
 5337 0191 01       		.uleb128 0x1
 5338 0192 13       		.uleb128 0x13
 5339 0193 00       		.byte	0
 5340 0194 00       		.byte	0
ARM GAS  C:\Users\310295~1\AppData\Local\Temp\ccIU8zba.s 			page 170


 5341 0195 1A       		.uleb128 0x1a
 5342 0196 1D       		.uleb128 0x1d
 5343 0197 00       		.byte	0
 5344 0198 31       		.uleb128 0x31
 5345 0199 13       		.uleb128 0x13
 5346 019a 11       		.uleb128 0x11
 5347 019b 01       		.uleb128 0x1
 5348 019c 12       		.uleb128 0x12
 5349 019d 06       		.uleb128 0x6
 5350 019e 58       		.uleb128 0x58
 5351 019f 0B       		.uleb128 0xb
 5352 01a0 59       		.uleb128 0x59
 5353 01a1 05       		.uleb128 0x5
 5354 01a2 00       		.byte	0
 5355 01a3 00       		.byte	0
 5356 01a4 1B       		.uleb128 0x1b
 5357 01a5 2E       		.uleb128 0x2e
 5358 01a6 00       		.byte	0
 5359 01a7 3F       		.uleb128 0x3f
 5360 01a8 19       		.uleb128 0x19
 5361 01a9 03       		.uleb128 0x3
 5362 01aa 0E       		.uleb128 0xe
 5363 01ab 3A       		.uleb128 0x3a
 5364 01ac 0B       		.uleb128 0xb
 5365 01ad 3B       		.uleb128 0x3b
 5366 01ae 05       		.uleb128 0x5
 5367 01af 27       		.uleb128 0x27
 5368 01b0 19       		.uleb128 0x19
 5369 01b1 49       		.uleb128 0x49
 5370 01b2 13       		.uleb128 0x13
 5371 01b3 11       		.uleb128 0x11
 5372 01b4 01       		.uleb128 0x1
 5373 01b5 12       		.uleb128 0x12
 5374 01b6 06       		.uleb128 0x6
 5375 01b7 40       		.uleb128 0x40
 5376 01b8 18       		.uleb128 0x18
 5377 01b9 9742     		.uleb128 0x2117
 5378 01bb 19       		.uleb128 0x19
 5379 01bc 00       		.byte	0
 5380 01bd 00       		.byte	0
 5381 01be 1C       		.uleb128 0x1c
 5382 01bf 898201   		.uleb128 0x4109
 5383 01c2 00       		.byte	0
 5384 01c3 11       		.uleb128 0x11
 5385 01c4 01       		.uleb128 0x1
 5386 01c5 31       		.uleb128 0x31
 5387 01c6 13       		.uleb128 0x13
 5388 01c7 00       		.byte	0
 5389 01c8 00       		.byte	0
 5390 01c9 1D       		.uleb128 0x1d
 5391 01ca 2E       		.uleb128 0x2e
 5392 01cb 01       		.byte	0x1
 5393 01cc 03       		.uleb128 0x3
 5394 01cd 0E       		.uleb128 0xe
 5395 01ce 3A       		.uleb128 0x3a
 5396 01cf 0B       		.uleb128 0xb
 5397 01d0 3B       		.uleb128 0x3b
ARM GAS  C:\Users\310295~1\AppData\Local\Temp\ccIU8zba.s 			page 171


 5398 01d1 05       		.uleb128 0x5
 5399 01d2 27       		.uleb128 0x27
 5400 01d3 19       		.uleb128 0x19
 5401 01d4 11       		.uleb128 0x11
 5402 01d5 01       		.uleb128 0x1
 5403 01d6 12       		.uleb128 0x12
 5404 01d7 06       		.uleb128 0x6
 5405 01d8 40       		.uleb128 0x40
 5406 01d9 18       		.uleb128 0x18
 5407 01da 9742     		.uleb128 0x2117
 5408 01dc 19       		.uleb128 0x19
 5409 01dd 01       		.uleb128 0x1
 5410 01de 13       		.uleb128 0x13
 5411 01df 00       		.byte	0
 5412 01e0 00       		.byte	0
 5413 01e1 1E       		.uleb128 0x1e
 5414 01e2 34       		.uleb128 0x34
 5415 01e3 00       		.byte	0
 5416 01e4 03       		.uleb128 0x3
 5417 01e5 0E       		.uleb128 0xe
 5418 01e6 3A       		.uleb128 0x3a
 5419 01e7 0B       		.uleb128 0xb
 5420 01e8 3B       		.uleb128 0x3b
 5421 01e9 0B       		.uleb128 0xb
 5422 01ea 49       		.uleb128 0x49
 5423 01eb 13       		.uleb128 0x13
 5424 01ec 02       		.uleb128 0x2
 5425 01ed 17       		.uleb128 0x17
 5426 01ee 00       		.byte	0
 5427 01ef 00       		.byte	0
 5428 01f0 1F       		.uleb128 0x1f
 5429 01f1 2E       		.uleb128 0x2e
 5430 01f2 01       		.byte	0x1
 5431 01f3 3F       		.uleb128 0x3f
 5432 01f4 19       		.uleb128 0x19
 5433 01f5 03       		.uleb128 0x3
 5434 01f6 0E       		.uleb128 0xe
 5435 01f7 3A       		.uleb128 0x3a
 5436 01f8 0B       		.uleb128 0xb
 5437 01f9 3B       		.uleb128 0x3b
 5438 01fa 05       		.uleb128 0x5
 5439 01fb 27       		.uleb128 0x27
 5440 01fc 19       		.uleb128 0x19
 5441 01fd 11       		.uleb128 0x11
 5442 01fe 01       		.uleb128 0x1
 5443 01ff 12       		.uleb128 0x12
 5444 0200 06       		.uleb128 0x6
 5445 0201 40       		.uleb128 0x40
 5446 0202 18       		.uleb128 0x18
 5447 0203 9642     		.uleb128 0x2116
 5448 0205 19       		.uleb128 0x19
 5449 0206 01       		.uleb128 0x1
 5450 0207 13       		.uleb128 0x13
 5451 0208 00       		.byte	0
 5452 0209 00       		.byte	0
 5453 020a 20       		.uleb128 0x20
 5454 020b 01       		.uleb128 0x1
ARM GAS  C:\Users\310295~1\AppData\Local\Temp\ccIU8zba.s 			page 172


 5455 020c 01       		.byte	0x1
 5456 020d 49       		.uleb128 0x49
 5457 020e 13       		.uleb128 0x13
 5458 020f 01       		.uleb128 0x1
 5459 0210 13       		.uleb128 0x13
 5460 0211 00       		.byte	0
 5461 0212 00       		.byte	0
 5462 0213 21       		.uleb128 0x21
 5463 0214 21       		.uleb128 0x21
 5464 0215 00       		.byte	0
 5465 0216 49       		.uleb128 0x49
 5466 0217 13       		.uleb128 0x13
 5467 0218 2F       		.uleb128 0x2f
 5468 0219 0B       		.uleb128 0xb
 5469 021a 00       		.byte	0
 5470 021b 00       		.byte	0
 5471 021c 22       		.uleb128 0x22
 5472 021d 26       		.uleb128 0x26
 5473 021e 00       		.byte	0
 5474 021f 49       		.uleb128 0x49
 5475 0220 13       		.uleb128 0x13
 5476 0221 00       		.byte	0
 5477 0222 00       		.byte	0
 5478 0223 23       		.uleb128 0x23
 5479 0224 34       		.uleb128 0x34
 5480 0225 00       		.byte	0
 5481 0226 03       		.uleb128 0x3
 5482 0227 0E       		.uleb128 0xe
 5483 0228 3A       		.uleb128 0x3a
 5484 0229 0B       		.uleb128 0xb
 5485 022a 3B       		.uleb128 0x3b
 5486 022b 0B       		.uleb128 0xb
 5487 022c 49       		.uleb128 0x49
 5488 022d 13       		.uleb128 0x13
 5489 022e 3F       		.uleb128 0x3f
 5490 022f 19       		.uleb128 0x19
 5491 0230 3C       		.uleb128 0x3c
 5492 0231 19       		.uleb128 0x19
 5493 0232 00       		.byte	0
 5494 0233 00       		.byte	0
 5495 0234 24       		.uleb128 0x24
 5496 0235 2E       		.uleb128 0x2e
 5497 0236 01       		.byte	0x1
 5498 0237 3F       		.uleb128 0x3f
 5499 0238 19       		.uleb128 0x19
 5500 0239 03       		.uleb128 0x3
 5501 023a 0E       		.uleb128 0xe
 5502 023b 3A       		.uleb128 0x3a
 5503 023c 0B       		.uleb128 0xb
 5504 023d 3B       		.uleb128 0x3b
 5505 023e 0B       		.uleb128 0xb
 5506 023f 27       		.uleb128 0x27
 5507 0240 19       		.uleb128 0x19
 5508 0241 3C       		.uleb128 0x3c
 5509 0242 19       		.uleb128 0x19
 5510 0243 01       		.uleb128 0x1
 5511 0244 13       		.uleb128 0x13
ARM GAS  C:\Users\310295~1\AppData\Local\Temp\ccIU8zba.s 			page 173


 5512 0245 00       		.byte	0
 5513 0246 00       		.byte	0
 5514 0247 25       		.uleb128 0x25
 5515 0248 05       		.uleb128 0x5
 5516 0249 00       		.byte	0
 5517 024a 49       		.uleb128 0x49
 5518 024b 13       		.uleb128 0x13
 5519 024c 00       		.byte	0
 5520 024d 00       		.byte	0
 5521 024e 26       		.uleb128 0x26
 5522 024f 2E       		.uleb128 0x2e
 5523 0250 00       		.byte	0
 5524 0251 3F       		.uleb128 0x3f
 5525 0252 19       		.uleb128 0x19
 5526 0253 03       		.uleb128 0x3
 5527 0254 0E       		.uleb128 0xe
 5528 0255 3A       		.uleb128 0x3a
 5529 0256 0B       		.uleb128 0xb
 5530 0257 3B       		.uleb128 0x3b
 5531 0258 0B       		.uleb128 0xb
 5532 0259 27       		.uleb128 0x27
 5533 025a 19       		.uleb128 0x19
 5534 025b 49       		.uleb128 0x49
 5535 025c 13       		.uleb128 0x13
 5536 025d 3C       		.uleb128 0x3c
 5537 025e 19       		.uleb128 0x19
 5538 025f 00       		.byte	0
 5539 0260 00       		.byte	0
 5540 0261 27       		.uleb128 0x27
 5541 0262 2E       		.uleb128 0x2e
 5542 0263 01       		.byte	0x1
 5543 0264 3F       		.uleb128 0x3f
 5544 0265 19       		.uleb128 0x19
 5545 0266 03       		.uleb128 0x3
 5546 0267 0E       		.uleb128 0xe
 5547 0268 3A       		.uleb128 0x3a
 5548 0269 0B       		.uleb128 0xb
 5549 026a 3B       		.uleb128 0x3b
 5550 026b 0B       		.uleb128 0xb
 5551 026c 27       		.uleb128 0x27
 5552 026d 19       		.uleb128 0x19
 5553 026e 3C       		.uleb128 0x3c
 5554 026f 19       		.uleb128 0x19
 5555 0270 00       		.byte	0
 5556 0271 00       		.byte	0
 5557 0272 00       		.byte	0
 5558              		.section	.debug_loc,"",%progbits
 5559              	.Ldebug_loc0:
 5560              	.LLST0:
 5561 0000 00000000 		.4byte	.LVL1
 5562 0004 4F000000 		.4byte	.LVL5-1
 5563 0008 0100     		.2byte	0x1
 5564 000a 50       		.byte	0x50
 5565 000b 4F000000 		.4byte	.LVL5-1
 5566 000f 72000000 		.4byte	.LVL11
 5567 0013 0400     		.2byte	0x4
 5568 0015 F3       		.byte	0xf3
ARM GAS  C:\Users\310295~1\AppData\Local\Temp\ccIU8zba.s 			page 174


 5569 0016 01       		.uleb128 0x1
 5570 0017 50       		.byte	0x50
 5571 0018 9F       		.byte	0x9f
 5572 0019 72000000 		.4byte	.LVL11
 5573 001d 76000000 		.4byte	.LVL12
 5574 0021 0100     		.2byte	0x1
 5575 0023 50       		.byte	0x50
 5576 0024 76000000 		.4byte	.LVL12
 5577 0028 A8000000 		.4byte	.LVL21
 5578 002c 0400     		.2byte	0x4
 5579 002e F3       		.byte	0xf3
 5580 002f 01       		.uleb128 0x1
 5581 0030 50       		.byte	0x50
 5582 0031 9F       		.byte	0x9f
 5583 0032 A8000000 		.4byte	.LVL21
 5584 0036 BA000000 		.4byte	.LVL23
 5585 003a 0100     		.2byte	0x1
 5586 003c 50       		.byte	0x50
 5587 003d BA000000 		.4byte	.LVL23
 5588 0041 BC000000 		.4byte	.LVL24
 5589 0045 0400     		.2byte	0x4
 5590 0047 F3       		.byte	0xf3
 5591 0048 01       		.uleb128 0x1
 5592 0049 50       		.byte	0x50
 5593 004a 9F       		.byte	0x9f
 5594 004b BC000000 		.4byte	.LVL24
 5595 004f BE000000 		.4byte	.LVL25
 5596 0053 0100     		.2byte	0x1
 5597 0055 50       		.byte	0x50
 5598 0056 BE000000 		.4byte	.LVL25
 5599 005a C0000000 		.4byte	.LVL26
 5600 005e 0400     		.2byte	0x4
 5601 0060 F3       		.byte	0xf3
 5602 0061 01       		.uleb128 0x1
 5603 0062 50       		.byte	0x50
 5604 0063 9F       		.byte	0x9f
 5605 0064 C0000000 		.4byte	.LVL26
 5606 0068 C2000000 		.4byte	.LVL27
 5607 006c 0100     		.2byte	0x1
 5608 006e 50       		.byte	0x50
 5609 006f C2000000 		.4byte	.LVL27
 5610 0073 C4000000 		.4byte	.LVL28
 5611 0077 0400     		.2byte	0x4
 5612 0079 F3       		.byte	0xf3
 5613 007a 01       		.uleb128 0x1
 5614 007b 50       		.byte	0x50
 5615 007c 9F       		.byte	0x9f
 5616 007d C4000000 		.4byte	.LVL28
 5617 0081 C6000000 		.4byte	.LVL29
 5618 0085 0100     		.2byte	0x1
 5619 0087 50       		.byte	0x50
 5620 0088 C6000000 		.4byte	.LVL29
 5621 008c C8000000 		.4byte	.LVL30
 5622 0090 0400     		.2byte	0x4
 5623 0092 F3       		.byte	0xf3
 5624 0093 01       		.uleb128 0x1
 5625 0094 50       		.byte	0x50
ARM GAS  C:\Users\310295~1\AppData\Local\Temp\ccIU8zba.s 			page 175


 5626 0095 9F       		.byte	0x9f
 5627 0096 C8000000 		.4byte	.LVL30
 5628 009a CA000000 		.4byte	.LVL31
 5629 009e 0100     		.2byte	0x1
 5630 00a0 50       		.byte	0x50
 5631 00a1 CA000000 		.4byte	.LVL31
 5632 00a5 CC000000 		.4byte	.LVL32
 5633 00a9 0400     		.2byte	0x4
 5634 00ab F3       		.byte	0xf3
 5635 00ac 01       		.uleb128 0x1
 5636 00ad 50       		.byte	0x50
 5637 00ae 9F       		.byte	0x9f
 5638 00af CC000000 		.4byte	.LVL32
 5639 00b3 CE000000 		.4byte	.LVL33
 5640 00b7 0100     		.2byte	0x1
 5641 00b9 50       		.byte	0x50
 5642 00ba CE000000 		.4byte	.LVL33
 5643 00be D0000000 		.4byte	.LVL34
 5644 00c2 0400     		.2byte	0x4
 5645 00c4 F3       		.byte	0xf3
 5646 00c5 01       		.uleb128 0x1
 5647 00c6 50       		.byte	0x50
 5648 00c7 9F       		.byte	0x9f
 5649 00c8 D0000000 		.4byte	.LVL34
 5650 00cc D2000000 		.4byte	.LVL35
 5651 00d0 0100     		.2byte	0x1
 5652 00d2 50       		.byte	0x50
 5653 00d3 D2000000 		.4byte	.LVL35
 5654 00d7 D4000000 		.4byte	.LVL36
 5655 00db 0400     		.2byte	0x4
 5656 00dd F3       		.byte	0xf3
 5657 00de 01       		.uleb128 0x1
 5658 00df 50       		.byte	0x50
 5659 00e0 9F       		.byte	0x9f
 5660 00e1 D4000000 		.4byte	.LVL36
 5661 00e5 D6000000 		.4byte	.LVL37
 5662 00e9 0100     		.2byte	0x1
 5663 00eb 50       		.byte	0x50
 5664 00ec D6000000 		.4byte	.LVL37
 5665 00f0 08010000 		.4byte	.LFE6
 5666 00f4 0400     		.2byte	0x4
 5667 00f6 F3       		.byte	0xf3
 5668 00f7 01       		.uleb128 0x1
 5669 00f8 50       		.byte	0x50
 5670 00f9 9F       		.byte	0x9f
 5671 00fa 00000000 		.4byte	0
 5672 00fe 00000000 		.4byte	0
 5673              	.LLST1:
 5674 0102 00000000 		.4byte	.LVL1
 5675 0106 4C000000 		.4byte	.LVL4
 5676 010a 0100     		.2byte	0x1
 5677 010c 51       		.byte	0x51
 5678 010d 4C000000 		.4byte	.LVL4
 5679 0111 72000000 		.4byte	.LVL11
 5680 0115 0100     		.2byte	0x1
 5681 0117 54       		.byte	0x54
 5682 0118 72000000 		.4byte	.LVL11
ARM GAS  C:\Users\310295~1\AppData\Local\Temp\ccIU8zba.s 			page 176


 5683 011c 7E000000 		.4byte	.LVL13
 5684 0120 0100     		.2byte	0x1
 5685 0122 51       		.byte	0x51
 5686 0123 7E000000 		.4byte	.LVL13
 5687 0127 A8000000 		.4byte	.LVL21
 5688 012b 0100     		.2byte	0x1
 5689 012d 54       		.byte	0x54
 5690 012e A8000000 		.4byte	.LVL21
 5691 0132 D6000000 		.4byte	.LVL37
 5692 0136 0100     		.2byte	0x1
 5693 0138 51       		.byte	0x51
 5694 0139 D6000000 		.4byte	.LVL37
 5695 013d 08010000 		.4byte	.LFE6
 5696 0141 0400     		.2byte	0x4
 5697 0143 F3       		.byte	0xf3
 5698 0144 01       		.uleb128 0x1
 5699 0145 51       		.byte	0x51
 5700 0146 9F       		.byte	0x9f
 5701 0147 00000000 		.4byte	0
 5702 014b 00000000 		.4byte	0
 5703              	.LLST2:
 5704 014f 70000000 		.4byte	.LVL10
 5705 0153 72000000 		.4byte	.LVL11
 5706 0157 0100     		.2byte	0x1
 5707 0159 50       		.byte	0x50
 5708 015a 9E000000 		.4byte	.LVL18
 5709 015e A2000000 		.4byte	.LVL19
 5710 0162 0100     		.2byte	0x1
 5711 0164 50       		.byte	0x50
 5712 0165 A2000000 		.4byte	.LVL19
 5713 0169 A8000000 		.4byte	.LVL21
 5714 016d 0200     		.2byte	0x2
 5715 016f 74       		.byte	0x74
 5716 0170 00       		.sleb128 0
 5717 0171 00000000 		.4byte	0
 5718 0175 00000000 		.4byte	0
 5719              	.LLST3:
 5720 0179 52000000 		.4byte	.LVL6
 5721 017d 56000000 		.4byte	.LVL7
 5722 0181 0100     		.2byte	0x1
 5723 0183 50       		.byte	0x50
 5724 0184 56000000 		.4byte	.LVL7
 5725 0188 72000000 		.4byte	.LVL11
 5726 018c 0100     		.2byte	0x1
 5727 018e 55       		.byte	0x55
 5728 018f 84000000 		.4byte	.LVL15
 5729 0193 88000000 		.4byte	.LVL16
 5730 0197 0100     		.2byte	0x1
 5731 0199 50       		.byte	0x50
 5732 019a 88000000 		.4byte	.LVL16
 5733 019e A8000000 		.4byte	.LVL21
 5734 01a2 0100     		.2byte	0x1
 5735 01a4 55       		.byte	0x55
 5736 01a5 00000000 		.4byte	0
 5737 01a9 00000000 		.4byte	0
 5738              	.LLST4:
 5739 01ad 0A000000 		.4byte	.LVL2
ARM GAS  C:\Users\310295~1\AppData\Local\Temp\ccIU8zba.s 			page 177


 5740 01b1 14000000 		.4byte	.LVL3
 5741 01b5 0100     		.2byte	0x1
 5742 01b7 53       		.byte	0x53
 5743 01b8 BC000000 		.4byte	.LVL24
 5744 01bc C0000000 		.4byte	.LVL26
 5745 01c0 0100     		.2byte	0x1
 5746 01c2 53       		.byte	0x53
 5747 01c3 00000000 		.4byte	0
 5748 01c7 00000000 		.4byte	0
 5749              	.LLST5:
 5750 01cb A6000000 		.4byte	.LVL20
 5751 01cf A8000000 		.4byte	.LVL21
 5752 01d3 0200     		.2byte	0x2
 5753 01d5 30       		.byte	0x30
 5754 01d6 9F       		.byte	0x9f
 5755 01d7 B8000000 		.4byte	.LVL22
 5756 01db BC000000 		.4byte	.LVL24
 5757 01df 0200     		.2byte	0x2
 5758 01e1 37       		.byte	0x37
 5759 01e2 9F       		.byte	0x9f
 5760 01e3 D6000000 		.4byte	.LVL37
 5761 01e7 08010000 		.4byte	.LFE6
 5762 01eb 0100     		.2byte	0x1
 5763 01ed 50       		.byte	0x50
 5764 01ee 00000000 		.4byte	0
 5765 01f2 00000000 		.4byte	0
 5766              	.LLST6:
 5767 01f6 00000000 		.4byte	.LVL38
 5768 01fa 10000000 		.4byte	.LVL39
 5769 01fe 0100     		.2byte	0x1
 5770 0200 50       		.byte	0x50
 5771 0201 10000000 		.4byte	.LVL39
 5772 0205 8C000000 		.4byte	.LVL59
 5773 0209 0100     		.2byte	0x1
 5774 020b 54       		.byte	0x54
 5775 020c 8C000000 		.4byte	.LVL59
 5776 0210 8E000000 		.4byte	.LVL60
 5777 0214 0100     		.2byte	0x1
 5778 0216 50       		.byte	0x50
 5779 0217 8E000000 		.4byte	.LVL60
 5780 021b A4000000 		.4byte	.LFE9
 5781 021f 0400     		.2byte	0x4
 5782 0221 F3       		.byte	0xf3
 5783 0222 01       		.uleb128 0x1
 5784 0223 50       		.byte	0x50
 5785 0224 9F       		.byte	0x9f
 5786 0225 00000000 		.4byte	0
 5787 0229 00000000 		.4byte	0
 5788              	.LLST7:
 5789 022d 1C000000 		.4byte	.LVL40
 5790 0231 22000000 		.4byte	.LVL41
 5791 0235 0100     		.2byte	0x1
 5792 0237 50       		.byte	0x50
 5793 0238 22000000 		.4byte	.LVL41
 5794 023c 28000000 		.4byte	.LVL42
 5795 0240 0500     		.2byte	0x5
 5796 0242 70       		.byte	0x70
ARM GAS  C:\Users\310295~1\AppData\Local\Temp\ccIU8zba.s 			page 178


 5797 0243 80FA01   		.sleb128 32000
 5798 0246 9F       		.byte	0x9f
 5799 0247 00000000 		.4byte	0
 5800 024b 00000000 		.4byte	0
 5801              	.LLST8:
 5802 024f 68000000 		.4byte	.LVL49
 5803 0253 7A000000 		.4byte	.LVL53
 5804 0257 0100     		.2byte	0x1
 5805 0259 53       		.byte	0x53
 5806 025a 00000000 		.4byte	0
 5807 025e 00000000 		.4byte	0
 5808              	.LLST9:
 5809 0262 30000000 		.4byte	.LVL43
 5810 0266 42000000 		.4byte	.LVL44
 5811 026a 0100     		.2byte	0x1
 5812 026c 50       		.byte	0x50
 5813 026d 50000000 		.4byte	.LVL46
 5814 0271 54000000 		.4byte	.LVL47
 5815 0275 0100     		.2byte	0x1
 5816 0277 50       		.byte	0x50
 5817 0278 86000000 		.4byte	.LVL56
 5818 027c 8A000000 		.4byte	.LVL58
 5819 0280 0100     		.2byte	0x1
 5820 0282 50       		.byte	0x50
 5821 0283 8A000000 		.4byte	.LVL58
 5822 0287 8C000000 		.4byte	.LVL59
 5823 028b 0200     		.2byte	0x2
 5824 028d 74       		.byte	0x74
 5825 028e 00       		.sleb128 0
 5826 028f 00000000 		.4byte	0
 5827 0293 00000000 		.4byte	0
 5828              	.LLST10:
 5829 0297 4E000000 		.4byte	.LVL45
 5830 029b 50000000 		.4byte	.LVL46
 5831 029f 0100     		.2byte	0x1
 5832 02a1 50       		.byte	0x50
 5833 02a2 60000000 		.4byte	.LVL48
 5834 02a6 80000000 		.4byte	.LVL54
 5835 02aa 0100     		.2byte	0x1
 5836 02ac 50       		.byte	0x50
 5837 02ad 00000000 		.4byte	0
 5838 02b1 00000000 		.4byte	0
 5839              	.LLST11:
 5840 02b5 82000000 		.4byte	.LVL55
 5841 02b9 86000000 		.4byte	.LVL56
 5842 02bd 0200     		.2byte	0x2
 5843 02bf 37       		.byte	0x37
 5844 02c0 9F       		.byte	0x9f
 5845 02c1 88000000 		.4byte	.LVL57
 5846 02c5 8C000000 		.4byte	.LVL59
 5847 02c9 0200     		.2byte	0x2
 5848 02cb 30       		.byte	0x30
 5849 02cc 9F       		.byte	0x9f
 5850 02cd 8E000000 		.4byte	.LVL60
 5851 02d1 A4000000 		.4byte	.LFE9
 5852 02d5 0100     		.2byte	0x1
 5853 02d7 50       		.byte	0x50
ARM GAS  C:\Users\310295~1\AppData\Local\Temp\ccIU8zba.s 			page 179


 5854 02d8 00000000 		.4byte	0
 5855 02dc 00000000 		.4byte	0
 5856              	.LLST12:
 5857 02e0 00000000 		.4byte	.LVL61
 5858 02e4 2E000000 		.4byte	.LVL66
 5859 02e8 0100     		.2byte	0x1
 5860 02ea 50       		.byte	0x50
 5861 02eb 2E000000 		.4byte	.LVL66
 5862 02ef 72000000 		.4byte	.LVL71
 5863 02f3 0400     		.2byte	0x4
 5864 02f5 F3       		.byte	0xf3
 5865 02f6 01       		.uleb128 0x1
 5866 02f7 50       		.byte	0x50
 5867 02f8 9F       		.byte	0x9f
 5868 02f9 72000000 		.4byte	.LVL71
 5869 02fd 84000000 		.4byte	.LVL72
 5870 0301 0100     		.2byte	0x1
 5871 0303 50       		.byte	0x50
 5872 0304 84000000 		.4byte	.LVL72
 5873 0308 90000000 		.4byte	.LVL74
 5874 030c 0400     		.2byte	0x4
 5875 030e F3       		.byte	0xf3
 5876 030f 01       		.uleb128 0x1
 5877 0310 50       		.byte	0x50
 5878 0311 9F       		.byte	0x9f
 5879 0312 90000000 		.4byte	.LVL74
 5880 0316 A2000000 		.4byte	.LVL76
 5881 031a 0100     		.2byte	0x1
 5882 031c 50       		.byte	0x50
 5883 031d A2000000 		.4byte	.LVL76
 5884 0321 A4000000 		.4byte	.LVL77
 5885 0325 0400     		.2byte	0x4
 5886 0327 F3       		.byte	0xf3
 5887 0328 01       		.uleb128 0x1
 5888 0329 50       		.byte	0x50
 5889 032a 9F       		.byte	0x9f
 5890 032b A4000000 		.4byte	.LVL77
 5891 032f A6000000 		.4byte	.LVL78
 5892 0333 0100     		.2byte	0x1
 5893 0335 50       		.byte	0x50
 5894 0336 A6000000 		.4byte	.LVL78
 5895 033a A8000000 		.4byte	.LVL79
 5896 033e 0400     		.2byte	0x4
 5897 0340 F3       		.byte	0xf3
 5898 0341 01       		.uleb128 0x1
 5899 0342 50       		.byte	0x50
 5900 0343 9F       		.byte	0x9f
 5901 0344 A8000000 		.4byte	.LVL79
 5902 0348 AA000000 		.4byte	.LVL80
 5903 034c 0100     		.2byte	0x1
 5904 034e 50       		.byte	0x50
 5905 034f AA000000 		.4byte	.LVL80
 5906 0353 AC000000 		.4byte	.LVL81
 5907 0357 0400     		.2byte	0x4
 5908 0359 F3       		.byte	0xf3
 5909 035a 01       		.uleb128 0x1
 5910 035b 50       		.byte	0x50
ARM GAS  C:\Users\310295~1\AppData\Local\Temp\ccIU8zba.s 			page 180


 5911 035c 9F       		.byte	0x9f
 5912 035d AC000000 		.4byte	.LVL81
 5913 0361 AE000000 		.4byte	.LVL82
 5914 0365 0100     		.2byte	0x1
 5915 0367 50       		.byte	0x50
 5916 0368 AE000000 		.4byte	.LVL82
 5917 036c B8000000 		.4byte	.LVL84
 5918 0370 0400     		.2byte	0x4
 5919 0372 F3       		.byte	0xf3
 5920 0373 01       		.uleb128 0x1
 5921 0374 50       		.byte	0x50
 5922 0375 9F       		.byte	0x9f
 5923 0376 B8000000 		.4byte	.LVL84
 5924 037a BA000000 		.4byte	.LVL85
 5925 037e 0100     		.2byte	0x1
 5926 0380 50       		.byte	0x50
 5927 0381 BA000000 		.4byte	.LVL85
 5928 0385 D8000000 		.4byte	.LFE8
 5929 0389 0400     		.2byte	0x4
 5930 038b F3       		.byte	0xf3
 5931 038c 01       		.uleb128 0x1
 5932 038d 50       		.byte	0x50
 5933 038e 9F       		.byte	0x9f
 5934 038f 00000000 		.4byte	0
 5935 0393 00000000 		.4byte	0
 5936              	.LLST13:
 5937 0397 00000000 		.4byte	.LVL61
 5938 039b 2E000000 		.4byte	.LVL66
 5939 039f 0100     		.2byte	0x1
 5940 03a1 51       		.byte	0x51
 5941 03a2 2E000000 		.4byte	.LVL66
 5942 03a6 72000000 		.4byte	.LVL71
 5943 03aa 0100     		.2byte	0x1
 5944 03ac 55       		.byte	0x55
 5945 03ad 72000000 		.4byte	.LVL71
 5946 03b1 87000000 		.4byte	.LVL73-1
 5947 03b5 0100     		.2byte	0x1
 5948 03b7 51       		.byte	0x51
 5949 03b8 87000000 		.4byte	.LVL73-1
 5950 03bc 90000000 		.4byte	.LVL74
 5951 03c0 0100     		.2byte	0x1
 5952 03c2 55       		.byte	0x55
 5953 03c3 90000000 		.4byte	.LVL74
 5954 03c7 B0000000 		.4byte	.LVL83
 5955 03cb 0100     		.2byte	0x1
 5956 03cd 51       		.byte	0x51
 5957 03ce B0000000 		.4byte	.LVL83
 5958 03d2 B8000000 		.4byte	.LVL84
 5959 03d6 0100     		.2byte	0x1
 5960 03d8 55       		.byte	0x55
 5961 03d9 B8000000 		.4byte	.LVL84
 5962 03dd BA000000 		.4byte	.LVL85
 5963 03e1 0100     		.2byte	0x1
 5964 03e3 51       		.byte	0x51
 5965 03e4 BA000000 		.4byte	.LVL85
 5966 03e8 D8000000 		.4byte	.LFE8
 5967 03ec 0400     		.2byte	0x4
ARM GAS  C:\Users\310295~1\AppData\Local\Temp\ccIU8zba.s 			page 181


 5968 03ee F3       		.byte	0xf3
 5969 03ef 01       		.uleb128 0x1
 5970 03f0 51       		.byte	0x51
 5971 03f1 9F       		.byte	0x9f
 5972 03f2 00000000 		.4byte	0
 5973 03f6 00000000 		.4byte	0
 5974              	.LLST14:
 5975 03fa 02000000 		.4byte	.LVL62
 5976 03fe 2E000000 		.4byte	.LVL66
 5977 0402 0200     		.2byte	0x2
 5978 0404 35       		.byte	0x35
 5979 0405 9F       		.byte	0x9f
 5980 0406 2E000000 		.4byte	.LVL66
 5981 040a 72000000 		.4byte	.LVL71
 5982 040e 0100     		.2byte	0x1
 5983 0410 56       		.byte	0x56
 5984 0411 72000000 		.4byte	.LVL71
 5985 0415 B0000000 		.4byte	.LVL83
 5986 0419 0200     		.2byte	0x2
 5987 041b 35       		.byte	0x35
 5988 041c 9F       		.byte	0x9f
 5989 041d B0000000 		.4byte	.LVL83
 5990 0421 B8000000 		.4byte	.LVL84
 5991 0425 0100     		.2byte	0x1
 5992 0427 56       		.byte	0x56
 5993 0428 B8000000 		.4byte	.LVL84
 5994 042c BA000000 		.4byte	.LVL85
 5995 0430 0200     		.2byte	0x2
 5996 0432 35       		.byte	0x35
 5997 0433 9F       		.byte	0x9f
 5998 0434 00000000 		.4byte	0
 5999 0438 00000000 		.4byte	0
 6000              	.LLST15:
 6001 043c 2C000000 		.4byte	.LVL65
 6002 0440 72000000 		.4byte	.LVL71
 6003 0444 0100     		.2byte	0x1
 6004 0446 54       		.byte	0x54
 6005 0447 B0000000 		.4byte	.LVL83
 6006 044b B8000000 		.4byte	.LVL84
 6007 044f 0100     		.2byte	0x1
 6008 0451 54       		.byte	0x54
 6009 0452 00000000 		.4byte	0
 6010 0456 00000000 		.4byte	0
 6011              	.LLST16:
 6012 045a 0A000000 		.4byte	.LVL63
 6013 045e 14000000 		.4byte	.LVL64
 6014 0462 0100     		.2byte	0x1
 6015 0464 53       		.byte	0x53
 6016 0465 A4000000 		.4byte	.LVL77
 6017 0469 A8000000 		.4byte	.LVL79
 6018 046d 0100     		.2byte	0x1
 6019 046f 53       		.byte	0x53
 6020 0470 00000000 		.4byte	0
 6021 0474 00000000 		.4byte	0
 6022              	.LLST17:
 6023 0478 6E000000 		.4byte	.LVL70
 6024 047c 72000000 		.4byte	.LVL71
ARM GAS  C:\Users\310295~1\AppData\Local\Temp\ccIU8zba.s 			page 182


 6025 0480 0200     		.2byte	0x2
 6026 0482 40       		.byte	0x40
 6027 0483 9F       		.byte	0x9f
 6028 0484 88000000 		.4byte	.LVL73
 6029 0488 90000000 		.4byte	.LVL74
 6030 048c 0100     		.2byte	0x1
 6031 048e 50       		.byte	0x50
 6032 048f A0000000 		.4byte	.LVL75
 6033 0493 A4000000 		.4byte	.LVL77
 6034 0497 0200     		.2byte	0x2
 6035 0499 37       		.byte	0x37
 6036 049a 9F       		.byte	0x9f
 6037 049b BA000000 		.4byte	.LVL85
 6038 049f D8000000 		.4byte	.LFE8
 6039 04a3 0100     		.2byte	0x1
 6040 04a5 50       		.byte	0x50
 6041 04a6 00000000 		.4byte	0
 6042 04aa 00000000 		.4byte	0
 6043              	.LLST18:
 6044 04ae 00000000 		.4byte	.LVL86
 6045 04b2 26000000 		.4byte	.LVL87
 6046 04b6 0200     		.2byte	0x2
 6047 04b8 30       		.byte	0x30
 6048 04b9 9F       		.byte	0x9f
 6049 04ba 26000000 		.4byte	.LVL87
 6050 04be 30000000 		.4byte	.LFE10
 6051 04c2 0100     		.2byte	0x1
 6052 04c4 50       		.byte	0x50
 6053 04c5 00000000 		.4byte	0
 6054 04c9 00000000 		.4byte	0
 6055              	.LLST19:
 6056 04cd 00000000 		.4byte	.LVL88
 6057 04d1 22000000 		.4byte	.LVL90
 6058 04d5 0100     		.2byte	0x1
 6059 04d7 50       		.byte	0x50
 6060 04d8 22000000 		.4byte	.LVL90
 6061 04dc 40000000 		.4byte	.LVL91
 6062 04e0 0400     		.2byte	0x4
 6063 04e2 F3       		.byte	0xf3
 6064 04e3 01       		.uleb128 0x1
 6065 04e4 50       		.byte	0x50
 6066 04e5 9F       		.byte	0x9f
 6067 04e6 40000000 		.4byte	.LVL91
 6068 04ea 4E000000 		.4byte	.LVL92
 6069 04ee 0100     		.2byte	0x1
 6070 04f0 50       		.byte	0x50
 6071 04f1 4E000000 		.4byte	.LVL92
 6072 04f5 6C000000 		.4byte	.LVL93
 6073 04f9 0400     		.2byte	0x4
 6074 04fb F3       		.byte	0xf3
 6075 04fc 01       		.uleb128 0x1
 6076 04fd 50       		.byte	0x50
 6077 04fe 9F       		.byte	0x9f
 6078 04ff 6C000000 		.4byte	.LVL93
 6079 0503 6E000000 		.4byte	.LVL94
 6080 0507 0100     		.2byte	0x1
 6081 0509 50       		.byte	0x50
ARM GAS  C:\Users\310295~1\AppData\Local\Temp\ccIU8zba.s 			page 183


 6082 050a 6E000000 		.4byte	.LVL94
 6083 050e 80000000 		.4byte	.LFE16
 6084 0512 0400     		.2byte	0x4
 6085 0514 F3       		.byte	0xf3
 6086 0515 01       		.uleb128 0x1
 6087 0516 50       		.byte	0x50
 6088 0517 9F       		.byte	0x9f
 6089 0518 00000000 		.4byte	0
 6090 051c 00000000 		.4byte	0
 6091              	.LLST20:
 6092 0520 0A000000 		.4byte	.LVL89
 6093 0524 74000000 		.4byte	.LVL96
 6094 0528 0100     		.2byte	0x1
 6095 052a 54       		.byte	0x54
 6096 052b 74000000 		.4byte	.LVL96
 6097 052f 80000000 		.4byte	.LFE16
 6098 0533 0100     		.2byte	0x1
 6099 0535 50       		.byte	0x50
 6100 0536 00000000 		.4byte	0
 6101 053a 00000000 		.4byte	0
 6102              	.LLST21:
 6103 053e 00000000 		.4byte	.LVL97
 6104 0542 07000000 		.4byte	.LVL98-1
 6105 0546 0100     		.2byte	0x1
 6106 0548 50       		.byte	0x50
 6107 0549 07000000 		.4byte	.LVL98-1
 6108 054d 1A000000 		.4byte	.LVL99
 6109 0551 0100     		.2byte	0x1
 6110 0553 54       		.byte	0x54
 6111 0554 1A000000 		.4byte	.LVL99
 6112 0558 20000000 		.4byte	.LVL100
 6113 055c 0400     		.2byte	0x4
 6114 055e F3       		.byte	0xf3
 6115 055f 01       		.uleb128 0x1
 6116 0560 50       		.byte	0x50
 6117 0561 9F       		.byte	0x9f
 6118 0562 20000000 		.4byte	.LVL100
 6119 0566 26000000 		.4byte	.LVL101
 6120 056a 0100     		.2byte	0x1
 6121 056c 54       		.byte	0x54
 6122 056d 26000000 		.4byte	.LVL101
 6123 0571 2C000000 		.4byte	.LFE17
 6124 0575 0400     		.2byte	0x4
 6125 0577 F3       		.byte	0xf3
 6126 0578 01       		.uleb128 0x1
 6127 0579 50       		.byte	0x50
 6128 057a 9F       		.byte	0x9f
 6129 057b 00000000 		.4byte	0
 6130 057f 00000000 		.4byte	0
 6131              	.LLST22:
 6132 0583 06000000 		.4byte	.LVL102
 6133 0587 15000000 		.4byte	.LVL103-1
 6134 058b 0100     		.2byte	0x1
 6135 058d 50       		.byte	0x50
 6136 058e 00000000 		.4byte	0
 6137 0592 00000000 		.4byte	0
 6138              	.LLST23:
ARM GAS  C:\Users\310295~1\AppData\Local\Temp\ccIU8zba.s 			page 184


 6139 0596 06000000 		.4byte	.LVL104
 6140 059a 25000000 		.4byte	.LVL105-1
 6141 059e 0100     		.2byte	0x1
 6142 05a0 50       		.byte	0x50
 6143 05a1 00000000 		.4byte	0
 6144 05a5 00000000 		.4byte	0
 6145              	.LLST24:
 6146 05a9 00000000 		.4byte	.LVL106
 6147 05ad 0A000000 		.4byte	.LVL107
 6148 05b1 0100     		.2byte	0x1
 6149 05b3 50       		.byte	0x50
 6150 05b4 0A000000 		.4byte	.LVL107
 6151 05b8 14000000 		.4byte	.LVL109
 6152 05bc 0100     		.2byte	0x1
 6153 05be 54       		.byte	0x54
 6154 05bf 14000000 		.4byte	.LVL109
 6155 05c3 24000000 		.4byte	.LFE21
 6156 05c7 0400     		.2byte	0x4
 6157 05c9 F3       		.byte	0xf3
 6158 05ca 01       		.uleb128 0x1
 6159 05cb 50       		.byte	0x50
 6160 05cc 9F       		.byte	0x9f
 6161 05cd 00000000 		.4byte	0
 6162 05d1 00000000 		.4byte	0
 6163              	.LLST25:
 6164 05d5 00000000 		.4byte	.LVL110
 6165 05d9 0C000000 		.4byte	.LVL111
 6166 05dd 0100     		.2byte	0x1
 6167 05df 50       		.byte	0x50
 6168 05e0 0C000000 		.4byte	.LVL111
 6169 05e4 20000000 		.4byte	.LVL114
 6170 05e8 0100     		.2byte	0x1
 6171 05ea 54       		.byte	0x54
 6172 05eb 20000000 		.4byte	.LVL114
 6173 05ef 38000000 		.4byte	.LFE22
 6174 05f3 0400     		.2byte	0x4
 6175 05f5 F3       		.byte	0xf3
 6176 05f6 01       		.uleb128 0x1
 6177 05f7 50       		.byte	0x50
 6178 05f8 9F       		.byte	0x9f
 6179 05f9 00000000 		.4byte	0
 6180 05fd 00000000 		.4byte	0
 6181              	.LLST26:
 6182 0601 00000000 		.4byte	.LVL110
 6183 0605 0F000000 		.4byte	.LVL112-1
 6184 0609 0100     		.2byte	0x1
 6185 060b 51       		.byte	0x51
 6186 060c 0F000000 		.4byte	.LVL112-1
 6187 0610 2A000000 		.4byte	.LVL116
 6188 0614 0100     		.2byte	0x1
 6189 0616 55       		.byte	0x55
 6190 0617 2A000000 		.4byte	.LVL116
 6191 061b 38000000 		.4byte	.LFE22
 6192 061f 0400     		.2byte	0x4
 6193 0621 F3       		.byte	0xf3
 6194 0622 01       		.uleb128 0x1
 6195 0623 51       		.byte	0x51
ARM GAS  C:\Users\310295~1\AppData\Local\Temp\ccIU8zba.s 			page 185


 6196 0624 9F       		.byte	0x9f
 6197 0625 00000000 		.4byte	0
 6198 0629 00000000 		.4byte	0
 6199              	.LLST27:
 6200 062d 28000000 		.4byte	.LVL115
 6201 0631 30000000 		.4byte	.LVL117
 6202 0635 0100     		.2byte	0x1
 6203 0637 53       		.byte	0x53
 6204 0638 30000000 		.4byte	.LVL117
 6205 063c 32000000 		.4byte	.LVL118
 6206 0640 0100     		.2byte	0x1
 6207 0642 54       		.byte	0x54
 6208 0643 00000000 		.4byte	0
 6209 0647 00000000 		.4byte	0
 6210              	.LLST28:
 6211 064b 00000000 		.4byte	.LVL120
 6212 064f 06000000 		.4byte	.LVL121
 6213 0653 0100     		.2byte	0x1
 6214 0655 50       		.byte	0x50
 6215 0656 06000000 		.4byte	.LVL121
 6216 065a 14000000 		.4byte	.LFE23
 6217 065e 0400     		.2byte	0x4
 6218 0660 F3       		.byte	0xf3
 6219 0661 01       		.uleb128 0x1
 6220 0662 50       		.byte	0x50
 6221 0663 9F       		.byte	0x9f
 6222 0664 00000000 		.4byte	0
 6223 0668 00000000 		.4byte	0
 6224              	.LLST29:
 6225 066c 00000000 		.4byte	.LVL122
 6226 0670 0C000000 		.4byte	.LVL123
 6227 0674 0100     		.2byte	0x1
 6228 0676 50       		.byte	0x50
 6229 0677 0C000000 		.4byte	.LVL123
 6230 067b 20000000 		.4byte	.LVL126
 6231 067f 0100     		.2byte	0x1
 6232 0681 54       		.byte	0x54
 6233 0682 20000000 		.4byte	.LVL126
 6234 0686 38000000 		.4byte	.LFE24
 6235 068a 0400     		.2byte	0x4
 6236 068c F3       		.byte	0xf3
 6237 068d 01       		.uleb128 0x1
 6238 068e 50       		.byte	0x50
 6239 068f 9F       		.byte	0x9f
 6240 0690 00000000 		.4byte	0
 6241 0694 00000000 		.4byte	0
 6242              	.LLST30:
 6243 0698 00000000 		.4byte	.LVL122
 6244 069c 0F000000 		.4byte	.LVL124-1
 6245 06a0 0100     		.2byte	0x1
 6246 06a2 51       		.byte	0x51
 6247 06a3 0F000000 		.4byte	.LVL124-1
 6248 06a7 2A000000 		.4byte	.LVL128
 6249 06ab 0100     		.2byte	0x1
 6250 06ad 55       		.byte	0x55
 6251 06ae 2A000000 		.4byte	.LVL128
 6252 06b2 38000000 		.4byte	.LFE24
ARM GAS  C:\Users\310295~1\AppData\Local\Temp\ccIU8zba.s 			page 186


 6253 06b6 0400     		.2byte	0x4
 6254 06b8 F3       		.byte	0xf3
 6255 06b9 01       		.uleb128 0x1
 6256 06ba 51       		.byte	0x51
 6257 06bb 9F       		.byte	0x9f
 6258 06bc 00000000 		.4byte	0
 6259 06c0 00000000 		.4byte	0
 6260              	.LLST31:
 6261 06c4 28000000 		.4byte	.LVL127
 6262 06c8 2E000000 		.4byte	.LVL129
 6263 06cc 0100     		.2byte	0x1
 6264 06ce 53       		.byte	0x53
 6265 06cf 2E000000 		.4byte	.LVL129
 6266 06d3 30000000 		.4byte	.LVL130
 6267 06d7 0100     		.2byte	0x1
 6268 06d9 54       		.byte	0x54
 6269 06da 00000000 		.4byte	0
 6270 06de 00000000 		.4byte	0
 6271              	.LLST32:
 6272 06e2 00000000 		.4byte	.LVL131
 6273 06e6 0A000000 		.4byte	.LVL132
 6274 06ea 0100     		.2byte	0x1
 6275 06ec 50       		.byte	0x50
 6276 06ed 0A000000 		.4byte	.LVL132
 6277 06f1 14000000 		.4byte	.LVL134
 6278 06f5 0100     		.2byte	0x1
 6279 06f7 54       		.byte	0x54
 6280 06f8 14000000 		.4byte	.LVL134
 6281 06fc 24000000 		.4byte	.LFE25
 6282 0700 0400     		.2byte	0x4
 6283 0702 F3       		.byte	0xf3
 6284 0703 01       		.uleb128 0x1
 6285 0704 50       		.byte	0x50
 6286 0705 9F       		.byte	0x9f
 6287 0706 00000000 		.4byte	0
 6288 070a 00000000 		.4byte	0
 6289              	.LLST33:
 6290 070e 00000000 		.4byte	.LVL135
 6291 0712 10000000 		.4byte	.LVL136
 6292 0716 0100     		.2byte	0x1
 6293 0718 50       		.byte	0x50
 6294 0719 10000000 		.4byte	.LVL136
 6295 071d 36000000 		.4byte	.LVL140
 6296 0721 0100     		.2byte	0x1
 6297 0723 54       		.byte	0x54
 6298 0724 36000000 		.4byte	.LVL140
 6299 0728 3C000000 		.4byte	.LFE26
 6300 072c 0400     		.2byte	0x4
 6301 072e F3       		.byte	0xf3
 6302 072f 01       		.uleb128 0x1
 6303 0730 50       		.byte	0x50
 6304 0731 9F       		.byte	0x9f
 6305 0732 00000000 		.4byte	0
 6306 0736 00000000 		.4byte	0
 6307              	.LLST34:
 6308 073a 00000000 		.4byte	.LVL141
 6309 073e 07000000 		.4byte	.LVL142-1
ARM GAS  C:\Users\310295~1\AppData\Local\Temp\ccIU8zba.s 			page 187


 6310 0742 0100     		.2byte	0x1
 6311 0744 50       		.byte	0x50
 6312 0745 07000000 		.4byte	.LVL142-1
 6313 0749 3E000000 		.4byte	.LVL146
 6314 074d 0100     		.2byte	0x1
 6315 074f 54       		.byte	0x54
 6316 0750 3E000000 		.4byte	.LVL146
 6317 0754 44000000 		.4byte	.LFE27
 6318 0758 0400     		.2byte	0x4
 6319 075a F3       		.byte	0xf3
 6320 075b 01       		.uleb128 0x1
 6321 075c 50       		.byte	0x50
 6322 075d 9F       		.byte	0x9f
 6323 075e 00000000 		.4byte	0
 6324 0762 00000000 		.4byte	0
 6325              	.LLST35:
 6326 0766 00000000 		.4byte	.LVL147
 6327 076a 06000000 		.4byte	.LVL148
 6328 076e 0100     		.2byte	0x1
 6329 0770 50       		.byte	0x50
 6330 0771 06000000 		.4byte	.LVL148
 6331 0775 28000000 		.4byte	.LVL155
 6332 0779 0100     		.2byte	0x1
 6333 077b 55       		.byte	0x55
 6334 077c 28000000 		.4byte	.LVL155
 6335 0780 34000000 		.4byte	.LFE28
 6336 0784 0400     		.2byte	0x4
 6337 0786 F3       		.byte	0xf3
 6338 0787 01       		.uleb128 0x1
 6339 0788 50       		.byte	0x50
 6340 0789 9F       		.byte	0x9f
 6341 078a 00000000 		.4byte	0
 6342 078e 00000000 		.4byte	0
 6343              	.LLST36:
 6344 0792 22000000 		.4byte	.LVL153
 6345 0796 26000000 		.4byte	.LVL154
 6346 079a 0100     		.2byte	0x1
 6347 079c 51       		.byte	0x51
 6348 079d 26000000 		.4byte	.LVL154
 6349 07a1 28000000 		.4byte	.LVL155
 6350 07a5 0100     		.2byte	0x1
 6351 07a7 53       		.byte	0x53
 6352 07a8 28000000 		.4byte	.LVL155
 6353 07ac 2A000000 		.4byte	.LVL156
 6354 07b0 0100     		.2byte	0x1
 6355 07b2 55       		.byte	0x55
 6356 07b3 00000000 		.4byte	0
 6357 07b7 00000000 		.4byte	0
 6358              	.LLST37:
 6359 07bb 00000000 		.4byte	.LVL157
 6360 07bf 0C000000 		.4byte	.LVL158
 6361 07c3 0100     		.2byte	0x1
 6362 07c5 50       		.byte	0x50
 6363 07c6 0C000000 		.4byte	.LVL158
 6364 07ca 28000000 		.4byte	.LVL162
 6365 07ce 0100     		.2byte	0x1
 6366 07d0 54       		.byte	0x54
ARM GAS  C:\Users\310295~1\AppData\Local\Temp\ccIU8zba.s 			page 188


 6367 07d1 28000000 		.4byte	.LVL162
 6368 07d5 58000000 		.4byte	.LFE30
 6369 07d9 0400     		.2byte	0x4
 6370 07db F3       		.byte	0xf3
 6371 07dc 01       		.uleb128 0x1
 6372 07dd 50       		.byte	0x50
 6373 07de 9F       		.byte	0x9f
 6374 07df 00000000 		.4byte	0
 6375 07e3 00000000 		.4byte	0
 6376              	.LLST38:
 6377 07e7 00000000 		.4byte	.LVL157
 6378 07eb 0F000000 		.4byte	.LVL159-1
 6379 07ef 0100     		.2byte	0x1
 6380 07f1 51       		.byte	0x51
 6381 07f2 0F000000 		.4byte	.LVL159-1
 6382 07f6 4A000000 		.4byte	.LVL168
 6383 07fa 0100     		.2byte	0x1
 6384 07fc 55       		.byte	0x55
 6385 07fd 4A000000 		.4byte	.LVL168
 6386 0801 58000000 		.4byte	.LFE30
 6387 0805 0400     		.2byte	0x4
 6388 0807 F3       		.byte	0xf3
 6389 0808 01       		.uleb128 0x1
 6390 0809 51       		.byte	0x51
 6391 080a 9F       		.byte	0x9f
 6392 080b 00000000 		.4byte	0
 6393 080f 00000000 		.4byte	0
 6394              	.LLST39:
 6395 0813 26000000 		.4byte	.LVL161
 6396 0817 2E000000 		.4byte	.LVL163
 6397 081b 0100     		.2byte	0x1
 6398 081d 50       		.byte	0x50
 6399 081e 30000000 		.4byte	.LVL164
 6400 0822 32000000 		.4byte	.LVL165
 6401 0826 0100     		.2byte	0x1
 6402 0828 50       		.byte	0x50
 6403 0829 32000000 		.4byte	.LVL165
 6404 082d 3A000000 		.4byte	.LVL166
 6405 0831 0100     		.2byte	0x1
 6406 0833 53       		.byte	0x53
 6407 0834 00000000 		.4byte	0
 6408 0838 00000000 		.4byte	0
 6409              	.LLST40:
 6410 083c 00000000 		.4byte	.LVL169
 6411 0840 06000000 		.4byte	.LVL170
 6412 0844 0100     		.2byte	0x1
 6413 0846 50       		.byte	0x50
 6414 0847 06000000 		.4byte	.LVL170
 6415 084b 1A000000 		.4byte	.LVL174
 6416 084f 0100     		.2byte	0x1
 6417 0851 54       		.byte	0x54
 6418 0852 1A000000 		.4byte	.LVL174
 6419 0856 2C000000 		.4byte	.LFE31
 6420 085a 0400     		.2byte	0x4
 6421 085c F3       		.byte	0xf3
 6422 085d 01       		.uleb128 0x1
 6423 085e 50       		.byte	0x50
ARM GAS  C:\Users\310295~1\AppData\Local\Temp\ccIU8zba.s 			page 189


 6424 085f 9F       		.byte	0x9f
 6425 0860 00000000 		.4byte	0
 6426 0864 00000000 		.4byte	0
 6427              	.LLST41:
 6428 0868 12000000 		.4byte	.LVL172
 6429 086c 16000000 		.4byte	.LVL173
 6430 0870 0100     		.2byte	0x1
 6431 0872 51       		.byte	0x51
 6432 0873 16000000 		.4byte	.LVL173
 6433 0877 1E000000 		.4byte	.LVL175
 6434 087b 0100     		.2byte	0x1
 6435 087d 53       		.byte	0x53
 6436 087e 1E000000 		.4byte	.LVL175
 6437 0882 20000000 		.4byte	.LVL176
 6438 0886 0100     		.2byte	0x1
 6439 0888 54       		.byte	0x54
 6440 0889 00000000 		.4byte	0
 6441 088d 00000000 		.4byte	0
 6442              	.LLST42:
 6443 0891 00000000 		.4byte	.LVL177
 6444 0895 0A000000 		.4byte	.LVL178
 6445 0899 0100     		.2byte	0x1
 6446 089b 50       		.byte	0x50
 6447 089c 0A000000 		.4byte	.LVL178
 6448 08a0 14000000 		.4byte	.LVL180
 6449 08a4 0100     		.2byte	0x1
 6450 08a6 54       		.byte	0x54
 6451 08a7 14000000 		.4byte	.LVL180
 6452 08ab 20000000 		.4byte	.LFE33
 6453 08af 0400     		.2byte	0x4
 6454 08b1 F3       		.byte	0xf3
 6455 08b2 01       		.uleb128 0x1
 6456 08b3 50       		.byte	0x50
 6457 08b4 9F       		.byte	0x9f
 6458 08b5 00000000 		.4byte	0
 6459 08b9 00000000 		.4byte	0
 6460              	.LLST43:
 6461 08bd 00000000 		.4byte	.LVL181
 6462 08c1 14000000 		.4byte	.LVL183
 6463 08c5 0100     		.2byte	0x1
 6464 08c7 50       		.byte	0x50
 6465 08c8 14000000 		.4byte	.LVL183
 6466 08cc 1A000000 		.4byte	.LVL185
 6467 08d0 0400     		.2byte	0x4
 6468 08d2 F3       		.byte	0xf3
 6469 08d3 01       		.uleb128 0x1
 6470 08d4 50       		.byte	0x50
 6471 08d5 9F       		.byte	0x9f
 6472 08d6 1A000000 		.4byte	.LVL185
 6473 08da 1E000000 		.4byte	.LVL186
 6474 08de 0100     		.2byte	0x1
 6475 08e0 50       		.byte	0x50
 6476 08e1 1E000000 		.4byte	.LVL186
 6477 08e5 22000000 		.4byte	.LVL188
 6478 08e9 0400     		.2byte	0x4
 6479 08eb F3       		.byte	0xf3
 6480 08ec 01       		.uleb128 0x1
ARM GAS  C:\Users\310295~1\AppData\Local\Temp\ccIU8zba.s 			page 190


 6481 08ed 50       		.byte	0x50
 6482 08ee 9F       		.byte	0x9f
 6483 08ef 22000000 		.4byte	.LVL188
 6484 08f3 26000000 		.4byte	.LVL189
 6485 08f7 0100     		.2byte	0x1
 6486 08f9 50       		.byte	0x50
 6487 08fa 26000000 		.4byte	.LVL189
 6488 08fe 28000000 		.4byte	.LVL190
 6489 0902 0400     		.2byte	0x4
 6490 0904 F3       		.byte	0xf3
 6491 0905 01       		.uleb128 0x1
 6492 0906 50       		.byte	0x50
 6493 0907 9F       		.byte	0x9f
 6494 0908 28000000 		.4byte	.LVL190
 6495 090c 2A000000 		.4byte	.LVL191
 6496 0910 0100     		.2byte	0x1
 6497 0912 50       		.byte	0x50
 6498 0913 2A000000 		.4byte	.LVL191
 6499 0917 3C000000 		.4byte	.LFE34
 6500 091b 0400     		.2byte	0x4
 6501 091d F3       		.byte	0xf3
 6502 091e 01       		.uleb128 0x1
 6503 091f 50       		.byte	0x50
 6504 0920 9F       		.byte	0x9f
 6505 0921 00000000 		.4byte	0
 6506 0925 00000000 		.4byte	0
 6507              	.LLST44:
 6508 0929 02000000 		.4byte	.LVL182
 6509 092d 18000000 		.4byte	.LVL184
 6510 0931 0200     		.2byte	0x2
 6511 0933 30       		.byte	0x30
 6512 0934 9F       		.byte	0x9f
 6513 0935 18000000 		.4byte	.LVL184
 6514 0939 1A000000 		.4byte	.LVL185
 6515 093d 0100     		.2byte	0x1
 6516 093f 50       		.byte	0x50
 6517 0940 1A000000 		.4byte	.LVL185
 6518 0944 20000000 		.4byte	.LVL187
 6519 0948 0200     		.2byte	0x2
 6520 094a 30       		.byte	0x30
 6521 094b 9F       		.byte	0x9f
 6522 094c 20000000 		.4byte	.LVL187
 6523 0950 22000000 		.4byte	.LVL188
 6524 0954 0100     		.2byte	0x1
 6525 0956 50       		.byte	0x50
 6526 0957 22000000 		.4byte	.LVL188
 6527 095b 26000000 		.4byte	.LVL189
 6528 095f 0200     		.2byte	0x2
 6529 0961 30       		.byte	0x30
 6530 0962 9F       		.byte	0x9f
 6531 0963 26000000 		.4byte	.LVL189
 6532 0967 28000000 		.4byte	.LVL190
 6533 096b 0100     		.2byte	0x1
 6534 096d 50       		.byte	0x50
 6535 096e 28000000 		.4byte	.LVL190
 6536 0972 30000000 		.4byte	.LVL193
 6537 0976 0200     		.2byte	0x2
ARM GAS  C:\Users\310295~1\AppData\Local\Temp\ccIU8zba.s 			page 191


 6538 0978 30       		.byte	0x30
 6539 0979 9F       		.byte	0x9f
 6540 097a 30000000 		.4byte	.LVL193
 6541 097e 3C000000 		.4byte	.LFE34
 6542 0982 0100     		.2byte	0x1
 6543 0984 50       		.byte	0x50
 6544 0985 00000000 		.4byte	0
 6545 0989 00000000 		.4byte	0
 6546              	.LLST45:
 6547 098d 62000000 		.4byte	.LVL201
 6548 0991 6E000000 		.4byte	.LVL203
 6549 0995 0100     		.2byte	0x1
 6550 0997 54       		.byte	0x54
 6551 0998 00000000 		.4byte	0
 6552 099c 00000000 		.4byte	0
 6553              	.LLST46:
 6554 09a0 20000000 		.4byte	.LVL208
 6555 09a4 3A000000 		.4byte	.LVL212
 6556 09a8 0100     		.2byte	0x1
 6557 09aa 54       		.byte	0x54
 6558 09ab 00000000 		.4byte	0
 6559 09af 00000000 		.4byte	0
 6560              	.LLST47:
 6561 09b3 00000000 		.4byte	.LVL213
 6562 09b7 07000000 		.4byte	.LVL214-1
 6563 09bb 0100     		.2byte	0x1
 6564 09bd 50       		.byte	0x50
 6565 09be 07000000 		.4byte	.LVL214-1
 6566 09c2 20000000 		.4byte	.LVL218
 6567 09c6 0100     		.2byte	0x1
 6568 09c8 54       		.byte	0x54
 6569 09c9 20000000 		.4byte	.LVL218
 6570 09cd 38000000 		.4byte	.LFE12
 6571 09d1 0400     		.2byte	0x4
 6572 09d3 F3       		.byte	0xf3
 6573 09d4 01       		.uleb128 0x1
 6574 09d5 50       		.byte	0x50
 6575 09d6 9F       		.byte	0x9f
 6576 09d7 00000000 		.4byte	0
 6577 09db 00000000 		.4byte	0
 6578              	.LLST48:
 6579 09df 12000000 		.4byte	.LVL216
 6580 09e3 30000000 		.4byte	.LVL220
 6581 09e7 0100     		.2byte	0x1
 6582 09e9 55       		.byte	0x55
 6583 09ea 00000000 		.4byte	0
 6584 09ee 00000000 		.4byte	0
 6585              	.LLST49:
 6586 09f2 1C000000 		.4byte	.LVL224
 6587 09f6 36000000 		.4byte	.LVL228
 6588 09fa 0100     		.2byte	0x1
 6589 09fc 54       		.byte	0x54
 6590 09fd 00000000 		.4byte	0
 6591 0a01 00000000 		.4byte	0
 6592              	.LLST50:
 6593 0a05 00000000 		.4byte	.LVL229
 6594 0a09 07000000 		.4byte	.LVL230-1
ARM GAS  C:\Users\310295~1\AppData\Local\Temp\ccIU8zba.s 			page 192


 6595 0a0d 0100     		.2byte	0x1
 6596 0a0f 50       		.byte	0x50
 6597 0a10 07000000 		.4byte	.LVL230-1
 6598 0a14 22000000 		.4byte	.LVL237
 6599 0a18 0100     		.2byte	0x1
 6600 0a1a 56       		.byte	0x56
 6601 0a1b 22000000 		.4byte	.LVL237
 6602 0a1f 30000000 		.4byte	.LVL238
 6603 0a23 0100     		.2byte	0x1
 6604 0a25 53       		.byte	0x53
 6605 0a26 30000000 		.4byte	.LVL238
 6606 0a2a 3E000000 		.4byte	.LVL243
 6607 0a2e 0900     		.2byte	0x9
 6608 0a30 76       		.byte	0x76
 6609 0a31 00       		.sleb128 0
 6610 0a32 0C       		.byte	0xc
 6611 0a33 04040400 		.4byte	0x40404
 6612 0a37 1A       		.byte	0x1a
 6613 0a38 9F       		.byte	0x9f
 6614 0a39 3E000000 		.4byte	.LVL243
 6615 0a3d 4C000000 		.4byte	.LFE36
 6616 0a41 0A00     		.2byte	0xa
 6617 0a43 F3       		.byte	0xf3
 6618 0a44 01       		.uleb128 0x1
 6619 0a45 50       		.byte	0x50
 6620 0a46 0C       		.byte	0xc
 6621 0a47 04040400 		.4byte	0x40404
 6622 0a4b 1A       		.byte	0x1a
 6623 0a4c 9F       		.byte	0x9f
 6624 0a4d 00000000 		.4byte	0
 6625 0a51 00000000 		.4byte	0
 6626              	.LLST51:
 6627 0a55 0A000000 		.4byte	.LVL231
 6628 0a59 3E000000 		.4byte	.LVL241
 6629 0a5d 0100     		.2byte	0x1
 6630 0a5f 54       		.byte	0x54
 6631 0a60 00000000 		.4byte	0
 6632 0a64 00000000 		.4byte	0
 6633              	.LLST52:
 6634 0a68 12000000 		.4byte	.LVL233
 6635 0a6c 1A000000 		.4byte	.LVL235
 6636 0a70 0200     		.2byte	0x2
 6637 0a72 31       		.byte	0x31
 6638 0a73 9F       		.byte	0x9f
 6639 0a74 1C000000 		.4byte	.LVL236
 6640 0a78 3E000000 		.4byte	.LVL242
 6641 0a7c 0100     		.2byte	0x1
 6642 0a7e 55       		.byte	0x55
 6643 0a7f 00000000 		.4byte	0
 6644 0a83 00000000 		.4byte	0
 6645              	.LLST53:
 6646 0a87 00000000 		.4byte	.LVL244
 6647 0a8b 08000000 		.4byte	.LVL245
 6648 0a8f 0100     		.2byte	0x1
 6649 0a91 50       		.byte	0x50
 6650 0a92 08000000 		.4byte	.LVL245
 6651 0a96 20000000 		.4byte	.LFE37
ARM GAS  C:\Users\310295~1\AppData\Local\Temp\ccIU8zba.s 			page 193


 6652 0a9a 0400     		.2byte	0x4
 6653 0a9c F3       		.byte	0xf3
 6654 0a9d 01       		.uleb128 0x1
 6655 0a9e 50       		.byte	0x50
 6656 0a9f 9F       		.byte	0x9f
 6657 0aa0 00000000 		.4byte	0
 6658 0aa4 00000000 		.4byte	0
 6659              	.LLST54:
 6660 0aa8 00000000 		.4byte	.LVL246
 6661 0aac 08000000 		.4byte	.LVL248
 6662 0ab0 0100     		.2byte	0x1
 6663 0ab2 50       		.byte	0x50
 6664 0ab3 08000000 		.4byte	.LVL248
 6665 0ab7 12000000 		.4byte	.LVL250
 6666 0abb 0400     		.2byte	0x4
 6667 0abd F3       		.byte	0xf3
 6668 0abe 01       		.uleb128 0x1
 6669 0abf 50       		.byte	0x50
 6670 0ac0 9F       		.byte	0x9f
 6671 0ac1 12000000 		.4byte	.LVL250
 6672 0ac5 14000000 		.4byte	.LVL251
 6673 0ac9 0100     		.2byte	0x1
 6674 0acb 50       		.byte	0x50
 6675 0acc 14000000 		.4byte	.LVL251
 6676 0ad0 20000000 		.4byte	.LFE38
 6677 0ad4 0400     		.2byte	0x4
 6678 0ad6 F3       		.byte	0xf3
 6679 0ad7 01       		.uleb128 0x1
 6680 0ad8 50       		.byte	0x50
 6681 0ad9 9F       		.byte	0x9f
 6682 0ada 00000000 		.4byte	0
 6683 0ade 00000000 		.4byte	0
 6684              	.LLST55:
 6685 0ae2 00000000 		.4byte	.LVL246
 6686 0ae6 17000000 		.4byte	.LVL252-1
 6687 0aea 0100     		.2byte	0x1
 6688 0aec 51       		.byte	0x51
 6689 0aed 17000000 		.4byte	.LVL252-1
 6690 0af1 20000000 		.4byte	.LFE38
 6691 0af5 0400     		.2byte	0x4
 6692 0af7 F3       		.byte	0xf3
 6693 0af8 01       		.uleb128 0x1
 6694 0af9 51       		.byte	0x51
 6695 0afa 9F       		.byte	0x9f
 6696 0afb 00000000 		.4byte	0
 6697 0aff 00000000 		.4byte	0
 6698              	.LLST56:
 6699 0b03 02000000 		.4byte	.LVL247
 6700 0b07 0E000000 		.4byte	.LVL249
 6701 0b0b 0200     		.2byte	0x2
 6702 0b0d 30       		.byte	0x30
 6703 0b0e 9F       		.byte	0x9f
 6704 0b0f 0E000000 		.4byte	.LVL249
 6705 0b13 12000000 		.4byte	.LVL250
 6706 0b17 0100     		.2byte	0x1
 6707 0b19 50       		.byte	0x50
 6708 0b1a 12000000 		.4byte	.LVL250
ARM GAS  C:\Users\310295~1\AppData\Local\Temp\ccIU8zba.s 			page 194


 6709 0b1e 1A000000 		.4byte	.LVL253
 6710 0b22 0200     		.2byte	0x2
 6711 0b24 30       		.byte	0x30
 6712 0b25 9F       		.byte	0x9f
 6713 0b26 1A000000 		.4byte	.LVL253
 6714 0b2a 20000000 		.4byte	.LFE38
 6715 0b2e 0100     		.2byte	0x1
 6716 0b30 50       		.byte	0x50
 6717 0b31 00000000 		.4byte	0
 6718 0b35 00000000 		.4byte	0
 6719              	.LLST57:
 6720 0b39 00000000 		.4byte	.LVL254
 6721 0b3d 08000000 		.4byte	.LVL256
 6722 0b41 0100     		.2byte	0x1
 6723 0b43 50       		.byte	0x50
 6724 0b44 08000000 		.4byte	.LVL256
 6725 0b48 10000000 		.4byte	.LVL258
 6726 0b4c 0400     		.2byte	0x4
 6727 0b4e F3       		.byte	0xf3
 6728 0b4f 01       		.uleb128 0x1
 6729 0b50 50       		.byte	0x50
 6730 0b51 9F       		.byte	0x9f
 6731 0b52 10000000 		.4byte	.LVL258
 6732 0b56 12000000 		.4byte	.LVL259
 6733 0b5a 0100     		.2byte	0x1
 6734 0b5c 50       		.byte	0x50
 6735 0b5d 12000000 		.4byte	.LVL259
 6736 0b61 20000000 		.4byte	.LFE39
 6737 0b65 0400     		.2byte	0x4
 6738 0b67 F3       		.byte	0xf3
 6739 0b68 01       		.uleb128 0x1
 6740 0b69 50       		.byte	0x50
 6741 0b6a 9F       		.byte	0x9f
 6742 0b6b 00000000 		.4byte	0
 6743 0b6f 00000000 		.4byte	0
 6744              	.LLST58:
 6745 0b73 02000000 		.4byte	.LVL255
 6746 0b77 0E000000 		.4byte	.LVL257
 6747 0b7b 0200     		.2byte	0x2
 6748 0b7d 30       		.byte	0x30
 6749 0b7e 9F       		.byte	0x9f
 6750 0b7f 0E000000 		.4byte	.LVL257
 6751 0b83 10000000 		.4byte	.LVL258
 6752 0b87 0100     		.2byte	0x1
 6753 0b89 50       		.byte	0x50
 6754 0b8a 10000000 		.4byte	.LVL258
 6755 0b8e 18000000 		.4byte	.LVL261
 6756 0b92 0200     		.2byte	0x2
 6757 0b94 30       		.byte	0x30
 6758 0b95 9F       		.byte	0x9f
 6759 0b96 18000000 		.4byte	.LVL261
 6760 0b9a 20000000 		.4byte	.LFE39
 6761 0b9e 0100     		.2byte	0x1
 6762 0ba0 50       		.byte	0x50
 6763 0ba1 00000000 		.4byte	0
 6764 0ba5 00000000 		.4byte	0
 6765              	.LLST59:
ARM GAS  C:\Users\310295~1\AppData\Local\Temp\ccIU8zba.s 			page 195


 6766 0ba9 00000000 		.4byte	.LVL262
 6767 0bad 08000000 		.4byte	.LVL263
 6768 0bb1 0100     		.2byte	0x1
 6769 0bb3 50       		.byte	0x50
 6770 0bb4 08000000 		.4byte	.LVL263
 6771 0bb8 1E000000 		.4byte	.LVL264
 6772 0bbc 0400     		.2byte	0x4
 6773 0bbe F3       		.byte	0xf3
 6774 0bbf 01       		.uleb128 0x1
 6775 0bc0 50       		.byte	0x50
 6776 0bc1 9F       		.byte	0x9f
 6777 0bc2 1E000000 		.4byte	.LVL264
 6778 0bc6 20000000 		.4byte	.LVL265
 6779 0bca 0100     		.2byte	0x1
 6780 0bcc 50       		.byte	0x50
 6781 0bcd 20000000 		.4byte	.LVL265
 6782 0bd1 34000000 		.4byte	.LFE40
 6783 0bd5 0400     		.2byte	0x4
 6784 0bd7 F3       		.byte	0xf3
 6785 0bd8 01       		.uleb128 0x1
 6786 0bd9 50       		.byte	0x50
 6787 0bda 9F       		.byte	0x9f
 6788 0bdb 00000000 		.4byte	0
 6789 0bdf 00000000 		.4byte	0
 6790              	.LLST60:
 6791 0be3 00000000 		.4byte	.LVL267
 6792 0be7 08000000 		.4byte	.LVL268
 6793 0beb 0100     		.2byte	0x1
 6794 0bed 50       		.byte	0x50
 6795 0bee 08000000 		.4byte	.LVL268
 6796 0bf2 16000000 		.4byte	.LVL269
 6797 0bf6 0400     		.2byte	0x4
 6798 0bf8 F3       		.byte	0xf3
 6799 0bf9 01       		.uleb128 0x1
 6800 0bfa 50       		.byte	0x50
 6801 0bfb 9F       		.byte	0x9f
 6802 0bfc 16000000 		.4byte	.LVL269
 6803 0c00 18000000 		.4byte	.LVL270
 6804 0c04 0100     		.2byte	0x1
 6805 0c06 50       		.byte	0x50
 6806 0c07 18000000 		.4byte	.LVL270
 6807 0c0b 28000000 		.4byte	.LFE41
 6808 0c0f 0400     		.2byte	0x4
 6809 0c11 F3       		.byte	0xf3
 6810 0c12 01       		.uleb128 0x1
 6811 0c13 50       		.byte	0x50
 6812 0c14 9F       		.byte	0x9f
 6813 0c15 00000000 		.4byte	0
 6814 0c19 00000000 		.4byte	0
 6815              	.LLST61:
 6816 0c1d 00000000 		.4byte	.LVL278
 6817 0c21 09000000 		.4byte	.LVL279-1
 6818 0c25 0100     		.2byte	0x1
 6819 0c27 50       		.byte	0x50
 6820 0c28 09000000 		.4byte	.LVL279-1
 6821 0c2c 2E000000 		.4byte	.LVL284
 6822 0c30 0100     		.2byte	0x1
ARM GAS  C:\Users\310295~1\AppData\Local\Temp\ccIU8zba.s 			page 196


 6823 0c32 54       		.byte	0x54
 6824 0c33 2E000000 		.4byte	.LVL284
 6825 0c37 35000000 		.4byte	.LVL285-1
 6826 0c3b 0100     		.2byte	0x1
 6827 0c3d 50       		.byte	0x50
 6828 0c3e 35000000 		.4byte	.LVL285-1
 6829 0c42 5E000000 		.4byte	.LVL290
 6830 0c46 0100     		.2byte	0x1
 6831 0c48 54       		.byte	0x54
 6832 0c49 5E000000 		.4byte	.LVL290
 6833 0c4d 60000000 		.4byte	.LFE43
 6834 0c51 0400     		.2byte	0x4
 6835 0c53 F3       		.byte	0xf3
 6836 0c54 01       		.uleb128 0x1
 6837 0c55 50       		.byte	0x50
 6838 0c56 9F       		.byte	0x9f
 6839 0c57 00000000 		.4byte	0
 6840 0c5b 00000000 		.4byte	0
 6841              	.LLST62:
 6842 0c5f 00000000 		.4byte	.LVL291
 6843 0c63 0F000000 		.4byte	.LVL292-1
 6844 0c67 0100     		.2byte	0x1
 6845 0c69 50       		.byte	0x50
 6846 0c6a 0F000000 		.4byte	.LVL292-1
 6847 0c6e 5A000000 		.4byte	.LVL302
 6848 0c72 0100     		.2byte	0x1
 6849 0c74 54       		.byte	0x54
 6850 0c75 5A000000 		.4byte	.LVL302
 6851 0c79 6C000000 		.4byte	.LFE47
 6852 0c7d 0400     		.2byte	0x4
 6853 0c7f F3       		.byte	0xf3
 6854 0c80 01       		.uleb128 0x1
 6855 0c81 50       		.byte	0x50
 6856 0c82 9F       		.byte	0x9f
 6857 0c83 00000000 		.4byte	0
 6858 0c87 00000000 		.4byte	0
 6859              	.LLST63:
 6860 0c8b 00000000 		.4byte	.LVL291
 6861 0c8f 0F000000 		.4byte	.LVL292-1
 6862 0c93 0100     		.2byte	0x1
 6863 0c95 51       		.byte	0x51
 6864 0c96 0F000000 		.4byte	.LVL292-1
 6865 0c9a 6C000000 		.4byte	.LFE47
 6866 0c9e 0400     		.2byte	0x4
 6867 0ca0 F3       		.byte	0xf3
 6868 0ca1 01       		.uleb128 0x1
 6869 0ca2 51       		.byte	0x51
 6870 0ca3 9F       		.byte	0x9f
 6871 0ca4 00000000 		.4byte	0
 6872 0ca8 00000000 		.4byte	0
 6873              	.LLST64:
 6874 0cac 00000000 		.4byte	.LVL291
 6875 0cb0 0F000000 		.4byte	.LVL292-1
 6876 0cb4 0100     		.2byte	0x1
 6877 0cb6 52       		.byte	0x52
 6878 0cb7 0F000000 		.4byte	.LVL292-1
 6879 0cbb 5A000000 		.4byte	.LVL303
ARM GAS  C:\Users\310295~1\AppData\Local\Temp\ccIU8zba.s 			page 197


 6880 0cbf 0100     		.2byte	0x1
 6881 0cc1 55       		.byte	0x55
 6882 0cc2 5A000000 		.4byte	.LVL303
 6883 0cc6 6C000000 		.4byte	.LFE47
 6884 0cca 0400     		.2byte	0x4
 6885 0ccc F3       		.byte	0xf3
 6886 0ccd 01       		.uleb128 0x1
 6887 0cce 52       		.byte	0x52
 6888 0ccf 9F       		.byte	0x9f
 6889 0cd0 00000000 		.4byte	0
 6890 0cd4 00000000 		.4byte	0
 6891              	.LLST65:
 6892 0cd8 24000000 		.4byte	.LVL293
 6893 0cdc 2A000000 		.4byte	.LVL294
 6894 0ce0 0100     		.2byte	0x1
 6895 0ce2 50       		.byte	0x50
 6896 0ce3 2E000000 		.4byte	.LVL295
 6897 0ce7 34000000 		.4byte	.LVL296
 6898 0ceb 0100     		.2byte	0x1
 6899 0ced 50       		.byte	0x50
 6900 0cee 3A000000 		.4byte	.LVL297
 6901 0cf2 50000000 		.4byte	.LVL299
 6902 0cf6 0100     		.2byte	0x1
 6903 0cf8 56       		.byte	0x56
 6904 0cf9 50000000 		.4byte	.LVL299
 6905 0cfd 54000000 		.4byte	.LVL300
 6906 0d01 0A00     		.2byte	0xa
 6907 0d03 74       		.byte	0x74
 6908 0d04 00       		.sleb128 0
 6909 0d05 32       		.byte	0x32
 6910 0d06 24       		.byte	0x24
 6911 0d07 03       		.byte	0x3
 6912 0d08 00000000 		.4byte	.LANCHOR2
 6913 0d0c 22       		.byte	0x22
 6914 0d0d 00000000 		.4byte	0
 6915 0d11 00000000 		.4byte	0
 6916              	.LLST66:
 6917 0d15 00000000 		.4byte	.LVL304
 6918 0d19 0F000000 		.4byte	.LVL305-1
 6919 0d1d 0100     		.2byte	0x1
 6920 0d1f 50       		.byte	0x50
 6921 0d20 0F000000 		.4byte	.LVL305-1
 6922 0d24 36000000 		.4byte	.LVL311
 6923 0d28 0100     		.2byte	0x1
 6924 0d2a 54       		.byte	0x54
 6925 0d2b 36000000 		.4byte	.LVL311
 6926 0d2f 3C000000 		.4byte	.LFE46
 6927 0d33 0400     		.2byte	0x4
 6928 0d35 F3       		.byte	0xf3
 6929 0d36 01       		.uleb128 0x1
 6930 0d37 50       		.byte	0x50
 6931 0d38 9F       		.byte	0x9f
 6932 0d39 00000000 		.4byte	0
 6933 0d3d 00000000 		.4byte	0
 6934              	.LLST67:
 6935 0d41 00000000 		.4byte	.LVL304
 6936 0d45 0F000000 		.4byte	.LVL305-1
ARM GAS  C:\Users\310295~1\AppData\Local\Temp\ccIU8zba.s 			page 198


 6937 0d49 0100     		.2byte	0x1
 6938 0d4b 51       		.byte	0x51
 6939 0d4c 0F000000 		.4byte	.LVL305-1
 6940 0d50 3C000000 		.4byte	.LFE46
 6941 0d54 0400     		.2byte	0x4
 6942 0d56 F3       		.byte	0xf3
 6943 0d57 01       		.uleb128 0x1
 6944 0d58 51       		.byte	0x51
 6945 0d59 9F       		.byte	0x9f
 6946 0d5a 00000000 		.4byte	0
 6947 0d5e 00000000 		.4byte	0
 6948              	.LLST68:
 6949 0d62 00000000 		.4byte	.LVL304
 6950 0d66 0F000000 		.4byte	.LVL305-1
 6951 0d6a 0100     		.2byte	0x1
 6952 0d6c 52       		.byte	0x52
 6953 0d6d 0F000000 		.4byte	.LVL305-1
 6954 0d71 36000000 		.4byte	.LVL312
 6955 0d75 0100     		.2byte	0x1
 6956 0d77 55       		.byte	0x55
 6957 0d78 36000000 		.4byte	.LVL312
 6958 0d7c 3C000000 		.4byte	.LFE46
 6959 0d80 0400     		.2byte	0x4
 6960 0d82 F3       		.byte	0xf3
 6961 0d83 01       		.uleb128 0x1
 6962 0d84 52       		.byte	0x52
 6963 0d85 9F       		.byte	0x9f
 6964 0d86 00000000 		.4byte	0
 6965 0d8a 00000000 		.4byte	0
 6966              	.LLST69:
 6967 0d8e 20000000 		.4byte	.LVL306
 6968 0d92 28000000 		.4byte	.LVL308
 6969 0d96 0100     		.2byte	0x1
 6970 0d98 50       		.byte	0x50
 6971 0d99 00000000 		.4byte	0
 6972 0d9d 00000000 		.4byte	0
 6973              	.LLST70:
 6974 0da1 26000000 		.4byte	.LVL307
 6975 0da5 2D000000 		.4byte	.LVL309-1
 6976 0da9 0100     		.2byte	0x1
 6977 0dab 52       		.byte	0x52
 6978 0dac 00000000 		.4byte	0
 6979 0db0 00000000 		.4byte	0
 6980              		.section	.debug_aranges,"",%progbits
 6981 0000 84010000 		.4byte	0x184
 6982 0004 0200     		.2byte	0x2
 6983 0006 00000000 		.4byte	.Ldebug_info0
 6984 000a 04       		.byte	0x4
 6985 000b 00       		.byte	0
 6986 000c 0000     		.2byte	0
 6987 000e 0000     		.2byte	0
 6988 0010 00000000 		.4byte	.LFB7
 6989 0014 14000000 		.4byte	.LFE7-.LFB7
 6990 0018 00000000 		.4byte	.LFB11
 6991 001c 10000000 		.4byte	.LFE11-.LFB11
 6992 0020 00000000 		.4byte	.LFB19
 6993 0024 14000000 		.4byte	.LFE19-.LFB19
ARM GAS  C:\Users\310295~1\AppData\Local\Temp\ccIU8zba.s 			page 199


 6994 0028 00000000 		.4byte	.LFB2
 6995 002c 14000000 		.4byte	.LFE2-.LFB2
 6996 0030 00000000 		.4byte	.LFB4
 6997 0034 5C000000 		.4byte	.LFE4-.LFB4
 6998 0038 00000000 		.4byte	.LFB5
 6999 003c 14000000 		.4byte	.LFE5-.LFB5
 7000 0040 00000000 		.4byte	.LFB6
 7001 0044 08010000 		.4byte	.LFE6-.LFB6
 7002 0048 00000000 		.4byte	.LFB9
 7003 004c A4000000 		.4byte	.LFE9-.LFB9
 7004 0050 00000000 		.4byte	.LFB8
 7005 0054 D8000000 		.4byte	.LFE8-.LFB8
 7006 0058 00000000 		.4byte	.LFB10
 7007 005c 30000000 		.4byte	.LFE10-.LFB10
 7008 0060 00000000 		.4byte	.LFB13
 7009 0064 40000000 		.4byte	.LFE13-.LFB13
 7010 0068 00000000 		.4byte	.LFB15
 7011 006c 14000000 		.4byte	.LFE15-.LFB15
 7012 0070 00000000 		.4byte	.LFB16
 7013 0074 80000000 		.4byte	.LFE16-.LFB16
 7014 0078 00000000 		.4byte	.LFB17
 7015 007c 2C000000 		.4byte	.LFE17-.LFB17
 7016 0080 00000000 		.4byte	.LFB18
 7017 0084 1C000000 		.4byte	.LFE18-.LFB18
 7018 0088 00000000 		.4byte	.LFB20
 7019 008c 30000000 		.4byte	.LFE20-.LFB20
 7020 0090 00000000 		.4byte	.LFB21
 7021 0094 24000000 		.4byte	.LFE21-.LFB21
 7022 0098 00000000 		.4byte	.LFB22
 7023 009c 38000000 		.4byte	.LFE22-.LFB22
 7024 00a0 00000000 		.4byte	.LFB45
 7025 00a4 2C000000 		.4byte	.LFE45-.LFB45
 7026 00a8 00000000 		.4byte	.LFB23
 7027 00ac 14000000 		.4byte	.LFE23-.LFB23
 7028 00b0 00000000 		.4byte	.LFB24
 7029 00b4 38000000 		.4byte	.LFE24-.LFB24
 7030 00b8 00000000 		.4byte	.LFB25
 7031 00bc 24000000 		.4byte	.LFE25-.LFB25
 7032 00c0 00000000 		.4byte	.LFB26
 7033 00c4 3C000000 		.4byte	.LFE26-.LFB26
 7034 00c8 00000000 		.4byte	.LFB27
 7035 00cc 44000000 		.4byte	.LFE27-.LFB27
 7036 00d0 00000000 		.4byte	.LFB28
 7037 00d4 34000000 		.4byte	.LFE28-.LFB28
 7038 00d8 00000000 		.4byte	.LFB29
 7039 00dc 14000000 		.4byte	.LFE29-.LFB29
 7040 00e0 00000000 		.4byte	.LFB30
 7041 00e4 58000000 		.4byte	.LFE30-.LFB30
 7042 00e8 00000000 		.4byte	.LFB31
 7043 00ec 2C000000 		.4byte	.LFE31-.LFB31
 7044 00f0 00000000 		.4byte	.LFB32
 7045 00f4 10000000 		.4byte	.LFE32-.LFB32
 7046 00f8 00000000 		.4byte	.LFB33
 7047 00fc 20000000 		.4byte	.LFE33-.LFB33
 7048 0100 00000000 		.4byte	.LFB34
 7049 0104 3C000000 		.4byte	.LFE34-.LFB34
 7050 0108 00000000 		.4byte	.LFB44
ARM GAS  C:\Users\310295~1\AppData\Local\Temp\ccIU8zba.s 			page 200


 7051 010c 74000000 		.4byte	.LFE44-.LFB44
 7052 0110 00000000 		.4byte	.LFB3
 7053 0114 4C000000 		.4byte	.LFE3-.LFB3
 7054 0118 00000000 		.4byte	.LFB12
 7055 011c 38000000 		.4byte	.LFE12-.LFB12
 7056 0120 00000000 		.4byte	.LFB14
 7057 0124 48000000 		.4byte	.LFE14-.LFB14
 7058 0128 00000000 		.4byte	.LFB35
 7059 012c 14000000 		.4byte	.LFE35-.LFB35
 7060 0130 00000000 		.4byte	.LFB36
 7061 0134 4C000000 		.4byte	.LFE36-.LFB36
 7062 0138 00000000 		.4byte	.LFB37
 7063 013c 20000000 		.4byte	.LFE37-.LFB37
 7064 0140 00000000 		.4byte	.LFB38
 7065 0144 20000000 		.4byte	.LFE38-.LFB38
 7066 0148 00000000 		.4byte	.LFB39
 7067 014c 20000000 		.4byte	.LFE39-.LFB39
 7068 0150 00000000 		.4byte	.LFB40
 7069 0154 34000000 		.4byte	.LFE40-.LFB40
 7070 0158 00000000 		.4byte	.LFB41
 7071 015c 28000000 		.4byte	.LFE41-.LFB41
 7072 0160 00000000 		.4byte	.LFB42
 7073 0164 A4000000 		.4byte	.LFE42-.LFB42
 7074 0168 00000000 		.4byte	.LFB43
 7075 016c 60000000 		.4byte	.LFE43-.LFB43
 7076 0170 00000000 		.4byte	.LFB47
 7077 0174 6C000000 		.4byte	.LFE47-.LFB47
 7078 0178 00000000 		.4byte	.LFB46
 7079 017c 3C000000 		.4byte	.LFE46-.LFB46
 7080 0180 00000000 		.4byte	0
 7081 0184 00000000 		.4byte	0
 7082              		.section	.debug_ranges,"",%progbits
 7083              	.Ldebug_ranges0:
 7084 0000 00000000 		.4byte	.LFB7
 7085 0004 14000000 		.4byte	.LFE7
 7086 0008 00000000 		.4byte	.LFB11
 7087 000c 10000000 		.4byte	.LFE11
 7088 0010 00000000 		.4byte	.LFB19
 7089 0014 14000000 		.4byte	.LFE19
 7090 0018 00000000 		.4byte	.LFB2
 7091 001c 14000000 		.4byte	.LFE2
 7092 0020 00000000 		.4byte	.LFB4
 7093 0024 5C000000 		.4byte	.LFE4
 7094 0028 00000000 		.4byte	.LFB5
 7095 002c 14000000 		.4byte	.LFE5
 7096 0030 00000000 		.4byte	.LFB6
 7097 0034 08010000 		.4byte	.LFE6
 7098 0038 00000000 		.4byte	.LFB9
 7099 003c A4000000 		.4byte	.LFE9
 7100 0040 00000000 		.4byte	.LFB8
 7101 0044 D8000000 		.4byte	.LFE8
 7102 0048 00000000 		.4byte	.LFB10
 7103 004c 30000000 		.4byte	.LFE10
 7104 0050 00000000 		.4byte	.LFB13
 7105 0054 40000000 		.4byte	.LFE13
 7106 0058 00000000 		.4byte	.LFB15
 7107 005c 14000000 		.4byte	.LFE15
ARM GAS  C:\Users\310295~1\AppData\Local\Temp\ccIU8zba.s 			page 201


 7108 0060 00000000 		.4byte	.LFB16
 7109 0064 80000000 		.4byte	.LFE16
 7110 0068 00000000 		.4byte	.LFB17
 7111 006c 2C000000 		.4byte	.LFE17
 7112 0070 00000000 		.4byte	.LFB18
 7113 0074 1C000000 		.4byte	.LFE18
 7114 0078 00000000 		.4byte	.LFB20
 7115 007c 30000000 		.4byte	.LFE20
 7116 0080 00000000 		.4byte	.LFB21
 7117 0084 24000000 		.4byte	.LFE21
 7118 0088 00000000 		.4byte	.LFB22
 7119 008c 38000000 		.4byte	.LFE22
 7120 0090 00000000 		.4byte	.LFB45
 7121 0094 2C000000 		.4byte	.LFE45
 7122 0098 00000000 		.4byte	.LFB23
 7123 009c 14000000 		.4byte	.LFE23
 7124 00a0 00000000 		.4byte	.LFB24
 7125 00a4 38000000 		.4byte	.LFE24
 7126 00a8 00000000 		.4byte	.LFB25
 7127 00ac 24000000 		.4byte	.LFE25
 7128 00b0 00000000 		.4byte	.LFB26
 7129 00b4 3C000000 		.4byte	.LFE26
 7130 00b8 00000000 		.4byte	.LFB27
 7131 00bc 44000000 		.4byte	.LFE27
 7132 00c0 00000000 		.4byte	.LFB28
 7133 00c4 34000000 		.4byte	.LFE28
 7134 00c8 00000000 		.4byte	.LFB29
 7135 00cc 14000000 		.4byte	.LFE29
 7136 00d0 00000000 		.4byte	.LFB30
 7137 00d4 58000000 		.4byte	.LFE30
 7138 00d8 00000000 		.4byte	.LFB31
 7139 00dc 2C000000 		.4byte	.LFE31
 7140 00e0 00000000 		.4byte	.LFB32
 7141 00e4 10000000 		.4byte	.LFE32
 7142 00e8 00000000 		.4byte	.LFB33
 7143 00ec 20000000 		.4byte	.LFE33
 7144 00f0 00000000 		.4byte	.LFB34
 7145 00f4 3C000000 		.4byte	.LFE34
 7146 00f8 00000000 		.4byte	.LFB44
 7147 00fc 74000000 		.4byte	.LFE44
 7148 0100 00000000 		.4byte	.LFB3
 7149 0104 4C000000 		.4byte	.LFE3
 7150 0108 00000000 		.4byte	.LFB12
 7151 010c 38000000 		.4byte	.LFE12
 7152 0110 00000000 		.4byte	.LFB14
 7153 0114 48000000 		.4byte	.LFE14
 7154 0118 00000000 		.4byte	.LFB35
 7155 011c 14000000 		.4byte	.LFE35
 7156 0120 00000000 		.4byte	.LFB36
 7157 0124 4C000000 		.4byte	.LFE36
 7158 0128 00000000 		.4byte	.LFB37
 7159 012c 20000000 		.4byte	.LFE37
 7160 0130 00000000 		.4byte	.LFB38
 7161 0134 20000000 		.4byte	.LFE38
 7162 0138 00000000 		.4byte	.LFB39
 7163 013c 20000000 		.4byte	.LFE39
 7164 0140 00000000 		.4byte	.LFB40
ARM GAS  C:\Users\310295~1\AppData\Local\Temp\ccIU8zba.s 			page 202


 7165 0144 34000000 		.4byte	.LFE40
 7166 0148 00000000 		.4byte	.LFB41
 7167 014c 28000000 		.4byte	.LFE41
 7168 0150 00000000 		.4byte	.LFB42
 7169 0154 A4000000 		.4byte	.LFE42
 7170 0158 00000000 		.4byte	.LFB43
 7171 015c 60000000 		.4byte	.LFE43
 7172 0160 00000000 		.4byte	.LFB47
 7173 0164 6C000000 		.4byte	.LFE47
 7174 0168 00000000 		.4byte	.LFB46
 7175 016c 3C000000 		.4byte	.LFE46
 7176 0170 00000000 		.4byte	0
 7177 0174 00000000 		.4byte	0
 7178              		.section	.debug_line,"",%progbits
 7179              	.Ldebug_line0:
 7180 0000 DA050000 		.section	.debug_str,"MS",%progbits,1
 7180      02005E00 
 7180      00000201 
 7180      FB0E0D00 
 7180      01010101 
 7181              	.LASF10:
 7182 0000 75696E74 		.ascii	"uint16\000"
 7182      313600
 7183              	.LASF121:
 7184 0007 43794578 		.ascii	"CyExitCriticalSection\000"
 7184      69744372 
 7184      69746963 
 7184      616C5365 
 7184      6374696F 
 7185              	.LASF25:
 7186 001d 6C66636C 		.ascii	"lfclkSource\000"
 7186      6B536F75 
 7186      72636500 
 7187              	.LASF118:
 7188 0029 636F756E 		.ascii	"counterIntMaskTbl\000"
 7188      74657249 
 7188      6E744D61 
 7188      736B5462 
 7188      6C00
 7189              	.LASF119:
 7190 003b 63795379 		.ascii	"cySysWdtCallback\000"
 7190      73576474 
 7190      43616C6C 
 7190      6261636B 
 7190      00
 7191              	.LASF63:
 7192 004c 43795379 		.ascii	"CySysWdtSetMode\000"
 7192      73576474 
 7192      5365744D 
 7192      6F646500 
 7193              	.LASF60:
 7194 005c 43795379 		.ascii	"CySysWdtUnlock\000"
 7194      73576474 
 7194      556E6C6F 
 7194      636B00
 7195              	.LASF39:
 7196 006b 6D656173 		.ascii	"measuredIloFreq\000"
ARM GAS  C:\Users\310295~1\AppData\Local\Temp\ccIU8zba.s 			page 203


 7196      75726564 
 7196      496C6F46 
 7196      72657100 
 7197              	.LASF62:
 7198 007b 636F756E 		.ascii	"counterNum\000"
 7198      7465724E 
 7198      756D00
 7199              	.LASF86:
 7200 0086 43795379 		.ascii	"CySysClkLfclkPosedgeCatch\000"
 7200      73436C6B 
 7200      4C66636C 
 7200      6B506F73 
 7200      65646765 
 7201              	.LASF76:
 7202 00a0 43795379 		.ascii	"CySysWdtGetCascade\000"
 7202      73576474 
 7202      47657443 
 7202      61736361 
 7202      646500
 7203              	.LASF125:
 7204 00b3 43795379 		.ascii	"CySysClkGetLfclkSource\000"
 7204      73436C6B 
 7204      4765744C 
 7204      66636C6B 
 7204      536F7572 
 7205              	.LASF50:
 7206 00ca 43795379 		.ascii	"CySysClkIloStartMeasurement\000"
 7206      73436C6B 
 7206      496C6F53 
 7206      74617274 
 7206      4D656173 
 7207              	.LASF114:
 7208 00e6 6C66636C 		.ascii	"lfclkPosedgeWdtCounter0Enabled\000"
 7208      6B506F73 
 7208      65646765 
 7208      57647443 
 7208      6F756E74 
 7209              	.LASF7:
 7210 0105 6C6F6E67 		.ascii	"long long unsigned int\000"
 7210      206C6F6E 
 7210      6720756E 
 7210      7369676E 
 7210      65642069 
 7211              	.LASF40:
 7212 011c 63757272 		.ascii	"currentIloTrimValue\000"
 7212      656E7449 
 7212      6C6F5472 
 7212      696D5661 
 7212      6C756500 
 7213              	.LASF75:
 7214 0130 43795379 		.ascii	"CySysClkWcoEnabled\000"
 7214      73436C6B 
 7214      57636F45 
 7214      6E61626C 
 7214      656400
 7215              	.LASF43:
 7216 0143 6572726F 		.ascii	"errorRangeStatus\000"
ARM GAS  C:\Users\310295~1\AppData\Local\Temp\ccIU8zba.s 			page 204


 7216      7252616E 
 7216      67655374 
 7216      61747573 
 7216      00
 7217              	.LASF124:
 7218 0154 433A5C57 		.ascii	"C:\\Work\\BLE_Proximity\\BLE_Proximity01\\BLE_Trans"
 7218      6F726B5C 
 7218      424C455F 
 7218      50726F78 
 7218      696D6974 
 7219 0183 6665722E 		.ascii	"fer.cydsn\000"
 7219      63796473 
 7219      6E00
 7220              	.LASF6:
 7221 018d 6C6F6E67 		.ascii	"long long int\000"
 7221      206C6F6E 
 7221      6720696E 
 7221      7400
 7222              	.LASF0:
 7223 019b 7369676E 		.ascii	"signed char\000"
 7223      65642063 
 7223      68617200 
 7224              	.LASF99:
 7225 01a7 66756E63 		.ascii	"function\000"
 7225      74696F6E 
 7225      00
 7226              	.LASF58:
 7227 01b0 43795379 		.ascii	"CySysWdtLock\000"
 7227      73576474 
 7227      4C6F636B 
 7227      00
 7228              	.LASF21:
 7229 01bd 63795764 		.ascii	"cyWdtCallback\000"
 7229      7443616C 
 7229      6C626163 
 7229      6B00
 7230              	.LASF12:
 7231 01cb 696E7433 		.ascii	"int32\000"
 7231      3200
 7232              	.LASF128:
 7233 01d1 43794465 		.ascii	"CyDelayUs\000"
 7233      6C617955 
 7233      7300
 7234              	.LASF41:
 7235 01db 696C6F41 		.ascii	"iloAccuracyValue\000"
 7235      63637572 
 7235      61637956 
 7235      616C7565 
 7235      00
 7236              	.LASF20:
 7237 01ec 63795F73 		.ascii	"cy_sys_timer_delaytype_enum\000"
 7237      79735F74 
 7237      696D6572 
 7237      5F64656C 
 7237      61797479 
 7238              	.LASF81:
 7239 0208 62697473 		.ascii	"bits\000"
ARM GAS  C:\Users\310295~1\AppData\Local\Temp\ccIU8zba.s 			page 205


 7239      00
 7240              	.LASF4:
 7241 020d 6C6F6E67 		.ascii	"long int\000"
 7241      20696E74 
 7241      00
 7242              	.LASF79:
 7243 0216 72656756 		.ascii	"regValue\000"
 7243      616C7565 
 7243      00
 7244              	.LASF57:
 7245 021f 636C6F63 		.ascii	"clockSel\000"
 7245      6B53656C 
 7245      00
 7246              	.LASF9:
 7247 0228 75696E74 		.ascii	"uint8\000"
 7247      3800
 7248              	.LASF67:
 7249 022e 656E6162 		.ascii	"enable\000"
 7249      6C6500
 7250              	.LASF14:
 7251 0235 646F7562 		.ascii	"double\000"
 7251      6C6500
 7252              	.LASF30:
 7253 023c 636F6D70 		.ascii	"compensatedCycles\000"
 7253      656E7361 
 7253      74656443 
 7253      79636C65 
 7253      7300
 7254              	.LASF89:
 7255 024e 43795379 		.ascii	"CySysClkIloStop\000"
 7255      73436C6B 
 7255      496C6F53 
 7255      746F7000 
 7256              	.LASF31:
 7257 025e 696C6F43 		.ascii	"iloCompensatedCycles\000"
 7257      6F6D7065 
 7257      6E736174 
 7257      65644379 
 7257      636C6573 
 7258              	.LASF97:
 7259 0273 636F756E 		.ascii	"countersMask\000"
 7259      74657273 
 7259      4D61736B 
 7259      00
 7260              	.LASF11:
 7261 0280 75696E74 		.ascii	"uint32\000"
 7261      333200
 7262              	.LASF28:
 7263 0287 43795379 		.ascii	"CySysClkIloStopMeasurement\000"
 7263      73436C6B 
 7263      496C6F53 
 7263      746F704D 
 7263      65617375 
 7264              	.LASF53:
 7265 02a2 43795379 		.ascii	"CySysClkWcoSetLowPowerMode\000"
 7265      73436C6B 
 7265      57636F53 
ARM GAS  C:\Users\310295~1\AppData\Local\Temp\ccIU8zba.s 			page 206


 7265      65744C6F 
 7265      77506F77 
 7266              	.LASF100:
 7267 02bd 70726576 		.ascii	"prevCallback\000"
 7267      43616C6C 
 7267      6261636B 
 7267      00
 7268              	.LASF77:
 7269 02ca 43795379 		.ascii	"CySysWdtSetMatch\000"
 7269      73576474 
 7269      5365744D 
 7269      61746368 
 7269      00
 7270              	.LASF74:
 7271 02db 636F756E 		.ascii	"countersEnableStatus\000"
 7271      74657273 
 7271      456E6162 
 7271      6C655374 
 7271      61747573 
 7272              	.LASF117:
 7273 02f0 77647449 		.ascii	"wdtIsrMask\000"
 7273      73724D61 
 7273      736B00
 7274              	.LASF69:
 7275 02fb 43795379 		.ascii	"CySysWdtEnable\000"
 7275      73576474 
 7275      456E6162 
 7275      6C6500
 7276              	.LASF98:
 7277 030a 43795379 		.ascii	"CySysWdtSetInterruptCallback\000"
 7277      73576474 
 7277      53657449 
 7277      6E746572 
 7277      72757074 
 7278              	.LASF70:
 7279 0327 636F756E 		.ascii	"counterMask\000"
 7279      7465724D 
 7279      61736B00 
 7280              	.LASF68:
 7281 0333 43795379 		.ascii	"CySysWdtGetClearOnMatch\000"
 7281      73576474 
 7281      47657443 
 7281      6C656172 
 7281      4F6E4D61 
 7282              	.LASF8:
 7283 034b 756E7369 		.ascii	"unsigned int\000"
 7283      676E6564 
 7283      20696E74 
 7283      00
 7284              	.LASF90:
 7285 0358 43795379 		.ascii	"CySysClkSetLfclkSource\000"
 7285      73436C6B 
 7285      5365744C 
 7285      66636C6B 
 7285      536F7572 
 7286              	.LASF87:
 7287 036f 66697273 		.ascii	"firstCount\000"
ARM GAS  C:\Users\310295~1\AppData\Local\Temp\ccIU8zba.s 			page 207


 7287      74436F75 
 7287      6E7400
 7288              	.LASF102:
 7289 037a 72657443 		.ascii	"retCallback\000"
 7289      616C6C62 
 7289      61636B00 
 7290              	.LASF29:
 7291 0386 64657369 		.ascii	"desiredDelay\000"
 7291      72656444 
 7291      656C6179 
 7291      00
 7292              	.LASF5:
 7293 0393 6C6F6E67 		.ascii	"long unsigned int\000"
 7293      20756E73 
 7293      69676E65 
 7293      6420696E 
 7293      7400
 7294              	.LASF59:
 7295 03a5 696E7465 		.ascii	"interruptState\000"
 7295      72727570 
 7295      74537461 
 7295      746500
 7296              	.LASF112:
 7297 03b4 6D617463 		.ascii	"matchValue\000"
 7297      6856616C 
 7297      756500
 7298              	.LASF85:
 7299 03bf 43795379 		.ascii	"CySysClkLfclkPosedgeRestore\000"
 7299      73436C6B 
 7299      4C66636C 
 7299      6B506F73 
 7299      65646765 
 7300              	.LASF103:
 7301 03db 43795379 		.ascii	"CySysWdtEnableCounterIsr\000"
 7301      73576474 
 7301      456E6162 
 7301      6C65436F 
 7301      756E7465 
 7302              	.LASF42:
 7303 03f4 7472696D 		.ascii	"trimStep\000"
 7303      53746570 
 7303      00
 7304              	.LASF3:
 7305 03fd 73686F72 		.ascii	"short unsigned int\000"
 7305      7420756E 
 7305      7369676E 
 7305      65642069 
 7305      6E7400
 7306              	.LASF61:
 7307 0410 43795379 		.ascii	"CySysWdtGetEnabledStatus\000"
 7307      73576474 
 7307      47657445 
 7307      6E61626C 
 7307      65645374 
 7308              	.LASF101:
 7309 0429 43795379 		.ascii	"CySysWdtGetInterruptCallback\000"
 7309      73576474 
ARM GAS  C:\Users\310295~1\AppData\Local\Temp\ccIU8zba.s 			page 208


 7309      47657449 
 7309      6E746572 
 7309      72757074 
 7310              	.LASF26:
 7311 0446 696C6F54 		.ascii	"iloTrimTrig\000"
 7311      72696D54 
 7311      72696700 
 7312              	.LASF37:
 7313 0452 43795379 		.ascii	"CySysClkIloUpdateTrimReg\000"
 7313      73436C6B 
 7313      496C6F55 
 7313      70646174 
 7313      65547269 
 7314              	.LASF27:
 7315 046b 43795379 		.ascii	"CySysClkIloStart\000"
 7315      73436C6B 
 7315      496C6F53 
 7315      74617274 
 7315      00
 7316              	.LASF80:
 7317 047c 43795379 		.ascii	"CySysWdtSetToggleBit\000"
 7317      73576474 
 7317      53657454 
 7317      6F67676C 
 7317      65426974 
 7318              	.LASF55:
 7319 0491 706F7765 		.ascii	"powerModeStatus\000"
 7319      724D6F64 
 7319      65537461 
 7319      74757300 
 7320              	.LASF106:
 7321 04a1 43795379 		.ascii	"CySysWatchdogFeed\000"
 7321      73576174 
 7321      6368646F 
 7321      67466565 
 7321      6400
 7322              	.LASF73:
 7323 04b3 63617363 		.ascii	"cascadeMask\000"
 7323      6164654D 
 7323      61736B00 
 7324              	.LASF123:
 7325 04bf 2E5C4765 		.ascii	".\\Generated_Source\\PSoC4\\CyLFClk.c\000"
 7325      6E657261 
 7325      7465645F 
 7325      536F7572 
 7325      63655C50 
 7326              	.LASF17:
 7327 04e2 72656733 		.ascii	"reg32\000"
 7327      3200
 7328              	.LASF113:
 7329 04e8 64656661 		.ascii	"defaultIloTrimRegValue\000"
 7329      756C7449 
 7329      6C6F5472 
 7329      696D5265 
 7329      6756616C 
 7330              	.LASF127:
 7331 04ff 4379456E 		.ascii	"CyEnterCriticalSection\000"
ARM GAS  C:\Users\310295~1\AppData\Local\Temp\ccIU8zba.s 			page 209


 7331      74657243 
 7331      72697469 
 7331      63616C53 
 7331      65637469 
 7332              	.LASF109:
 7333 0516 746D7056 		.ascii	"tmpValue\000"
 7333      616C7565 
 7333      00
 7334              	.LASF35:
 7335 051f 72657475 		.ascii	"returnStatus\000"
 7335      726E5374 
 7335      61747573 
 7335      00
 7336              	.LASF91:
 7337 052c 736F7572 		.ascii	"source\000"
 7337      636500
 7338              	.LASF56:
 7339 0533 43795379 		.ascii	"CySysClkWcoClockOutSelect\000"
 7339      73436C6B 
 7339      57636F43 
 7339      6C6F636B 
 7339      4F757453 
 7340              	.LASF22:
 7341 054d 73697A65 		.ascii	"sizetype\000"
 7341      74797065 
 7341      00
 7342              	.LASF83:
 7343 0556 43795379 		.ascii	"CySysWdtGetMatch\000"
 7343      73576474 
 7343      4765744D 
 7343      61746368 
 7343      00
 7344              	.LASF78:
 7345 0567 6D617463 		.ascii	"match\000"
 7345      6800
 7346              	.LASF49:
 7347 056d 43795379 		.ascii	"CySysClkIloRestoreFactoryTrim\000"
 7347      73436C6B 
 7347      496C6F52 
 7347      6573746F 
 7347      72654661 
 7348              	.LASF18:
 7349 058b 43595F53 		.ascii	"CY_SYS_TIMER_WAIT\000"
 7349      59535F54 
 7349      494D4552 
 7349      5F574149 
 7349      5400
 7350              	.LASF122:
 7351 059d 474E5520 		.ascii	"GNU C 4.9.3 20150303 (release) [ARM/embedded-4_9-br"
 7351      4320342E 
 7351      392E3320 
 7351      32303135 
 7351      30333033 
 7352 05d0 616E6368 		.ascii	"anch revision 221220] -mcpu=cortex-m0 -mthumb -g -O"
 7352      20726576 
 7352      6973696F 
 7352      6E203232 
ARM GAS  C:\Users\310295~1\AppData\Local\Temp\ccIU8zba.s 			page 210


 7352      31323230 
 7353 0603 67202D66 		.ascii	"g -ffunction-sections -ffat-lto-objects\000"
 7353      66756E63 
 7353      74696F6E 
 7353      2D736563 
 7353      74696F6E 
 7354              	.LASF34:
 7355 062b 63686563 		.ascii	"checkStatus\000"
 7355      6B537461 
 7355      74757300 
 7356              	.LASF126:
 7357 0637 63796465 		.ascii	"cydelayFreqHz\000"
 7357      6C617946 
 7357      72657148 
 7357      7A00
 7358              	.LASF96:
 7359 0645 43795379 		.ascii	"CySysWdtResetCounters\000"
 7359      73576474 
 7359      52657365 
 7359      74436F75 
 7359      6E746572 
 7360              	.LASF47:
 7361 065b 77616974 		.ascii	"waitUntilCntr1Stops\000"
 7361      556E7469 
 7361      6C436E74 
 7361      72315374 
 7361      6F707300 
 7362              	.LASF94:
 7363 066f 43795379 		.ascii	"CySysWdtClearInterrupt\000"
 7363      73576474 
 7363      436C6561 
 7363      72496E74 
 7363      65727275 
 7364              	.LASF13:
 7365 0686 666C6F61 		.ascii	"float\000"
 7365      7400
 7366              	.LASF107:
 7367 068c 43795379 		.ascii	"CySysTimerDelayUntilMatch\000"
 7367      7354696D 
 7367      65724465 
 7367      6C617955 
 7367      6E74696C 
 7368              	.LASF110:
 7369 06a6 43795379 		.ascii	"CySysTimerDelay\000"
 7369      7354696D 
 7369      65724465 
 7369      6C617900 
 7370              	.LASF24:
 7371 06b6 43795379 		.ascii	"CySysWdtLocked\000"
 7371      73576474 
 7371      4C6F636B 
 7371      656400
 7372              	.LASF120:
 7373 06c5 43794861 		.ascii	"CyHalt\000"
 7373      6C7400
 7374              	.LASF1:
 7375 06cc 756E7369 		.ascii	"unsigned char\000"
ARM GAS  C:\Users\310295~1\AppData\Local\Temp\ccIU8zba.s 			page 211


 7375      676E6564 
 7375      20636861 
 7375      7200
 7376              	.LASF33:
 7377 06da 636F6D70 		.ascii	"compensateRunningStatus\000"
 7377      656E7361 
 7377      74655275 
 7377      6E6E696E 
 7377      67537461 
 7378              	.LASF88:
 7379 06f2 6C66636C 		.ascii	"lfclkPosedgeEnabledWdtCounter\000"
 7379      6B506F73 
 7379      65646765 
 7379      456E6162 
 7379      6C656457 
 7380              	.LASF111:
 7381 0710 64656C61 		.ascii	"delay\000"
 7381      7900
 7382              	.LASF2:
 7383 0716 73686F72 		.ascii	"short int\000"
 7383      7420696E 
 7383      7400
 7384              	.LASF108:
 7385 0720 64656C61 		.ascii	"delayType\000"
 7385      79547970 
 7385      6500
 7386              	.LASF71:
 7387 072a 43795379 		.ascii	"CySysWdtDisable\000"
 7387      73576474 
 7387      44697361 
 7387      626C6500 
 7388              	.LASF44:
 7389 073a 43795379 		.ascii	"CySysClkIloTrim\000"
 7389      73436C6B 
 7389      496C6F54 
 7389      72696D00 
 7390              	.LASF23:
 7391 074a 43795379 		.ascii	"CySysClkIloEnabled\000"
 7391      73436C6B 
 7391      496C6F45 
 7391      6E61626C 
 7391      656400
 7392              	.LASF93:
 7393 075d 43795379 		.ascii	"CySysWdtGetInterruptSource\000"
 7393      73576474 
 7393      47657449 
 7393      6E746572 
 7393      72757074 
 7394              	.LASF38:
 7395 0778 696C6F41 		.ascii	"iloAccuracyInPPT\000"
 7395      63637572 
 7395      61637949 
 7395      6E505054 
 7395      00
 7396              	.LASF92:
 7397 0789 43795379 		.ascii	"CySysClkWcoStop\000"
 7397      73436C6B 
ARM GAS  C:\Users\310295~1\AppData\Local\Temp\ccIU8zba.s 			page 212


 7397      57636F53 
 7397      746F7000 
 7398              	.LASF54:
 7399 0799 43795379 		.ascii	"CySysClkWcoSetPowerMode\000"
 7399      73436C6B 
 7399      57636F53 
 7399      6574506F 
 7399      7765724D 
 7400              	.LASF104:
 7401 07b1 43795379 		.ascii	"CySysWdtDisableCounterIsr\000"
 7401      73576474 
 7401      44697361 
 7401      626C6543 
 7401      6F756E74 
 7402              	.LASF15:
 7403 07cb 63686172 		.ascii	"char\000"
 7403      00
 7404              	.LASF45:
 7405 07d0 6D6F6465 		.ascii	"mode\000"
 7405      00
 7406              	.LASF84:
 7407 07d5 43795379 		.ascii	"CySysWdtGetCount\000"
 7407      73576474 
 7407      47657443 
 7407      6F756E74 
 7407      00
 7408              	.LASF116:
 7409 07e6 64697361 		.ascii	"disableServicedIsr\000"
 7409      626C6553 
 7409      65727669 
 7409      63656449 
 7409      737200
 7410              	.LASF66:
 7411 07f9 43795379 		.ascii	"CySysWdtSetClearOnMatch\000"
 7411      73576474 
 7411      53657443 
 7411      6C656172 
 7411      4F6E4D61 
 7412              	.LASF72:
 7413 0811 43795379 		.ascii	"CySysWdtSetCascade\000"
 7413      73576474 
 7413      53657443 
 7413      61736361 
 7413      646500
 7414              	.LASF46:
 7415 0824 74696D65 		.ascii	"timeOutClocks\000"
 7415      4F757443 
 7415      6C6F636B 
 7415      7300
 7416              	.LASF48:
 7417 0832 7472696D 		.ascii	"trimRunningStatus\000"
 7417      52756E6E 
 7417      696E6753 
 7417      74617475 
 7417      7300
 7418              	.LASF65:
 7419 0844 43795379 		.ascii	"CySysWdtGetMode\000"
ARM GAS  C:\Users\310295~1\AppData\Local\Temp\ccIU8zba.s 			page 213


 7419      73576474 
 7419      4765744D 
 7419      6F646500 
 7420              	.LASF32:
 7421 0854 64657369 		.ascii	"desiredDelayInCounts\000"
 7421      72656444 
 7421      656C6179 
 7421      496E436F 
 7421      756E7473 
 7422              	.LASF51:
 7423 0869 43795379 		.ascii	"CySysClkWcoStart\000"
 7423      73436C6B 
 7423      57636F53 
 7423      74617274 
 7423      00
 7424              	.LASF95:
 7425 087a 7764744C 		.ascii	"wdtLockState\000"
 7425      6F636B53 
 7425      74617465 
 7425      00
 7426              	.LASF64:
 7427 0887 636F6E66 		.ascii	"configRegValue\000"
 7427      69675265 
 7427      6756616C 
 7427      756500
 7428              	.LASF115:
 7429 0896 6C66636C 		.ascii	"lfclkPosedgeWdtCounter0Mode\000"
 7429      6B506F73 
 7429      65646765 
 7429      57647443 
 7429      6F756E74 
 7430              	.LASF52:
 7431 08b2 43795379 		.ascii	"CySysClkWcoSetHighPowerMode\000"
 7431      73436C6B 
 7431      57636F53 
 7431      65744869 
 7431      6768506F 
 7432              	.LASF16:
 7433 08ce 63797374 		.ascii	"cystatus\000"
 7433      61747573 
 7433      00
 7434              	.LASF105:
 7435 08d7 43795379 		.ascii	"CySysWdtIsr\000"
 7435      73576474 
 7435      49737200 
 7436              	.LASF82:
 7437 08e3 43795379 		.ascii	"CySysWdtGetToggleBit\000"
 7437      73576474 
 7437      47657454 
 7437      6F67676C 
 7437      65426974 
 7438              	.LASF36:
 7439 08f8 43795379 		.ascii	"CySysClkIloCompensate\000"
 7439      73436C6B 
 7439      496C6F43 
 7439      6F6D7065 
 7439      6E736174 
ARM GAS  C:\Users\310295~1\AppData\Local\Temp\ccIU8zba.s 			page 214


 7440              	.LASF19:
 7441 090e 43595F53 		.ascii	"CY_SYS_TIMER_INTERRUPT\000"
 7441      59535F54 
 7441      494D4552 
 7441      5F494E54 
 7441      45525255 
 7442              		.ident	"GCC: (GNU Tools for ARM Embedded Processors) 4.9.3 20150303 (release) [ARM/embedded-4_9-br
