ARM GAS  C:\Users\310295~1\AppData\Local\Temp\ccIU8zba.s 			page 1


   1              		.cpu cortex-m0
   2              		.fpu softvfp
   3              		.eabi_attribute 20, 1
   4              		.eabi_attribute 21, 1
   5              		.eabi_attribute 23, 3
   6              		.eabi_attribute 24, 1
   7              		.eabi_attribute 25, 1
   8              		.eabi_attribute 26, 1
   9              		.eabi_attribute 30, 1
  10              		.eabi_attribute 34, 0
  11              		.eabi_attribute 18, 4
  12              		.code	16
  13              		.file	"CyLFClk.c"
  14              		.text
  15              	.Ltext0:
  16              		.cfi_sections	.debug_frame
  17              		.section	.text.CySysClkIloEnabled,"ax",%progbits
  18              		.align	2
  19              		.code	16
  20              		.thumb_func
  21              		.type	CySysClkIloEnabled, %function
  22              	CySysClkIloEnabled:
  23              	.LFB7:
  24              		.file 1 ".\\Generated_Source\\PSoC4\\CyLFClk.c"
   1:.\Generated_Source\PSoC4/CyLFClk.c **** /***************************************************************************//**
   2:.\Generated_Source\PSoC4/CyLFClk.c **** * \file .c
   3:.\Generated_Source\PSoC4/CyLFClk.c **** * \version 1.10
   4:.\Generated_Source\PSoC4/CyLFClk.c **** *
   5:.\Generated_Source\PSoC4/CyLFClk.c **** * \brief
   6:.\Generated_Source\PSoC4/CyLFClk.c **** *  This file provides the source code for configuring watchdog timers WDTs, 
   7:.\Generated_Source\PSoC4/CyLFClk.c **** *  low frequency clocks (LFCLK) and the Real-time Clock (RTC) component in
   8:.\Generated_Source\PSoC4/CyLFClk.c **** *  PSoC Creator for the PSoC 4 families.
   9:.\Generated_Source\PSoC4/CyLFClk.c **** *
  10:.\Generated_Source\PSoC4/CyLFClk.c **** ********************************************************************************
  11:.\Generated_Source\PSoC4/CyLFClk.c **** * \copyright
  12:.\Generated_Source\PSoC4/CyLFClk.c **** * Copyright 2008-2016, Cypress Semiconductor Corporation.  All rights reserved.
  13:.\Generated_Source\PSoC4/CyLFClk.c **** * You may use this file only in accordance with the license, terms, conditions,
  14:.\Generated_Source\PSoC4/CyLFClk.c **** * disclaimers, and limitations in the end user license agreement accompanying
  15:.\Generated_Source\PSoC4/CyLFClk.c **** * the software package with which this file was provided.
  16:.\Generated_Source\PSoC4/CyLFClk.c **** *******************************************************************************/
  17:.\Generated_Source\PSoC4/CyLFClk.c **** 
  18:.\Generated_Source\PSoC4/CyLFClk.c **** 
  19:.\Generated_Source\PSoC4/CyLFClk.c **** #include "CyLFClk.h"
  20:.\Generated_Source\PSoC4/CyLFClk.c **** #include "CyLib.h"
  21:.\Generated_Source\PSoC4/CyLFClk.c **** 
  22:.\Generated_Source\PSoC4/CyLFClk.c **** #if (CY_IP_WCO && CY_IP_SRSSV2)
  23:.\Generated_Source\PSoC4/CyLFClk.c ****     static uint32 CySysClkGetLfclkSource(void);
  24:.\Generated_Source\PSoC4/CyLFClk.c **** #endif /* (CY_IP_WCO && CY_IP_SRSSV2) */
  25:.\Generated_Source\PSoC4/CyLFClk.c **** 
  26:.\Generated_Source\PSoC4/CyLFClk.c **** 
  27:.\Generated_Source\PSoC4/CyLFClk.c **** #if(CY_IP_SRSSV2 && (!(CY_PSOC4_4100 || CY_PSOC4_4200)))
  28:.\Generated_Source\PSoC4/CyLFClk.c ****     /* Default Ilo Trim Register value for ILO trimming*/
  29:.\Generated_Source\PSoC4/CyLFClk.c ****     static volatile uint16 defaultIloTrimRegValue = CY_SYS_CLK_ILO_TRIM_DEFAULT_VALUE;
  30:.\Generated_Source\PSoC4/CyLFClk.c **** #endif /* (CY_IP_SRSSV2 && (!(CY_PSOC4_4100 || CY_PSOC4_4200))) */
  31:.\Generated_Source\PSoC4/CyLFClk.c **** 
  32:.\Generated_Source\PSoC4/CyLFClk.c **** #if(CY_IP_SRSSV2)
  33:.\Generated_Source\PSoC4/CyLFClk.c ****     /* CySysClkLfclkPosedgeCatch() / CySysClkLfclkPosedgeRestore() */
ARM GAS  C:\Users\310295~1\AppData\Local\Temp\ccIU8zba.s 			page 2


  34:.\Generated_Source\PSoC4/CyLFClk.c ****     static uint32 lfclkPosedgeWdtCounter0Enabled = 0u;
  35:.\Generated_Source\PSoC4/CyLFClk.c ****     static uint32 lfclkPosedgeWdtCounter0Mode    = CY_SYS_WDT_MODE_NONE;
  36:.\Generated_Source\PSoC4/CyLFClk.c **** 
  37:.\Generated_Source\PSoC4/CyLFClk.c ****     static volatile uint32 disableServicedIsr = 0uL;
  38:.\Generated_Source\PSoC4/CyLFClk.c ****     static volatile uint32 wdtIsrMask = CY_SYS_WDT_COUNTER0_INT |\
  39:.\Generated_Source\PSoC4/CyLFClk.c ****                                         CY_SYS_WDT_COUNTER1_INT |\
  40:.\Generated_Source\PSoC4/CyLFClk.c ****                                         CY_SYS_WDT_COUNTER2_INT;
  41:.\Generated_Source\PSoC4/CyLFClk.c **** 
  42:.\Generated_Source\PSoC4/CyLFClk.c ****     static const uint32 counterIntMaskTbl[CY_WDT_NUM_OF_WDT] = {CY_SYS_WDT_COUNTER0_INT,
  43:.\Generated_Source\PSoC4/CyLFClk.c ****                                                                 CY_SYS_WDT_COUNTER1_INT,
  44:.\Generated_Source\PSoC4/CyLFClk.c ****                                                                 CY_SYS_WDT_COUNTER2_INT};
  45:.\Generated_Source\PSoC4/CyLFClk.c **** 
  46:.\Generated_Source\PSoC4/CyLFClk.c ****     static void CySysClkLfclkPosedgeCatch(void);
  47:.\Generated_Source\PSoC4/CyLFClk.c ****     static void CySysClkLfclkPosedgeRestore(void);
  48:.\Generated_Source\PSoC4/CyLFClk.c **** 
  49:.\Generated_Source\PSoC4/CyLFClk.c ****     static uint32 CySysWdtLocked(void);
  50:.\Generated_Source\PSoC4/CyLFClk.c ****     static uint32 CySysClkIloEnabled(void);
  51:.\Generated_Source\PSoC4/CyLFClk.c **** #endif /* (CY_IP_SRSSV2) */
  52:.\Generated_Source\PSoC4/CyLFClk.c **** 
  53:.\Generated_Source\PSoC4/CyLFClk.c **** #if (CY_IP_SRSSLT && CY_IP_WCO && CY_IP_WCO_WDT_EN)
  54:.\Generated_Source\PSoC4/CyLFClk.c ****     static uint32 CySysClkGetTimerSource(void);
  55:.\Generated_Source\PSoC4/CyLFClk.c ****     static volatile uint32 disableTimerServicedIsr = 0uL;
  56:.\Generated_Source\PSoC4/CyLFClk.c ****     static volatile uint32 timerIsrMask = CY_SYS_TIMER0_INT |\
  57:.\Generated_Source\PSoC4/CyLFClk.c ****                                           CY_SYS_TIMER1_INT |\
  58:.\Generated_Source\PSoC4/CyLFClk.c ****                                           CY_SYS_TIMER2_INT;
  59:.\Generated_Source\PSoC4/CyLFClk.c **** 
  60:.\Generated_Source\PSoC4/CyLFClk.c ****     static const uint32 counterTimerIntMaskTbl[CY_SYS_NUM_OF_TIMERS] = {CY_SYS_TIMER0_INT,
  61:.\Generated_Source\PSoC4/CyLFClk.c ****                                                                         CY_SYS_TIMER1_INT,
  62:.\Generated_Source\PSoC4/CyLFClk.c ****                                                                         CY_SYS_TIMER2_INT};
  63:.\Generated_Source\PSoC4/CyLFClk.c **** 
  64:.\Generated_Source\PSoC4/CyLFClk.c ****     static cyTimerCallback cySysTimerCallback[CY_SYS_NUM_OF_TIMERS] = {(void *)0, (void *)0, (void 
  65:.\Generated_Source\PSoC4/CyLFClk.c **** #endif /* (CY_IP_SRSSLT && CY_IP_WCO && CY_IP_WCO_DWT_EN) */
  66:.\Generated_Source\PSoC4/CyLFClk.c **** 
  67:.\Generated_Source\PSoC4/CyLFClk.c **** #if(CY_IP_SRSSV2)
  68:.\Generated_Source\PSoC4/CyLFClk.c ****     static cyWdtCallback cySysWdtCallback[CY_WDT_NUM_OF_WDT] = {(void *)0, (void *)0, (void *)0};
  69:.\Generated_Source\PSoC4/CyLFClk.c **** #else
  70:.\Generated_Source\PSoC4/CyLFClk.c ****     static cyWdtCallback cySysWdtCallback = (void *)0;
  71:.\Generated_Source\PSoC4/CyLFClk.c **** #endif /* (CY_IP_SRSSV2) */
  72:.\Generated_Source\PSoC4/CyLFClk.c **** 
  73:.\Generated_Source\PSoC4/CyLFClk.c **** 
  74:.\Generated_Source\PSoC4/CyLFClk.c **** /*******************************************************************************
  75:.\Generated_Source\PSoC4/CyLFClk.c **** * Function Name: CySysClkIloStart
  76:.\Generated_Source\PSoC4/CyLFClk.c **** ****************************************************************************//**
  77:.\Generated_Source\PSoC4/CyLFClk.c **** * \brief
  78:.\Generated_Source\PSoC4/CyLFClk.c **** *  Enables ILO.
  79:.\Generated_Source\PSoC4/CyLFClk.c **** *
  80:.\Generated_Source\PSoC4/CyLFClk.c **** *  Refer to the device datasheet for the ILO startup time.
  81:.\Generated_Source\PSoC4/CyLFClk.c **** *
  82:.\Generated_Source\PSoC4/CyLFClk.c **** *******************************************************************************/
  83:.\Generated_Source\PSoC4/CyLFClk.c **** void CySysClkIloStart(void)
  84:.\Generated_Source\PSoC4/CyLFClk.c **** {
  85:.\Generated_Source\PSoC4/CyLFClk.c ****     CY_SYS_CLK_ILO_CONFIG_REG |= CY_SYS_CLK_ILO_CONFIG_ENABLE;
  86:.\Generated_Source\PSoC4/CyLFClk.c **** }
  87:.\Generated_Source\PSoC4/CyLFClk.c **** 
  88:.\Generated_Source\PSoC4/CyLFClk.c **** 
  89:.\Generated_Source\PSoC4/CyLFClk.c **** /*******************************************************************************
  90:.\Generated_Source\PSoC4/CyLFClk.c **** * Function Name: CySysClkIloStop
ARM GAS  C:\Users\310295~1\AppData\Local\Temp\ccIU8zba.s 			page 3


  91:.\Generated_Source\PSoC4/CyLFClk.c **** ****************************************************************************//**
  92:.\Generated_Source\PSoC4/CyLFClk.c **** * \brief
  93:.\Generated_Source\PSoC4/CyLFClk.c **** *  Disables the ILO.
  94:.\Generated_Source\PSoC4/CyLFClk.c **** *
  95:.\Generated_Source\PSoC4/CyLFClk.c **** *  This function has no effect if WDT is locked (CySysWdtLock() is
  96:.\Generated_Source\PSoC4/CyLFClk.c **** *  called). Call CySysWdtUnlock() to unlock WDT and stop ILO.
  97:.\Generated_Source\PSoC4/CyLFClk.c **** *
  98:.\Generated_Source\PSoC4/CyLFClk.c **** *  PSoC 4100 / PSoC 4200: Note that ILO is required for WDT's operation.
  99:.\Generated_Source\PSoC4/CyLFClk.c **** *
 100:.\Generated_Source\PSoC4/CyLFClk.c **** *  PSoC 4100 BLE / PSoC 4200 BLE / PSoC 4200L / PSoC 4100M / 
 101:.\Generated_Source\PSoC4/CyLFClk.c **** *  PSoC 4200M:
 102:.\Generated_Source\PSoC4/CyLFClk.c **** *  Stopping ILO affects the peripheral clocked by LFCLK, if
 103:.\Generated_Source\PSoC4/CyLFClk.c **** *  LFCLK is configured to be sourced by ILO.
 104:.\Generated_Source\PSoC4/CyLFClk.c **** *
 105:.\Generated_Source\PSoC4/CyLFClk.c **** *  If the ILO is disabled, all blocks run by ILO will stop functioning.
 106:.\Generated_Source\PSoC4/CyLFClk.c **** *
 107:.\Generated_Source\PSoC4/CyLFClk.c **** *******************************************************************************/
 108:.\Generated_Source\PSoC4/CyLFClk.c **** void CySysClkIloStop(void)
 109:.\Generated_Source\PSoC4/CyLFClk.c **** {
 110:.\Generated_Source\PSoC4/CyLFClk.c ****     #if(CY_IP_SRSSV2)
 111:.\Generated_Source\PSoC4/CyLFClk.c ****         uint8  interruptState;
 112:.\Generated_Source\PSoC4/CyLFClk.c **** 
 113:.\Generated_Source\PSoC4/CyLFClk.c ****         /* Do nothing if WDT is locked or ILO is disabled */
 114:.\Generated_Source\PSoC4/CyLFClk.c ****         if (0u == CySysWdtLocked())
 115:.\Generated_Source\PSoC4/CyLFClk.c ****         {
 116:.\Generated_Source\PSoC4/CyLFClk.c ****             if (0u != CySysClkIloEnabled())
 117:.\Generated_Source\PSoC4/CyLFClk.c ****             {
 118:.\Generated_Source\PSoC4/CyLFClk.c **** 
 119:.\Generated_Source\PSoC4/CyLFClk.c ****             #if (CY_IP_WCO)
 120:.\Generated_Source\PSoC4/CyLFClk.c ****                 if (CY_SYS_CLK_LFCLK_SRC_ILO == CySysClkGetLfclkSource())
 121:.\Generated_Source\PSoC4/CyLFClk.c ****                 {
 122:.\Generated_Source\PSoC4/CyLFClk.c ****             #endif /* (CY_IP_WCO) */
 123:.\Generated_Source\PSoC4/CyLFClk.c **** 
 124:.\Generated_Source\PSoC4/CyLFClk.c ****                 interruptState = CyEnterCriticalSection();
 125:.\Generated_Source\PSoC4/CyLFClk.c ****                 CySysClkLfclkPosedgeCatch();
 126:.\Generated_Source\PSoC4/CyLFClk.c ****                 CY_SYS_CLK_ILO_CONFIG_REG &= (uint32) ( ~(uint32)CY_SYS_CLK_ILO_CONFIG_ENABLE);
 127:.\Generated_Source\PSoC4/CyLFClk.c ****                 CySysClkLfclkPosedgeRestore();
 128:.\Generated_Source\PSoC4/CyLFClk.c ****                 CyExitCriticalSection(interruptState);
 129:.\Generated_Source\PSoC4/CyLFClk.c **** 
 130:.\Generated_Source\PSoC4/CyLFClk.c ****             #if (CY_IP_WCO)
 131:.\Generated_Source\PSoC4/CyLFClk.c ****                 }
 132:.\Generated_Source\PSoC4/CyLFClk.c ****                 else /* Safe to disable - shortened pulse does not impact peripheral */
 133:.\Generated_Source\PSoC4/CyLFClk.c ****                 {
 134:.\Generated_Source\PSoC4/CyLFClk.c ****                     CY_SYS_CLK_ILO_CONFIG_REG &= (uint32) ( ~(uint32)CY_SYS_CLK_ILO_CONFIG_ENABLE);
 135:.\Generated_Source\PSoC4/CyLFClk.c ****                 }
 136:.\Generated_Source\PSoC4/CyLFClk.c ****             #endif /* (CY_IP_WCO) */
 137:.\Generated_Source\PSoC4/CyLFClk.c **** 
 138:.\Generated_Source\PSoC4/CyLFClk.c ****             }
 139:.\Generated_Source\PSoC4/CyLFClk.c ****         }
 140:.\Generated_Source\PSoC4/CyLFClk.c ****     #else
 141:.\Generated_Source\PSoC4/CyLFClk.c ****         CY_SYS_CLK_ILO_CONFIG_REG &= ( uint32 ) ( ~( uint32 )CY_SYS_CLK_ILO_CONFIG_ENABLE);
 142:.\Generated_Source\PSoC4/CyLFClk.c ****     #endif /* (CY_IP_SRSSV2) */
 143:.\Generated_Source\PSoC4/CyLFClk.c **** }
 144:.\Generated_Source\PSoC4/CyLFClk.c **** 
 145:.\Generated_Source\PSoC4/CyLFClk.c **** 
 146:.\Generated_Source\PSoC4/CyLFClk.c **** /******************************************************************************
 147:.\Generated_Source\PSoC4/CyLFClk.c **** * Function Name: CySysClkIloStartMeasurement
ARM GAS  C:\Users\310295~1\AppData\Local\Temp\ccIU8zba.s 			page 4


 148:.\Generated_Source\PSoC4/CyLFClk.c **** ***************************************************************************//**
 149:.\Generated_Source\PSoC4/CyLFClk.c **** * \brief
 150:.\Generated_Source\PSoC4/CyLFClk.c **** * Starts the ILO accuracy measurement.
 151:.\Generated_Source\PSoC4/CyLFClk.c **** *
 152:.\Generated_Source\PSoC4/CyLFClk.c **** * This function is non-blocking and needs to be called before using the 
 153:.\Generated_Source\PSoC4/CyLFClk.c **** * CySysClkIloTrim() and CySysClkIloCompensate() API.
 154:.\Generated_Source\PSoC4/CyLFClk.c **** *
 155:.\Generated_Source\PSoC4/CyLFClk.c **** * This API configures measurement counters to be sourced by SysClk (Counter 1)
 156:.\Generated_Source\PSoC4/CyLFClk.c **** * and ILO (Counter 2). 
 157:.\Generated_Source\PSoC4/CyLFClk.c **** *
 158:.\Generated_Source\PSoC4/CyLFClk.c **** * \note SysClk should be sourced by IMO. Otherwise CySysClkIloTrim() and 
 159:.\Generated_Source\PSoC4/CyLFClk.c **** * CySysClkIloCompensate() API can give incorrect results.
 160:.\Generated_Source\PSoC4/CyLFClk.c **** *
 161:.\Generated_Source\PSoC4/CyLFClk.c **** * In addition, this API stores the factory ILO trim settings on the first call 
 162:.\Generated_Source\PSoC4/CyLFClk.c **** * after reset. This stored factory setting is used by the 
 163:.\Generated_Source\PSoC4/CyLFClk.c **** * CySysClkIloRestoreFactoryTrim() API to restore the ILO factory trim. 
 164:.\Generated_Source\PSoC4/CyLFClk.c **** * Hence, it is important to call this API before restoring the ILO 
 165:.\Generated_Source\PSoC4/CyLFClk.c **** * factory trim settings.
 166:.\Generated_Source\PSoC4/CyLFClk.c **** *
 167:.\Generated_Source\PSoC4/CyLFClk.c **** ******************************************************************************/
 168:.\Generated_Source\PSoC4/CyLFClk.c **** void CySysClkIloStartMeasurement(void)
 169:.\Generated_Source\PSoC4/CyLFClk.c **** {
 170:.\Generated_Source\PSoC4/CyLFClk.c **** #if(CY_IP_SRSSV2 && (!(CY_PSOC4_4100 || CY_PSOC4_4200)))
 171:.\Generated_Source\PSoC4/CyLFClk.c ****     static uint8 iloTrimTrig = 0u;
 172:.\Generated_Source\PSoC4/CyLFClk.c **** 
 173:.\Generated_Source\PSoC4/CyLFClk.c ****     /* Write default ILO trim value while ILO starting ( Cypress ID 225244 )*/
 174:.\Generated_Source\PSoC4/CyLFClk.c ****     if (0u == iloTrimTrig)
 175:.\Generated_Source\PSoC4/CyLFClk.c ****     {
 176:.\Generated_Source\PSoC4/CyLFClk.c ****         defaultIloTrimRegValue = ((uint8)(CY_SYS_CLK_ILO_TRIM_REG & CY_SYS_CLK_ILO_TRIM_MASK));
 177:.\Generated_Source\PSoC4/CyLFClk.c ****         iloTrimTrig = 1u;
 178:.\Generated_Source\PSoC4/CyLFClk.c ****     }
 179:.\Generated_Source\PSoC4/CyLFClk.c **** #endif /* (CY_IP_SRSSV2 && (!(CY_PSOC4_4100 || CY_PSOC4_4200))) */
 180:.\Generated_Source\PSoC4/CyLFClk.c **** 
 181:.\Generated_Source\PSoC4/CyLFClk.c ****     /* Configure measurement counters to source by SysClk (Counter 1) and ILO (Counter 2)*/
 182:.\Generated_Source\PSoC4/CyLFClk.c ****     CY_SYS_CLK_DFT_REG = (CY_SYS_CLK_DFT_REG & (uint32) ~CY_SYS_CLK_DFT_SELECT_DEFAULT_MASK) |
 183:.\Generated_Source\PSoC4/CyLFClk.c ****                             CY_SYS_CLK_SEL_ILO_DFT_SOURCE; 
 184:.\Generated_Source\PSoC4/CyLFClk.c **** 
 185:.\Generated_Source\PSoC4/CyLFClk.c ****     CY_SYS_TST_DDFT_CTRL_REG = (CY_SYS_TST_DDFT_CTRL_REG & (uint32) ~ CY_SYS_TST_DDFT_CTRL_REG_DEFA
 186:.\Generated_Source\PSoC4/CyLFClk.c ****                             CY_SYS_TST_DDFT_CTRL_REG_SEL2_CLK1;
 187:.\Generated_Source\PSoC4/CyLFClk.c **** }
 188:.\Generated_Source\PSoC4/CyLFClk.c **** 
 189:.\Generated_Source\PSoC4/CyLFClk.c **** 
 190:.\Generated_Source\PSoC4/CyLFClk.c **** /******************************************************************************
 191:.\Generated_Source\PSoC4/CyLFClk.c **** * Function Name: CySysClkIloStopMeasurement
 192:.\Generated_Source\PSoC4/CyLFClk.c **** ***************************************************************************//**
 193:.\Generated_Source\PSoC4/CyLFClk.c **** * \brief
 194:.\Generated_Source\PSoC4/CyLFClk.c **** * Stops the ILO accuracy measurement.
 195:.\Generated_Source\PSoC4/CyLFClk.c **** *
 196:.\Generated_Source\PSoC4/CyLFClk.c **** * Calling this function immediately stops the the ILO frequency measurement.
 197:.\Generated_Source\PSoC4/CyLFClk.c **** * This function should be called before placing the device to deepsleep, if 
 198:.\Generated_Source\PSoC4/CyLFClk.c **** * CySysClkIloStartMeasurement() API was called before. 
 199:.\Generated_Source\PSoC4/CyLFClk.c **** *
 200:.\Generated_Source\PSoC4/CyLFClk.c **** ******************************************************************************/
 201:.\Generated_Source\PSoC4/CyLFClk.c **** void CySysClkIloStopMeasurement(void)
 202:.\Generated_Source\PSoC4/CyLFClk.c **** {
 203:.\Generated_Source\PSoC4/CyLFClk.c ****     /* Set default configurations in 11...8 DFT register bits to zero */
 204:.\Generated_Source\PSoC4/CyLFClk.c ****     CY_SYS_CLK_DFT_REG &= ~CY_SYS_CLK_DFT_SELECT_DEFAULT_MASK;
ARM GAS  C:\Users\310295~1\AppData\Local\Temp\ccIU8zba.s 			page 5


 205:.\Generated_Source\PSoC4/CyLFClk.c ****     #if(CY_IP_SRSSLT)
 206:.\Generated_Source\PSoC4/CyLFClk.c ****         CY_SYS_TST_DDFT_CTRL_REG &= ((uint32) CY_SYS_TST_DDFT_CTRL_REG_DEFAULT_MASK);
 207:.\Generated_Source\PSoC4/CyLFClk.c ****     #endif /* (CY_IP_SRSSLT) */
 208:.\Generated_Source\PSoC4/CyLFClk.c **** }
 209:.\Generated_Source\PSoC4/CyLFClk.c **** 
 210:.\Generated_Source\PSoC4/CyLFClk.c **** 
 211:.\Generated_Source\PSoC4/CyLFClk.c **** /******************************************************************************
 212:.\Generated_Source\PSoC4/CyLFClk.c **** * Function Name: CySysClkIloCompensate
 213:.\Generated_Source\PSoC4/CyLFClk.c **** ***************************************************************************//**
 214:.\Generated_Source\PSoC4/CyLFClk.c **** * \brief
 215:.\Generated_Source\PSoC4/CyLFClk.c **** * This API measures the current ILO accuracy.
 216:.\Generated_Source\PSoC4/CyLFClk.c **** *
 217:.\Generated_Source\PSoC4/CyLFClk.c **** * Basing on the measured frequency the required number of ILO cycles for a 
 218:.\Generated_Source\PSoC4/CyLFClk.c **** * given delay (in microseconds) is obtained. The desired delay that needs to 
 219:.\Generated_Source\PSoC4/CyLFClk.c **** * be compensated is passed through the desiredDelay parameter. The compensated 
 220:.\Generated_Source\PSoC4/CyLFClk.c **** * cycle count is returned through the compesatedCycles pointer.
 221:.\Generated_Source\PSoC4/CyLFClk.c **** * The compensated ILO cycles can then be used to define the WDT period value, 
 222:.\Generated_Source\PSoC4/CyLFClk.c **** * effectively compensating for the ILO inaccuracy and allowing a more 
 223:.\Generated_Source\PSoC4/CyLFClk.c **** * accurate WDT interrupt generation.
 224:.\Generated_Source\PSoC4/CyLFClk.c **** *
 225:.\Generated_Source\PSoC4/CyLFClk.c **** * CySysClkIloStartMeasurement() API should be called prior to calling this API. 
 226:.\Generated_Source\PSoC4/CyLFClk.c **** *
 227:.\Generated_Source\PSoC4/CyLFClk.c **** * \note SysClk should be sourced by IMO. Otherwise CySysClkIloTrim() and 
 228:.\Generated_Source\PSoC4/CyLFClk.c **** * CySysClkIloCompensate() API can give incorrect results.
 229:.\Generated_Source\PSoC4/CyLFClk.c **** *
 230:.\Generated_Source\PSoC4/CyLFClk.c **** * \note If the System clock frequency is changed in runtime, the CyDelayFreq() 
 231:.\Generated_Source\PSoC4/CyLFClk.c **** * with the appropriate parameter (Frequency of bus clock in Hertz) should be 
 232:.\Generated_Source\PSoC4/CyLFClk.c **** * called before calling a next CySysClkIloCompensate().
 233:.\Generated_Source\PSoC4/CyLFClk.c **** *
 234:.\Generated_Source\PSoC4/CyLFClk.c **** * \warning Do not enter deep sleep mode until the function returns CYRET_SUCCESS.
 235:.\Generated_Source\PSoC4/CyLFClk.c **** *
 236:.\Generated_Source\PSoC4/CyLFClk.c **** * \param desiredDelay Required delay in microseconds.
 237:.\Generated_Source\PSoC4/CyLFClk.c **** *
 238:.\Generated_Source\PSoC4/CyLFClk.c **** * \param *compensatedCycles The pointer to the variable in which the required
 239:.\Generated_Source\PSoC4/CyLFClk.c **** * number of ILO cycles for the given delay will be returned.
 240:.\Generated_Source\PSoC4/CyLFClk.c **** *
 241:.\Generated_Source\PSoC4/CyLFClk.c **** * \details
 242:.\Generated_Source\PSoC4/CyLFClk.c **** * The value returned in *compensatedCycles pointer is not valid until the 
 243:.\Generated_Source\PSoC4/CyLFClk.c **** * function returns CYRET_SUCCESS.
 244:.\Generated_Source\PSoC4/CyLFClk.c **** *
 245:.\Generated_Source\PSoC4/CyLFClk.c **** * The desiredDelay parameter value should be in next range: <br>From 100 to 
 246:.\Generated_Source\PSoC4/CyLFClk.c **** * 2 000 000 microseconds for PSoC 4000 / PSoC 4000S / PSoC 4100S / PSoC Analog 
 247:.\Generated_Source\PSoC4/CyLFClk.c **** * Coprocessor devices.<br>From 100 to 4 000 000 000 microseconds for 
 248:.\Generated_Source\PSoC4/CyLFClk.c **** * PSoC 4100 / PSoC 4200 / PSoC 4100 BLE / PSoC 4200 BLE / PRoC BLE /
 249:.\Generated_Source\PSoC4/CyLFClk.c **** * PSoC 4200L / PSoC 4100M /PSoC 4200M devices.
 250:.\Generated_Source\PSoC4/CyLFClk.c **** *
 251:.\Generated_Source\PSoC4/CyLFClk.c **** * \return CYRET_SUCCESS - The compensation process is complete and the 
 252:.\Generated_Source\PSoC4/CyLFClk.c **** * compensated cycles value is returned in the compensatedCycles pointer.
 253:.\Generated_Source\PSoC4/CyLFClk.c **** *
 254:.\Generated_Source\PSoC4/CyLFClk.c **** * \return CYRET_STARTED - Indicates measurement is in progress. It is 
 255:.\Generated_Source\PSoC4/CyLFClk.c **** * strongly recommended to do not make pauses between API calling. The 
 256:.\Generated_Source\PSoC4/CyLFClk.c **** * function should be called repeatedly until the API returns CYRET_SUCCESS.
 257:.\Generated_Source\PSoC4/CyLFClk.c **** *
 258:.\Generated_Source\PSoC4/CyLFClk.c **** * \return CYRET_INVALID_STATE - Indicates that measurement not started. 
 259:.\Generated_Source\PSoC4/CyLFClk.c **** * The user should call CySysClkIloStartMeasurement() API before calling 
 260:.\Generated_Source\PSoC4/CyLFClk.c **** * this API.
 261:.\Generated_Source\PSoC4/CyLFClk.c **** *
ARM GAS  C:\Users\310295~1\AppData\Local\Temp\ccIU8zba.s 			page 6


 262:.\Generated_Source\PSoC4/CyLFClk.c **** * \note For a correct WDT or DeepSleep Timers functioning with ILO compensating 
 263:.\Generated_Source\PSoC4/CyLFClk.c **** * the CySysClkIloCompensate() should be called before WDT or DeepSleep Timers 
 264:.\Generated_Source\PSoC4/CyLFClk.c **** * enabling.
 265:.\Generated_Source\PSoC4/CyLFClk.c **** *
 266:.\Generated_Source\PSoC4/CyLFClk.c **** *******************************************************************************/
 267:.\Generated_Source\PSoC4/CyLFClk.c **** cystatus CySysClkIloCompensate(uint32 desiredDelay , uint32* compensatedCycles)
 268:.\Generated_Source\PSoC4/CyLFClk.c **** {
 269:.\Generated_Source\PSoC4/CyLFClk.c ****     uint32 iloCompensatedCycles;
 270:.\Generated_Source\PSoC4/CyLFClk.c ****     uint32 desiredDelayInCounts;
 271:.\Generated_Source\PSoC4/CyLFClk.c ****     static uint32 compensateRunningStatus = CY_SYS_CLK_TRIM_OR_COMP_FINISHED;
 272:.\Generated_Source\PSoC4/CyLFClk.c ****     uint32 checkStatus;
 273:.\Generated_Source\PSoC4/CyLFClk.c ****     cystatus returnStatus;
 274:.\Generated_Source\PSoC4/CyLFClk.c **** 
 275:.\Generated_Source\PSoC4/CyLFClk.c ****     checkStatus = (uint32) (CY_SYS_CLK_DFT_REG & (uint32) CY_SYS_TST_DDFT_CTRL_REG_DEFAULT_MASK);
 276:.\Generated_Source\PSoC4/CyLFClk.c **** 
 277:.\Generated_Source\PSoC4/CyLFClk.c ****     /* Check if CySysStartMeasurement was called before */
 278:.\Generated_Source\PSoC4/CyLFClk.c ****     if((checkStatus == CY_SYS_CLK_SEL_ILO_DFT_SOURCE) && 
 279:.\Generated_Source\PSoC4/CyLFClk.c ****        (CY_SYS_TST_DDFT_CTRL_REG == CY_SYS_TST_DDFT_CTRL_REG_SEL2_CLK1) &&
 280:.\Generated_Source\PSoC4/CyLFClk.c ****        (CY_SYS_CLK_MAX_DELAY_US >= desiredDelay) &&
 281:.\Generated_Source\PSoC4/CyLFClk.c ****        (CY_SYS_CLK_MIN_DELAY_US <= desiredDelay) &&
 282:.\Generated_Source\PSoC4/CyLFClk.c ****        (compensatedCycles !=  NULL))
 283:.\Generated_Source\PSoC4/CyLFClk.c ****     {
 284:.\Generated_Source\PSoC4/CyLFClk.c ****         if(CY_SYS_CLK_TRIM_OR_COMP_FINISHED != compensateRunningStatus)
 285:.\Generated_Source\PSoC4/CyLFClk.c ****         {
 286:.\Generated_Source\PSoC4/CyLFClk.c ****             /* Wait until counter 1 stopped counting and after it calculate compensated cycles */
 287:.\Generated_Source\PSoC4/CyLFClk.c ****             if(0u != (CY_SYS_CNT_REG1_REG & CY_SYS_CLK_ILO_CALIBR_COMPLETE_MASK))
 288:.\Generated_Source\PSoC4/CyLFClk.c ****             {
 289:.\Generated_Source\PSoC4/CyLFClk.c ****                 if (0u != CY_SYS_CNT_REG2_REG)
 290:.\Generated_Source\PSoC4/CyLFClk.c ****                 {
 291:.\Generated_Source\PSoC4/CyLFClk.c ****                     /* Calculate required number of ILO cycles for given delay */
 292:.\Generated_Source\PSoC4/CyLFClk.c ****                     #if(CY_IP_SRSSV2)
 293:.\Generated_Source\PSoC4/CyLFClk.c ****                         if (CY_SYS_CLK_DELAY_COUNTS_LIMIT < desiredDelay)
 294:.\Generated_Source\PSoC4/CyLFClk.c ****                         {
 295:.\Generated_Source\PSoC4/CyLFClk.c ****                             desiredDelayInCounts = (desiredDelay / CY_SYS_CLK_ILO_PERIOD);
 296:.\Generated_Source\PSoC4/CyLFClk.c ****                             iloCompensatedCycles = 
 297:.\Generated_Source\PSoC4/CyLFClk.c ****                             (((CY_SYS_CNT_REG2_REG * cydelayFreqHz) / (cydelayFreqHz >> CY_SYS_CLK_
 298:.\Generated_Source\PSoC4/CyLFClk.c ****                                 CY_SYS_CLK_ILO_FREQ_2MSB) * (desiredDelayInCounts / CY_SYS_CLK_ILO_
 299:.\Generated_Source\PSoC4/CyLFClk.c ****                         }
 300:.\Generated_Source\PSoC4/CyLFClk.c ****                         else
 301:.\Generated_Source\PSoC4/CyLFClk.c ****                         {
 302:.\Generated_Source\PSoC4/CyLFClk.c ****                             desiredDelayInCounts = ((desiredDelay * CY_SYS_CLK_COEF_PHUNDRED) + 
 303:.\Generated_Source\PSoC4/CyLFClk.c ****                                                      CY_SYS_CLK_HALF_OF_CLOCK) / CY_SYS_CLK_ILO_PER
 304:.\Generated_Source\PSoC4/CyLFClk.c **** 
 305:.\Generated_Source\PSoC4/CyLFClk.c ****                             iloCompensatedCycles = (((CY_SYS_CNT_REG2_REG * cydelayFreqHz) / 
 306:.\Generated_Source\PSoC4/CyLFClk.c ****                                                      (cydelayFreqHz >> CY_SYS_CLK_SYS_CLK_DEVIDER))
 307:.\Generated_Source\PSoC4/CyLFClk.c ****                                                      desiredDelayInCounts) / CY_SYS_CLK_ILO_DESIRED
 308:.\Generated_Source\PSoC4/CyLFClk.c ****                         }
 309:.\Generated_Source\PSoC4/CyLFClk.c ****                     #else /* (CY_IP_SRSSLT) */
 310:.\Generated_Source\PSoC4/CyLFClk.c ****                         desiredDelayInCounts = ((desiredDelay * CY_SYS_CLK_COEF_PHUNDRED) + CY_SYS_
 311:.\Generated_Source\PSoC4/CyLFClk.c ****                                                                                            CY_SYS_C
 312:.\Generated_Source\PSoC4/CyLFClk.c ****                         if(CY_SYS_CLK_MAX_LITE_NUMBER < desiredDelayInCounts)
 313:.\Generated_Source\PSoC4/CyLFClk.c ****                         {
 314:.\Generated_Source\PSoC4/CyLFClk.c ****                             iloCompensatedCycles = (((CY_SYS_CNT_REG2_REG * cydelayFreqHz) / (cydel
 315:.\Generated_Source\PSoC4/CyLFClk.c ****                                                    CY_SYS_CLK_SYS_CLK_DEVIDER)) / CY_SYS_CLK_ILO_FR
 316:.\Generated_Source\PSoC4/CyLFClk.c ****                                                    (desiredDelayInCounts / CY_SYS_CLK_ILO_FREQ_3LSB
 317:.\Generated_Source\PSoC4/CyLFClk.c ****                         }
 318:.\Generated_Source\PSoC4/CyLFClk.c ****                         else
ARM GAS  C:\Users\310295~1\AppData\Local\Temp\ccIU8zba.s 			page 7


 319:.\Generated_Source\PSoC4/CyLFClk.c ****                         {
 320:.\Generated_Source\PSoC4/CyLFClk.c ****                             iloCompensatedCycles = (((CY_SYS_CNT_REG2_REG * cydelayFreqHz) / 
 321:.\Generated_Source\PSoC4/CyLFClk.c ****                                                      (cydelayFreqHz >> CY_SYS_CLK_SYS_CLK_DEVIDER))
 322:.\Generated_Source\PSoC4/CyLFClk.c ****                                                      desiredDelayInCounts) / CY_SYS_CLK_ILO_DESIRED
 323:.\Generated_Source\PSoC4/CyLFClk.c ****                         }
 324:.\Generated_Source\PSoC4/CyLFClk.c ****                     #endif /* (CY_IP_SRSSV2) */
 325:.\Generated_Source\PSoC4/CyLFClk.c **** 
 326:.\Generated_Source\PSoC4/CyLFClk.c ****                     *compensatedCycles = iloCompensatedCycles;
 327:.\Generated_Source\PSoC4/CyLFClk.c ****                     compensateRunningStatus = CY_SYS_CLK_TRIM_OR_COMP_FINISHED;
 328:.\Generated_Source\PSoC4/CyLFClk.c ****                     returnStatus = CYRET_SUCCESS;
 329:.\Generated_Source\PSoC4/CyLFClk.c ****                 }
 330:.\Generated_Source\PSoC4/CyLFClk.c ****                 else
 331:.\Generated_Source\PSoC4/CyLFClk.c ****                 {
 332:.\Generated_Source\PSoC4/CyLFClk.c ****                     returnStatus  = CYRET_INVALID_STATE;
 333:.\Generated_Source\PSoC4/CyLFClk.c ****                 }
 334:.\Generated_Source\PSoC4/CyLFClk.c ****             }
 335:.\Generated_Source\PSoC4/CyLFClk.c ****             else
 336:.\Generated_Source\PSoC4/CyLFClk.c ****             {
 337:.\Generated_Source\PSoC4/CyLFClk.c ****                 returnStatus = CYRET_STARTED;
 338:.\Generated_Source\PSoC4/CyLFClk.c ****             }
 339:.\Generated_Source\PSoC4/CyLFClk.c ****         }
 340:.\Generated_Source\PSoC4/CyLFClk.c ****         else
 341:.\Generated_Source\PSoC4/CyLFClk.c ****         {
 342:.\Generated_Source\PSoC4/CyLFClk.c ****             /* Reload CNTR 1 count value for next measurement cycle*/
 343:.\Generated_Source\PSoC4/CyLFClk.c ****             CY_SYS_CNT_REG1_REG = (cydelayFreqHz >> CY_SYS_CLK_SYS_CLK_DEVIDER);
 344:.\Generated_Source\PSoC4/CyLFClk.c ****             compensateRunningStatus = CY_SYS_CLK_TRIM_OR_COMP_STARTED;
 345:.\Generated_Source\PSoC4/CyLFClk.c ****             returnStatus = CYRET_STARTED;
 346:.\Generated_Source\PSoC4/CyLFClk.c ****         }
 347:.\Generated_Source\PSoC4/CyLFClk.c ****     }
 348:.\Generated_Source\PSoC4/CyLFClk.c ****     else
 349:.\Generated_Source\PSoC4/CyLFClk.c ****     {
 350:.\Generated_Source\PSoC4/CyLFClk.c ****         returnStatus = CYRET_INVALID_STATE;
 351:.\Generated_Source\PSoC4/CyLFClk.c ****     }
 352:.\Generated_Source\PSoC4/CyLFClk.c **** 
 353:.\Generated_Source\PSoC4/CyLFClk.c ****     return (returnStatus);
 354:.\Generated_Source\PSoC4/CyLFClk.c **** }
 355:.\Generated_Source\PSoC4/CyLFClk.c **** 
 356:.\Generated_Source\PSoC4/CyLFClk.c **** 
 357:.\Generated_Source\PSoC4/CyLFClk.c **** #if(CY_IP_SRSSV2)
 358:.\Generated_Source\PSoC4/CyLFClk.c ****     /*******************************************************************************
 359:.\Generated_Source\PSoC4/CyLFClk.c ****     * Function Name: CySysClkIloEnabled
 360:.\Generated_Source\PSoC4/CyLFClk.c ****     ****************************************************************************//**
 361:.\Generated_Source\PSoC4/CyLFClk.c ****     *
 362:.\Generated_Source\PSoC4/CyLFClk.c ****     * \internal
 363:.\Generated_Source\PSoC4/CyLFClk.c ****     * Reports the ILO enable state.
 364:.\Generated_Source\PSoC4/CyLFClk.c ****     *
 365:.\Generated_Source\PSoC4/CyLFClk.c ****     * \return
 366:.\Generated_Source\PSoC4/CyLFClk.c ****     * 1 if ILO is enabled, and 0 if ILO is disabled.
 367:.\Generated_Source\PSoC4/CyLFClk.c ****     *
 368:.\Generated_Source\PSoC4/CyLFClk.c ****     * \endinternal
 369:.\Generated_Source\PSoC4/CyLFClk.c ****     ********************************************************************************/
 370:.\Generated_Source\PSoC4/CyLFClk.c ****     static uint32 CySysClkIloEnabled(void)
 371:.\Generated_Source\PSoC4/CyLFClk.c ****     {
  25              		.loc 1 371 0
  26              		.cfi_startproc
 372:.\Generated_Source\PSoC4/CyLFClk.c ****         /* Prohibits writing to WDT registers and ILO/WCO registers when not equal to 0 */
 373:.\Generated_Source\PSoC4/CyLFClk.c ****         return ((0u != (CY_SYS_CLK_ILO_CONFIG_REG & (uint32)(CY_SYS_CLK_ILO_CONFIG_ENABLE))) ?
ARM GAS  C:\Users\310295~1\AppData\Local\Temp\ccIU8zba.s 			page 8


  27              		.loc 1 373 0
  28 0000 034B     		ldr	r3, .L4
  29 0002 1B68     		ldr	r3, [r3]
 374:.\Generated_Source\PSoC4/CyLFClk.c ****             (uint32) 1u :
  30              		.loc 1 374 0
  31 0004 002B     		cmp	r3, #0
  32 0006 01DA     		bge	.L3
  33 0008 0120     		mov	r0, #1
  34 000a 00E0     		b	.L2
  35              	.L3:
  36 000c 0020     		mov	r0, #0
  37              	.L2:
 375:.\Generated_Source\PSoC4/CyLFClk.c ****             (uint32) 0u);
 376:.\Generated_Source\PSoC4/CyLFClk.c ****     }
  38              		.loc 1 376 0
  39              		@ sp needed
  40 000e 7047     		bx	lr
  41              	.L5:
  42              		.align	2
  43              	.L4:
  44 0010 04010B40 		.word	1074462980
  45              		.cfi_endproc
  46              	.LFE7:
  47              		.size	CySysClkIloEnabled, .-CySysClkIloEnabled
  48              		.section	.text.CySysClkGetLfclkSource,"ax",%progbits
  49              		.align	2
  50              		.code	16
  51              		.thumb_func
  52              		.type	CySysClkGetLfclkSource, %function
  53              	CySysClkGetLfclkSource:
  54              	.LFB11:
 377:.\Generated_Source\PSoC4/CyLFClk.c **** #endif /* (CY_IP_SRSSV2) */
 378:.\Generated_Source\PSoC4/CyLFClk.c **** 
 379:.\Generated_Source\PSoC4/CyLFClk.c **** 
 380:.\Generated_Source\PSoC4/CyLFClk.c **** #if(CY_IP_SRSSV2 && (!(CY_PSOC4_4100 || CY_PSOC4_4200)))
 381:.\Generated_Source\PSoC4/CyLFClk.c **** /********************************************************************************
 382:.\Generated_Source\PSoC4/CyLFClk.c **** * Function Name: CySysClkIloTrim
 383:.\Generated_Source\PSoC4/CyLFClk.c **** *****************************************************************************//**
 384:.\Generated_Source\PSoC4/CyLFClk.c **** * \brief
 385:.\Generated_Source\PSoC4/CyLFClk.c **** * The API trims the ILO frequency to +/- 10% accuracy range using accurate 
 386:.\Generated_Source\PSoC4/CyLFClk.c **** * SysClk.
 387:.\Generated_Source\PSoC4/CyLFClk.c **** *
 388:.\Generated_Source\PSoC4/CyLFClk.c **** * The API can be blocking or non-blocking depending on the value of the mode 
 389:.\Generated_Source\PSoC4/CyLFClk.c **** * parameter passed. The accuracy of ILO after trimming in parts per thousand 
 390:.\Generated_Source\PSoC4/CyLFClk.c **** * is returned through the iloAccuracyInPPT pointer. A positive number indicates 
 391:.\Generated_Source\PSoC4/CyLFClk.c **** * that the ILO is running fast and a negative number indicates that the ILO is 
 392:.\Generated_Source\PSoC4/CyLFClk.c **** * running slowly. This error is relative to the error in the reference clock 
 393:.\Generated_Source\PSoC4/CyLFClk.c **** * (SysClk), so the absolute error will be higher and depends on the accuracy 
 394:.\Generated_Source\PSoC4/CyLFClk.c **** * of the reference.
 395:.\Generated_Source\PSoC4/CyLFClk.c **** *
 396:.\Generated_Source\PSoC4/CyLFClk.c **** * The CySysClkIloStartMeasurement() API should be called prior to calling this 
 397:.\Generated_Source\PSoC4/CyLFClk.c **** * API. Otherwise it will return CYRET_INVALID_STATE as the measurement was not 
 398:.\Generated_Source\PSoC4/CyLFClk.c **** * started.
 399:.\Generated_Source\PSoC4/CyLFClk.c **** *
 400:.\Generated_Source\PSoC4/CyLFClk.c **** * \note SysClk should be sourced by IMO. Otherwise CySysClkIloTrim() and 
 401:.\Generated_Source\PSoC4/CyLFClk.c **** * CySysClkIloCompensate() API can give incorrect results.
 402:.\Generated_Source\PSoC4/CyLFClk.c **** *
ARM GAS  C:\Users\310295~1\AppData\Local\Temp\ccIU8zba.s 			page 9


 403:.\Generated_Source\PSoC4/CyLFClk.c **** * \note If System clock frequency is changed in runtime, the CyDelayFreq() 
 404:.\Generated_Source\PSoC4/CyLFClk.c **** * with the appropriate parameter (Frequency of bus clock in Hertz) should be 
 405:.\Generated_Source\PSoC4/CyLFClk.c **** * called before next CySysClkIloCompensate() usage.
 406:.\Generated_Source\PSoC4/CyLFClk.c **** *
 407:.\Generated_Source\PSoC4/CyLFClk.c **** * \warning Do not enter deep sleep mode until the function returns CYRET_SUCCESS
 408:.\Generated_Source\PSoC4/CyLFClk.c **** * or CYRET_TIMEOUT.
 409:.\Generated_Source\PSoC4/CyLFClk.c **** *
 410:.\Generated_Source\PSoC4/CyLFClk.c **** * Available for all PSoC 4 devices with ILO trim capability. This excludes 
 411:.\Generated_Source\PSoC4/CyLFClk.c **** * PSoC 4000 / PSoC 4100 / PSoC 4200 / PSoC 4000S / PSoC 4100S / PSoC
 412:.\Generated_Source\PSoC4/CyLFClk.c **** * Analog Coprocessor devices.
 413:.\Generated_Source\PSoC4/CyLFClk.c **** *
 414:.\Generated_Source\PSoC4/CyLFClk.c **** * \param mode
 415:.\Generated_Source\PSoC4/CyLFClk.c **** *  CY_SYS_CLK_BLOCKING -  The function does not return until the ILO is 
 416:.\Generated_Source\PSoC4/CyLFClk.c **** * within +/-10% accuracy range or time out has occurred.<br>
 417:.\Generated_Source\PSoC4/CyLFClk.c **** * CY_SYS_CLK_NON_BLOCKING - The function returns immediately after 
 418:.\Generated_Source\PSoC4/CyLFClk.c **** * performing a single iteration of the trim process. The function should be 
 419:.\Generated_Source\PSoC4/CyLFClk.c **** * called repeatedly until the trimming is completed successfully.
 420:.\Generated_Source\PSoC4/CyLFClk.c **** *
 421:.\Generated_Source\PSoC4/CyLFClk.c **** * \param *iloAccuracyInPPT Pointer to an integer in which the trimmed ILO 
 422:.\Generated_Source\PSoC4/CyLFClk.c **** * accuracy will be returned.
 423:.\Generated_Source\PSoC4/CyLFClk.c **** *
 424:.\Generated_Source\PSoC4/CyLFClk.c **** * \details The value returned in *iloAccuracyInPPT pointer is not valid 
 425:.\Generated_Source\PSoC4/CyLFClk.c **** * until the function returns CYRET_SUCCESS. ILO accuracy in PPT is given by:
 426:.\Generated_Source\PSoC4/CyLFClk.c **** *
 427:.\Generated_Source\PSoC4/CyLFClk.c **** * IloAccuracyInPPT = ((MeasuredIloFreq - DesiredIloFreq) * 
 428:.\Generated_Source\PSoC4/CyLFClk.c **** * CY_SYS_CLK_PERTHOUSAND) / DesiredIloFreq);
 429:.\Generated_Source\PSoC4/CyLFClk.c **** *
 430:.\Generated_Source\PSoC4/CyLFClk.c **** * DesiredIloFreq  = 32000, CY_SYS_CLK_PERTHOUSAND = 1000;
 431:.\Generated_Source\PSoC4/CyLFClk.c **** *
 432:.\Generated_Source\PSoC4/CyLFClk.c **** * \return CYRET_SUCCESS - Indicates trimming is complete. This value indicates 
 433:.\Generated_Source\PSoC4/CyLFClk.c **** * trimming is successful and iloAccuracyInPPT is within +/- 10%.
 434:.\Generated_Source\PSoC4/CyLFClk.c **** *
 435:.\Generated_Source\PSoC4/CyLFClk.c **** * \return CYRET_STARTED - Indicates measurement is in progress. This is applicable 
 436:.\Generated_Source\PSoC4/CyLFClk.c **** * only for non-blocking mode.
 437:.\Generated_Source\PSoC4/CyLFClk.c **** *
 438:.\Generated_Source\PSoC4/CyLFClk.c **** * \return CYRET_INVALID_STATE - Indicates trimming was unsuccessful. You should 
 439:.\Generated_Source\PSoC4/CyLFClk.c **** * call CySysClkIloStartMeasurement() before calling this API.
 440:.\Generated_Source\PSoC4/CyLFClk.c **** *
 441:.\Generated_Source\PSoC4/CyLFClk.c **** * \return CYRET_TIMEOUT - Indicates trimming was unsuccessful. This is applicable 
 442:.\Generated_Source\PSoC4/CyLFClk.c **** * only for blocking mode. Timeout means the trimming was tried 5 times without 
 443:.\Generated_Source\PSoC4/CyLFClk.c **** * success (i.e. ILO accuracy > +/- 10%). The user can call the API again for 
 444:.\Generated_Source\PSoC4/CyLFClk.c **** * another try or wait for some time before calling it again (to let the system 
 445:.\Generated_Source\PSoC4/CyLFClk.c **** * to settle to another operating point change in temperature etc.) and continue 
 446:.\Generated_Source\PSoC4/CyLFClk.c **** * using the previous trim value till the next call.
 447:.\Generated_Source\PSoC4/CyLFClk.c **** *
 448:.\Generated_Source\PSoC4/CyLFClk.c **** **********************************************************************************/
 449:.\Generated_Source\PSoC4/CyLFClk.c **** cystatus CySysClkIloTrim(uint32 mode, int32* iloAccuracyInPPT)
 450:.\Generated_Source\PSoC4/CyLFClk.c **** {
 451:.\Generated_Source\PSoC4/CyLFClk.c ****     uint32 timeOutClocks = CY_SYS_CLK_TIMEOUT;
 452:.\Generated_Source\PSoC4/CyLFClk.c ****     uint32 waitUntilCntr1Stops;
 453:.\Generated_Source\PSoC4/CyLFClk.c ****     static uint32 trimRunningStatus = CY_SYS_CLK_TRIM_OR_COMP_FINISHED;
 454:.\Generated_Source\PSoC4/CyLFClk.c ****     uint32 checkStatus;
 455:.\Generated_Source\PSoC4/CyLFClk.c ****     cystatus returnStatus;
 456:.\Generated_Source\PSoC4/CyLFClk.c **** 
 457:.\Generated_Source\PSoC4/CyLFClk.c ****     checkStatus = (uint32) (CY_SYS_CLK_DFT_REG & (uint32) CY_SYS_TST_DDFT_CTRL_REG_DEFAULT_MASK);
 458:.\Generated_Source\PSoC4/CyLFClk.c **** 
 459:.\Generated_Source\PSoC4/CyLFClk.c ****     /* Check if DFT and CTRL registers were configures in CySysStartMeasurement*/
ARM GAS  C:\Users\310295~1\AppData\Local\Temp\ccIU8zba.s 			page 10


 460:.\Generated_Source\PSoC4/CyLFClk.c ****     if((checkStatus == CY_SYS_CLK_SEL_ILO_DFT_SOURCE) &&
 461:.\Generated_Source\PSoC4/CyLFClk.c ****        (CY_SYS_TST_DDFT_CTRL_REG == CY_SYS_TST_DDFT_CTRL_REG_SEL2_CLK1) &&
 462:.\Generated_Source\PSoC4/CyLFClk.c ****        (iloAccuracyInPPT != NULL))
 463:.\Generated_Source\PSoC4/CyLFClk.c ****     {
 464:.\Generated_Source\PSoC4/CyLFClk.c ****         if(CY_SYS_CLK_BLOCKING == mode)
 465:.\Generated_Source\PSoC4/CyLFClk.c ****         {
 466:.\Generated_Source\PSoC4/CyLFClk.c ****             waitUntilCntr1Stops = cydelayFreqHz >> CY_SYS_CLK_SYS_CLK_DEVIDER;
 467:.\Generated_Source\PSoC4/CyLFClk.c ****             do
 468:.\Generated_Source\PSoC4/CyLFClk.c ****             {
 469:.\Generated_Source\PSoC4/CyLFClk.c ****                 /* Reload CNTR 1 count value for measuring cycle*/
 470:.\Generated_Source\PSoC4/CyLFClk.c ****                 CY_SYS_CNT_REG1_REG = cydelayFreqHz >> CY_SYS_CLK_SYS_CLK_DEVIDER; 
 471:.\Generated_Source\PSoC4/CyLFClk.c **** 
 472:.\Generated_Source\PSoC4/CyLFClk.c ****                 /* Wait until counter CNTR 1 will finish down-counting */
 473:.\Generated_Source\PSoC4/CyLFClk.c ****                 while (0u == (CY_SYS_CNT_REG1_REG & CY_SYS_CLK_ILO_CALIBR_COMPLETE_MASK))
 474:.\Generated_Source\PSoC4/CyLFClk.c ****                 {
 475:.\Generated_Source\PSoC4/CyLFClk.c ****                     waitUntilCntr1Stops--;
 476:.\Generated_Source\PSoC4/CyLFClk.c ****                     if (0u == waitUntilCntr1Stops)
 477:.\Generated_Source\PSoC4/CyLFClk.c ****                     {
 478:.\Generated_Source\PSoC4/CyLFClk.c ****                         break;
 479:.\Generated_Source\PSoC4/CyLFClk.c ****                     }
 480:.\Generated_Source\PSoC4/CyLFClk.c ****                 }
 481:.\Generated_Source\PSoC4/CyLFClk.c ****                 trimRunningStatus = CySysClkIloUpdateTrimReg(iloAccuracyInPPT);
 482:.\Generated_Source\PSoC4/CyLFClk.c ****                 timeOutClocks--;
 483:.\Generated_Source\PSoC4/CyLFClk.c **** 
 484:.\Generated_Source\PSoC4/CyLFClk.c ****             /* Untill ILO accuracy will be in range less than +/- 10% or timeout occurs*/
 485:.\Generated_Source\PSoC4/CyLFClk.c ****             } while((CYRET_SUCCESS != trimRunningStatus) && 
 486:.\Generated_Source\PSoC4/CyLFClk.c ****               (CYRET_INVALID_STATE != trimRunningStatus) && 
 487:.\Generated_Source\PSoC4/CyLFClk.c ****                                (0u != timeOutClocks));
 488:.\Generated_Source\PSoC4/CyLFClk.c **** 
 489:.\Generated_Source\PSoC4/CyLFClk.c ****             if (CYRET_SUCCESS == trimRunningStatus)
 490:.\Generated_Source\PSoC4/CyLFClk.c ****             {
 491:.\Generated_Source\PSoC4/CyLFClk.c ****                 returnStatus = CYRET_SUCCESS;
 492:.\Generated_Source\PSoC4/CyLFClk.c ****             }
 493:.\Generated_Source\PSoC4/CyLFClk.c ****             else
 494:.\Generated_Source\PSoC4/CyLFClk.c ****             {
 495:.\Generated_Source\PSoC4/CyLFClk.c ****                 if(0u == timeOutClocks)
 496:.\Generated_Source\PSoC4/CyLFClk.c ****                 {
 497:.\Generated_Source\PSoC4/CyLFClk.c ****                     trimRunningStatus = CY_SYS_CLK_TRIM_OR_COMP_FINISHED;
 498:.\Generated_Source\PSoC4/CyLFClk.c ****                     returnStatus = CYRET_TIMEOUT;
 499:.\Generated_Source\PSoC4/CyLFClk.c ****                 }
 500:.\Generated_Source\PSoC4/CyLFClk.c ****                 else
 501:.\Generated_Source\PSoC4/CyLFClk.c ****                 {
 502:.\Generated_Source\PSoC4/CyLFClk.c ****                     returnStatus = CYRET_INVALID_STATE;
 503:.\Generated_Source\PSoC4/CyLFClk.c ****                 }
 504:.\Generated_Source\PSoC4/CyLFClk.c ****             }
 505:.\Generated_Source\PSoC4/CyLFClk.c ****         }
 506:.\Generated_Source\PSoC4/CyLFClk.c ****         /* Non - blocking mode */
 507:.\Generated_Source\PSoC4/CyLFClk.c ****         else
 508:.\Generated_Source\PSoC4/CyLFClk.c ****         {
 509:.\Generated_Source\PSoC4/CyLFClk.c ****             if (CY_SYS_CLK_TRIM_OR_COMP_FINISHED != trimRunningStatus)
 510:.\Generated_Source\PSoC4/CyLFClk.c ****             {
 511:.\Generated_Source\PSoC4/CyLFClk.c ****                 /* Checking if the counter CNTR 1 finished down-counting */
 512:.\Generated_Source\PSoC4/CyLFClk.c ****                 if(0u != (CY_SYS_CNT_REG1_REG & CY_SYS_CLK_ILO_CALIBR_COMPLETE_MASK))
 513:.\Generated_Source\PSoC4/CyLFClk.c ****                 {
 514:.\Generated_Source\PSoC4/CyLFClk.c ****                     returnStatus = CySysClkIloUpdateTrimReg(iloAccuracyInPPT);
 515:.\Generated_Source\PSoC4/CyLFClk.c ****                     trimRunningStatus = CY_SYS_CLK_TRIM_OR_COMP_FINISHED;
 516:.\Generated_Source\PSoC4/CyLFClk.c ****                 }
ARM GAS  C:\Users\310295~1\AppData\Local\Temp\ccIU8zba.s 			page 11


 517:.\Generated_Source\PSoC4/CyLFClk.c ****                 else
 518:.\Generated_Source\PSoC4/CyLFClk.c ****                 {
 519:.\Generated_Source\PSoC4/CyLFClk.c ****                     returnStatus = CYRET_STARTED;
 520:.\Generated_Source\PSoC4/CyLFClk.c ****                 }
 521:.\Generated_Source\PSoC4/CyLFClk.c ****             }
 522:.\Generated_Source\PSoC4/CyLFClk.c ****             else
 523:.\Generated_Source\PSoC4/CyLFClk.c ****             {
 524:.\Generated_Source\PSoC4/CyLFClk.c ****                 /* Reload CNTR 1 count value for next measuring */
 525:.\Generated_Source\PSoC4/CyLFClk.c ****                 CY_SYS_CNT_REG1_REG = cydelayFreqHz >> CY_SYS_CLK_SYS_CLK_DEVIDER;
 526:.\Generated_Source\PSoC4/CyLFClk.c ****                 trimRunningStatus = CY_SYS_CLK_TRIM_OR_COMP_STARTED;
 527:.\Generated_Source\PSoC4/CyLFClk.c ****                 returnStatus = CYRET_STARTED;
 528:.\Generated_Source\PSoC4/CyLFClk.c ****             }
 529:.\Generated_Source\PSoC4/CyLFClk.c ****         }
 530:.\Generated_Source\PSoC4/CyLFClk.c ****     }
 531:.\Generated_Source\PSoC4/CyLFClk.c ****     else
 532:.\Generated_Source\PSoC4/CyLFClk.c ****     {
 533:.\Generated_Source\PSoC4/CyLFClk.c ****         returnStatus = CYRET_INVALID_STATE;
 534:.\Generated_Source\PSoC4/CyLFClk.c ****     }
 535:.\Generated_Source\PSoC4/CyLFClk.c **** 
 536:.\Generated_Source\PSoC4/CyLFClk.c ****     return (returnStatus);
 537:.\Generated_Source\PSoC4/CyLFClk.c **** }
 538:.\Generated_Source\PSoC4/CyLFClk.c **** 
 539:.\Generated_Source\PSoC4/CyLFClk.c **** 
 540:.\Generated_Source\PSoC4/CyLFClk.c **** /********************************************************************************
 541:.\Generated_Source\PSoC4/CyLFClk.c **** * Function Name: CySysClkIloUpdateTrimReg
 542:.\Generated_Source\PSoC4/CyLFClk.c **** *********************************************************************************
 543:.\Generated_Source\PSoC4/CyLFClk.c **** *
 544:.\Generated_Source\PSoC4/CyLFClk.c **** * \internal
 545:.\Generated_Source\PSoC4/CyLFClk.c **** * Function calculates ILO accuracy and check is error range is higher than 
 546:.\Generated_Source\PSoC4/CyLFClk.c **** * +/- 10%. If Measured frequency is higher than +/- 10% function updates 
 547:.\Generated_Source\PSoC4/CyLFClk.c **** * ILO Trim register.
 548:.\Generated_Source\PSoC4/CyLFClk.c **** *
 549:.\Generated_Source\PSoC4/CyLFClk.c **** * \param
 550:.\Generated_Source\PSoC4/CyLFClk.c **** * iloAccuracyInPPT Pointer to an integer in which the trimmed ILO 
 551:.\Generated_Source\PSoC4/CyLFClk.c **** * accuracy will be returned. The value returned in this pointer is not valid 
 552:.\Generated_Source\PSoC4/CyLFClk.c **** * until the function returns CYRET_SUCCESS. If ILO frequency error is lower 
 553:.\Generated_Source\PSoC4/CyLFClk.c **** * than +/- 10% then the value returned in this pointer will be updated.
 554:.\Generated_Source\PSoC4/CyLFClk.c **** *
 555:.\Generated_Source\PSoC4/CyLFClk.c **** * \return CYRET_SUCCESS - Indicates that ILO frequency error is lower than 
 556:.\Generated_Source\PSoC4/CyLFClk.c **** * +/- 10% and no actions are required.
 557:.\Generated_Source\PSoC4/CyLFClk.c **** *
 558:.\Generated_Source\PSoC4/CyLFClk.c **** * \return  CYRET_STARTED - Indicates that ILO frequency error is higher than 
 559:.\Generated_Source\PSoC4/CyLFClk.c **** * +/- 10% and ILO Trim register was updated.
 560:.\Generated_Source\PSoC4/CyLFClk.c **** *
 561:.\Generated_Source\PSoC4/CyLFClk.c **** * \return CYRET_INVALID_STATE - Indicates trimming was unsuccessful.
 562:.\Generated_Source\PSoC4/CyLFClk.c **** *
 563:.\Generated_Source\PSoC4/CyLFClk.c **** * Post #1 - To obtain 10% ILO accuracy the calculated accuracy should be equal 
 564:.\Generated_Source\PSoC4/CyLFClk.c **** * CY_SYS_CLK_ERROR_RANGE = 5.6%. Error value should take to account IMO error of 
 565:.\Generated_Source\PSoC4/CyLFClk.c **** * +/-2% (+/-0.64kHz), trim step of 2.36kHz (+/-1.18kHz) and error while ILO 
 566:.\Generated_Source\PSoC4/CyLFClk.c **** * frequency measuring.
 567:.\Generated_Source\PSoC4/CyLFClk.c **** *
 568:.\Generated_Source\PSoC4/CyLFClk.c **** * \endinternal
 569:.\Generated_Source\PSoC4/CyLFClk.c **** *
 570:.\Generated_Source\PSoC4/CyLFClk.c **** **********************************************************************************/
 571:.\Generated_Source\PSoC4/CyLFClk.c **** cystatus CySysClkIloUpdateTrimReg(int32* iloAccuracyInPPT)
 572:.\Generated_Source\PSoC4/CyLFClk.c **** {
 573:.\Generated_Source\PSoC4/CyLFClk.c ****     uint32 measuredIloFreq;
ARM GAS  C:\Users\310295~1\AppData\Local\Temp\ccIU8zba.s 			page 12


 574:.\Generated_Source\PSoC4/CyLFClk.c ****     uint32 currentIloTrimValue;
 575:.\Generated_Source\PSoC4/CyLFClk.c ****     int32 iloAccuracyValue;
 576:.\Generated_Source\PSoC4/CyLFClk.c ****     int32 trimStep;
 577:.\Generated_Source\PSoC4/CyLFClk.c ****     cystatus errorRangeStatus;
 578:.\Generated_Source\PSoC4/CyLFClk.c **** 
 579:.\Generated_Source\PSoC4/CyLFClk.c ****     if(0u != CY_SYS_CNT_REG2_REG)
 580:.\Generated_Source\PSoC4/CyLFClk.c ****     {
 581:.\Generated_Source\PSoC4/CyLFClk.c ****         measuredIloFreq = (CY_SYS_CNT_REG2_REG * cydelayFreqHz) / (cydelayFreqHz >> CY_SYS_CLK_SYS_
 582:.\Generated_Source\PSoC4/CyLFClk.c **** 
 583:.\Generated_Source\PSoC4/CyLFClk.c ****         /* Calculate value of error in PPT according to formula - 
 584:.\Generated_Source\PSoC4/CyLFClk.c ****         *       ((measuredIlofrequency - iloDesired freaquency) * 1000 / iloDesired freaquency) */
 585:.\Generated_Source\PSoC4/CyLFClk.c ****         iloAccuracyValue = (((int32) measuredIloFreq - (int32) CY_SYS_CLK_ILO_DESIRED_FREQ_HZ) * \
 586:.\Generated_Source\PSoC4/CyLFClk.c ****                             ((int32) CY_SYS_CLK_PERTHOUSAND)) / ((int32) CY_SYS_CLK_ILO_DESIRED_FRE
 587:.\Generated_Source\PSoC4/CyLFClk.c **** 
 588:.\Generated_Source\PSoC4/CyLFClk.c ****         /* Check if ILO accuracy is more than +/- CY_SYS_CLK_ERROR_RANGE. See post #1 of API descri
 589:.\Generated_Source\PSoC4/CyLFClk.c ****         if(CY_SYS_CLK_ERROR_RANGE < (uint32) (CY_SYS_CLK_ABS_MACRO(iloAccuracyValue)))
 590:.\Generated_Source\PSoC4/CyLFClk.c ****         {
 591:.\Generated_Source\PSoC4/CyLFClk.c ****             if (0 < iloAccuracyValue)
 592:.\Generated_Source\PSoC4/CyLFClk.c ****             {
 593:.\Generated_Source\PSoC4/CyLFClk.c ****                 trimStep = (int32) (((iloAccuracyValue * (int32) CY_SYS_CLK_ERROR_COEF) + 
 594:.\Generated_Source\PSoC4/CyLFClk.c ****                 CY_SYS_CLK_HALF_OF_STEP) / CY_SYS_CLK_ERROR_STEP);
 595:.\Generated_Source\PSoC4/CyLFClk.c ****             }
 596:.\Generated_Source\PSoC4/CyLFClk.c ****             else
 597:.\Generated_Source\PSoC4/CyLFClk.c ****             {
 598:.\Generated_Source\PSoC4/CyLFClk.c ****                 trimStep = (int32) (((iloAccuracyValue * (int32) CY_SYS_CLK_ERROR_COEF) - 
 599:.\Generated_Source\PSoC4/CyLFClk.c ****                 CY_SYS_CLK_HALF_OF_STEP) / CY_SYS_CLK_ERROR_STEP);
 600:.\Generated_Source\PSoC4/CyLFClk.c ****             }
 601:.\Generated_Source\PSoC4/CyLFClk.c ****             currentIloTrimValue = (CY_SYS_CLK_ILO_TRIM_REG & CY_SYS_CLK_ILO_TRIM_MASK);
 602:.\Generated_Source\PSoC4/CyLFClk.c ****             trimStep = (int32) currentIloTrimValue - trimStep;
 603:.\Generated_Source\PSoC4/CyLFClk.c **** 
 604:.\Generated_Source\PSoC4/CyLFClk.c ****             if(trimStep > CY_SYS_CLK_FOURBITS_MAX)
 605:.\Generated_Source\PSoC4/CyLFClk.c ****             {
 606:.\Generated_Source\PSoC4/CyLFClk.c ****                 trimStep = CY_SYS_CLK_FOURBITS_MAX;
 607:.\Generated_Source\PSoC4/CyLFClk.c ****             }
 608:.\Generated_Source\PSoC4/CyLFClk.c ****             if(trimStep < 0)
 609:.\Generated_Source\PSoC4/CyLFClk.c ****             {
 610:.\Generated_Source\PSoC4/CyLFClk.c ****                 trimStep = 0;
 611:.\Generated_Source\PSoC4/CyLFClk.c ****             }
 612:.\Generated_Source\PSoC4/CyLFClk.c ****             CY_SYS_CLK_ILO_TRIM_REG = (CY_SYS_CLK_ILO_TRIM_REG & (uint32)(~CY_SYS_CLK_ILO_TRIM_MASK
 613:.\Generated_Source\PSoC4/CyLFClk.c ****                                                                  ((uint32) trimStep);
 614:.\Generated_Source\PSoC4/CyLFClk.c ****             errorRangeStatus = CYRET_STARTED;
 615:.\Generated_Source\PSoC4/CyLFClk.c ****         } /* Else return success because error is in +/- 10% range*/
 616:.\Generated_Source\PSoC4/CyLFClk.c ****         else
 617:.\Generated_Source\PSoC4/CyLFClk.c ****         {
 618:.\Generated_Source\PSoC4/CyLFClk.c ****             /* Write trimmed ILO accuracy through pointer. */
 619:.\Generated_Source\PSoC4/CyLFClk.c ****             *iloAccuracyInPPT = iloAccuracyValue;
 620:.\Generated_Source\PSoC4/CyLFClk.c ****             errorRangeStatus = CYRET_SUCCESS;
 621:.\Generated_Source\PSoC4/CyLFClk.c ****         }
 622:.\Generated_Source\PSoC4/CyLFClk.c ****     }
 623:.\Generated_Source\PSoC4/CyLFClk.c ****     else
 624:.\Generated_Source\PSoC4/CyLFClk.c ****     {
 625:.\Generated_Source\PSoC4/CyLFClk.c ****         errorRangeStatus = CYRET_INVALID_STATE;
 626:.\Generated_Source\PSoC4/CyLFClk.c ****     }
 627:.\Generated_Source\PSoC4/CyLFClk.c **** return (errorRangeStatus);
 628:.\Generated_Source\PSoC4/CyLFClk.c **** }
 629:.\Generated_Source\PSoC4/CyLFClk.c **** 
 630:.\Generated_Source\PSoC4/CyLFClk.c **** 
ARM GAS  C:\Users\310295~1\AppData\Local\Temp\ccIU8zba.s 			page 13


 631:.\Generated_Source\PSoC4/CyLFClk.c **** /*******************************************************************************
 632:.\Generated_Source\PSoC4/CyLFClk.c **** * Function Name: CySysClkIloRestoreFactoryTrim
 633:.\Generated_Source\PSoC4/CyLFClk.c **** ****************************************************************************//**
 634:.\Generated_Source\PSoC4/CyLFClk.c **** * \brief
 635:.\Generated_Source\PSoC4/CyLFClk.c **** * Restores the ILO Trim Register to factory value.
 636:.\Generated_Source\PSoC4/CyLFClk.c **** *
 637:.\Generated_Source\PSoC4/CyLFClk.c **** * The CySysClkIloStartMeasurement() API should be called prior to 
 638:.\Generated_Source\PSoC4/CyLFClk.c **** * calling this API. Otherwise CYRET_UNKNOWN will be returned.
 639:.\Generated_Source\PSoC4/CyLFClk.c **** *
 640:.\Generated_Source\PSoC4/CyLFClk.c **** * Available for all PSoC 4 devices except for PSoC 4000 / PSoC 4100 / PSoC 4200 
 641:.\Generated_Source\PSoC4/CyLFClk.c **** * / PSoC 4000S / PSoC 4100S / PSoC Analog Coprocessor devices.
 642:.\Generated_Source\PSoC4/CyLFClk.c **** *
 643:.\Generated_Source\PSoC4/CyLFClk.c **** * \return CYRET_SUCCESS - Operation was successful. 
 644:.\Generated_Source\PSoC4/CyLFClk.c **** * \return CYRET_UNKNOWN - CySysClkIloStartMeasurement() was not called 
 645:.\Generated_Source\PSoC4/CyLFClk.c **** * before this API. Hence the trim value cannot be updated.
 646:.\Generated_Source\PSoC4/CyLFClk.c **** *
 647:.\Generated_Source\PSoC4/CyLFClk.c **** ******************************************************************************/
 648:.\Generated_Source\PSoC4/CyLFClk.c **** cystatus CySysClkIloRestoreFactoryTrim(void)
 649:.\Generated_Source\PSoC4/CyLFClk.c **** {
 650:.\Generated_Source\PSoC4/CyLFClk.c ****     cystatus returnStatus = CYRET_SUCCESS;
 651:.\Generated_Source\PSoC4/CyLFClk.c **** 
 652:.\Generated_Source\PSoC4/CyLFClk.c ****     /* Check was defaultIloTrimRegValue modified in CySysClkIloStartMeasurement */
 653:.\Generated_Source\PSoC4/CyLFClk.c ****     if(CY_SYS_CLK_ILO_TRIM_DEFAULT_VALUE != defaultIloTrimRegValue)
 654:.\Generated_Source\PSoC4/CyLFClk.c ****         {
 655:.\Generated_Source\PSoC4/CyLFClk.c ****             CY_SYS_CLK_ILO_TRIM_REG = ((CY_SYS_CLK_ILO_TRIM_REG & (uint32)(~CY_SYS_CLK_ILO_TRIM_MAS
 656:.\Generated_Source\PSoC4/CyLFClk.c ****                                        (defaultIloTrimRegValue & CY_SYS_CLK_ILO_TRIM_MASK));
 657:.\Generated_Source\PSoC4/CyLFClk.c ****         }
 658:.\Generated_Source\PSoC4/CyLFClk.c ****         else
 659:.\Generated_Source\PSoC4/CyLFClk.c ****         {
 660:.\Generated_Source\PSoC4/CyLFClk.c ****             returnStatus = CYRET_UNKNOWN;
 661:.\Generated_Source\PSoC4/CyLFClk.c ****         }
 662:.\Generated_Source\PSoC4/CyLFClk.c **** 
 663:.\Generated_Source\PSoC4/CyLFClk.c ****         return (returnStatus);
 664:.\Generated_Source\PSoC4/CyLFClk.c **** }
 665:.\Generated_Source\PSoC4/CyLFClk.c **** #endif /* (CY_IP_SRSSV2 && (!(CY_PSOC4_4100 || CY_PSOC4_4200))) */
 666:.\Generated_Source\PSoC4/CyLFClk.c **** 
 667:.\Generated_Source\PSoC4/CyLFClk.c **** 
 668:.\Generated_Source\PSoC4/CyLFClk.c **** #if (CY_IP_WCO && CY_IP_SRSSV2)
 669:.\Generated_Source\PSoC4/CyLFClk.c **** /*******************************************************************************
 670:.\Generated_Source\PSoC4/CyLFClk.c **** * Function Name: CySysClkGetLfclkSource
 671:.\Generated_Source\PSoC4/CyLFClk.c **** ********************************************************************************
 672:.\Generated_Source\PSoC4/CyLFClk.c **** *
 673:.\Generated_Source\PSoC4/CyLFClk.c **** * \internal
 674:.\Generated_Source\PSoC4/CyLFClk.c **** *  Gets the clock source for the LFCLK clock.
 675:.\Generated_Source\PSoC4/CyLFClk.c **** *  The function is applicable only for PSoC 4100 BLE / PSoC 4200 BLE / PSoC 4100M /
 676:.\Generated_Source\PSoC4/CyLFClk.c **** *  PSoC 4200M / PSoC 4200L.
 677:.\Generated_Source\PSoC4/CyLFClk.c **** *
 678:.\Generated_Source\PSoC4/CyLFClk.c **** * \return The LFCLK source:
 679:.\Generated_Source\PSoC4/CyLFClk.c **** * CY_SYS_CLK_LFCLK_SRC_ILO Internal Low Frequency (32 kHz) Oscillator (ILO)
 680:.\Generated_Source\PSoC4/CyLFClk.c **** * CY_SYS_CLK_LFCLK_SRC_WCO Low Frequency Watch Crystal Oscillator (WCO)
 681:.\Generated_Source\PSoC4/CyLFClk.c **** *
 682:.\Generated_Source\PSoC4/CyLFClk.c **** * \endinternal
 683:.\Generated_Source\PSoC4/CyLFClk.c **** *
 684:.\Generated_Source\PSoC4/CyLFClk.c **** *******************************************************************************/
 685:.\Generated_Source\PSoC4/CyLFClk.c ****     static uint32 CySysClkGetLfclkSource(void)
 686:.\Generated_Source\PSoC4/CyLFClk.c ****     {
  55              		.loc 1 686 0
ARM GAS  C:\Users\310295~1\AppData\Local\Temp\ccIU8zba.s 			page 14


  56              		.cfi_startproc
 687:.\Generated_Source\PSoC4/CyLFClk.c ****         uint32 lfclkSource;
 688:.\Generated_Source\PSoC4/CyLFClk.c ****         lfclkSource = CY_SYS_WDT_CONFIG_REG & CY_SYS_CLK_LFCLK_SEL_MASK;
  57              		.loc 1 688 0
  58 0000 024B     		ldr	r3, .L7
  59 0002 1868     		ldr	r0, [r3]
  60 0004 800F     		lsr	r0, r0, #30
  61 0006 8007     		lsl	r0, r0, #30
  62              	.LVL0:
 689:.\Generated_Source\PSoC4/CyLFClk.c ****         return (lfclkSource);
 690:.\Generated_Source\PSoC4/CyLFClk.c ****     }
  63              		.loc 1 690 0
  64              		@ sp needed
  65 0008 7047     		bx	lr
  66              	.L8:
  67 000a C046     		.align	2
  68              	.L7:
  69 000c 0C020B40 		.word	1074463244
  70              		.cfi_endproc
  71              	.LFE11:
  72              		.size	CySysClkGetLfclkSource, .-CySysClkGetLfclkSource
  73              		.section	.text.CySysWdtLocked,"ax",%progbits
  74              		.align	2
  75              		.code	16
  76              		.thumb_func
  77              		.type	CySysWdtLocked, %function
  78              	CySysWdtLocked:
  79              	.LFB19:
 691:.\Generated_Source\PSoC4/CyLFClk.c **** 
 692:.\Generated_Source\PSoC4/CyLFClk.c ****     
 693:.\Generated_Source\PSoC4/CyLFClk.c **** /*******************************************************************************
 694:.\Generated_Source\PSoC4/CyLFClk.c **** * Function Name: CySysClkSetLfclkSource
 695:.\Generated_Source\PSoC4/CyLFClk.c **** ****************************************************************************//**
 696:.\Generated_Source\PSoC4/CyLFClk.c **** * \brief
 697:.\Generated_Source\PSoC4/CyLFClk.c **** *  Sets the clock source for the LFCLK clock.
 698:.\Generated_Source\PSoC4/CyLFClk.c **** *
 699:.\Generated_Source\PSoC4/CyLFClk.c **** * The switch between LFCLK sources must be done between the positive edges of
 700:.\Generated_Source\PSoC4/CyLFClk.c **** * LFCLK, because the glitch risk is around the LFCLK positive edge. To ensure
 701:.\Generated_Source\PSoC4/CyLFClk.c **** * that the switch can be done safely, the WDT counter value is read until it
 702:.\Generated_Source\PSoC4/CyLFClk.c **** * changes.
 703:.\Generated_Source\PSoC4/CyLFClk.c **** *
 704:.\Generated_Source\PSoC4/CyLFClk.c **** * That means that the positive edge just finished and the switch is performed.
 705:.\Generated_Source\PSoC4/CyLFClk.c **** * The enabled WDT counter is used for that purpose. If no counters are enabled,
 706:.\Generated_Source\PSoC4/CyLFClk.c **** * counter 0 is enabled. And after the LFCLK source is switched, counter 0
 707:.\Generated_Source\PSoC4/CyLFClk.c **** * configuration is restored.
 708:.\Generated_Source\PSoC4/CyLFClk.c **** *
 709:.\Generated_Source\PSoC4/CyLFClk.c **** *  The function is applicable only for devices with more than one source for 
 710:.\Generated_Source\PSoC4/CyLFClk.c **** * LFCLK - PSoC 4100 BLE / PSoC 4200 BLE / PRoC BLE / PSoC 4100M / PSoC 4200M / 
 711:.\Generated_Source\PSoC4/CyLFClk.c **** * PSoC 4200L.
 712:.\Generated_Source\PSoC4/CyLFClk.c **** *
 713:.\Generated_Source\PSoC4/CyLFClk.c **** * \note For PSoC 4000S / PSoC 4100S / PSoC Analog Coprocessor devices LFCLK can
 714:.\Generated_Source\PSoC4/CyLFClk.c **** * only be sourced from ILO even though WCO is available.
 715:.\Generated_Source\PSoC4/CyLFClk.c **** *
 716:.\Generated_Source\PSoC4/CyLFClk.c **** * \param
 717:.\Generated_Source\PSoC4/CyLFClk.c **** * source
 718:.\Generated_Source\PSoC4/CyLFClk.c **** * CY_SYS_CLK_LFCLK_SRC_ILO - Internal Low Frequency (32 kHz) 
 719:.\Generated_Source\PSoC4/CyLFClk.c **** * Oscillator (ILO).<br>
ARM GAS  C:\Users\310295~1\AppData\Local\Temp\ccIU8zba.s 			page 15


 720:.\Generated_Source\PSoC4/CyLFClk.c **** * CY_SYS_CLK_LFCLK_SRC_WCO - Low Frequency Watch Crystal Oscillator (WCO).
 721:.\Generated_Source\PSoC4/CyLFClk.c **** *
 722:.\Generated_Source\PSoC4/CyLFClk.c **** * \details
 723:.\Generated_Source\PSoC4/CyLFClk.c **** * This function has no effect if WDT is locked (CySysWdtLock() is called). 
 724:.\Generated_Source\PSoC4/CyLFClk.c **** * Call CySysWdtUnlock() to unlock WDT.
 725:.\Generated_Source\PSoC4/CyLFClk.c **** *
 726:.\Generated_Source\PSoC4/CyLFClk.c **** * Both the current source and the new source must be running and stable before
 727:.\Generated_Source\PSoC4/CyLFClk.c **** * calling this function.
 728:.\Generated_Source\PSoC4/CyLFClk.c **** *
 729:.\Generated_Source\PSoC4/CyLFClk.c **** * Changing the LFCLK clock source may change the LFCLK clock frequency and
 730:.\Generated_Source\PSoC4/CyLFClk.c **** * affect the functionality that uses this clock. For example, watchdog timer
 731:.\Generated_Source\PSoC4/CyLFClk.c **** * "uses this clock" or "this clock uses" (WDT) is clocked by LFCLK.
 732:.\Generated_Source\PSoC4/CyLFClk.c **** *
 733:.\Generated_Source\PSoC4/CyLFClk.c **** *******************************************************************************/
 734:.\Generated_Source\PSoC4/CyLFClk.c ****     void CySysClkSetLfclkSource(uint32 source)
 735:.\Generated_Source\PSoC4/CyLFClk.c ****     {
 736:.\Generated_Source\PSoC4/CyLFClk.c ****         uint8  interruptState;
 737:.\Generated_Source\PSoC4/CyLFClk.c **** 
 738:.\Generated_Source\PSoC4/CyLFClk.c ****         if (CySysClkGetLfclkSource() != source)
 739:.\Generated_Source\PSoC4/CyLFClk.c ****         {
 740:.\Generated_Source\PSoC4/CyLFClk.c ****             interruptState = CyEnterCriticalSection();
 741:.\Generated_Source\PSoC4/CyLFClk.c ****             CySysClkLfclkPosedgeCatch();
 742:.\Generated_Source\PSoC4/CyLFClk.c ****             CY_SYS_WDT_CONFIG_REG = (CY_SYS_WDT_CONFIG_REG & (uint32)(~CY_SYS_CLK_LFCLK_SEL_MASK)) 
 743:.\Generated_Source\PSoC4/CyLFClk.c ****                                     (source & CY_SYS_CLK_LFCLK_SEL_MASK);
 744:.\Generated_Source\PSoC4/CyLFClk.c ****             CySysClkLfclkPosedgeRestore();
 745:.\Generated_Source\PSoC4/CyLFClk.c ****             CyExitCriticalSection(interruptState);
 746:.\Generated_Source\PSoC4/CyLFClk.c ****         }
 747:.\Generated_Source\PSoC4/CyLFClk.c ****     }
 748:.\Generated_Source\PSoC4/CyLFClk.c **** #endif /* (CY_IP_WCO && CY_IP_SRSSV2) */
 749:.\Generated_Source\PSoC4/CyLFClk.c **** 
 750:.\Generated_Source\PSoC4/CyLFClk.c **** 
 751:.\Generated_Source\PSoC4/CyLFClk.c **** #if (CY_IP_WCO)
 752:.\Generated_Source\PSoC4/CyLFClk.c ****     /*******************************************************************************
 753:.\Generated_Source\PSoC4/CyLFClk.c ****     * Function Name: CySysClkWcoStart
 754:.\Generated_Source\PSoC4/CyLFClk.c ****     ****************************************************************************//**
 755:.\Generated_Source\PSoC4/CyLFClk.c ****     * \brief
 756:.\Generated_Source\PSoC4/CyLFClk.c ****     *  Enables Watch Crystal Oscillator (WCO).
 757:.\Generated_Source\PSoC4/CyLFClk.c ****     * 
 758:.\Generated_Source\PSoC4/CyLFClk.c ****     * This API enables WCO which is used as a source for LFCLK. Similar to ILO, 
 759:.\Generated_Source\PSoC4/CyLFClk.c ****     * WCO is also available in all modes except Hibernate and Stop modes.
 760:.\Generated_Source\PSoC4/CyLFClk.c ****     * \note In PSoC 4000S / PSoC 4100S / PSoC Analog Coprocessor devices
 761:.\Generated_Source\PSoC4/CyLFClk.c ****     * WCO cannot be a source for the LFCLK. 
 762:.\Generated_Source\PSoC4/CyLFClk.c ****     *
 763:.\Generated_Source\PSoC4/CyLFClk.c ****     *  WCO is always enabled in High Power Mode (HPM). Refer to the device
 764:.\Generated_Source\PSoC4/CyLFClk.c ****     *  datasheet for the  WCO startup time. Once WCO becomes stable it can be
 765:.\Generated_Source\PSoC4/CyLFClk.c ****     *  switched to Low Power Mode (LPM). Note that oscillator can be unstable
 766:.\Generated_Source\PSoC4/CyLFClk.c ****     *  during a switch and hence its output should not be used at that moment.
 767:.\Generated_Source\PSoC4/CyLFClk.c ****     *
 768:.\Generated_Source\PSoC4/CyLFClk.c ****     *  The CySysClkWcoSetPowerMode() function configures the WCO power mode.
 769:.\Generated_Source\PSoC4/CyLFClk.c ****     *
 770:.\Generated_Source\PSoC4/CyLFClk.c ****     *******************************************************************************/
 771:.\Generated_Source\PSoC4/CyLFClk.c ****     void CySysClkWcoStart(void)
 772:.\Generated_Source\PSoC4/CyLFClk.c ****     {
 773:.\Generated_Source\PSoC4/CyLFClk.c ****         CySysClkWcoSetHighPowerMode();
 774:.\Generated_Source\PSoC4/CyLFClk.c ****         CY_SYS_CLK_WCO_CONFIG_REG |= CY_SYS_CLK_WCO_CONFIG_LPM_ENABLE;
 775:.\Generated_Source\PSoC4/CyLFClk.c ****     }
 776:.\Generated_Source\PSoC4/CyLFClk.c **** 
ARM GAS  C:\Users\310295~1\AppData\Local\Temp\ccIU8zba.s 			page 16


 777:.\Generated_Source\PSoC4/CyLFClk.c **** 
 778:.\Generated_Source\PSoC4/CyLFClk.c ****     /*******************************************************************************
 779:.\Generated_Source\PSoC4/CyLFClk.c ****     * Function Name: CySysClkWcoStop
 780:.\Generated_Source\PSoC4/CyLFClk.c ****     ****************************************************************************//**
 781:.\Generated_Source\PSoC4/CyLFClk.c ****     * \brief
 782:.\Generated_Source\PSoC4/CyLFClk.c ****     * Disables the 32 KHz Crystal Oscillator.
 783:.\Generated_Source\PSoC4/CyLFClk.c ****     *
 784:.\Generated_Source\PSoC4/CyLFClk.c ****     * API switch of WCO.
 785:.\Generated_Source\PSoC4/CyLFClk.c ****     * \note PSoC 4100S / PSoC Analog Coprocessor: WCO is required for DeepSleep 
 786:.\Generated_Source\PSoC4/CyLFClk.c ****     * Timer's operation.
 787:.\Generated_Source\PSoC4/CyLFClk.c ****     *
 788:.\Generated_Source\PSoC4/CyLFClk.c ****     *******************************************************************************/
 789:.\Generated_Source\PSoC4/CyLFClk.c ****     void  CySysClkWcoStop(void)
 790:.\Generated_Source\PSoC4/CyLFClk.c ****     {
 791:.\Generated_Source\PSoC4/CyLFClk.c ****         #if (CY_IP_SRSSV2)
 792:.\Generated_Source\PSoC4/CyLFClk.c ****             uint8  interruptState;
 793:.\Generated_Source\PSoC4/CyLFClk.c ****         #endif /* (CY_IP_SRSSV2) */
 794:.\Generated_Source\PSoC4/CyLFClk.c **** 
 795:.\Generated_Source\PSoC4/CyLFClk.c ****         if (0u != CySysClkWcoEnabled())
 796:.\Generated_Source\PSoC4/CyLFClk.c ****         {
 797:.\Generated_Source\PSoC4/CyLFClk.c ****             #if (CY_IP_SRSSV2)
 798:.\Generated_Source\PSoC4/CyLFClk.c ****                 if (CY_SYS_CLK_LFCLK_SRC_WCO == CySysClkGetLfclkSource())
 799:.\Generated_Source\PSoC4/CyLFClk.c ****                 {
 800:.\Generated_Source\PSoC4/CyLFClk.c ****                     interruptState = CyEnterCriticalSection();
 801:.\Generated_Source\PSoC4/CyLFClk.c ****                     CySysClkLfclkPosedgeCatch();
 802:.\Generated_Source\PSoC4/CyLFClk.c ****                     CY_SYS_CLK_WCO_CONFIG_REG &= (uint32) ~CY_SYS_CLK_WCO_CONFIG_LPM_ENABLE;
 803:.\Generated_Source\PSoC4/CyLFClk.c ****                     CySysClkLfclkPosedgeRestore();
 804:.\Generated_Source\PSoC4/CyLFClk.c ****                     CyExitCriticalSection(interruptState);
 805:.\Generated_Source\PSoC4/CyLFClk.c ****                 }
 806:.\Generated_Source\PSoC4/CyLFClk.c ****                 else /* Safe to disable - shortened pulse does not impact peripheral */
 807:.\Generated_Source\PSoC4/CyLFClk.c ****             #endif /* (CY_IP_SRSSV2) */
 808:.\Generated_Source\PSoC4/CyLFClk.c ****             {
 809:.\Generated_Source\PSoC4/CyLFClk.c ****                 CY_SYS_CLK_WCO_CONFIG_REG &= (uint32) ~CY_SYS_CLK_WCO_CONFIG_LPM_ENABLE;
 810:.\Generated_Source\PSoC4/CyLFClk.c ****             }
 811:.\Generated_Source\PSoC4/CyLFClk.c ****         } /* Otherwise do nothing. WCO configuration cannot be changed. */
 812:.\Generated_Source\PSoC4/CyLFClk.c ****     }
 813:.\Generated_Source\PSoC4/CyLFClk.c **** 
 814:.\Generated_Source\PSoC4/CyLFClk.c **** 
 815:.\Generated_Source\PSoC4/CyLFClk.c ****     /*******************************************************************************
 816:.\Generated_Source\PSoC4/CyLFClk.c ****     * Function Name: CySysClkWcoEnabled
 817:.\Generated_Source\PSoC4/CyLFClk.c ****     ****************************************************************************//**
 818:.\Generated_Source\PSoC4/CyLFClk.c ****     * \internal Reports the WCO enable state.
 819:.\Generated_Source\PSoC4/CyLFClk.c ****     *
 820:.\Generated_Source\PSoC4/CyLFClk.c ****     * \return 1 if WCO is enabled
 821:.\Generated_Source\PSoC4/CyLFClk.c ****     * \return 0 if WCO is disabled.
 822:.\Generated_Source\PSoC4/CyLFClk.c ****     * \endinternal
 823:.\Generated_Source\PSoC4/CyLFClk.c ****     *******************************************************************************/
 824:.\Generated_Source\PSoC4/CyLFClk.c ****     uint32 CySysClkWcoEnabled(void)
 825:.\Generated_Source\PSoC4/CyLFClk.c ****     {
 826:.\Generated_Source\PSoC4/CyLFClk.c ****         return ((0u != (CY_SYS_CLK_WCO_CONFIG_REG & (uint32)(CY_SYS_CLK_WCO_CONFIG_LPM_ENABLE))) ?
 827:.\Generated_Source\PSoC4/CyLFClk.c ****                 (uint32) 1u :
 828:.\Generated_Source\PSoC4/CyLFClk.c ****                 (uint32) 0u);
 829:.\Generated_Source\PSoC4/CyLFClk.c ****     }
 830:.\Generated_Source\PSoC4/CyLFClk.c **** 
 831:.\Generated_Source\PSoC4/CyLFClk.c **** 
 832:.\Generated_Source\PSoC4/CyLFClk.c ****     /*******************************************************************************
 833:.\Generated_Source\PSoC4/CyLFClk.c ****     * Function Name: CySysClkWcoSetPowerMode
ARM GAS  C:\Users\310295~1\AppData\Local\Temp\ccIU8zba.s 			page 17


 834:.\Generated_Source\PSoC4/CyLFClk.c ****     ****************************************************************************//**
 835:.\Generated_Source\PSoC4/CyLFClk.c ****     * \brief
 836:.\Generated_Source\PSoC4/CyLFClk.c ****     * Sets the power mode for the 32 KHz WCO.
 837:.\Generated_Source\PSoC4/CyLFClk.c ****     *
 838:.\Generated_Source\PSoC4/CyLFClk.c ****     * By default (if this function is not called), the WCO is in High power mode 
 839:.\Generated_Source\PSoC4/CyLFClk.c ****     * during Active and device's low power modes
 840:.\Generated_Source\PSoC4/CyLFClk.c ****     *
 841:.\Generated_Source\PSoC4/CyLFClk.c ****     * \param mode
 842:.\Generated_Source\PSoC4/CyLFClk.c ****     * CY_SYS_CLK_WCO_HPM - The High Power mode.<br>
 843:.\Generated_Source\PSoC4/CyLFClk.c ****     * CY_SYS_CLK_WCO_LPM - The Low Power mode.
 844:.\Generated_Source\PSoC4/CyLFClk.c ****     *
 845:.\Generated_Source\PSoC4/CyLFClk.c ****     * \return A previous power mode. The same as the parameters.
 846:.\Generated_Source\PSoC4/CyLFClk.c ****     *
 847:.\Generated_Source\PSoC4/CyLFClk.c ****     * \note
 848:.\Generated_Source\PSoC4/CyLFClk.c ****     * The WCO Low Power mode is applicable for PSoC 4100 BLE / PSoC 4200 BLE devices.
 849:.\Generated_Source\PSoC4/CyLFClk.c ****     *
 850:.\Generated_Source\PSoC4/CyLFClk.c ****     *******************************************************************************/
 851:.\Generated_Source\PSoC4/CyLFClk.c ****     uint32 CySysClkWcoSetPowerMode(uint32 mode)
 852:.\Generated_Source\PSoC4/CyLFClk.c ****     {
 853:.\Generated_Source\PSoC4/CyLFClk.c ****         uint32 powerModeStatus;
 854:.\Generated_Source\PSoC4/CyLFClk.c **** 
 855:.\Generated_Source\PSoC4/CyLFClk.c ****         powerModeStatus = CY_SYS_CLK_WCO_CONFIG_REG & CY_SYS_CLK_WCO_CONFIG_LPM_EN;
 856:.\Generated_Source\PSoC4/CyLFClk.c **** 
 857:.\Generated_Source\PSoC4/CyLFClk.c ****         switch(mode)
 858:.\Generated_Source\PSoC4/CyLFClk.c ****         {
 859:.\Generated_Source\PSoC4/CyLFClk.c ****         case CY_SYS_CLK_WCO_HPM:
 860:.\Generated_Source\PSoC4/CyLFClk.c ****                 CySysClkWcoSetHighPowerMode();
 861:.\Generated_Source\PSoC4/CyLFClk.c ****             break;
 862:.\Generated_Source\PSoC4/CyLFClk.c **** 
 863:.\Generated_Source\PSoC4/CyLFClk.c ****         #if(CY_PSOC4_4100BL || CY_PSOC4_4200BL)
 864:.\Generated_Source\PSoC4/CyLFClk.c ****             case CY_SYS_CLK_WCO_LPM:
 865:.\Generated_Source\PSoC4/CyLFClk.c ****                     CySysClkWcoSetLowPowerMode();
 866:.\Generated_Source\PSoC4/CyLFClk.c ****                 break;
 867:.\Generated_Source\PSoC4/CyLFClk.c ****         #endif /* (CY_PSOC4_4100BL || CY_PSOC4_4200BL) */
 868:.\Generated_Source\PSoC4/CyLFClk.c **** 
 869:.\Generated_Source\PSoC4/CyLFClk.c ****         default:
 870:.\Generated_Source\PSoC4/CyLFClk.c ****             CYASSERT(0u != 0u);
 871:.\Generated_Source\PSoC4/CyLFClk.c ****             break;
 872:.\Generated_Source\PSoC4/CyLFClk.c ****         }
 873:.\Generated_Source\PSoC4/CyLFClk.c **** 
 874:.\Generated_Source\PSoC4/CyLFClk.c ****         return (powerModeStatus);
 875:.\Generated_Source\PSoC4/CyLFClk.c ****     }
 876:.\Generated_Source\PSoC4/CyLFClk.c **** 
 877:.\Generated_Source\PSoC4/CyLFClk.c **** 
 878:.\Generated_Source\PSoC4/CyLFClk.c **** /*******************************************************************************
 879:.\Generated_Source\PSoC4/CyLFClk.c **** * Function Name: CySysClkWcoClockOutSelect
 880:.\Generated_Source\PSoC4/CyLFClk.c **** ****************************************************************************//**
 881:.\Generated_Source\PSoC4/CyLFClk.c **** * \brief
 882:.\Generated_Source\PSoC4/CyLFClk.c **** * Selects the WCO block output source.
 883:.\Generated_Source\PSoC4/CyLFClk.c **** *
 884:.\Generated_Source\PSoC4/CyLFClk.c **** * In addition to generating 32.768 kHz clock from external crystals, WCO 
 885:.\Generated_Source\PSoC4/CyLFClk.c **** * can be sourced by external clock source using wco_out pin. The API help to
 886:.\Generated_Source\PSoC4/CyLFClk.c **** * lets you select between the sources: External crystal or external pin.
 887:.\Generated_Source\PSoC4/CyLFClk.c **** *
 888:.\Generated_Source\PSoC4/CyLFClk.c **** * If you want to use external pin to drive WCO the next procedure is required:
 889:.\Generated_Source\PSoC4/CyLFClk.c **** * <br> 1) Disable the WCO.
 890:.\Generated_Source\PSoC4/CyLFClk.c **** * <br> 2) Drive the wco_out pin to an external signal source.
ARM GAS  C:\Users\310295~1\AppData\Local\Temp\ccIU8zba.s 			page 18


 891:.\Generated_Source\PSoC4/CyLFClk.c **** * <br> 3) Call CySysClkWcoClockOutSelect(CY_SYS_CLK_WCO_SEL_PIN).
 892:.\Generated_Source\PSoC4/CyLFClk.c **** * <br> 4) Enable the WCO and wait for 15 us before clocking the XO pad at the high 
 893:.\Generated_Source\PSoC4/CyLFClk.c **** * potential. Let's assume you are using the 1.6v clock amplitude, then the
 894:.\Generated_Source\PSoC4/CyLFClk.c **** * sequence would start at 1.6v, then 0v, then 1.6v etc at a chosen frequency.
 895:.\Generated_Source\PSoC4/CyLFClk.c **** *
 896:.\Generated_Source\PSoC4/CyLFClk.c **** * If you want to use WCO after using an external pin source:
 897:.\Generated_Source\PSoC4/CyLFClk.c **** * <br> 1) Disable the WCO.
 898:.\Generated_Source\PSoC4/CyLFClk.c **** * <br> 2) Drive off wco_out pin with external signal source.
 899:.\Generated_Source\PSoC4/CyLFClk.c **** * <br> 3) Call CySysClkWcoClockOutSelect(CY_SYS_CLK_WCO_SEL_CRYSTAL).
 900:.\Generated_Source\PSoC4/CyLFClk.c **** * <br> 4) Enable the WCO.
 901:.\Generated_Source\PSoC4/CyLFClk.c **** *
 902:.\Generated_Source\PSoC4/CyLFClk.c **** * \warning 
 903:.\Generated_Source\PSoC4/CyLFClk.c **** * Do not use the oscillator output clock prior to a 15uS delay in your system.
 904:.\Generated_Source\PSoC4/CyLFClk.c **** * There are no limitations on the external clock frequency.
 905:.\Generated_Source\PSoC4/CyLFClk.c **** * \warning 
 906:.\Generated_Source\PSoC4/CyLFClk.c **** * When external clock source was selected to drive WCO block the IMO can be 
 907:.\Generated_Source\PSoC4/CyLFClk.c **** * trimmed only when external clock source period is equal to WCO external
 908:.\Generated_Source\PSoC4/CyLFClk.c **** * crystal period. Also external clock source accuracy should be higher 
 909:.\Generated_Source\PSoC4/CyLFClk.c **** * or equal to WCO external crystal accuracy.
 910:.\Generated_Source\PSoC4/CyLFClk.c **** *
 911:.\Generated_Source\PSoC4/CyLFClk.c **** * \param clockSel
 912:.\Generated_Source\PSoC4/CyLFClk.c **** * CY_SYS_CLK_WCO_SEL_CRYSTAL - Selects External crystal as clock 
 913:.\Generated_Source\PSoC4/CyLFClk.c **** * source of WCO.<br>
 914:.\Generated_Source\PSoC4/CyLFClk.c **** * CY_SYS_CLK_WCO_SEL_PIN - Selects External clock input on wco_in pin as 
 915:.\Generated_Source\PSoC4/CyLFClk.c **** * clock source of WCO.
 916:.\Generated_Source\PSoC4/CyLFClk.c **** *
 917:.\Generated_Source\PSoC4/CyLFClk.c **** *******************************************************************************/
 918:.\Generated_Source\PSoC4/CyLFClk.c **** void CySysClkWcoClockOutSelect(uint32 clockSel)
 919:.\Generated_Source\PSoC4/CyLFClk.c ****     {
 920:.\Generated_Source\PSoC4/CyLFClk.c ****         if (0u != CySysClkWcoEnabled())
 921:.\Generated_Source\PSoC4/CyLFClk.c ****         {
 922:.\Generated_Source\PSoC4/CyLFClk.c ****             if (1u >= clockSel)
 923:.\Generated_Source\PSoC4/CyLFClk.c ****             {
 924:.\Generated_Source\PSoC4/CyLFClk.c ****                 CY_SYS_CLK_WCO_CONFIG_REG = (CY_SYS_CLK_WCO_CONFIG_REG & (uint32)(~CY_SYS_CLK_WCO_S
 925:.\Generated_Source\PSoC4/CyLFClk.c ****                                         (clockSel << CY_SYS_CLK_WCO_SELECT_PIN_OFFSET);
 926:.\Generated_Source\PSoC4/CyLFClk.c ****             }
 927:.\Generated_Source\PSoC4/CyLFClk.c ****             else
 928:.\Generated_Source\PSoC4/CyLFClk.c ****             {
 929:.\Generated_Source\PSoC4/CyLFClk.c ****                 CYASSERT(0u != 0u);
 930:.\Generated_Source\PSoC4/CyLFClk.c ****             }
 931:.\Generated_Source\PSoC4/CyLFClk.c ****         }
 932:.\Generated_Source\PSoC4/CyLFClk.c ****     }
 933:.\Generated_Source\PSoC4/CyLFClk.c **** #endif  /* (CY_IP_WCO) */
 934:.\Generated_Source\PSoC4/CyLFClk.c **** 
 935:.\Generated_Source\PSoC4/CyLFClk.c **** 
 936:.\Generated_Source\PSoC4/CyLFClk.c **** #if(CY_IP_SRSSV2)
 937:.\Generated_Source\PSoC4/CyLFClk.c ****     /*******************************************************************************
 938:.\Generated_Source\PSoC4/CyLFClk.c ****     * Function Name: CySysWdtLock
 939:.\Generated_Source\PSoC4/CyLFClk.c ****     ****************************************************************************//**
 940:.\Generated_Source\PSoC4/CyLFClk.c ****     * \brief
 941:.\Generated_Source\PSoC4/CyLFClk.c ****     * Locks out configuration changes to the Watchdog timer registers and ILO
 942:.\Generated_Source\PSoC4/CyLFClk.c ****     * configuration register.
 943:.\Generated_Source\PSoC4/CyLFClk.c ****     *
 944:.\Generated_Source\PSoC4/CyLFClk.c ****     * After this function is called, ILO clock can't be disabled until
 945:.\Generated_Source\PSoC4/CyLFClk.c ****     * CySysWdtUnlock() is called.
 946:.\Generated_Source\PSoC4/CyLFClk.c ****     *
 947:.\Generated_Source\PSoC4/CyLFClk.c ****     *******************************************************************************/
ARM GAS  C:\Users\310295~1\AppData\Local\Temp\ccIU8zba.s 			page 19


 948:.\Generated_Source\PSoC4/CyLFClk.c ****     void CySysWdtLock(void)
 949:.\Generated_Source\PSoC4/CyLFClk.c ****     {
 950:.\Generated_Source\PSoC4/CyLFClk.c ****         uint8 interruptState;
 951:.\Generated_Source\PSoC4/CyLFClk.c ****         interruptState = CyEnterCriticalSection();
 952:.\Generated_Source\PSoC4/CyLFClk.c **** 
 953:.\Generated_Source\PSoC4/CyLFClk.c ****         CY_SYS_CLK_SELECT_REG = (CY_SYS_CLK_SELECT_REG & (uint32)(~CY_SYS_WDT_CLK_LOCK_BITS_MASK)) 
 954:.\Generated_Source\PSoC4/CyLFClk.c ****                  CY_SYS_WDT_CLK_LOCK_BITS_MASK;
 955:.\Generated_Source\PSoC4/CyLFClk.c **** 
 956:.\Generated_Source\PSoC4/CyLFClk.c ****         CyExitCriticalSection(interruptState);
 957:.\Generated_Source\PSoC4/CyLFClk.c ****     }
 958:.\Generated_Source\PSoC4/CyLFClk.c **** 
 959:.\Generated_Source\PSoC4/CyLFClk.c **** 
 960:.\Generated_Source\PSoC4/CyLFClk.c ****     /*******************************************************************************
 961:.\Generated_Source\PSoC4/CyLFClk.c ****     * Function Name: CySysWdtLocked
 962:.\Generated_Source\PSoC4/CyLFClk.c ****     ****************************************************************************//**
 963:.\Generated_Source\PSoC4/CyLFClk.c ****     * \internal
 964:.\Generated_Source\PSoC4/CyLFClk.c ****     * Reports the WDT lock state.
 965:.\Generated_Source\PSoC4/CyLFClk.c ****     *
 966:.\Generated_Source\PSoC4/CyLFClk.c ****     * \return 1 - WDT is locked, and 0 - WDT is unlocked.
 967:.\Generated_Source\PSoC4/CyLFClk.c ****     * \endinternal
 968:.\Generated_Source\PSoC4/CyLFClk.c ****     *******************************************************************************/
 969:.\Generated_Source\PSoC4/CyLFClk.c ****     static uint32 CySysWdtLocked(void)
 970:.\Generated_Source\PSoC4/CyLFClk.c ****     {
  80              		.loc 1 970 0
  81              		.cfi_startproc
 971:.\Generated_Source\PSoC4/CyLFClk.c ****         /* Prohibits writing to WDT registers and ILO/WCO registers when not equal 0 */
 972:.\Generated_Source\PSoC4/CyLFClk.c ****         return ((0u != (CY_SYS_CLK_SELECT_REG & (uint32)(CY_SYS_WDT_CLK_LOCK_BITS_MASK))) ? (uint32
  82              		.loc 1 972 0
  83 0000 034B     		ldr	r3, .L11
  84 0002 1868     		ldr	r0, [r3]
  85 0004 C023     		mov	r3, #192
  86 0006 1B02     		lsl	r3, r3, #8
  87 0008 1840     		and	r0, r3
  88 000a 00D0     		beq	.L10
  89 000c 0120     		mov	r0, #1
  90              	.L10:
 973:.\Generated_Source\PSoC4/CyLFClk.c ****     }
  91              		.loc 1 973 0 discriminator 4
  92              		@ sp needed
  93 000e 7047     		bx	lr
  94              	.L12:
  95              		.align	2
  96              	.L11:
  97 0010 00010B40 		.word	1074462976
  98              		.cfi_endproc
  99              	.LFE19:
 100              		.size	CySysWdtLocked, .-CySysWdtLocked
 101              		.section	.text.CySysClkIloStart,"ax",%progbits
 102              		.align	2
 103              		.global	CySysClkIloStart
 104              		.code	16
 105              		.thumb_func
 106              		.type	CySysClkIloStart, %function
 107              	CySysClkIloStart:
 108              	.LFB2:
  84:.\Generated_Source\PSoC4/CyLFClk.c ****     CY_SYS_CLK_ILO_CONFIG_REG |= CY_SYS_CLK_ILO_CONFIG_ENABLE;
 109              		.loc 1 84 0
ARM GAS  C:\Users\310295~1\AppData\Local\Temp\ccIU8zba.s 			page 20


 110              		.cfi_startproc
  85:.\Generated_Source\PSoC4/CyLFClk.c **** }
 111              		.loc 1 85 0
 112 0000 034A     		ldr	r2, .L14
 113 0002 1368     		ldr	r3, [r2]
 114 0004 8021     		mov	r1, #128
 115 0006 0906     		lsl	r1, r1, #24
 116 0008 0B43     		orr	r3, r1
 117 000a 1360     		str	r3, [r2]
  86:.\Generated_Source\PSoC4/CyLFClk.c **** 
 118              		.loc 1 86 0
 119              		@ sp needed
 120 000c 7047     		bx	lr
 121              	.L15:
 122 000e C046     		.align	2
 123              	.L14:
 124 0010 04010B40 		.word	1074462980
 125              		.cfi_endproc
 126              	.LFE2:
 127              		.size	CySysClkIloStart, .-CySysClkIloStart
 128              		.section	.text.CySysClkIloStartMeasurement,"ax",%progbits
 129              		.align	2
 130              		.global	CySysClkIloStartMeasurement
 131              		.code	16
 132              		.thumb_func
 133              		.type	CySysClkIloStartMeasurement, %function
 134              	CySysClkIloStartMeasurement:
 135              	.LFB4:
 169:.\Generated_Source\PSoC4/CyLFClk.c **** #if(CY_IP_SRSSV2 && (!(CY_PSOC4_4100 || CY_PSOC4_4200)))
 136              		.loc 1 169 0
 137              		.cfi_startproc
 174:.\Generated_Source\PSoC4/CyLFClk.c ****     {
 138              		.loc 1 174 0
 139 0000 0E4B     		ldr	r3, .L18
 140 0002 1B78     		ldrb	r3, [r3]
 141 0004 002B     		cmp	r3, #0
 142 0006 08D1     		bne	.L17
 176:.\Generated_Source\PSoC4/CyLFClk.c ****         iloTrimTrig = 1u;
 143              		.loc 1 176 0
 144 0008 0D4B     		ldr	r3, .L18+4
 145 000a 1B68     		ldr	r3, [r3]
 146 000c 0F22     		mov	r2, #15
 147 000e 1340     		and	r3, r2
 148 0010 0C4A     		ldr	r2, .L18+8
 149 0012 1380     		strh	r3, [r2]
 177:.\Generated_Source\PSoC4/CyLFClk.c ****     }
 150              		.loc 1 177 0
 151 0014 0122     		mov	r2, #1
 152 0016 094B     		ldr	r3, .L18
 153 0018 1A70     		strb	r2, [r3]
 154              	.L17:
 182:.\Generated_Source\PSoC4/CyLFClk.c ****                             CY_SYS_CLK_SEL_ILO_DFT_SOURCE; 
 155              		.loc 1 182 0
 156 001a 0B4A     		ldr	r2, .L18+12
 157 001c 1168     		ldr	r1, [r2]
 158 001e 0B4B     		ldr	r3, .L18+16
 159 0020 0B40     		and	r3, r1
ARM GAS  C:\Users\310295~1\AppData\Local\Temp\ccIU8zba.s 			page 21


 160 0022 8021     		mov	r1, #128
 161 0024 4900     		lsl	r1, r1, #1
 162 0026 0B43     		orr	r3, r1
 163 0028 1360     		str	r3, [r2]
 185:.\Generated_Source\PSoC4/CyLFClk.c ****                             CY_SYS_TST_DDFT_CTRL_REG_SEL2_CLK1;
 164              		.loc 1 185 0
 165 002a 094A     		ldr	r2, .L18+20
 166 002c 1168     		ldr	r1, [r2]
 167 002e 094B     		ldr	r3, .L18+24
 168 0030 0B40     		and	r3, r1
 169 0032 0949     		ldr	r1, .L18+28
 170 0034 0B43     		orr	r3, r1
 171 0036 1360     		str	r3, [r2]
 187:.\Generated_Source\PSoC4/CyLFClk.c **** 
 172              		.loc 1 187 0
 173              		@ sp needed
 174 0038 7047     		bx	lr
 175              	.L19:
 176 003a C046     		.align	2
 177              	.L18:
 178 003c 00000000 		.word	.LANCHOR0
 179 0040 24FF0B40 		.word	1074528036
 180 0044 00000000 		.word	.LANCHOR1
 181 0048 10010B40 		.word	1074462992
 182 004c FFF0FFFF 		.word	-3841
 183 0050 08000340 		.word	1073938440
 184 0054 C0C0FFFF 		.word	-16192
 185 0058 0A0B0000 		.word	2826
 186              		.cfi_endproc
 187              	.LFE4:
 188              		.size	CySysClkIloStartMeasurement, .-CySysClkIloStartMeasurement
 189              		.section	.text.CySysClkIloStopMeasurement,"ax",%progbits
 190              		.align	2
 191              		.global	CySysClkIloStopMeasurement
 192              		.code	16
 193              		.thumb_func
 194              		.type	CySysClkIloStopMeasurement, %function
 195              	CySysClkIloStopMeasurement:
 196              	.LFB5:
 202:.\Generated_Source\PSoC4/CyLFClk.c ****     /* Set default configurations in 11...8 DFT register bits to zero */
 197              		.loc 1 202 0
 198              		.cfi_startproc
 204:.\Generated_Source\PSoC4/CyLFClk.c ****     #if(CY_IP_SRSSLT)
 199              		.loc 1 204 0
 200 0000 024A     		ldr	r2, .L21
 201 0002 1168     		ldr	r1, [r2]
 202 0004 024B     		ldr	r3, .L21+4
 203 0006 0B40     		and	r3, r1
 204 0008 1360     		str	r3, [r2]
 208:.\Generated_Source\PSoC4/CyLFClk.c **** 
 205              		.loc 1 208 0
 206              		@ sp needed
 207 000a 7047     		bx	lr
 208              	.L22:
 209              		.align	2
 210              	.L21:
 211 000c 10010B40 		.word	1074462992
ARM GAS  C:\Users\310295~1\AppData\Local\Temp\ccIU8zba.s 			page 22


 212 0010 FFF0FFFF 		.word	-3841
 213              		.cfi_endproc
 214              	.LFE5:
 215              		.size	CySysClkIloStopMeasurement, .-CySysClkIloStopMeasurement
 216              		.global	__aeabi_uidiv
 217              		.section	.text.CySysClkIloCompensate,"ax",%progbits
 218              		.align	2
 219              		.global	CySysClkIloCompensate
 220              		.code	16
 221              		.thumb_func
 222              		.type	CySysClkIloCompensate, %function
 223              	CySysClkIloCompensate:
 224              	.LFB6:
 268:.\Generated_Source\PSoC4/CyLFClk.c ****     uint32 iloCompensatedCycles;
 225              		.loc 1 268 0
 226              		.cfi_startproc
 227              	.LVL1:
 228 0000 70B5     		push	{r4, r5, r6, lr}
 229              		.cfi_def_cfa_offset 16
 230              		.cfi_offset 4, -16
 231              		.cfi_offset 5, -12
 232              		.cfi_offset 6, -8
 233              		.cfi_offset 14, -4
 275:.\Generated_Source\PSoC4/CyLFClk.c **** 
 234              		.loc 1 275 0
 235 0002 354B     		ldr	r3, .L35
 236 0004 1A68     		ldr	r2, [r3]
 237 0006 354B     		ldr	r3, .L35+4
 238 0008 1340     		and	r3, r2
 239              	.LVL2:
 278:.\Generated_Source\PSoC4/CyLFClk.c ****        (CY_SYS_TST_DDFT_CTRL_REG == CY_SYS_TST_DDFT_CTRL_REG_SEL2_CLK1) &&
 240              		.loc 1 278 0
 241 000a 8022     		mov	r2, #128
 242 000c 5200     		lsl	r2, r2, #1
 243 000e 9342     		cmp	r3, r2
 244 0010 54D1     		bne	.L28
 279:.\Generated_Source\PSoC4/CyLFClk.c ****        (CY_SYS_CLK_MAX_DELAY_US >= desiredDelay) &&
 245              		.loc 1 279 0 discriminator 1
 246 0012 334B     		ldr	r3, .L35+8
 247              	.LVL3:
 248 0014 1A68     		ldr	r2, [r3]
 278:.\Generated_Source\PSoC4/CyLFClk.c ****        (CY_SYS_TST_DDFT_CTRL_REG == CY_SYS_TST_DDFT_CTRL_REG_SEL2_CLK1) &&
 249              		.loc 1 278 0 discriminator 1
 250 0016 334B     		ldr	r3, .L35+12
 251 0018 9A42     		cmp	r2, r3
 252 001a 51D1     		bne	.L29
 279:.\Generated_Source\PSoC4/CyLFClk.c ****        (CY_SYS_CLK_MAX_DELAY_US >= desiredDelay) &&
 253              		.loc 1 279 0
 254 001c 324B     		ldr	r3, .L35+16
 255 001e 9842     		cmp	r0, r3
 256 0020 50D8     		bhi	.L30
 280:.\Generated_Source\PSoC4/CyLFClk.c ****        (CY_SYS_CLK_MIN_DELAY_US <= desiredDelay) &&
 257              		.loc 1 280 0
 258 0022 6328     		cmp	r0, #99
 259 0024 50D9     		bls	.L31
 281:.\Generated_Source\PSoC4/CyLFClk.c ****        (compensatedCycles !=  NULL))
 260              		.loc 1 281 0
ARM GAS  C:\Users\310295~1\AppData\Local\Temp\ccIU8zba.s 			page 23


 261 0026 0029     		cmp	r1, #0
 262 0028 50D0     		beq	.L32
 284:.\Generated_Source\PSoC4/CyLFClk.c ****         {
 263              		.loc 1 284 0
 264 002a 304B     		ldr	r3, .L35+20
 265 002c 5B68     		ldr	r3, [r3, #4]
 266 002e 002B     		cmp	r3, #0
 267 0030 3AD0     		beq	.L25
 287:.\Generated_Source\PSoC4/CyLFClk.c ****             {
 268              		.loc 1 287 0
 269 0032 2F4B     		ldr	r3, .L35+24
 270 0034 1B68     		ldr	r3, [r3]
 271 0036 002B     		cmp	r3, #0
 272 0038 4ADA     		bge	.L33
 289:.\Generated_Source\PSoC4/CyLFClk.c ****                 {
 273              		.loc 1 289 0
 274 003a 2E4B     		ldr	r3, .L35+28
 275 003c 1B68     		ldr	r3, [r3]
 276 003e 002B     		cmp	r3, #0
 277 0040 48D0     		beq	.L34
 278 0042 0C1C     		mov	r4, r1
 293:.\Generated_Source\PSoC4/CyLFClk.c ****                         {
 279              		.loc 1 293 0
 280 0044 2C4B     		ldr	r3, .L35+32
 281 0046 9842     		cmp	r0, r3
 282 0048 13D9     		bls	.L26
 295:.\Generated_Source\PSoC4/CyLFClk.c ****                             iloCompensatedCycles = 
 283              		.loc 1 295 0
 284 004a 1F21     		mov	r1, #31
 285              	.LVL4:
 286 004c FFF7FEFF 		bl	__aeabi_uidiv
 287              	.LVL5:
 288 0050 051C     		mov	r5, r0
 289              	.LVL6:
 297:.\Generated_Source\PSoC4/CyLFClk.c ****                                 CY_SYS_CLK_ILO_FREQ_2MSB) * (desiredDelayInCounts / CY_SYS_CLK_ILO_
 290              		.loc 1 297 0
 291 0052 284B     		ldr	r3, .L35+28
 292 0054 1868     		ldr	r0, [r3]
 293              	.LVL7:
 294 0056 294B     		ldr	r3, .L35+36
 295 0058 1968     		ldr	r1, [r3]
 296 005a 4843     		mul	r0, r1
 297 005c 890A     		lsr	r1, r1, #10
 298 005e FFF7FEFF 		bl	__aeabi_uidiv
 299              	.LVL8:
 300 0062 4609     		lsr	r6, r0, #5
 298:.\Generated_Source\PSoC4/CyLFClk.c ****                         }
 301              		.loc 1 298 0
 302 0064 281C     		mov	r0, r5
 303 0066 FA21     		mov	r1, #250
 304 0068 8900     		lsl	r1, r1, #2
 305 006a FFF7FEFF 		bl	__aeabi_uidiv
 306              	.LVL9:
 296:.\Generated_Source\PSoC4/CyLFClk.c ****                             (((CY_SYS_CNT_REG2_REG * cydelayFreqHz) / (cydelayFreqHz >> CY_SYS_CLK_
 307              		.loc 1 296 0
 308 006e 7043     		mul	r0, r6
 309              	.LVL10:
ARM GAS  C:\Users\310295~1\AppData\Local\Temp\ccIU8zba.s 			page 24


 310 0070 15E0     		b	.L27
 311              	.LVL11:
 312              	.L26:
 302:.\Generated_Source\PSoC4/CyLFClk.c ****                                                      CY_SYS_CLK_HALF_OF_CLOCK) / CY_SYS_CLK_ILO_PER
 313              		.loc 1 302 0
 314 0072 6423     		mov	r3, #100
 315 0074 5843     		mul	r0, r3
 316              	.LVL12:
 317 0076 224B     		ldr	r3, .L35+40
 318 0078 9C46     		mov	ip, r3
 319 007a 6044     		add	r0, r0, ip
 320 007c 2149     		ldr	r1, .L35+44
 321              	.LVL13:
 322 007e FFF7FEFF 		bl	__aeabi_uidiv
 323              	.LVL14:
 324 0082 051C     		mov	r5, r0
 325              	.LVL15:
 305:.\Generated_Source\PSoC4/CyLFClk.c ****                                                      (cydelayFreqHz >> CY_SYS_CLK_SYS_CLK_DEVIDER))
 326              		.loc 1 305 0
 327 0084 1B4B     		ldr	r3, .L35+28
 328 0086 1868     		ldr	r0, [r3]
 329              	.LVL16:
 330 0088 1C4B     		ldr	r3, .L35+36
 331 008a 1968     		ldr	r1, [r3]
 332 008c 4843     		mul	r0, r1
 306:.\Generated_Source\PSoC4/CyLFClk.c ****                                                      desiredDelayInCounts) / CY_SYS_CLK_ILO_DESIRED
 333              		.loc 1 306 0
 334 008e 890A     		lsr	r1, r1, #10
 305:.\Generated_Source\PSoC4/CyLFClk.c ****                                                      (cydelayFreqHz >> CY_SYS_CLK_SYS_CLK_DEVIDER))
 335              		.loc 1 305 0
 336 0090 FFF7FEFF 		bl	__aeabi_uidiv
 337              	.LVL17:
 306:.\Generated_Source\PSoC4/CyLFClk.c ****                                                      desiredDelayInCounts) / CY_SYS_CLK_ILO_DESIRED
 338              		.loc 1 306 0
 339 0094 6843     		mul	r0, r5
 305:.\Generated_Source\PSoC4/CyLFClk.c ****                                                      (cydelayFreqHz >> CY_SYS_CLK_SYS_CLK_DEVIDER))
 340              		.loc 1 305 0
 341 0096 FA21     		mov	r1, #250
 342 0098 C901     		lsl	r1, r1, #7
 343 009a FFF7FEFF 		bl	__aeabi_uidiv
 344              	.LVL18:
 345              	.L27:
 326:.\Generated_Source\PSoC4/CyLFClk.c ****                     compensateRunningStatus = CY_SYS_CLK_TRIM_OR_COMP_FINISHED;
 346              		.loc 1 326 0
 347 009e 2060     		str	r0, [r4]
 327:.\Generated_Source\PSoC4/CyLFClk.c ****                     returnStatus = CYRET_SUCCESS;
 348              		.loc 1 327 0
 349 00a0 0020     		mov	r0, #0
 350              	.LVL19:
 351 00a2 124B     		ldr	r3, .L35+20
 352 00a4 5860     		str	r0, [r3, #4]
 353              	.LVL20:
 354 00a6 16E0     		b	.L24
 355              	.LVL21:
 356              	.L25:
 343:.\Generated_Source\PSoC4/CyLFClk.c ****             compensateRunningStatus = CY_SYS_CLK_TRIM_OR_COMP_STARTED;
 357              		.loc 1 343 0
ARM GAS  C:\Users\310295~1\AppData\Local\Temp\ccIU8zba.s 			page 25


 358 00a8 144B     		ldr	r3, .L35+36
 359 00aa 1B68     		ldr	r3, [r3]
 360 00ac 9B0A     		lsr	r3, r3, #10
 361 00ae 104A     		ldr	r2, .L35+24
 362 00b0 1360     		str	r3, [r2]
 344:.\Generated_Source\PSoC4/CyLFClk.c ****             returnStatus = CYRET_STARTED;
 363              		.loc 1 344 0
 364 00b2 0122     		mov	r2, #1
 365 00b4 0D4B     		ldr	r3, .L35+20
 366 00b6 5A60     		str	r2, [r3, #4]
 367              	.LVL22:
 345:.\Generated_Source\PSoC4/CyLFClk.c ****         }
 368              		.loc 1 345 0
 369 00b8 0720     		mov	r0, #7
 370              	.LVL23:
 371 00ba 0CE0     		b	.L24
 372              	.LVL24:
 373              	.L28:
 350:.\Generated_Source\PSoC4/CyLFClk.c ****     }
 374              		.loc 1 350 0
 375 00bc 1120     		mov	r0, #17
 376              	.LVL25:
 377 00be 0AE0     		b	.L24
 378              	.LVL26:
 379              	.L29:
 380 00c0 1120     		mov	r0, #17
 381              	.LVL27:
 382 00c2 08E0     		b	.L24
 383              	.LVL28:
 384              	.L30:
 385 00c4 1120     		mov	r0, #17
 386              	.LVL29:
 387 00c6 06E0     		b	.L24
 388              	.LVL30:
 389              	.L31:
 390 00c8 1120     		mov	r0, #17
 391              	.LVL31:
 392 00ca 04E0     		b	.L24
 393              	.LVL32:
 394              	.L32:
 395 00cc 1120     		mov	r0, #17
 396              	.LVL33:
 397 00ce 02E0     		b	.L24
 398              	.LVL34:
 399              	.L33:
 337:.\Generated_Source\PSoC4/CyLFClk.c ****             }
 400              		.loc 1 337 0
 401 00d0 0720     		mov	r0, #7
 402              	.LVL35:
 403 00d2 00E0     		b	.L24
 404              	.LVL36:
 405              	.L34:
 332:.\Generated_Source\PSoC4/CyLFClk.c ****                 }
 406              		.loc 1 332 0
 407 00d4 1120     		mov	r0, #17
 408              	.LVL37:
 409              	.L24:
ARM GAS  C:\Users\310295~1\AppData\Local\Temp\ccIU8zba.s 			page 26


 354:.\Generated_Source\PSoC4/CyLFClk.c **** 
 410              		.loc 1 354 0
 411              		@ sp needed
 412 00d6 70BD     		pop	{r4, r5, r6, pc}
 413              	.L36:
 414              		.align	2
 415              	.L35:
 416 00d8 10010B40 		.word	1074462992
 417 00dc 3F3F0000 		.word	16191
 418 00e0 08000340 		.word	1073938440
 419 00e4 0A0B0000 		.word	2826
 420 00e8 00286BEE 		.word	-294967296
 421 00ec 00000000 		.word	.LANCHOR0
 422 00f0 18000340 		.word	1073938456
 423 00f4 1C000340 		.word	1073938460
 424 00f8 60D10000 		.word	53600
 425 00fc 00000000 		.word	cydelayFreqHz
 426 0100 0D030000 		.word	781
 427 0104 350C0000 		.word	3125
 428              		.cfi_endproc
 429              	.LFE6:
 430              		.size	CySysClkIloCompensate, .-CySysClkIloCompensate
 431              		.global	__aeabi_idiv
 432              		.section	.text.CySysClkIloUpdateTrimReg,"ax",%progbits
 433              		.align	2
 434              		.global	CySysClkIloUpdateTrimReg
 435              		.code	16
 436              		.thumb_func
 437              		.type	CySysClkIloUpdateTrimReg, %function
 438              	CySysClkIloUpdateTrimReg:
 439              	.LFB9:
 572:.\Generated_Source\PSoC4/CyLFClk.c ****     uint32 measuredIloFreq;
 440              		.loc 1 572 0
 441              		.cfi_startproc
 442              	.LVL38:
 443 0000 10B5     		push	{r4, lr}
 444              		.cfi_def_cfa_offset 8
 445              		.cfi_offset 4, -8
 446              		.cfi_offset 14, -4
 579:.\Generated_Source\PSoC4/CyLFClk.c ****     {
 447              		.loc 1 579 0
 448 0002 234B     		ldr	r3, .L47
 449 0004 1B68     		ldr	r3, [r3]
 450 0006 002B     		cmp	r3, #0
 451 0008 40D0     		beq	.L44
 452 000a 041C     		mov	r4, r0
 581:.\Generated_Source\PSoC4/CyLFClk.c **** 
 453              		.loc 1 581 0
 454 000c 204B     		ldr	r3, .L47
 455 000e 1868     		ldr	r0, [r3]
 456              	.LVL39:
 457 0010 204B     		ldr	r3, .L47+4
 458 0012 1968     		ldr	r1, [r3]
 459 0014 4843     		mul	r0, r1
 460 0016 890A     		lsr	r1, r1, #10
 461 0018 FFF7FEFF 		bl	__aeabi_uidiv
 462              	.LVL40:
ARM GAS  C:\Users\310295~1\AppData\Local\Temp\ccIU8zba.s 			page 27


 585:.\Generated_Source\PSoC4/CyLFClk.c ****                             ((int32) CY_SYS_CLK_PERTHOUSAND)) / ((int32) CY_SYS_CLK_ILO_DESIRED_FRE
 463              		.loc 1 585 0
 464 001c 1E4B     		ldr	r3, .L47+8
 465 001e 9C46     		mov	ip, r3
 466 0020 6044     		add	r0, r0, ip
 467              	.LVL41:
 468 0022 FA23     		mov	r3, #250
 469 0024 9B00     		lsl	r3, r3, #2
 470 0026 5843     		mul	r0, r3
 471              	.LVL42:
 472 0028 FA21     		mov	r1, #250
 473 002a C901     		lsl	r1, r1, #7
 474 002c FFF7FEFF 		bl	__aeabi_idiv
 475              	.LVL43:
 589:.\Generated_Source\PSoC4/CyLFClk.c ****         {
 476              		.loc 1 589 0
 477 0030 C217     		asr	r2, r0, #31
 478 0032 8318     		add	r3, r0, r2
 479 0034 5340     		eor	r3, r2
 480 0036 382B     		cmp	r3, #56
 481 0038 25D9     		bls	.L39
 591:.\Generated_Source\PSoC4/CyLFClk.c ****             {
 482              		.loc 1 591 0
 483 003a 0028     		cmp	r0, #0
 484 003c 08DD     		ble	.L40
 593:.\Generated_Source\PSoC4/CyLFClk.c ****                 CY_SYS_CLK_HALF_OF_STEP) / CY_SYS_CLK_ERROR_STEP);
 485              		.loc 1 593 0
 486 003e 8300     		lsl	r3, r0, #2
 487 0040 1818     		add	r0, r3, r0
 488              	.LVL44:
 489 0042 4000     		lsl	r0, r0, #1
 490 0044 7130     		add	r0, r0, #113
 491 0046 FF30     		add	r0, r0, #255
 492 0048 1449     		ldr	r1, .L47+12
 493 004a FFF7FEFF 		bl	__aeabi_idiv
 494              	.LVL45:
 495 004e 07E0     		b	.L41
 496              	.LVL46:
 497              	.L40:
 598:.\Generated_Source\PSoC4/CyLFClk.c ****                 CY_SYS_CLK_HALF_OF_STEP) / CY_SYS_CLK_ERROR_STEP);
 498              		.loc 1 598 0
 499 0050 8300     		lsl	r3, r0, #2
 500 0052 1818     		add	r0, r3, r0
 501              	.LVL47:
 502 0054 4000     		lsl	r0, r0, #1
 503 0056 7138     		sub	r0, r0, #113
 504 0058 FF38     		sub	r0, r0, #255
 505 005a 1049     		ldr	r1, .L47+12
 506 005c FFF7FEFF 		bl	__aeabi_idiv
 507              	.LVL48:
 508              	.L41:
 601:.\Generated_Source\PSoC4/CyLFClk.c ****             trimStep = (int32) currentIloTrimValue - trimStep;
 509              		.loc 1 601 0
 510 0060 0F4B     		ldr	r3, .L47+16
 511 0062 1B68     		ldr	r3, [r3]
 512 0064 0F22     		mov	r2, #15
 513 0066 1340     		and	r3, r2
ARM GAS  C:\Users\310295~1\AppData\Local\Temp\ccIU8zba.s 			page 28


 514              	.LVL49:
 602:.\Generated_Source\PSoC4/CyLFClk.c **** 
 515              		.loc 1 602 0
 516 0068 181A     		sub	r0, r3, r0
 517              	.LVL50:
 604:.\Generated_Source\PSoC4/CyLFClk.c ****             {
 518              		.loc 1 604 0
 519 006a 0F28     		cmp	r0, #15
 520 006c 00DD     		ble	.L42
 606:.\Generated_Source\PSoC4/CyLFClk.c ****             }
 521              		.loc 1 606 0
 522 006e 0F20     		mov	r0, #15
 523              	.LVL51:
 524              	.L42:
 608:.\Generated_Source\PSoC4/CyLFClk.c ****             {
 525              		.loc 1 608 0
 526 0070 0028     		cmp	r0, #0
 527 0072 00DA     		bge	.L43
 610:.\Generated_Source\PSoC4/CyLFClk.c ****             }
 528              		.loc 1 610 0
 529 0074 0020     		mov	r0, #0
 530              	.LVL52:
 531              	.L43:
 612:.\Generated_Source\PSoC4/CyLFClk.c ****                                                                  ((uint32) trimStep);
 532              		.loc 1 612 0
 533 0076 0A4A     		ldr	r2, .L47+16
 534 0078 1368     		ldr	r3, [r2]
 535              	.LVL53:
 536 007a 0F21     		mov	r1, #15
 537 007c 8B43     		bic	r3, r1
 538 007e 1843     		orr	r0, r3
 539              	.LVL54:
 540 0080 1060     		str	r0, [r2]
 541              	.LVL55:
 614:.\Generated_Source\PSoC4/CyLFClk.c ****         } /* Else return success because error is in +/- 10% range*/
 542              		.loc 1 614 0
 543 0082 0720     		mov	r0, #7
 544 0084 03E0     		b	.L38
 545              	.LVL56:
 546              	.L39:
 619:.\Generated_Source\PSoC4/CyLFClk.c ****             errorRangeStatus = CYRET_SUCCESS;
 547              		.loc 1 619 0
 548 0086 2060     		str	r0, [r4]
 549              	.LVL57:
 620:.\Generated_Source\PSoC4/CyLFClk.c ****         }
 550              		.loc 1 620 0
 551 0088 0020     		mov	r0, #0
 552              	.LVL58:
 553 008a 00E0     		b	.L38
 554              	.LVL59:
 555              	.L44:
 625:.\Generated_Source\PSoC4/CyLFClk.c ****     }
 556              		.loc 1 625 0
 557 008c 1120     		mov	r0, #17
 558              	.LVL60:
 559              	.L38:
 628:.\Generated_Source\PSoC4/CyLFClk.c **** 
ARM GAS  C:\Users\310295~1\AppData\Local\Temp\ccIU8zba.s 			page 29


 560              		.loc 1 628 0
 561              		@ sp needed
 562 008e 10BD     		pop	{r4, pc}
 563              	.L48:
 564              		.align	2
 565              	.L47:
 566 0090 1C000340 		.word	1073938460
 567 0094 00000000 		.word	cydelayFreqHz
 568 0098 0083FFFF 		.word	-32000
 569 009c E1020000 		.word	737
 570 00a0 24FF0B40 		.word	1074528036
 571              		.cfi_endproc
 572              	.LFE9:
 573              		.size	CySysClkIloUpdateTrimReg, .-CySysClkIloUpdateTrimReg
 574              		.section	.text.CySysClkIloTrim,"ax",%progbits
 575              		.align	2
 576              		.global	CySysClkIloTrim
 577              		.code	16
 578              		.thumb_func
 579              		.type	CySysClkIloTrim, %function
 580              	CySysClkIloTrim:
 581              	.LFB8:
 450:.\Generated_Source\PSoC4/CyLFClk.c ****     uint32 timeOutClocks = CY_SYS_CLK_TIMEOUT;
 582              		.loc 1 450 0
 583              		.cfi_startproc
 584              	.LVL61:
 585 0000 70B5     		push	{r4, r5, r6, lr}
 586              		.cfi_def_cfa_offset 16
 587              		.cfi_offset 4, -16
 588              		.cfi_offset 5, -12
 589              		.cfi_offset 6, -8
 590              		.cfi_offset 14, -4
 591              	.LVL62:
 457:.\Generated_Source\PSoC4/CyLFClk.c **** 
 592              		.loc 1 457 0
 593 0002 2E4B     		ldr	r3, .L64
 594 0004 1A68     		ldr	r2, [r3]
 595 0006 2E4B     		ldr	r3, .L64+4
 596 0008 1340     		and	r3, r2
 597              	.LVL63:
 460:.\Generated_Source\PSoC4/CyLFClk.c ****        (CY_SYS_TST_DDFT_CTRL_REG == CY_SYS_TST_DDFT_CTRL_REG_SEL2_CLK1) &&
 598              		.loc 1 460 0
 599 000a 8022     		mov	r2, #128
 600 000c 5200     		lsl	r2, r2, #1
 601 000e 9342     		cmp	r3, r2
 602 0010 48D1     		bne	.L58
 461:.\Generated_Source\PSoC4/CyLFClk.c ****        (iloAccuracyInPPT != NULL))
 603              		.loc 1 461 0 discriminator 1
 604 0012 2C4B     		ldr	r3, .L64+8
 605              	.LVL64:
 606 0014 1A68     		ldr	r2, [r3]
 460:.\Generated_Source\PSoC4/CyLFClk.c ****        (CY_SYS_TST_DDFT_CTRL_REG == CY_SYS_TST_DDFT_CTRL_REG_SEL2_CLK1) &&
 607              		.loc 1 460 0 discriminator 1
 608 0016 2C4B     		ldr	r3, .L64+12
 609 0018 9A42     		cmp	r2, r3
 610 001a 45D1     		bne	.L59
 461:.\Generated_Source\PSoC4/CyLFClk.c ****        (iloAccuracyInPPT != NULL))
ARM GAS  C:\Users\310295~1\AppData\Local\Temp\ccIU8zba.s 			page 30


 611              		.loc 1 461 0
 612 001c 0029     		cmp	r1, #0
 613 001e 45D0     		beq	.L60
 614 0020 0D1C     		mov	r5, r1
 464:.\Generated_Source\PSoC4/CyLFClk.c ****         {
 615              		.loc 1 464 0
 616 0022 0028     		cmp	r0, #0
 617 0024 25D1     		bne	.L51
 466:.\Generated_Source\PSoC4/CyLFClk.c ****             do
 618              		.loc 1 466 0
 619 0026 294B     		ldr	r3, .L64+16
 620 0028 1C68     		ldr	r4, [r3]
 621 002a A40A     		lsr	r4, r4, #10
 622              	.LVL65:
 451:.\Generated_Source\PSoC4/CyLFClk.c ****     uint32 waitUntilCntr1Stops;
 623              		.loc 1 451 0
 624 002c 0526     		mov	r6, #5
 625              	.LVL66:
 626              	.L56:
 470:.\Generated_Source\PSoC4/CyLFClk.c **** 
 627              		.loc 1 470 0
 628 002e 274B     		ldr	r3, .L64+16
 629 0030 1B68     		ldr	r3, [r3]
 630 0032 9B0A     		lsr	r3, r3, #10
 631 0034 264A     		ldr	r2, .L64+20
 632 0036 1360     		str	r3, [r2]
 473:.\Generated_Source\PSoC4/CyLFClk.c ****                 {
 633              		.loc 1 473 0
 634 0038 02E0     		b	.L52
 635              	.L54:
 475:.\Generated_Source\PSoC4/CyLFClk.c ****                     if (0u == waitUntilCntr1Stops)
 636              		.loc 1 475 0
 637 003a 013C     		sub	r4, r4, #1
 638              	.LVL67:
 476:.\Generated_Source\PSoC4/CyLFClk.c ****                     {
 639              		.loc 1 476 0
 640 003c 002C     		cmp	r4, #0
 641 003e 03D0     		beq	.L53
 642              	.L52:
 473:.\Generated_Source\PSoC4/CyLFClk.c ****                 {
 643              		.loc 1 473 0
 644 0040 234B     		ldr	r3, .L64+20
 645 0042 1B68     		ldr	r3, [r3]
 646 0044 002B     		cmp	r3, #0
 647 0046 F8DA     		bge	.L54
 648              	.L53:
 481:.\Generated_Source\PSoC4/CyLFClk.c ****                 timeOutClocks--;
 649              		.loc 1 481 0
 650 0048 281C     		mov	r0, r5
 651 004a FFF7FEFF 		bl	CySysClkIloUpdateTrimReg
 652              	.LVL68:
 653 004e 214B     		ldr	r3, .L64+24
 654 0050 9860     		str	r0, [r3, #8]
 482:.\Generated_Source\PSoC4/CyLFClk.c **** 
 655              		.loc 1 482 0
 656 0052 013E     		sub	r6, r6, #1
 657              	.LVL69:
ARM GAS  C:\Users\310295~1\AppData\Local\Temp\ccIU8zba.s 			page 31


 487:.\Generated_Source\PSoC4/CyLFClk.c **** 
 658              		.loc 1 487 0
 659 0054 0028     		cmp	r0, #0
 660 0056 03D0     		beq	.L55
 485:.\Generated_Source\PSoC4/CyLFClk.c ****               (CYRET_INVALID_STATE != trimRunningStatus) && 
 661              		.loc 1 485 0
 662 0058 1128     		cmp	r0, #17
 663 005a 01D0     		beq	.L55
 486:.\Generated_Source\PSoC4/CyLFClk.c ****                                (0u != timeOutClocks));
 664              		.loc 1 486 0
 665 005c 002E     		cmp	r6, #0
 666 005e E6D1     		bne	.L56
 667              	.L55:
 489:.\Generated_Source\PSoC4/CyLFClk.c ****             {
 668              		.loc 1 489 0
 669 0060 0028     		cmp	r0, #0
 670 0062 25D0     		beq	.L61
 495:.\Generated_Source\PSoC4/CyLFClk.c ****                 {
 671              		.loc 1 495 0
 672 0064 002E     		cmp	r6, #0
 673 0066 25D1     		bne	.L62
 497:.\Generated_Source\PSoC4/CyLFClk.c ****                     returnStatus = CYRET_TIMEOUT;
 674              		.loc 1 497 0
 675 0068 0022     		mov	r2, #0
 676 006a 1A4B     		ldr	r3, .L64+24
 677 006c 9A60     		str	r2, [r3, #8]
 678              	.LVL70:
 498:.\Generated_Source\PSoC4/CyLFClk.c ****                 }
 679              		.loc 1 498 0
 680 006e 1020     		mov	r0, #16
 681 0070 23E0     		b	.L50
 682              	.LVL71:
 683              	.L51:
 509:.\Generated_Source\PSoC4/CyLFClk.c ****             {
 684              		.loc 1 509 0
 685 0072 184B     		ldr	r3, .L64+24
 686 0074 9B68     		ldr	r3, [r3, #8]
 687 0076 002B     		cmp	r3, #0
 688 0078 0AD0     		beq	.L57
 512:.\Generated_Source\PSoC4/CyLFClk.c ****                 {
 689              		.loc 1 512 0
 690 007a 154B     		ldr	r3, .L64+20
 691 007c 1B68     		ldr	r3, [r3]
 692 007e 002B     		cmp	r3, #0
 693 0080 1ADA     		bge	.L63
 514:.\Generated_Source\PSoC4/CyLFClk.c ****                     trimRunningStatus = CY_SYS_CLK_TRIM_OR_COMP_FINISHED;
 694              		.loc 1 514 0
 695 0082 081C     		mov	r0, r1
 696              	.LVL72:
 697 0084 FFF7FEFF 		bl	CySysClkIloUpdateTrimReg
 698              	.LVL73:
 515:.\Generated_Source\PSoC4/CyLFClk.c ****                 }
 699              		.loc 1 515 0
 700 0088 0022     		mov	r2, #0
 701 008a 124B     		ldr	r3, .L64+24
 702 008c 9A60     		str	r2, [r3, #8]
 703 008e 14E0     		b	.L50
ARM GAS  C:\Users\310295~1\AppData\Local\Temp\ccIU8zba.s 			page 32


 704              	.LVL74:
 705              	.L57:
 525:.\Generated_Source\PSoC4/CyLFClk.c ****                 trimRunningStatus = CY_SYS_CLK_TRIM_OR_COMP_STARTED;
 706              		.loc 1 525 0
 707 0090 0E4B     		ldr	r3, .L64+16
 708 0092 1B68     		ldr	r3, [r3]
 709 0094 9B0A     		lsr	r3, r3, #10
 710 0096 0E4A     		ldr	r2, .L64+20
 711 0098 1360     		str	r3, [r2]
 526:.\Generated_Source\PSoC4/CyLFClk.c ****                 returnStatus = CYRET_STARTED;
 712              		.loc 1 526 0
 713 009a 0122     		mov	r2, #1
 714 009c 0D4B     		ldr	r3, .L64+24
 715 009e 9A60     		str	r2, [r3, #8]
 716              	.LVL75:
 527:.\Generated_Source\PSoC4/CyLFClk.c ****             }
 717              		.loc 1 527 0
 718 00a0 0720     		mov	r0, #7
 719              	.LVL76:
 720 00a2 0AE0     		b	.L50
 721              	.LVL77:
 722              	.L58:
 533:.\Generated_Source\PSoC4/CyLFClk.c ****     }
 723              		.loc 1 533 0
 724 00a4 1120     		mov	r0, #17
 725              	.LVL78:
 726 00a6 08E0     		b	.L50
 727              	.LVL79:
 728              	.L59:
 729 00a8 1120     		mov	r0, #17
 730              	.LVL80:
 731 00aa 06E0     		b	.L50
 732              	.LVL81:
 733              	.L60:
 734 00ac 1120     		mov	r0, #17
 735              	.LVL82:
 736 00ae 04E0     		b	.L50
 737              	.LVL83:
 738              	.L61:
 491:.\Generated_Source\PSoC4/CyLFClk.c ****             }
 739              		.loc 1 491 0
 740 00b0 0020     		mov	r0, #0
 741 00b2 02E0     		b	.L50
 742              	.L62:
 502:.\Generated_Source\PSoC4/CyLFClk.c ****                 }
 743              		.loc 1 502 0
 744 00b4 1120     		mov	r0, #17
 745 00b6 00E0     		b	.L50
 746              	.LVL84:
 747              	.L63:
 519:.\Generated_Source\PSoC4/CyLFClk.c ****                 }
 748              		.loc 1 519 0
 749 00b8 0720     		mov	r0, #7
 750              	.LVL85:
 751              	.L50:
 537:.\Generated_Source\PSoC4/CyLFClk.c **** 
 752              		.loc 1 537 0
ARM GAS  C:\Users\310295~1\AppData\Local\Temp\ccIU8zba.s 			page 33


 753              		@ sp needed
 754 00ba 70BD     		pop	{r4, r5, r6, pc}
 755              	.L65:
 756              		.align	2
 757              	.L64:
 758 00bc 10010B40 		.word	1074462992
 759 00c0 3F3F0000 		.word	16191
 760 00c4 08000340 		.word	1073938440
 761 00c8 0A0B0000 		.word	2826
 762 00cc 00000000 		.word	cydelayFreqHz
 763 00d0 18000340 		.word	1073938456
 764 00d4 00000000 		.word	.LANCHOR0
 765              		.cfi_endproc
 766              	.LFE8:
 767              		.size	CySysClkIloTrim, .-CySysClkIloTrim
 768              		.section	.text.CySysClkIloRestoreFactoryTrim,"ax",%progbits
 769              		.align	2
 770              		.global	CySysClkIloRestoreFactoryTrim
 771              		.code	16
 772              		.thumb_func
 773              		.type	CySysClkIloRestoreFactoryTrim, %function
 774              	CySysClkIloRestoreFactoryTrim:
 775              	.LFB10:
 649:.\Generated_Source\PSoC4/CyLFClk.c ****     cystatus returnStatus = CYRET_SUCCESS;
 776              		.loc 1 649 0
 777              		.cfi_startproc
 778              	.LVL86:
 653:.\Generated_Source\PSoC4/CyLFClk.c ****         {
 779              		.loc 1 653 0
 780 0000 094B     		ldr	r3, .L69
 781 0002 1B88     		ldrh	r3, [r3]
 782 0004 9BB2     		uxth	r3, r3
 783 0006 F02B     		cmp	r3, #240
 784 0008 0BD0     		beq	.L68
 655:.\Generated_Source\PSoC4/CyLFClk.c ****                                        (defaultIloTrimRegValue & CY_SYS_CLK_ILO_TRIM_MASK));
 785              		.loc 1 655 0
 786 000a 0848     		ldr	r0, .L69+4
 787 000c 0368     		ldr	r3, [r0]
 788 000e 0F22     		mov	r2, #15
 789 0010 9343     		bic	r3, r2
 790 0012 191C     		mov	r1, r3
 656:.\Generated_Source\PSoC4/CyLFClk.c ****         }
 791              		.loc 1 656 0
 792 0014 044B     		ldr	r3, .L69
 793 0016 1B88     		ldrh	r3, [r3]
 794 0018 1340     		and	r3, r2
 655:.\Generated_Source\PSoC4/CyLFClk.c ****                                        (defaultIloTrimRegValue & CY_SYS_CLK_ILO_TRIM_MASK));
 795              		.loc 1 655 0
 796 001a 0B43     		orr	r3, r1
 797 001c 0360     		str	r3, [r0]
 650:.\Generated_Source\PSoC4/CyLFClk.c **** 
 798              		.loc 1 650 0
 799 001e 0020     		mov	r0, #0
 800 0020 01E0     		b	.L67
 801              	.L68:
 660:.\Generated_Source\PSoC4/CyLFClk.c ****         }
 802              		.loc 1 660 0
ARM GAS  C:\Users\310295~1\AppData\Local\Temp\ccIU8zba.s 			page 34


 803 0022 0120     		mov	r0, #1
 804 0024 4042     		neg	r0, r0
 805              	.L67:
 806              	.LVL87:
 664:.\Generated_Source\PSoC4/CyLFClk.c **** #endif /* (CY_IP_SRSSV2 && (!(CY_PSOC4_4100 || CY_PSOC4_4200))) */
 807              		.loc 1 664 0
 808              		@ sp needed
 809 0026 7047     		bx	lr
 810              	.L70:
 811              		.align	2
 812              	.L69:
 813 0028 00000000 		.word	.LANCHOR1
 814 002c 24FF0B40 		.word	1074528036
 815              		.cfi_endproc
 816              	.LFE10:
 817              		.size	CySysClkIloRestoreFactoryTrim, .-CySysClkIloRestoreFactoryTrim
 818              		.section	.text.CySysClkWcoStart,"ax",%progbits
 819              		.align	2
 820              		.global	CySysClkWcoStart
 821              		.code	16
 822              		.thumb_func
 823              		.type	CySysClkWcoStart, %function
 824              	CySysClkWcoStart:
 825              	.LFB13:
 772:.\Generated_Source\PSoC4/CyLFClk.c ****         CySysClkWcoSetHighPowerMode();
 826              		.loc 1 772 0
 827              		.cfi_startproc
 828 0000 10B5     		push	{r4, lr}
 829              		.cfi_def_cfa_offset 8
 830              		.cfi_offset 4, -8
 831              		.cfi_offset 14, -4
 832              	.LBB4:
 833              	.LBB5:
 834              		.file 2 ".\\Generated_Source\\PSoC4\\CyLFClk.h"
   1:.\Generated_Source\PSoC4/CyLFClk.h **** /***************************************************************************//**
   2:.\Generated_Source\PSoC4/CyLFClk.h **** * \file .h
   3:.\Generated_Source\PSoC4/CyLFClk.h **** * \version 1.10
   4:.\Generated_Source\PSoC4/CyLFClk.h **** *
   5:.\Generated_Source\PSoC4/CyLFClk.h **** * \brief
   6:.\Generated_Source\PSoC4/CyLFClk.h **** *  This file provides the source code to API for the lfclk and wdt.
   7:.\Generated_Source\PSoC4/CyLFClk.h **** *
   8:.\Generated_Source\PSoC4/CyLFClk.h **** ********************************************************************************
   9:.\Generated_Source\PSoC4/CyLFClk.h **** * \copyright
  10:.\Generated_Source\PSoC4/CyLFClk.h **** * Copyright 2008-2016, Cypress Semiconductor Corporation.  All rights reserved.
  11:.\Generated_Source\PSoC4/CyLFClk.h **** * You may use this file only in accordance with the license, terms, conditions,
  12:.\Generated_Source\PSoC4/CyLFClk.h **** * disclaimers, and limitations in the end user license agreement accompanying
  13:.\Generated_Source\PSoC4/CyLFClk.h **** * the software package with which this file was provided.
  14:.\Generated_Source\PSoC4/CyLFClk.h **** *******************************************************************************/
  15:.\Generated_Source\PSoC4/CyLFClk.h **** 
  16:.\Generated_Source\PSoC4/CyLFClk.h **** 
  17:.\Generated_Source\PSoC4/CyLFClk.h **** #if !defined(CY_LFCLK_CYLIB_H)
  18:.\Generated_Source\PSoC4/CyLFClk.h **** #define CY_LFCLK_CYLIB_H
  19:.\Generated_Source\PSoC4/CyLFClk.h **** 
  20:.\Generated_Source\PSoC4/CyLFClk.h **** #include "cytypes.h"
  21:.\Generated_Source\PSoC4/CyLFClk.h **** #include "cydevice_trm.h"
  22:.\Generated_Source\PSoC4/CyLFClk.h **** 
  23:.\Generated_Source\PSoC4/CyLFClk.h **** #define CY_IP_WCO_WDT_EN           (-1 == 1)
ARM GAS  C:\Users\310295~1\AppData\Local\Temp\ccIU8zba.s 			page 35


  24:.\Generated_Source\PSoC4/CyLFClk.h **** 
  25:.\Generated_Source\PSoC4/CyLFClk.h **** 
  26:.\Generated_Source\PSoC4/CyLFClk.h **** typedef enum
  27:.\Generated_Source\PSoC4/CyLFClk.h **** {
  28:.\Generated_Source\PSoC4/CyLFClk.h ****     CY_SYS_TIMER_WAIT = 0u,
  29:.\Generated_Source\PSoC4/CyLFClk.h ****     CY_SYS_TIMER_INTERRUPT = 1u
  30:.\Generated_Source\PSoC4/CyLFClk.h **** } cy_sys_timer_delaytype_enum;
  31:.\Generated_Source\PSoC4/CyLFClk.h **** 
  32:.\Generated_Source\PSoC4/CyLFClk.h **** 
  33:.\Generated_Source\PSoC4/CyLFClk.h **** /***************************************
  34:.\Generated_Source\PSoC4/CyLFClk.h **** *    Function Prototypes
  35:.\Generated_Source\PSoC4/CyLFClk.h **** ***************************************/
  36:.\Generated_Source\PSoC4/CyLFClk.h **** /**
  37:.\Generated_Source\PSoC4/CyLFClk.h **** * \addtogroup group_general
  38:.\Generated_Source\PSoC4/CyLFClk.h **** * @{
  39:.\Generated_Source\PSoC4/CyLFClk.h **** */
  40:.\Generated_Source\PSoC4/CyLFClk.h **** /* Clocks API */
  41:.\Generated_Source\PSoC4/CyLFClk.h **** void CySysClkIloStart(void);
  42:.\Generated_Source\PSoC4/CyLFClk.h **** void CySysClkIloStop(void);
  43:.\Generated_Source\PSoC4/CyLFClk.h **** /** @} general */
  44:.\Generated_Source\PSoC4/CyLFClk.h **** 
  45:.\Generated_Source\PSoC4/CyLFClk.h **** /**
  46:.\Generated_Source\PSoC4/CyLFClk.h **** * \addtogroup group_compensate
  47:.\Generated_Source\PSoC4/CyLFClk.h **** * @{
  48:.\Generated_Source\PSoC4/CyLFClk.h **** */
  49:.\Generated_Source\PSoC4/CyLFClk.h **** cystatus CySysClkIloCompensate(uint32 desiredDelay, uint32 *compensatedCycles);
  50:.\Generated_Source\PSoC4/CyLFClk.h **** void CySysClkIloStartMeasurement(void);
  51:.\Generated_Source\PSoC4/CyLFClk.h **** void CySysClkIloStopMeasurement(void);
  52:.\Generated_Source\PSoC4/CyLFClk.h **** /** @} compensate */
  53:.\Generated_Source\PSoC4/CyLFClk.h **** 
  54:.\Generated_Source\PSoC4/CyLFClk.h **** #if(CY_IP_SRSSV2 && (!(CY_PSOC4_4100 || CY_PSOC4_4200)))
  55:.\Generated_Source\PSoC4/CyLFClk.h **** /**
  56:.\Generated_Source\PSoC4/CyLFClk.h **** * \addtogroup group_compensate
  57:.\Generated_Source\PSoC4/CyLFClk.h **** * @{
  58:.\Generated_Source\PSoC4/CyLFClk.h **** */
  59:.\Generated_Source\PSoC4/CyLFClk.h ****     cystatus CySysClkIloTrim(uint32 mode, int32 *iloAccuracyInPPT);
  60:.\Generated_Source\PSoC4/CyLFClk.h ****     cystatus CySysClkIloRestoreFactoryTrim(void);
  61:.\Generated_Source\PSoC4/CyLFClk.h **** /** @} compensate */
  62:.\Generated_Source\PSoC4/CyLFClk.h ****     cystatus CySysClkIloUpdateTrimReg(int32* iloAccuracyInPPT);
  63:.\Generated_Source\PSoC4/CyLFClk.h **** #endif /* (CY_IP_SRSSV2 && (!(CY_PSOC4_4100 || CY_PSOC4_4200))) */
  64:.\Generated_Source\PSoC4/CyLFClk.h **** 
  65:.\Generated_Source\PSoC4/CyLFClk.h **** #if(CY_IP_SRSSV2 && CY_IP_WCO)
  66:.\Generated_Source\PSoC4/CyLFClk.h **** /**
  67:.\Generated_Source\PSoC4/CyLFClk.h **** * \addtogroup group_general
  68:.\Generated_Source\PSoC4/CyLFClk.h **** * @{
  69:.\Generated_Source\PSoC4/CyLFClk.h **** */
  70:.\Generated_Source\PSoC4/CyLFClk.h ****     void CySysClkSetLfclkSource(uint32 source);
  71:.\Generated_Source\PSoC4/CyLFClk.h **** /** @} group_general */
  72:.\Generated_Source\PSoC4/CyLFClk.h **** #endif /* (CY_IP_SRSSV2 && CY_IP_WCO) */
  73:.\Generated_Source\PSoC4/CyLFClk.h **** 
  74:.\Generated_Source\PSoC4/CyLFClk.h **** #if (CY_IP_WCO)
  75:.\Generated_Source\PSoC4/CyLFClk.h **** /**
  76:.\Generated_Source\PSoC4/CyLFClk.h **** * \addtogroup group_wco
  77:.\Generated_Source\PSoC4/CyLFClk.h **** * @{
  78:.\Generated_Source\PSoC4/CyLFClk.h **** */
  79:.\Generated_Source\PSoC4/CyLFClk.h ****     void   CySysClkWcoStart(void);
  80:.\Generated_Source\PSoC4/CyLFClk.h ****     void   CySysClkWcoStop(void);
ARM GAS  C:\Users\310295~1\AppData\Local\Temp\ccIU8zba.s 			page 36


  81:.\Generated_Source\PSoC4/CyLFClk.h ****     uint32 CySysClkWcoSetPowerMode(uint32 mode);
  82:.\Generated_Source\PSoC4/CyLFClk.h ****     void CySysClkWcoClockOutSelect(uint32 clockSel);
  83:.\Generated_Source\PSoC4/CyLFClk.h **** /** @} wco */
  84:.\Generated_Source\PSoC4/CyLFClk.h ****     uint32 CySysClkWcoEnabled(void);
  85:.\Generated_Source\PSoC4/CyLFClk.h **** 
  86:.\Generated_Source\PSoC4/CyLFClk.h **** #endif /* (CY_IP_WCO) */
  87:.\Generated_Source\PSoC4/CyLFClk.h **** 
  88:.\Generated_Source\PSoC4/CyLFClk.h **** typedef void (*cyWdtCallback)(void);
  89:.\Generated_Source\PSoC4/CyLFClk.h **** 
  90:.\Generated_Source\PSoC4/CyLFClk.h **** #if (CY_IP_SRSSLT && CY_IP_WCO && CY_IP_WCO_WDT_EN)
  91:.\Generated_Source\PSoC4/CyLFClk.h **** 
  92:.\Generated_Source\PSoC4/CyLFClk.h ****     typedef void (*cyTimerCallback)(void);
  93:.\Generated_Source\PSoC4/CyLFClk.h **** #endif /* (CY_IP_SRSSLT && CY_IP_WCO && CY_IP_WCO_WDT_EN) */
  94:.\Generated_Source\PSoC4/CyLFClk.h **** 
  95:.\Generated_Source\PSoC4/CyLFClk.h **** #if(CY_IP_SRSSV2)
  96:.\Generated_Source\PSoC4/CyLFClk.h **** /**
  97:.\Generated_Source\PSoC4/CyLFClk.h **** * \addtogroup group_wdtsrssv2
  98:.\Generated_Source\PSoC4/CyLFClk.h **** * @{
  99:.\Generated_Source\PSoC4/CyLFClk.h **** */
 100:.\Generated_Source\PSoC4/CyLFClk.h ****     /* WDT API */
 101:.\Generated_Source\PSoC4/CyLFClk.h ****     void   CySysWdtLock(void);
 102:.\Generated_Source\PSoC4/CyLFClk.h ****     void   CySysWdtUnlock(void);
 103:.\Generated_Source\PSoC4/CyLFClk.h ****     void   CySysWdtSetMode(uint32 counterNum, uint32 mode);
 104:.\Generated_Source\PSoC4/CyLFClk.h ****     uint32 CySysWdtGetMode(uint32 counterNum);
 105:.\Generated_Source\PSoC4/CyLFClk.h ****     uint32 CySysWdtGetEnabledStatus(uint32 counterNum);
 106:.\Generated_Source\PSoC4/CyLFClk.h ****     void   CySysWdtSetClearOnMatch(uint32 counterNum, uint32 enable);
 107:.\Generated_Source\PSoC4/CyLFClk.h ****     uint32 CySysWdtGetClearOnMatch(uint32 counterNum);
 108:.\Generated_Source\PSoC4/CyLFClk.h ****     void   CySysWdtEnable(uint32 counterMask);
 109:.\Generated_Source\PSoC4/CyLFClk.h ****     void   CySysWdtDisable(uint32 counterMask);
 110:.\Generated_Source\PSoC4/CyLFClk.h ****     void   CySysWdtSetCascade(uint32 cascadeMask);
 111:.\Generated_Source\PSoC4/CyLFClk.h ****     uint32 CySysWdtGetCascade(void);
 112:.\Generated_Source\PSoC4/CyLFClk.h ****     void   CySysWdtSetMatch(uint32 counterNum, uint32 match);
 113:.\Generated_Source\PSoC4/CyLFClk.h ****     void   CySysWdtSetToggleBit(uint32 bits);
 114:.\Generated_Source\PSoC4/CyLFClk.h ****     uint32 CySysWdtGetToggleBit(void);
 115:.\Generated_Source\PSoC4/CyLFClk.h ****     uint32 CySysWdtGetMatch(uint32 counterNum);
 116:.\Generated_Source\PSoC4/CyLFClk.h ****     uint32 CySysWdtGetCount(uint32 counterNum);
 117:.\Generated_Source\PSoC4/CyLFClk.h ****     uint32 CySysWdtGetInterruptSource(void);
 118:.\Generated_Source\PSoC4/CyLFClk.h ****     void   CySysWdtClearInterrupt(uint32 counterMask);
 119:.\Generated_Source\PSoC4/CyLFClk.h ****     void   CySysWdtResetCounters(uint32 countersMask);
 120:.\Generated_Source\PSoC4/CyLFClk.h ****     cyWdtCallback  CySysWdtSetInterruptCallback(uint32 counterNum, cyWdtCallback function);
 121:.\Generated_Source\PSoC4/CyLFClk.h ****     cyWdtCallback  CySysWdtGetInterruptCallback(uint32 counterNum);
 122:.\Generated_Source\PSoC4/CyLFClk.h ****     void   CySysTimerDelay(uint32 counterNum, cy_sys_timer_delaytype_enum delayType, uint32 delay);
 123:.\Generated_Source\PSoC4/CyLFClk.h ****     void   CySysTimerDelayUntilMatch(uint32 counterNum, cy_sys_timer_delaytype_enum delayType, uint
 124:.\Generated_Source\PSoC4/CyLFClk.h ****     void   CySysWatchdogFeed(uint32 counterNum);
 125:.\Generated_Source\PSoC4/CyLFClk.h ****     void   CySysWdtEnableCounterIsr(uint32 counterNum);
 126:.\Generated_Source\PSoC4/CyLFClk.h ****     void   CySysWdtDisableCounterIsr(uint32 counterNum);
 127:.\Generated_Source\PSoC4/CyLFClk.h ****     void   CySysWdtIsr(void);
 128:.\Generated_Source\PSoC4/CyLFClk.h **** /** @} wdtsrssv2 */
 129:.\Generated_Source\PSoC4/CyLFClk.h **** #else
 130:.\Generated_Source\PSoC4/CyLFClk.h **** /**
 131:.\Generated_Source\PSoC4/CyLFClk.h **** * \addtogroup group_wdtsrsslite
 132:.\Generated_Source\PSoC4/CyLFClk.h **** * @{
 133:.\Generated_Source\PSoC4/CyLFClk.h **** */
 134:.\Generated_Source\PSoC4/CyLFClk.h ****     /* WDT API */
 135:.\Generated_Source\PSoC4/CyLFClk.h ****     uint32 CySysWdtGetEnabledStatus(void);
 136:.\Generated_Source\PSoC4/CyLFClk.h ****     void   CySysWdtEnable(void);
 137:.\Generated_Source\PSoC4/CyLFClk.h ****     void   CySysWdtDisable(void);
ARM GAS  C:\Users\310295~1\AppData\Local\Temp\ccIU8zba.s 			page 37


 138:.\Generated_Source\PSoC4/CyLFClk.h ****     void   CySysWdtSetMatch(uint32 match);
 139:.\Generated_Source\PSoC4/CyLFClk.h ****     uint32 CySysWdtGetMatch(void);
 140:.\Generated_Source\PSoC4/CyLFClk.h ****     uint32 CySysWdtGetCount(void);
 141:.\Generated_Source\PSoC4/CyLFClk.h ****     void   CySysWdtSetIgnoreBits(uint32 bitsNum);
 142:.\Generated_Source\PSoC4/CyLFClk.h ****     uint32 CySysWdtGetIgnoreBits(void);
 143:.\Generated_Source\PSoC4/CyLFClk.h ****     void   CySysWdtClearInterrupt(void);
 144:.\Generated_Source\PSoC4/CyLFClk.h ****     void   CySysWdtMaskInterrupt(void);
 145:.\Generated_Source\PSoC4/CyLFClk.h ****     void   CySysWdtUnmaskInterrupt(void);
 146:.\Generated_Source\PSoC4/CyLFClk.h ****     cyWdtCallback CySysWdtSetInterruptCallback(cyWdtCallback function);
 147:.\Generated_Source\PSoC4/CyLFClk.h ****     cyWdtCallback CySysWdtGetInterruptCallback(void);
 148:.\Generated_Source\PSoC4/CyLFClk.h ****     void   CySysWdtIsr(void);
 149:.\Generated_Source\PSoC4/CyLFClk.h **** /** @} wdtsrsslite*/
 150:.\Generated_Source\PSoC4/CyLFClk.h **** #endif  /* (CY_IP_SRSSV2) */
 151:.\Generated_Source\PSoC4/CyLFClk.h **** 
 152:.\Generated_Source\PSoC4/CyLFClk.h **** 
 153:.\Generated_Source\PSoC4/CyLFClk.h **** #if(CY_IP_SRSSLT && CY_IP_WCO && CY_IP_WCO_WDT_EN)
 154:.\Generated_Source\PSoC4/CyLFClk.h **** /**
 155:.\Generated_Source\PSoC4/CyLFClk.h **** * \addtogroup group_deepsleepwdt
 156:.\Generated_Source\PSoC4/CyLFClk.h **** * @{
 157:.\Generated_Source\PSoC4/CyLFClk.h **** */
 158:.\Generated_Source\PSoC4/CyLFClk.h ****     /* WCO WDT APIs */
 159:.\Generated_Source\PSoC4/CyLFClk.h ****     void   CySysClkSetTimerSource(uint32 source);
 160:.\Generated_Source\PSoC4/CyLFClk.h ****     void   CySysTimerSetMode(uint32 counterNum, uint32 mode);
 161:.\Generated_Source\PSoC4/CyLFClk.h ****     uint32 CySysTimerGetMode(uint32 counterNum);
 162:.\Generated_Source\PSoC4/CyLFClk.h ****     uint32 CySysTimerGetEnabledStatus(uint32 counterNum);
 163:.\Generated_Source\PSoC4/CyLFClk.h ****     void   CySysTimerSetClearOnMatch(uint32 counterNum, uint32 enable);
 164:.\Generated_Source\PSoC4/CyLFClk.h ****     uint32 CySysTimerGetClearOnMatch(uint32 counterNum);
 165:.\Generated_Source\PSoC4/CyLFClk.h ****     void   CySysTimerEnable(uint32 counterMask);
 166:.\Generated_Source\PSoC4/CyLFClk.h ****     void   CySysTimerDisable(uint32 counterMask);
 167:.\Generated_Source\PSoC4/CyLFClk.h ****     void   CySysTimerSetCascade(uint32 cascadeMask);
 168:.\Generated_Source\PSoC4/CyLFClk.h ****     uint32 CySysTimerGetCascade(void);
 169:.\Generated_Source\PSoC4/CyLFClk.h ****     void   CySysTimerSetMatch(uint32 counterNum, uint32 match);
 170:.\Generated_Source\PSoC4/CyLFClk.h ****     void   CySysTimerSetToggleBit(uint32 bits);
 171:.\Generated_Source\PSoC4/CyLFClk.h ****     uint32 CySysTimerGetToggleBit(void);
 172:.\Generated_Source\PSoC4/CyLFClk.h ****     uint32 CySysTimerGetMatch(uint32 counterNum);
 173:.\Generated_Source\PSoC4/CyLFClk.h ****     uint32 CySysTimerGetCount(uint32 counterNum);
 174:.\Generated_Source\PSoC4/CyLFClk.h ****     uint32 CySysTimerGetInterruptSource(void);
 175:.\Generated_Source\PSoC4/CyLFClk.h ****     void   CySysTimerClearInterrupt(uint32 counterMask);
 176:.\Generated_Source\PSoC4/CyLFClk.h ****     cyTimerCallback CySysTimerSetInterruptCallback(uint32 counterNum, cyTimerCallback function);
 177:.\Generated_Source\PSoC4/CyLFClk.h ****     cyTimerCallback CySysTimerGetInterruptCallback(uint32 counterNum);
 178:.\Generated_Source\PSoC4/CyLFClk.h ****     void   CySysTimerDelay(uint32 counterNum, cy_sys_timer_delaytype_enum delayType, uint32 delay);
 179:.\Generated_Source\PSoC4/CyLFClk.h ****     void   CySysTimerDelayUntilMatch(uint32 counterNum, cy_sys_timer_delaytype_enum delayType, uint
 180:.\Generated_Source\PSoC4/CyLFClk.h ****     void   CySysTimerResetCounters(uint32 countersMask);
 181:.\Generated_Source\PSoC4/CyLFClk.h ****     void   CySysTimerEnableIsr(uint32 counterNum);
 182:.\Generated_Source\PSoC4/CyLFClk.h ****     void   CySysTimerDisableIsr(uint32 counterNum);
 183:.\Generated_Source\PSoC4/CyLFClk.h ****     void   CySysTimerIsr(void);
 184:.\Generated_Source\PSoC4/CyLFClk.h **** /** @} deepsleepwdt */
 185:.\Generated_Source\PSoC4/CyLFClk.h **** #endif /* (CY_IP_SRSSLT && CY_IP_WCO && CY_IP_WCO_WDT_EN) */
 186:.\Generated_Source\PSoC4/CyLFClk.h **** 
 187:.\Generated_Source\PSoC4/CyLFClk.h **** 
 188:.\Generated_Source\PSoC4/CyLFClk.h **** /*******************************************************************************
 189:.\Generated_Source\PSoC4/CyLFClk.h **** * API Constants
 190:.\Generated_Source\PSoC4/CyLFClk.h **** *******************************************************************************/
 191:.\Generated_Source\PSoC4/CyLFClk.h **** #define CY_SYS_UINT16_MAX_VAL    (0xFFFFu)
 192:.\Generated_Source\PSoC4/CyLFClk.h **** 
 193:.\Generated_Source\PSoC4/CyLFClk.h **** 
 194:.\Generated_Source\PSoC4/CyLFClk.h **** /*******************************************************************************
ARM GAS  C:\Users\310295~1\AppData\Local\Temp\ccIU8zba.s 			page 38


 195:.\Generated_Source\PSoC4/CyLFClk.h **** * Clock API Constants
 196:.\Generated_Source\PSoC4/CyLFClk.h **** *******************************************************************************/
 197:.\Generated_Source\PSoC4/CyLFClk.h **** 
 198:.\Generated_Source\PSoC4/CyLFClk.h **** /* CySysClkIloStart()/CySysClkIloStop() - implementation definitions */
 199:.\Generated_Source\PSoC4/CyLFClk.h **** #define CY_SYS_CLK_ILO_CONFIG_ENABLE                    ((uint32)(( uint32 )0x01u << 31u))
 200:.\Generated_Source\PSoC4/CyLFClk.h **** #define CY_SYS_CLK_DFT_SELECT_DEFAULT_MASK              ((uint32)(( uint32 )0x0fu << 8u ))
 201:.\Generated_Source\PSoC4/CyLFClk.h **** 
 202:.\Generated_Source\PSoC4/CyLFClk.h **** /* CySysClkIloCompensate() - one ILO clock in uS multiplied on thousand */
 203:.\Generated_Source\PSoC4/CyLFClk.h **** #if (CY_IP_SRSSV2)
 204:.\Generated_Source\PSoC4/CyLFClk.h ****     #define CY_SYS_CLK_ILO_PERIOD_PPH                   ((uint32) (0x0C35u))
 205:.\Generated_Source\PSoC4/CyLFClk.h **** #else
 206:.\Generated_Source\PSoC4/CyLFClk.h ****     #define CY_SYS_CLK_ILO_PERIOD_PPH                   ((uint32) (0x09C4u))
 207:.\Generated_Source\PSoC4/CyLFClk.h **** #endif /* (CY_IP_SRSSV2) */
 208:.\Generated_Source\PSoC4/CyLFClk.h **** 
 209:.\Generated_Source\PSoC4/CyLFClk.h **** /* CySysClkIloCompensate() - implementation definitions */
 210:.\Generated_Source\PSoC4/CyLFClk.h **** #define CY_SYS_CLK_ILO_CALIBR_COMPLETE_MASK             ((uint32)(( uint32 )0x01u << 31u))
 211:.\Generated_Source\PSoC4/CyLFClk.h **** #define CY_SYS_CLK_ILO_DFT_LSB_MASK                     ((uint32)(0x00000FFFu))
 212:.\Generated_Source\PSoC4/CyLFClk.h **** #define CY_SYS_CLK_TRIM_OR_COMP_STARTED                 (1u)
 213:.\Generated_Source\PSoC4/CyLFClk.h **** #define CY_SYS_CLK_TRIM_OR_COMP_FINISHED                (0u)
 214:.\Generated_Source\PSoC4/CyLFClk.h **** #define CY_SYS_CLK_COEF_PHUNDRED                        ((uint32) (0x64u))
 215:.\Generated_Source\PSoC4/CyLFClk.h **** #define CY_SYS_CLK_HALF_OF_CLOCK                        ((uint32) ((uint32) CY_SYS_CLK_ILO_PERIOD_P
 216:.\Generated_Source\PSoC4/CyLFClk.h **** 
 217:.\Generated_Source\PSoC4/CyLFClk.h **** /* CySysClkIloCompensate() - maximum value of desiredDelay argument */
 218:.\Generated_Source\PSoC4/CyLFClk.h **** #if (CY_IP_SRSSV2)
 219:.\Generated_Source\PSoC4/CyLFClk.h ****     #define CY_SYS_CLK_MAX_DELAY_US                     ((uint32) (0xEE6B2800u))
 220:.\Generated_Source\PSoC4/CyLFClk.h ****     #define CY_SYS_CLK_ILO_PERIOD                       ((uint32) (0x1Fu))
 221:.\Generated_Source\PSoC4/CyLFClk.h ****     #define CY_SYS_CLK_ILO_FREQ_2MSB                    ((uint32) 5u)
 222:.\Generated_Source\PSoC4/CyLFClk.h **** #else
 223:.\Generated_Source\PSoC4/CyLFClk.h ****     #define CY_SYS_CLK_MAX_DELAY_US                     ((uint32) (0x1E8480u))
 224:.\Generated_Source\PSoC4/CyLFClk.h ****     #define CY_SYS_CLK_ILO_FREQ_2MSB                    ((uint32) (0x28u ))
 225:.\Generated_Source\PSoC4/CyLFClk.h **** 
 226:.\Generated_Source\PSoC4/CyLFClk.h **** 
 227:.\Generated_Source\PSoC4/CyLFClk.h **** /**********************************************************************************
 228:.\Generated_Source\PSoC4/CyLFClk.h **** * CySysClkIloCompensate() - value to walk over oversamling in calculations with srsslite.
 229:.\Generated_Source\PSoC4/CyLFClk.h **** * The oversample can be obtained when ilo frequency in equal 80 KHz and desired clocks 
 230:.\Generated_Source\PSoC4/CyLFClk.h **** * are 80 000 clocks.
 231:.\Generated_Source\PSoC4/CyLFClk.h **** **********************************************************************************/
 232:.\Generated_Source\PSoC4/CyLFClk.h **** #define CY_SYS_CLK_MAX_LITE_NUMBER                     ((uint32) 53600u)
 233:.\Generated_Source\PSoC4/CyLFClk.h **** #endif /* (CY_IP_SRSSV2) */
 234:.\Generated_Source\PSoC4/CyLFClk.h **** 
 235:.\Generated_Source\PSoC4/CyLFClk.h **** #define CY_SYS_CLK_ILO_FREQ_3LSB                       ((uint32) (0x3E8u))
 236:.\Generated_Source\PSoC4/CyLFClk.h **** #define CY_SYS_CLK_DELAY_COUNTS_LIMIT                  ((uint32) (0xD160u))
 237:.\Generated_Source\PSoC4/CyLFClk.h **** #define CY_SYS_CLK_MIN_DELAY_US                        ((uint32) (0x64u))
 238:.\Generated_Source\PSoC4/CyLFClk.h **** 
 239:.\Generated_Source\PSoC4/CyLFClk.h **** /* CySysClkSetLfclkSource() - parameter definitions */
 240:.\Generated_Source\PSoC4/CyLFClk.h **** #if (CY_IP_SRSSV2 && CY_IP_WCO)
 241:.\Generated_Source\PSoC4/CyLFClk.h ****     #define CY_SYS_CLK_LFCLK_SRC_ILO                    (0u)                                  /**< 
 242:.\Generated_Source\PSoC4/CyLFClk.h ****     #define CY_SYS_CLK_LFCLK_SRC_WCO                    ((uint32)(( uint32 )0x01u << 30u))    /**< 
 243:.\Generated_Source\PSoC4/CyLFClk.h **** #endif /* (CY_IP_SRSSV2 && CY_IP_WCO) */
 244:.\Generated_Source\PSoC4/CyLFClk.h **** 
 245:.\Generated_Source\PSoC4/CyLFClk.h **** /* CySysClkSetLfclkSource() - implementation definitions */
 246:.\Generated_Source\PSoC4/CyLFClk.h **** #if (CY_IP_WCO)
 247:.\Generated_Source\PSoC4/CyLFClk.h ****     #define CY_SYS_CLK_LFCLK_SEL_MASK                   ((uint32)(( uint32 )0x03u << 30u))
 248:.\Generated_Source\PSoC4/CyLFClk.h **** #endif /* (CY_IP_WCO) */
 249:.\Generated_Source\PSoC4/CyLFClk.h **** 
 250:.\Generated_Source\PSoC4/CyLFClk.h **** /* CySysClkSetTimerSource() - implementation definitions */
 251:.\Generated_Source\PSoC4/CyLFClk.h **** #if (CY_IP_SRSSLT && CY_IP_WCO && CY_IP_WCO_WDT_EN)
ARM GAS  C:\Users\310295~1\AppData\Local\Temp\ccIU8zba.s 			page 39


 252:.\Generated_Source\PSoC4/CyLFClk.h ****     #define CY_SYS_CLK_TIMER_SEL_MASK                   ((uint32)(( uint32 )0x03u << 30u))
 253:.\Generated_Source\PSoC4/CyLFClk.h **** #endif /* (CY_IP_SRSSLT && CY_IP_WCO && CY_IP_WCO_WDT_EN) */
 254:.\Generated_Source\PSoC4/CyLFClk.h **** 
 255:.\Generated_Source\PSoC4/CyLFClk.h **** /* CySysClkSetTimerSource() - parameter definitions */
 256:.\Generated_Source\PSoC4/CyLFClk.h **** #if (CY_IP_SRSSLT && CY_IP_WCO && CY_IP_WCO_WDT_EN)
 257:.\Generated_Source\PSoC4/CyLFClk.h ****     #define CY_SYS_CLK_TIMER_SRC_ILO                (0u)                                  /**< Inte
 258:.\Generated_Source\PSoC4/CyLFClk.h ****     #define CY_SYS_CLK_TIMER_SRC_WCO                ((uint32)(( uint32 )0x01u << 30u))    /**< Low 
 259:.\Generated_Source\PSoC4/CyLFClk.h **** #endif /* (CY_IP_SRSSLT && CY_IP_WCO && CY_IP_WCO_WDT_EN) */
 260:.\Generated_Source\PSoC4/CyLFClk.h **** 
 261:.\Generated_Source\PSoC4/CyLFClk.h **** /* CySysClkWcoClockOutSelect() - parameter definitions */
 262:.\Generated_Source\PSoC4/CyLFClk.h **** #if (CY_IP_WCO)
 263:.\Generated_Source\PSoC4/CyLFClk.h ****     #define CY_SYS_CLK_WCO_SEL_CRYSTAL                  (1u)    /**< Selects External crystal as WC
 264:.\Generated_Source\PSoC4/CyLFClk.h ****     #define CY_SYS_CLK_WCO_SEL_PIN                      (0u)    /**<Selects External clock input on
 265:.\Generated_Source\PSoC4/CyLFClk.h **** #endif /* (CY_IP_WCO) */
 266:.\Generated_Source\PSoC4/CyLFClk.h **** 
 267:.\Generated_Source\PSoC4/CyLFClk.h **** /* CySysClkWcoClockOutSelect() - implementation definitions */
 268:.\Generated_Source\PSoC4/CyLFClk.h **** #if (CY_IP_WCO)
 269:.\Generated_Source\PSoC4/CyLFClk.h ****     #define CY_SYS_CLK_WCO_SELECT_PIN_MASK              ((uint32)(( uint32 )0x01u << 2u))
 270:.\Generated_Source\PSoC4/CyLFClk.h ****     #define CY_SYS_CLK_WCO_SELECT_PIN_OFFSET            ((uint32) 0x02u)
 271:.\Generated_Source\PSoC4/CyLFClk.h **** #endif /* (CY_IP_WCO) */
 272:.\Generated_Source\PSoC4/CyLFClk.h **** 
 273:.\Generated_Source\PSoC4/CyLFClk.h **** /* CySysClkIloRestoreFactoryTrim() - implementation definitions */
 274:.\Generated_Source\PSoC4/CyLFClk.h **** #if (CY_IP_SRSSV2 && CY_IP_WCO && (!(CY_PSOC4_4100 || CY_PSOC4_4200)))
 275:.\Generated_Source\PSoC4/CyLFClk.h ****     #define CY_SYS_CLK_ILO_TRIM_DEFAULT_VALUE           ((uint8 )(0xF0u))
 276:.\Generated_Source\PSoC4/CyLFClk.h ****     #define CY_SYS_CLK_ILO_TRIM_DEFAULT_MASK            ((uint32)((uint32)0x01u << 3u))
 277:.\Generated_Source\PSoC4/CyLFClk.h ****     #define CY_SYS_CLK_ILO_TRIM_MASK                    ((uint32)(0x0Fu))
 278:.\Generated_Source\PSoC4/CyLFClk.h **** #endif /* (CY_IP_SRSSV2 && CY_IP_WCO && (!(CY_PSOC4_4100 || CY_PSOC4_4200))) */
 279:.\Generated_Source\PSoC4/CyLFClk.h **** 
 280:.\Generated_Source\PSoC4/CyLFClk.h **** /* CySysIloTrim() - parameter definitions and macros*/
 281:.\Generated_Source\PSoC4/CyLFClk.h **** #if (CY_IP_SRSSV2 && CY_IP_WCO && (!(CY_PSOC4_4100 || CY_PSOC4_4200)))
 282:.\Generated_Source\PSoC4/CyLFClk.h ****     #define CY_SYS_CLK_BLOCKING                         (0u)
 283:.\Generated_Source\PSoC4/CyLFClk.h ****     #define CY_SYS_CLK_NON_BLOCKING                     (1u)
 284:.\Generated_Source\PSoC4/CyLFClk.h ****     #define CY_SYS_CLK_PERTHOUSAND                      ((uint32) 0x000003E8u )
 285:.\Generated_Source\PSoC4/CyLFClk.h ****     #define CY_SYS_CLK_ABS_MACRO(x)                     ((0 > (x)) ? (-(x)) : (x))
 286:.\Generated_Source\PSoC4/CyLFClk.h ****     #define CY_SYS_CLK_ERROR_RANGE                      ((uint32) 0x38u)
 287:.\Generated_Source\PSoC4/CyLFClk.h ****     #define CY_SYS_CLK_TIMEOUT                          ((uint8 ) 0x05u)
 288:.\Generated_Source\PSoC4/CyLFClk.h **** 
 289:.\Generated_Source\PSoC4/CyLFClk.h ****     /* ILO error step is 7,37 % error range */
 290:.\Generated_Source\PSoC4/CyLFClk.h ****     #define CY_SYS_CLK_ERROR_STEP                       (( int32) 0x02E1u)
 291:.\Generated_Source\PSoC4/CyLFClk.h ****     #define CY_SYS_CLK_ERROR_COEF                       ((uint32) 0x0Au)
 292:.\Generated_Source\PSoC4/CyLFClk.h **** #endif /* (CY_IP_SRSSV2 && CY_IP_WCO && (!(CY_PSOC4_4100 || CY_PSOC4_4200))) */
 293:.\Generated_Source\PSoC4/CyLFClk.h **** 
 294:.\Generated_Source\PSoC4/CyLFClk.h **** #if (CY_IP_WCO)
 295:.\Generated_Source\PSoC4/CyLFClk.h ****     /* WCO Configuration Register */
 296:.\Generated_Source\PSoC4/CyLFClk.h ****     #define CY_SYS_CLK_WCO_CONFIG_LPM_EN                (( uint32 )(( uint32 )0x01u <<  0u))
 297:.\Generated_Source\PSoC4/CyLFClk.h ****     #define CY_SYS_CLK_WCO_CONFIG_LPM_AUTO              (( uint32 )(( uint32 )0x01u <<  1u))
 298:.\Generated_Source\PSoC4/CyLFClk.h ****     #define CY_SYS_CLK_WCO_CONFIG_LPM_ENABLE            (( uint32 )(( uint32 )0x01u << 31u))
 299:.\Generated_Source\PSoC4/CyLFClk.h **** 
 300:.\Generated_Source\PSoC4/CyLFClk.h ****     /* WCO Status Register */
 301:.\Generated_Source\PSoC4/CyLFClk.h ****     #define CY_SYS_CLK_WCO_STATUS_OUT_BLNK_A            (( uint32 )(( uint32 )0x01u <<  0u))
 302:.\Generated_Source\PSoC4/CyLFClk.h **** 
 303:.\Generated_Source\PSoC4/CyLFClk.h ****     /* WCO Trim Register */
 304:.\Generated_Source\PSoC4/CyLFClk.h ****     #define CY_SYS_CLK_WCO_TRIM_XGM_MASK                (( uint32 ) 0x07u)
 305:.\Generated_Source\PSoC4/CyLFClk.h ****     #define CY_SYS_CLK_WCO_TRIM_XGM_SHIFT               (( uint32 ) 0x00u)
 306:.\Generated_Source\PSoC4/CyLFClk.h **** 
 307:.\Generated_Source\PSoC4/CyLFClk.h ****     #define CY_SYS_CLK_WCO_TRIM_XGM_3370NA              (( uint32 ) 0x00u)
 308:.\Generated_Source\PSoC4/CyLFClk.h ****     #define CY_SYS_CLK_WCO_TRIM_XGM_2620NA              (( uint32 ) 0x01u)
ARM GAS  C:\Users\310295~1\AppData\Local\Temp\ccIU8zba.s 			page 40


 309:.\Generated_Source\PSoC4/CyLFClk.h ****     #define CY_SYS_CLK_WCO_TRIM_XGM_2250NA              (( uint32 ) 0x02u)
 310:.\Generated_Source\PSoC4/CyLFClk.h ****     #define CY_SYS_CLK_WCO_TRIM_XGM_1500NA              (( uint32 ) 0x03u)
 311:.\Generated_Source\PSoC4/CyLFClk.h ****     #define CY_SYS_CLK_WCO_TRIM_XGM_1870NA              (( uint32 ) 0x04u)
 312:.\Generated_Source\PSoC4/CyLFClk.h ****     #define CY_SYS_CLK_WCO_TRIM_XGM_1120NA              (( uint32 ) 0x05u)
 313:.\Generated_Source\PSoC4/CyLFClk.h ****     #define CY_SYS_CLK_WCO_TRIM_XGM_750NA               (( uint32 ) 0x06u)
 314:.\Generated_Source\PSoC4/CyLFClk.h ****     #define CY_SYS_CLK_WCO_TRIM_XGM_0NA                 (( uint32 ) 0x07u)
 315:.\Generated_Source\PSoC4/CyLFClk.h **** 
 316:.\Generated_Source\PSoC4/CyLFClk.h ****     #define CY_SYS_CLK_WCO_TRIM_GM_MASK                 (( uint32 )(( uint32 )0x03u << 4u))
 317:.\Generated_Source\PSoC4/CyLFClk.h ****     #define CY_SYS_CLK_WCO_TRIM_GM_SHIFT                (( uint32 ) 0x04u)
 318:.\Generated_Source\PSoC4/CyLFClk.h ****     #define CY_SYS_CLK_WCO_TRIM_GM_HPM                  (( uint32 ) 0x01u)
 319:.\Generated_Source\PSoC4/CyLFClk.h ****     #define CY_SYS_CLK_WCO_TRIM_GM_LPM                  (( uint32 ) 0x02u)
 320:.\Generated_Source\PSoC4/CyLFClk.h **** #endif  /* (CY_IP_WCO) */
 321:.\Generated_Source\PSoC4/CyLFClk.h **** 
 322:.\Generated_Source\PSoC4/CyLFClk.h **** 
 323:.\Generated_Source\PSoC4/CyLFClk.h **** /*******************************************************************************
 324:.\Generated_Source\PSoC4/CyLFClk.h **** * WDT API Constants
 325:.\Generated_Source\PSoC4/CyLFClk.h **** *******************************************************************************/
 326:.\Generated_Source\PSoC4/CyLFClk.h **** #if(CY_IP_SRSSV2)
 327:.\Generated_Source\PSoC4/CyLFClk.h **** 
 328:.\Generated_Source\PSoC4/CyLFClk.h ****     #define CY_SYS_WDT_MODE_NONE                (0u)
 329:.\Generated_Source\PSoC4/CyLFClk.h ****     #define CY_SYS_WDT_MODE_INT                 (1u)
 330:.\Generated_Source\PSoC4/CyLFClk.h ****     #define CY_SYS_WDT_MODE_RESET               (2u)
 331:.\Generated_Source\PSoC4/CyLFClk.h ****     #define CY_SYS_WDT_MODE_INT_RESET           (3u)
 332:.\Generated_Source\PSoC4/CyLFClk.h **** 
 333:.\Generated_Source\PSoC4/CyLFClk.h ****     #define CY_SYS_WDT_COUNTER0_MASK            ((uint32)((uint32)0x01u))           /**< Counter 0 
 334:.\Generated_Source\PSoC4/CyLFClk.h ****     #define CY_SYS_WDT_COUNTER1_MASK            ((uint32)((uint32)0x01u << 8u))     /**< Counter 1 
 335:.\Generated_Source\PSoC4/CyLFClk.h ****     #define CY_SYS_WDT_COUNTER2_MASK            ((uint32)((uint32)0x01u << 16u))    /**< Counter 2 
 336:.\Generated_Source\PSoC4/CyLFClk.h **** 
 337:.\Generated_Source\PSoC4/CyLFClk.h ****     #define CY_SYS_WDT_CASCADE_NONE             ((uint32)0x00u)             /**< Neither */
 338:.\Generated_Source\PSoC4/CyLFClk.h ****     #define CY_SYS_WDT_CASCADE_01               ((uint32)0x01u << 3u)       /**< Cascade 01 */
 339:.\Generated_Source\PSoC4/CyLFClk.h ****     #define CY_SYS_WDT_CASCADE_12               ((uint32)0x01u << 11u)      /**< Cascade 12 */
 340:.\Generated_Source\PSoC4/CyLFClk.h **** 
 341:.\Generated_Source\PSoC4/CyLFClk.h ****     #define CY_SYS_WDT_COUNTER0_INT             ((uint32)0x01u << 2u)
 342:.\Generated_Source\PSoC4/CyLFClk.h ****     #define CY_SYS_WDT_COUNTER1_INT             ((uint32)0x01u << 10u)
 343:.\Generated_Source\PSoC4/CyLFClk.h ****     #define CY_SYS_WDT_COUNTER2_INT             ((uint32)0x01u << 18u)
 344:.\Generated_Source\PSoC4/CyLFClk.h **** 
 345:.\Generated_Source\PSoC4/CyLFClk.h ****     #define CY_SYS_WDT_COUNTER0_RESET           ((uint32)0x01u << 3u)       /**< Counter 0 */
 346:.\Generated_Source\PSoC4/CyLFClk.h ****     #define CY_SYS_WDT_COUNTER1_RESET           ((uint32)0x01u << 11u)      /**< Counter 1 */
 347:.\Generated_Source\PSoC4/CyLFClk.h ****     #define CY_SYS_WDT_COUNTER2_RESET           ((uint32)0x01u << 19u)      /**< Counter 2 */
 348:.\Generated_Source\PSoC4/CyLFClk.h **** 
 349:.\Generated_Source\PSoC4/CyLFClk.h ****     #define CY_SYS_WDT_COUNTERS_RESET           (CY_SYS_WDT_COUNTER0_RESET |\
 350:.\Generated_Source\PSoC4/CyLFClk.h ****                                                  CY_SYS_WDT_COUNTER1_RESET |\
 351:.\Generated_Source\PSoC4/CyLFClk.h ****                                                  CY_SYS_WDT_COUNTER2_RESET)
 352:.\Generated_Source\PSoC4/CyLFClk.h **** 
 353:.\Generated_Source\PSoC4/CyLFClk.h ****     #define CY_SYS_WDT_COUNTER0                 (0x00u)
 354:.\Generated_Source\PSoC4/CyLFClk.h ****     #define CY_SYS_WDT_COUNTER1                 (0x01u)
 355:.\Generated_Source\PSoC4/CyLFClk.h ****     #define CY_SYS_WDT_COUNTER2                 (0x02u)
 356:.\Generated_Source\PSoC4/CyLFClk.h **** 
 357:.\Generated_Source\PSoC4/CyLFClk.h ****     #define CY_SYS_WDT_COUNTER0_OFFSET          (0x00u)
 358:.\Generated_Source\PSoC4/CyLFClk.h ****     #define CY_SYS_WDT_COUNTER1_OFFSET          (0x02u)
 359:.\Generated_Source\PSoC4/CyLFClk.h ****     #define CY_SYS_WDT_COUNTER2_OFFSET          (0x04u)
 360:.\Generated_Source\PSoC4/CyLFClk.h **** 
 361:.\Generated_Source\PSoC4/CyLFClk.h ****     #define CY_SYS_WDT_MODE_MASK                ((uint32)(0x03u))
 362:.\Generated_Source\PSoC4/CyLFClk.h **** 
 363:.\Generated_Source\PSoC4/CyLFClk.h ****     #define CY_SYS_WDT_CONFIG_BITS2_MASK        (uint32)(0x1Fu)
 364:.\Generated_Source\PSoC4/CyLFClk.h ****     #define CY_SYS_WDT_CONFIG_BITS2_POS         (uint32)(24u)
 365:.\Generated_Source\PSoC4/CyLFClk.h ****     #define CY_SYS_WDT_LOWER_16BITS_MASK        (uint32)(0x0000FFFFu)
ARM GAS  C:\Users\310295~1\AppData\Local\Temp\ccIU8zba.s 			page 41


 366:.\Generated_Source\PSoC4/CyLFClk.h ****     #define CY_SYS_WDT_HIGHER_16BITS_MASK       (uint32)(0xFFFF0000u)
 367:.\Generated_Source\PSoC4/CyLFClk.h ****     #define CY_SYS_WDT_COUNTERS_MAX             (0x03u)
 368:.\Generated_Source\PSoC4/CyLFClk.h ****     #define CY_SYS_WDT_CNT_SHIFT                (0x08u)
 369:.\Generated_Source\PSoC4/CyLFClk.h ****     #define CY_SYS_WDT_CNT_MATCH_CLR_SHIFT      (0x02u)
 370:.\Generated_Source\PSoC4/CyLFClk.h ****     #define CY_SYS_WDT_CNT_STTS_SHIFT           (0x01u)
 371:.\Generated_Source\PSoC4/CyLFClk.h ****     #define CY_SYS_WDT_CNT_MATCH_SHIFT          (0x10u)
 372:.\Generated_Source\PSoC4/CyLFClk.h **** 
 373:.\Generated_Source\PSoC4/CyLFClk.h ****     #define CY_SYS_WDT_CLK_LOCK_BITS_MASK       ((uint32)0x03u << 14u)
 374:.\Generated_Source\PSoC4/CyLFClk.h ****     #define CY_SYS_WDT_CLK_LOCK_BIT0            ((uint32)0x01u << 14u)
 375:.\Generated_Source\PSoC4/CyLFClk.h ****     #define CY_SYS_WDT_CLK_LOCK_BIT1            ((uint32)0x01u << 15u)
 376:.\Generated_Source\PSoC4/CyLFClk.h **** 
 377:.\Generated_Source\PSoC4/CyLFClk.h ****     #define CY_WDT_NUM_OF_WDT                   (3u)
 378:.\Generated_Source\PSoC4/CyLFClk.h ****     #define CY_WDT_NUM_OF_CALLBACKS             (3u)
 379:.\Generated_Source\PSoC4/CyLFClk.h **** 
 380:.\Generated_Source\PSoC4/CyLFClk.h ****     #else
 381:.\Generated_Source\PSoC4/CyLFClk.h ****         #define CY_WDT_NUM_OF_WDT               (1u)
 382:.\Generated_Source\PSoC4/CyLFClk.h ****         #define CY_WDT_NUM_OF_CALLBACKS         (3u)
 383:.\Generated_Source\PSoC4/CyLFClk.h ****         #define CY_SYS_WDT_KEY                  ((uint32)(0xACED8865u))
 384:.\Generated_Source\PSoC4/CyLFClk.h ****         #define CY_SYS_WDT_MATCH_MASK           ((uint32)(0x0000FFFFu))
 385:.\Generated_Source\PSoC4/CyLFClk.h ****         #define CY_SYS_WDT_IGNORE_BITS_MASK     ((uint32)(0x000F0000u))
 386:.\Generated_Source\PSoC4/CyLFClk.h ****         #define CY_SYS_WDT_IGNORE_BITS_SHIFT    ((uint32)(16u))
 387:.\Generated_Source\PSoC4/CyLFClk.h ****         #define CY_SYS_WDT_LOWER_BIT_MASK       ((uint32)(0x00000001u))
 388:.\Generated_Source\PSoC4/CyLFClk.h **** 
 389:.\Generated_Source\PSoC4/CyLFClk.h ****         #define CY_SYS_WDT_COUNTER0             (0x00u)
 390:.\Generated_Source\PSoC4/CyLFClk.h **** 
 391:.\Generated_Source\PSoC4/CyLFClk.h **** #endif /* (CY_IP_SRSSV2) */
 392:.\Generated_Source\PSoC4/CyLFClk.h **** 
 393:.\Generated_Source\PSoC4/CyLFClk.h **** #if (CY_IP_SRSSV2 && CY_IP_WCO)
 394:.\Generated_Source\PSoC4/CyLFClk.h ****     #define CY_SYS_WDT_1LFCLK_ILO_DELAY_US    ((uint16)( 67u))
 395:.\Generated_Source\PSoC4/CyLFClk.h ****     #define CY_SYS_WDT_3LFCLK_ILO_DELAY_US    ((uint16)(201u))
 396:.\Generated_Source\PSoC4/CyLFClk.h ****     #define CY_SYS_WDT_1LFCLK_WCO_DELAY_US    ((uint16)( 31u))
 397:.\Generated_Source\PSoC4/CyLFClk.h ****     #define CY_SYS_WDT_3LFCLK_WCO_DELAY_US    ((uint16)( 93u))
 398:.\Generated_Source\PSoC4/CyLFClk.h **** 
 399:.\Generated_Source\PSoC4/CyLFClk.h ****     #define CY_SYS_WDT_1LFCLK_DELAY_US      \
 400:.\Generated_Source\PSoC4/CyLFClk.h ****         ((CY_SYS_CLK_LFCLK_SRC_ILO == (CY_SYS_WDT_CONFIG_REG & CY_SYS_CLK_LFCLK_SEL_MASK)) ? \
 401:.\Generated_Source\PSoC4/CyLFClk.h ****                                             (CY_SYS_WDT_1LFCLK_ILO_DELAY_US) : \
 402:.\Generated_Source\PSoC4/CyLFClk.h ****                                             (CY_SYS_WDT_1LFCLK_WCO_DELAY_US))
 403:.\Generated_Source\PSoC4/CyLFClk.h **** 
 404:.\Generated_Source\PSoC4/CyLFClk.h ****     #define CY_SYS_WDT_3LFCLK_DELAY_US      \
 405:.\Generated_Source\PSoC4/CyLFClk.h ****         ((CY_SYS_CLK_LFCLK_SRC_ILO == (CY_SYS_WDT_CONFIG_REG & CY_SYS_CLK_LFCLK_SEL_MASK)) ? \
 406:.\Generated_Source\PSoC4/CyLFClk.h ****                                             (CY_SYS_WDT_3LFCLK_ILO_DELAY_US) : \
 407:.\Generated_Source\PSoC4/CyLFClk.h ****                                             (CY_SYS_WDT_3LFCLK_WCO_DELAY_US))
 408:.\Generated_Source\PSoC4/CyLFClk.h ****     #else
 409:.\Generated_Source\PSoC4/CyLFClk.h ****         #define CY_SYS_WDT_1LFCLK_DELAY_US      ((uint16)  (67u))
 410:.\Generated_Source\PSoC4/CyLFClk.h ****         #define CY_SYS_WDT_3LFCLK_DELAY_US      ((uint16) (201u))
 411:.\Generated_Source\PSoC4/CyLFClk.h **** #endif /* (CY_IP_SRSSV2 && !CY_IP_WCO) */
 412:.\Generated_Source\PSoC4/CyLFClk.h **** 
 413:.\Generated_Source\PSoC4/CyLFClk.h **** #if (CY_IP_SRSSLT && CY_IP_WCO && CY_IP_WCO_WDT_EN)
 414:.\Generated_Source\PSoC4/CyLFClk.h **** 
 415:.\Generated_Source\PSoC4/CyLFClk.h ****     #define CY_SYS_TIMER_MODE_NONE              (0u)
 416:.\Generated_Source\PSoC4/CyLFClk.h ****     #define CY_SYS_TIMER_MODE_INT               (1u)
 417:.\Generated_Source\PSoC4/CyLFClk.h **** 
 418:.\Generated_Source\PSoC4/CyLFClk.h ****     #define CY_SYS_TIMER0_MASK                  ((uint32)((uint32)0x01u))           /**< Counter 0 
 419:.\Generated_Source\PSoC4/CyLFClk.h ****     #define CY_SYS_TIMER1_MASK                  ((uint32)((uint32)0x01u << 8u))     /**< Counter 1 
 420:.\Generated_Source\PSoC4/CyLFClk.h ****     #define CY_SYS_TIMER2_MASK                  ((uint32)((uint32)0x01u << 16u))    /**< Counter 2 
 421:.\Generated_Source\PSoC4/CyLFClk.h **** 
 422:.\Generated_Source\PSoC4/CyLFClk.h ****     #define CY_SYS_TIMER0_RESET                 ((uint32)0x01u << 3u)       /**< Counter 0 */
ARM GAS  C:\Users\310295~1\AppData\Local\Temp\ccIU8zba.s 			page 42


 423:.\Generated_Source\PSoC4/CyLFClk.h ****     #define CY_SYS_TIMER1_RESET                 ((uint32)0x01u << 11u)      /**< Counter 1 */
 424:.\Generated_Source\PSoC4/CyLFClk.h ****     #define CY_SYS_TIMER2_RESET                 ((uint32)0x01u << 19u)      /**< Counter 2 */
 425:.\Generated_Source\PSoC4/CyLFClk.h **** 
 426:.\Generated_Source\PSoC4/CyLFClk.h ****     #define CY_SYS_TIMER_RESET                  (CY_SYS_TIMER0_RESET |\
 427:.\Generated_Source\PSoC4/CyLFClk.h ****                                                  CY_SYS_TIMER1_RESET |\
 428:.\Generated_Source\PSoC4/CyLFClk.h ****                                                  CY_SYS_TIMER2_RESET)
 429:.\Generated_Source\PSoC4/CyLFClk.h **** 
 430:.\Generated_Source\PSoC4/CyLFClk.h ****     #define CY_SYS_TIMER_CASCADE_NONE           ((uint32)0x00u)             /**< Neither */
 431:.\Generated_Source\PSoC4/CyLFClk.h ****     #define CY_SYS_TIMER_CASCADE_01             ((uint32)0x01u << 3u)       /**< Cascade 01 */
 432:.\Generated_Source\PSoC4/CyLFClk.h ****     #define CY_SYS_TIMER_CASCADE_12             ((uint32)0x01u << 11u)      /**< Cascade 12 */
 433:.\Generated_Source\PSoC4/CyLFClk.h **** 
 434:.\Generated_Source\PSoC4/CyLFClk.h ****     #define CY_SYS_TIMER0_INT                   ((uint32)0x01u << 2u)
 435:.\Generated_Source\PSoC4/CyLFClk.h ****     #define CY_SYS_TIMER1_INT                   ((uint32)0x01u << 10u)
 436:.\Generated_Source\PSoC4/CyLFClk.h ****     #define CY_SYS_TIMER2_INT                   ((uint32)0x01u << 18u)
 437:.\Generated_Source\PSoC4/CyLFClk.h **** 
 438:.\Generated_Source\PSoC4/CyLFClk.h ****     #define CY_SYS_TIMER0                       (0x00u)
 439:.\Generated_Source\PSoC4/CyLFClk.h ****     #define CY_SYS_TIMER1                       (0x01u)
 440:.\Generated_Source\PSoC4/CyLFClk.h ****     #define CY_SYS_TIMER2                       (0x02u)
 441:.\Generated_Source\PSoC4/CyLFClk.h **** 
 442:.\Generated_Source\PSoC4/CyLFClk.h ****     #define CY_SYS_TIMER_MODE_MASK              ((uint32)(0x01u))
 443:.\Generated_Source\PSoC4/CyLFClk.h **** 
 444:.\Generated_Source\PSoC4/CyLFClk.h ****     #define CY_SYS_TIMER_CONFIG_BITS2_MASK      (uint32)(0x1Fu)
 445:.\Generated_Source\PSoC4/CyLFClk.h ****     #define CY_SYS_TIMER_CONFIG_BITS2_POS       (uint32)(24u)
 446:.\Generated_Source\PSoC4/CyLFClk.h ****     #define CY_SYS_TIMER_LOWER_16BITS_MASK      (uint32)(0x0000FFFFu)
 447:.\Generated_Source\PSoC4/CyLFClk.h ****     #define CY_SYS_TIMER_HIGHER_16BITS_MASK     (uint32)(0xFFFF0000u)
 448:.\Generated_Source\PSoC4/CyLFClk.h ****     #define CY_SYS_TIMER_COUNTERS_MAX           (0x03u)
 449:.\Generated_Source\PSoC4/CyLFClk.h ****     #define CY_SYS_TIMER_CNT_SHIFT              (0x08u)
 450:.\Generated_Source\PSoC4/CyLFClk.h ****     #define CY_SYS_TIMER_CNT_MATCH_CLR_SHIFT    (0x02u)
 451:.\Generated_Source\PSoC4/CyLFClk.h ****     #define CY_SYS_TIMER_CNT_STTS_SHIFT         (0x01u)
 452:.\Generated_Source\PSoC4/CyLFClk.h ****     #define CY_SYS_TIMER_CNT_MATCH_SHIFT        (0x10u)
 453:.\Generated_Source\PSoC4/CyLFClk.h **** 
 454:.\Generated_Source\PSoC4/CyLFClk.h ****     #define CY_SYS_NUM_OF_TIMERS                (3u)
 455:.\Generated_Source\PSoC4/CyLFClk.h **** 
 456:.\Generated_Source\PSoC4/CyLFClk.h ****     #define CY_SYS_SET_NEW_TIMER_SOURCE_ILO     ((uint16)(0x02u))
 457:.\Generated_Source\PSoC4/CyLFClk.h ****     #define CY_SYS_SET_NEW_TIMER_SOURCE_WCO     ((uint16)(0x01u))
 458:.\Generated_Source\PSoC4/CyLFClk.h ****     #define CY_SYS_WCO_WDT_CLKEN_RESET_MASK     ((uint32)(0x03u))
 459:.\Generated_Source\PSoC4/CyLFClk.h **** 
 460:.\Generated_Source\PSoC4/CyLFClk.h ****     #define CY_SYS_TIMER_1ILO_DELAY_US          ((uint16)( 67u))
 461:.\Generated_Source\PSoC4/CyLFClk.h ****     #define CY_SYS_TIMER_4ILO_DELAY_US          ((uint16)(268u))
 462:.\Generated_Source\PSoC4/CyLFClk.h ****     #define CY_SYS_TIMER_3ILO_DELAY_US          ((uint16)(201u))
 463:.\Generated_Source\PSoC4/CyLFClk.h **** 
 464:.\Generated_Source\PSoC4/CyLFClk.h ****     #define CY_SYS_TIMER_1WCO_DELAY_US          ((uint16)( 31u))
 465:.\Generated_Source\PSoC4/CyLFClk.h ****     #define CY_SYS_TIMER_4WCO_DELAY_US          ((uint16)(124u))
 466:.\Generated_Source\PSoC4/CyLFClk.h ****     #define CY_SYS_TIMER_3WCO_DELAY_US          ((uint16)( 93u))
 467:.\Generated_Source\PSoC4/CyLFClk.h **** 
 468:.\Generated_Source\PSoC4/CyLFClk.h ****     #define CY_SYS_1TIMER_DELAY_US      \
 469:.\Generated_Source\PSoC4/CyLFClk.h ****         ((CY_SYS_CLK_TIMER_SRC_ILO == (CY_SYS_WCO_WDT_CONFIG_REG & CY_SYS_CLK_TIMER_SEL_MASK)) ? \
 470:.\Generated_Source\PSoC4/CyLFClk.h ****                                             (CY_SYS_TIMER_1ILO_DELAY_US) : \
 471:.\Generated_Source\PSoC4/CyLFClk.h ****                                             (CY_SYS_TIMER_1WCO_DELAY_US))
 472:.\Generated_Source\PSoC4/CyLFClk.h **** 
 473:.\Generated_Source\PSoC4/CyLFClk.h ****     #define CY_SYS_4TIMER_DELAY_US      \
 474:.\Generated_Source\PSoC4/CyLFClk.h ****         ((CY_SYS_CLK_TIMER_SRC_ILO == (CY_SYS_WCO_WDT_CONFIG_REG & CY_SYS_CLK_TIMER_SEL_MASK)) ? \
 475:.\Generated_Source\PSoC4/CyLFClk.h ****                                             (CY_SYS_TIMER_4WCO_DELAY_US) : \
 476:.\Generated_Source\PSoC4/CyLFClk.h ****                                             (CY_SYS_TIMER_4ILO_DELAY_US))
 477:.\Generated_Source\PSoC4/CyLFClk.h **** 
 478:.\Generated_Source\PSoC4/CyLFClk.h ****     #define CY_SYS_3TIMER_DELAY_US      \
 479:.\Generated_Source\PSoC4/CyLFClk.h ****         ((CY_SYS_CLK_TIMER_SRC_ILO == (CY_SYS_WCO_WDT_CONFIG_REG & CY_SYS_CLK_TIMER_SEL_MASK)) ? \
ARM GAS  C:\Users\310295~1\AppData\Local\Temp\ccIU8zba.s 			page 43


 480:.\Generated_Source\PSoC4/CyLFClk.h ****                                             (CY_SYS_TIMER_3ILO_DELAY_US) : \
 481:.\Generated_Source\PSoC4/CyLFClk.h ****                                             (CY_SYS_TIMER_3WCO_DELAY_US))
 482:.\Generated_Source\PSoC4/CyLFClk.h **** 
 483:.\Generated_Source\PSoC4/CyLFClk.h ****     #define CY_SYS_SET_CURRENT_TIMER_SOURCE_BIT      \
 484:.\Generated_Source\PSoC4/CyLFClk.h ****         ((CY_SYS_CLK_TIMER_SRC_ILO == (CY_SYS_WCO_WDT_CONFIG_REG & CY_SYS_CLK_TIMER_SEL_MASK)) ? \
 485:.\Generated_Source\PSoC4/CyLFClk.h ****                                             (CY_SYS_SET_NEW_TIMER_SOURCE_ILO) : \
 486:.\Generated_Source\PSoC4/CyLFClk.h ****                                             (CY_SYS_SET_NEW_TIMER_SOURCE_WCO))
 487:.\Generated_Source\PSoC4/CyLFClk.h **** 
 488:.\Generated_Source\PSoC4/CyLFClk.h **** #endif /* (CY_IP_SRSSLT && CY_IP_WCO && CY_IP_WCO_WDT_EN) */
 489:.\Generated_Source\PSoC4/CyLFClk.h **** 
 490:.\Generated_Source\PSoC4/CyLFClk.h **** /* CySysClkWcoSetPowerMode() */
 491:.\Generated_Source\PSoC4/CyLFClk.h **** #define CY_SYS_CLK_WCO_HPM                              (0x0u)     /**< High power mode */
 492:.\Generated_Source\PSoC4/CyLFClk.h **** #if(CY_PSOC4_4100BL || CY_PSOC4_4200BL)
 493:.\Generated_Source\PSoC4/CyLFClk.h ****     #define CY_SYS_CLK_WCO_LPM                          (0x1u)     /**< Low power mode */
 494:.\Generated_Source\PSoC4/CyLFClk.h **** #endif /* (CY_PSOC4_4100BL || CY_PSOC4_4200BL) */
 495:.\Generated_Source\PSoC4/CyLFClk.h **** 
 496:.\Generated_Source\PSoC4/CyLFClk.h **** 
 497:.\Generated_Source\PSoC4/CyLFClk.h **** /*******************************************************************************
 498:.\Generated_Source\PSoC4/CyLFClk.h **** *       Trim Registers Constants 
 499:.\Generated_Source\PSoC4/CyLFClk.h **** ********************************************************************************/
 500:.\Generated_Source\PSoC4/CyLFClk.h **** #define CY_SYS_CLK_SYS_CLK_DEVIDER                      ((uint32)0x0Au)
 501:.\Generated_Source\PSoC4/CyLFClk.h **** #define CY_SYS_CLK_SEL_ILO_DFT_SOURCE                   ((uint32)0x00000100u)
 502:.\Generated_Source\PSoC4/CyLFClk.h **** #define CY_SYS_CLK_FOURBITS_MAX                         (( int32)0x0f)
 503:.\Generated_Source\PSoC4/CyLFClk.h **** #define CY_SYS_CLK_HALF_OF_STEP                         (( int32)((uint32) CY_SYS_CLK_ERROR_STEP >>
 504:.\Generated_Source\PSoC4/CyLFClk.h **** 
 505:.\Generated_Source\PSoC4/CyLFClk.h **** #if(CY_IP_SRSSV2)
 506:.\Generated_Source\PSoC4/CyLFClk.h ****     #define CY_SYS_CLK_ILO_DESIRED_FREQ_HZ              (32000u)
 507:.\Generated_Source\PSoC4/CyLFClk.h ****     #define CY_SYS_CLK_DFT_SELSIZE                      ((uint32) 0x3F)
 508:.\Generated_Source\PSoC4/CyLFClk.h ****     #else
 509:.\Generated_Source\PSoC4/CyLFClk.h ****         #define CY_SYS_CLK_ILO_DESIRED_FREQ_HZ          (40000u)
 510:.\Generated_Source\PSoC4/CyLFClk.h ****         #define CY_SYS_TST_DDFT_CTRL_REG_SEL2_CLK1      ((uint32)0x00000908u)
 511:.\Generated_Source\PSoC4/CyLFClk.h ****         #define CY_SYS_CLK_DFT_SELSIZE                  ((uint32) 0x0F)
 512:.\Generated_Source\PSoC4/CyLFClk.h **** #endif /* (CY_IP_SRSSV2) */
 513:.\Generated_Source\PSoC4/CyLFClk.h **** 
 514:.\Generated_Source\PSoC4/CyLFClk.h **** #define CY_SYS_TST_DDFT_CTRL_REG_DEFAULT_MASK    ((uint32)((CY_SYS_CLK_DFT_SELSIZE << 8u) | (CY_SYS
 515:.\Generated_Source\PSoC4/CyLFClk.h **** 
 516:.\Generated_Source\PSoC4/CyLFClk.h **** #if (0u != (CY_PSOC4_4100 || CY_PSOC4_4200))
 517:.\Generated_Source\PSoC4/CyLFClk.h ****     #define  CY_SYS_TST_DDFT_CTRL_REG_SEL2_CLK1              ((uint32)0x00000201u)
 518:.\Generated_Source\PSoC4/CyLFClk.h **** #endif /* (0u != (CY_PSOC4_4100 || CY_PSOC4_4200)) */
 519:.\Generated_Source\PSoC4/CyLFClk.h **** 
 520:.\Generated_Source\PSoC4/CyLFClk.h **** #if (0u != (CY_PSOC4_4200L))
 521:.\Generated_Source\PSoC4/CyLFClk.h ****     #define  CY_SYS_TST_DDFT_CTRL_REG_SEL2_CLK1              ((uint32)0x00000908u)
 522:.\Generated_Source\PSoC4/CyLFClk.h **** #endif /* (0u != (CY_PSOC4_4200L)) */
 523:.\Generated_Source\PSoC4/CyLFClk.h **** 
 524:.\Generated_Source\PSoC4/CyLFClk.h **** #if (CY_IP_SRSSV2 && (!CY_PSOC4_4200L) && (!(CY_PSOC4_4100 || CY_PSOC4_4200)))
 525:.\Generated_Source\PSoC4/CyLFClk.h ****     #define  CY_SYS_TST_DDFT_CTRL_REG_SEL2_CLK1               ((uint32)0x00000B0Au)
 526:.\Generated_Source\PSoC4/CyLFClk.h **** #endif /* (CY_IP_SRSSV2 && (!CY_PSOC4_4200L) && (!(CY_PSOC4_4100 || CY_PSOC4_4200))) */
 527:.\Generated_Source\PSoC4/CyLFClk.h **** 
 528:.\Generated_Source\PSoC4/CyLFClk.h **** 
 529:.\Generated_Source\PSoC4/CyLFClk.h **** /*******************************************************************************
 530:.\Generated_Source\PSoC4/CyLFClk.h **** *       Trim Registers 
 531:.\Generated_Source\PSoC4/CyLFClk.h **** ********************************************************************************/
 532:.\Generated_Source\PSoC4/CyLFClk.h ****     /* DFT TST Control Register*/
 533:.\Generated_Source\PSoC4/CyLFClk.h **** #define CY_SYS_TST_DDFT_CTRL_REG                         (*(reg32*) CYREG_TST_DDFT_CTRL)
 534:.\Generated_Source\PSoC4/CyLFClk.h **** #define CY_SYS_CNT_CTRL_PTR                              ( (reg32*) CYREG_TST_DDFT_CTRL)
 535:.\Generated_Source\PSoC4/CyLFClk.h **** 
 536:.\Generated_Source\PSoC4/CyLFClk.h ****     /* DFT TST Counter 1 Register*/
ARM GAS  C:\Users\310295~1\AppData\Local\Temp\ccIU8zba.s 			page 44


 537:.\Generated_Source\PSoC4/CyLFClk.h **** #define CY_SYS_CNT_REG1_REG                              (*(reg32*) CYREG_TST_TRIM_CNTR1)
 538:.\Generated_Source\PSoC4/CyLFClk.h **** #define CY_SYS_CNT_REG1_PTR                              ( (reg32*) CYREG_TST_TRIM_CNTR1)
 539:.\Generated_Source\PSoC4/CyLFClk.h **** 
 540:.\Generated_Source\PSoC4/CyLFClk.h ****     /* DFT TST Counter 2 Register*/
 541:.\Generated_Source\PSoC4/CyLFClk.h **** #define CY_SYS_CNT_REG2_REG                              (*(reg32*) CYREG_TST_TRIM_CNTR2)
 542:.\Generated_Source\PSoC4/CyLFClk.h **** #define CY_SYS_CNT_REG2_PTR                              ( (reg32*) CYREG_TST_TRIM_CNTR2)
 543:.\Generated_Source\PSoC4/CyLFClk.h **** 
 544:.\Generated_Source\PSoC4/CyLFClk.h ****     /* DFT Muxes Configuration Register*/
 545:.\Generated_Source\PSoC4/CyLFClk.h **** #define CY_SYS_CLK_DFT_REG                               (*(reg32*) CYREG_CLK_DFT_SELECT)
 546:.\Generated_Source\PSoC4/CyLFClk.h **** #define CY_SYS_CLK_DFT_PTR                               ( (reg32*) CYREG_CLK_DFT_SELECT)
 547:.\Generated_Source\PSoC4/CyLFClk.h **** 
 548:.\Generated_Source\PSoC4/CyLFClk.h ****     /* ILO Configuration Register*/
 549:.\Generated_Source\PSoC4/CyLFClk.h **** #define CY_SYS_CLK_ILO_CONFIG_REG                        (*(reg32 *) CYREG_CLK_ILO_CONFIG)
 550:.\Generated_Source\PSoC4/CyLFClk.h **** #define CY_SYS_CLK_ILO_CONFIG_PTR                        ( (reg32 *) CYREG_CLK_ILO_CONFIG)
 551:.\Generated_Source\PSoC4/CyLFClk.h **** 
 552:.\Generated_Source\PSoC4/CyLFClk.h ****     /* ILO Trim Register*/
 553:.\Generated_Source\PSoC4/CyLFClk.h **** #if(CY_IP_SRSSV2 && CY_IP_WCO)
 554:.\Generated_Source\PSoC4/CyLFClk.h ****     #define CY_SYS_CLK_ILO_TRIM_REG                      (*(reg32 *) CYREG_CLK_ILO_TRIM)
 555:.\Generated_Source\PSoC4/CyLFClk.h ****     #define CY_SYS_CLK_ILO_TRIM_PTR                      ( (reg32 *) CYREG_CLK_ILO_TRIM)
 556:.\Generated_Source\PSoC4/CyLFClk.h **** #endif  /* (CY_IP_SRSSV2) && CY_IP_WCO*/
 557:.\Generated_Source\PSoC4/CyLFClk.h **** 
 558:.\Generated_Source\PSoC4/CyLFClk.h **** #if (CY_IP_WCO)
 559:.\Generated_Source\PSoC4/CyLFClk.h ****     #if (CY_PSOC4_4100BL || CY_PSOC4_4200BL)
 560:.\Generated_Source\PSoC4/CyLFClk.h **** 
 561:.\Generated_Source\PSoC4/CyLFClk.h ****         /* WCO Status Register */
 562:.\Generated_Source\PSoC4/CyLFClk.h ****         #define CY_SYS_CLK_WCO_STATUS_REG               (*(reg32 *) CYREG_BLE_BLESS_WCO_STATUS)
 563:.\Generated_Source\PSoC4/CyLFClk.h ****         #define CY_SYS_CLK_WCO_STATUS_PTR               ( (reg32 *) CYREG_BLE_BLESS_WCO_STATUS)
 564:.\Generated_Source\PSoC4/CyLFClk.h **** 
 565:.\Generated_Source\PSoC4/CyLFClk.h ****         /* WCO Configuration Register */
 566:.\Generated_Source\PSoC4/CyLFClk.h ****         #define CY_SYS_CLK_WCO_CONFIG_REG               (*(reg32 *) CYREG_BLE_BLESS_WCO_CONFIG)
 567:.\Generated_Source\PSoC4/CyLFClk.h ****         #define CY_SYS_CLK_WCO_CONFIG_PTR               ( (reg32 *) CYREG_BLE_BLESS_WCO_CONFIG)
 568:.\Generated_Source\PSoC4/CyLFClk.h **** 
 569:.\Generated_Source\PSoC4/CyLFClk.h ****         /* WCO Trim Register */
 570:.\Generated_Source\PSoC4/CyLFClk.h ****         #define CY_SYS_CLK_WCO_TRIM_REG                 (*(reg32 *) CYREG_BLE_BLESS_WCO_TRIM)
 571:.\Generated_Source\PSoC4/CyLFClk.h ****         #define CY_SYS_CLK_WCO_TRIM_PTR                 ( (reg32 *) CYREG_BLE_BLESS_WCO_TRIM)
 572:.\Generated_Source\PSoC4/CyLFClk.h ****     #else   /* (CY_PSOC4_4100M || CY_PSOC4_4200M) && (CY_PSOC4_4100L || CY_PSOC4_4200L) */
 573:.\Generated_Source\PSoC4/CyLFClk.h **** 
 574:.\Generated_Source\PSoC4/CyLFClk.h ****         /* WCO Status Register */
 575:.\Generated_Source\PSoC4/CyLFClk.h ****         #define CY_SYS_CLK_WCO_STATUS_REG               (*(reg32 *) CYREG_WCO_STATUS)
 576:.\Generated_Source\PSoC4/CyLFClk.h ****         #define CY_SYS_CLK_WCO_STATUS_PTR               ( (reg32 *) CYREG_WCO_STATUS)
 577:.\Generated_Source\PSoC4/CyLFClk.h **** 
 578:.\Generated_Source\PSoC4/CyLFClk.h ****         /* WCO Configuration Register */
 579:.\Generated_Source\PSoC4/CyLFClk.h ****         #define CY_SYS_CLK_WCO_CONFIG_REG               (*(reg32 *) CYREG_WCO_CONFIG)
 580:.\Generated_Source\PSoC4/CyLFClk.h ****         #define CY_SYS_CLK_WCO_CONFIG_PTR               ( (reg32 *) CYREG_WCO_CONFIG)
 581:.\Generated_Source\PSoC4/CyLFClk.h **** 
 582:.\Generated_Source\PSoC4/CyLFClk.h ****         /* WCO Trim Register */
 583:.\Generated_Source\PSoC4/CyLFClk.h ****         #define CY_SYS_CLK_WCO_TRIM_REG                 (*(reg32 *) CYREG_WCO_TRIM)
 584:.\Generated_Source\PSoC4/CyLFClk.h ****         #define CY_SYS_CLK_WCO_TRIM_PTR                 ( (reg32 *) CYREG_WCO_TRIM)
 585:.\Generated_Source\PSoC4/CyLFClk.h ****     #endif /* (CY_PSOC4_4100BL || CY_PSOC4_4200BL) */
 586:.\Generated_Source\PSoC4/CyLFClk.h **** 
 587:.\Generated_Source\PSoC4/CyLFClk.h **** #endif  /* (CY_IP_WCO) */
 588:.\Generated_Source\PSoC4/CyLFClk.h **** 
 589:.\Generated_Source\PSoC4/CyLFClk.h **** 
 590:.\Generated_Source\PSoC4/CyLFClk.h **** /*******************************************************************************
 591:.\Generated_Source\PSoC4/CyLFClk.h **** * WDT API Registers
 592:.\Generated_Source\PSoC4/CyLFClk.h **** *******************************************************************************/
 593:.\Generated_Source\PSoC4/CyLFClk.h **** #if(CY_IP_SRSSV2)
ARM GAS  C:\Users\310295~1\AppData\Local\Temp\ccIU8zba.s 			page 45


 594:.\Generated_Source\PSoC4/CyLFClk.h ****     #define CY_SYS_WDT_CTRLOW_REG               (*(reg32 *) CYREG_WDT_CTRLOW)
 595:.\Generated_Source\PSoC4/CyLFClk.h ****     #define CY_SYS_WDT_CTRLOW_PTR               ( (reg32 *) CYREG_WDT_CTRLOW)
 596:.\Generated_Source\PSoC4/CyLFClk.h **** 
 597:.\Generated_Source\PSoC4/CyLFClk.h ****     #define CY_SYS_WDT_CTRHIGH_REG              (*(reg32 *) CYREG_WDT_CTRHIGH)
 598:.\Generated_Source\PSoC4/CyLFClk.h ****     #define CY_SYS_WDT_CTRHIGH_PTR              ( (reg32 *) CYREG_WDT_CTRHIGH)
 599:.\Generated_Source\PSoC4/CyLFClk.h **** 
 600:.\Generated_Source\PSoC4/CyLFClk.h ****     #define CY_SYS_WDT_MATCH_REG                (*(reg32 *) CYREG_WDT_MATCH)
 601:.\Generated_Source\PSoC4/CyLFClk.h ****     #define CY_SYS_WDT_MATCH_PTR                ( (reg32 *) CYREG_WDT_MATCH)
 602:.\Generated_Source\PSoC4/CyLFClk.h **** 
 603:.\Generated_Source\PSoC4/CyLFClk.h ****     #define CY_SYS_WDT_CONFIG_REG               (*(reg32 *) CYREG_WDT_CONFIG)
 604:.\Generated_Source\PSoC4/CyLFClk.h ****     #define CY_SYS_WDT_CONFIG_PTR               ( (reg32 *) CYREG_WDT_CONFIG)
 605:.\Generated_Source\PSoC4/CyLFClk.h **** 
 606:.\Generated_Source\PSoC4/CyLFClk.h ****     #define CY_SYS_WDT_CONTROL_REG              (*(reg32 *) CYREG_WDT_CONTROL)
 607:.\Generated_Source\PSoC4/CyLFClk.h ****     #define CY_SYS_WDT_CONTROL_PTR              ( (reg32 *) CYREG_WDT_CONTROL)
 608:.\Generated_Source\PSoC4/CyLFClk.h **** #else
 609:.\Generated_Source\PSoC4/CyLFClk.h ****     #define CY_SYS_WDT_DISABLE_KEY_REG          (*(reg32 *) CYREG_WDT_DISABLE_KEY)
 610:.\Generated_Source\PSoC4/CyLFClk.h ****     #define CY_SYS_WDT_DISABLE_KEY_PTR          ( (reg32 *) CYREG_WDT_DISABLE_KEY)
 611:.\Generated_Source\PSoC4/CyLFClk.h **** 
 612:.\Generated_Source\PSoC4/CyLFClk.h ****     #define CY_SYS_WDT_MATCH_REG                (*(reg32 *) CYREG_WDT_MATCH)
 613:.\Generated_Source\PSoC4/CyLFClk.h ****     #define CY_SYS_WDT_MATCH_PTR                ( (reg32 *) CYREG_WDT_MATCH)
 614:.\Generated_Source\PSoC4/CyLFClk.h **** 
 615:.\Generated_Source\PSoC4/CyLFClk.h ****     #define CY_SYS_WDT_COUNTER_REG              (*(reg32 *) CYREG_WDT_COUNTER)
 616:.\Generated_Source\PSoC4/CyLFClk.h ****     #define CY_SYS_WDT_COUNTER_PTR              ( (reg32 *) CYREG_WDT_COUNTER)
 617:.\Generated_Source\PSoC4/CyLFClk.h **** 
 618:.\Generated_Source\PSoC4/CyLFClk.h ****     #define CY_SYS_SRSS_INTR_REG                (*(reg32 *) CYREG_SRSS_INTR)
 619:.\Generated_Source\PSoC4/CyLFClk.h ****     #define CY_SYS_SRSS_INTR_PTR                ( (reg32 *) CYREG_SRSS_INTR)
 620:.\Generated_Source\PSoC4/CyLFClk.h **** 
 621:.\Generated_Source\PSoC4/CyLFClk.h ****     #define CY_SYS_SRSS_INTR_MASK_REG           (*(reg32 *) CYREG_SRSS_INTR_MASK)
 622:.\Generated_Source\PSoC4/CyLFClk.h ****     #define CY_SYS_SRSS_INTR_MASK_PTR           ( (reg32 *) CYREG_SRSS_INTR_MASK)
 623:.\Generated_Source\PSoC4/CyLFClk.h **** #endif  /* (CY_IP_SRSSV2) */
 624:.\Generated_Source\PSoC4/CyLFClk.h **** 
 625:.\Generated_Source\PSoC4/CyLFClk.h **** #if (CY_IP_SRSSLT && CY_IP_WCO && CY_IP_WCO_WDT_EN)
 626:.\Generated_Source\PSoC4/CyLFClk.h ****     #define CY_SYS_WCO_WDT_CTRLOW_REG           (*(reg32 *) CYREG_WCO_WDT_CTRLOW)
 627:.\Generated_Source\PSoC4/CyLFClk.h ****     #define CY_SYS_WCO_WDT_CTRLOW_PTR           ( (reg32 *) CYREG_WCO_WDT_CTRLOW)
 628:.\Generated_Source\PSoC4/CyLFClk.h **** 
 629:.\Generated_Source\PSoC4/CyLFClk.h ****     #define CY_SYS_WCO_WDT_CTRHIGH_REG          (*(reg32 *) CYREG_WCO_WDT_CTRHIGH)
 630:.\Generated_Source\PSoC4/CyLFClk.h ****     #define CY_SYS_WCO_WDT_CTRHIGH_PTR          ( (reg32 *) CYREG_WCO_WDT_CTRHIGH)
 631:.\Generated_Source\PSoC4/CyLFClk.h **** 
 632:.\Generated_Source\PSoC4/CyLFClk.h ****     #define CY_SYS_WCO_WDT_MATCH_REG            (*(reg32 *) CYREG_WCO_WDT_MATCH)
 633:.\Generated_Source\PSoC4/CyLFClk.h ****     #define CY_SYS_WCO_WDT_MATCH_PTR            ( (reg32 *) CYREG_WCO_WDT_MATCH)
 634:.\Generated_Source\PSoC4/CyLFClk.h **** 
 635:.\Generated_Source\PSoC4/CyLFClk.h ****     #define CY_SYS_WCO_WDT_CONFIG_REG           (*(reg32 *) CYREG_WCO_WDT_CONFIG)
 636:.\Generated_Source\PSoC4/CyLFClk.h ****     #define CY_SYS_WCO_WDT_CONFIG_PTR           ( (reg32 *) CYREG_WCO_WDT_CONFIG)
 637:.\Generated_Source\PSoC4/CyLFClk.h **** 
 638:.\Generated_Source\PSoC4/CyLFClk.h ****     #define CY_SYS_WCO_WDT_CONTROL_REG          (*(reg32 *) CYREG_WCO_WDT_CONTROL)
 639:.\Generated_Source\PSoC4/CyLFClk.h ****     #define CY_SYS_WCO_WDT_CONTROL_PTR          ( (reg32 *) CYREG_WCO_WDT_CONTROL)
 640:.\Generated_Source\PSoC4/CyLFClk.h **** 
 641:.\Generated_Source\PSoC4/CyLFClk.h ****     #define CY_SYS_WCO_WDT_CLKEN_REG            (*(reg32 *) CYREG_WCO_WDT_CLKEN)
 642:.\Generated_Source\PSoC4/CyLFClk.h ****     #define CY_SYS_WCO_WDT_CLKEN_PTR            ( (reg32 *) CYREG_WCO_WDT_CLKEN)
 643:.\Generated_Source\PSoC4/CyLFClk.h **** #endif /* (CY_IP_SRSSLT && CY_IP_WCO && CY_IP_WCO_WDT_EN) */
 644:.\Generated_Source\PSoC4/CyLFClk.h **** 
 645:.\Generated_Source\PSoC4/CyLFClk.h **** #if (CY_IP_WCO)
 646:.\Generated_Source\PSoC4/CyLFClk.h **** 
 647:.\Generated_Source\PSoC4/CyLFClk.h **** 
 648:.\Generated_Source\PSoC4/CyLFClk.h ****     /*******************************************************************************
 649:.\Generated_Source\PSoC4/CyLFClk.h ****     * Function Name: CySysClkWcoSetHighPowerMode
 650:.\Generated_Source\PSoC4/CyLFClk.h ****     ********************************************************************************
ARM GAS  C:\Users\310295~1\AppData\Local\Temp\ccIU8zba.s 			page 46


 651:.\Generated_Source\PSoC4/CyLFClk.h ****     *
 652:.\Generated_Source\PSoC4/CyLFClk.h ****     * Summary:
 653:.\Generated_Source\PSoC4/CyLFClk.h ****     *  Sets the high power mode for the 32 KHz WCO.
 654:.\Generated_Source\PSoC4/CyLFClk.h ****     *
 655:.\Generated_Source\PSoC4/CyLFClk.h ****     *******************************************************************************/
 656:.\Generated_Source\PSoC4/CyLFClk.h ****     static CY_INLINE void CySysClkWcoSetHighPowerMode(void)
 657:.\Generated_Source\PSoC4/CyLFClk.h ****     {
 658:.\Generated_Source\PSoC4/CyLFClk.h ****         /* Switch off low power mode for WCO */
 659:.\Generated_Source\PSoC4/CyLFClk.h ****         CY_SYS_CLK_WCO_CONFIG_REG &= (uint32) ~CY_SYS_CLK_WCO_CONFIG_LPM_EN;
 835              		.loc 2 659 0
 836 0002 0D4B     		ldr	r3, .L72
 837 0004 1A68     		ldr	r2, [r3]
 838 0006 0121     		mov	r1, #1
 839 0008 8A43     		bic	r2, r1
 840 000a 1A60     		str	r2, [r3]
 660:.\Generated_Source\PSoC4/CyLFClk.h **** 
 661:.\Generated_Source\PSoC4/CyLFClk.h ****         /* Switch off auto low power mode in WCO */
 662:.\Generated_Source\PSoC4/CyLFClk.h ****         CY_SYS_CLK_WCO_CONFIG_REG &= ((uint32)~CY_SYS_CLK_WCO_CONFIG_LPM_AUTO);
 841              		.loc 2 662 0
 842 000c 1A68     		ldr	r2, [r3]
 843 000e 0220     		mov	r0, #2
 844 0010 8243     		bic	r2, r0
 845 0012 1A60     		str	r2, [r3]
 663:.\Generated_Source\PSoC4/CyLFClk.h **** 
 664:.\Generated_Source\PSoC4/CyLFClk.h ****         /* Restore WCO trim register HPM settings */
 665:.\Generated_Source\PSoC4/CyLFClk.h ****         CY_SYS_CLK_WCO_TRIM_REG = (CY_SYS_CLK_WCO_TRIM_REG & (uint32)(~CY_SYS_CLK_WCO_TRIM_GM_MASK)
 846              		.loc 2 665 0
 847 0014 094A     		ldr	r2, .L72+4
 848 0016 1068     		ldr	r0, [r2]
 849 0018 3024     		mov	r4, #48
 850 001a A043     		bic	r0, r4
 666:.\Generated_Source\PSoC4/CyLFClk.h ****                     | (uint32)(CY_SYS_CLK_WCO_TRIM_GM_HPM << CY_SYS_CLK_WCO_TRIM_GM_SHIFT);
 851              		.loc 2 666 0
 852 001c 203C     		sub	r4, r4, #32
 853 001e 2043     		orr	r0, r4
 665:.\Generated_Source\PSoC4/CyLFClk.h ****                     | (uint32)(CY_SYS_CLK_WCO_TRIM_GM_HPM << CY_SYS_CLK_WCO_TRIM_GM_SHIFT);
 854              		.loc 2 665 0
 855 0020 1060     		str	r0, [r2]
 667:.\Generated_Source\PSoC4/CyLFClk.h ****         CY_SYS_CLK_WCO_TRIM_REG = (CY_SYS_CLK_WCO_TRIM_REG & (uint32)(~CY_SYS_CLK_WCO_TRIM_XGM_MASK
 856              		.loc 2 667 0
 857 0022 1068     		ldr	r0, [r2]
 858 0024 093C     		sub	r4, r4, #9
 859 0026 A043     		bic	r0, r4
 668:.\Generated_Source\PSoC4/CyLFClk.h ****                     | (uint32)(CY_SYS_CLK_WCO_TRIM_XGM_2620NA << CY_SYS_CLK_WCO_TRIM_XGM_SHIFT);
 860              		.loc 2 668 0
 861 0028 0143     		orr	r1, r0
 667:.\Generated_Source\PSoC4/CyLFClk.h ****         CY_SYS_CLK_WCO_TRIM_REG = (CY_SYS_CLK_WCO_TRIM_REG & (uint32)(~CY_SYS_CLK_WCO_TRIM_XGM_MASK
 862              		.loc 2 667 0
 863 002a 1160     		str	r1, [r2]
 864              	.LBE5:
 865              	.LBE4:
 774:.\Generated_Source\PSoC4/CyLFClk.c ****     }
 866              		.loc 1 774 0
 867 002c 1A68     		ldr	r2, [r3]
 868 002e 8021     		mov	r1, #128
 869 0030 0906     		lsl	r1, r1, #24
 870 0032 0A43     		orr	r2, r1
ARM GAS  C:\Users\310295~1\AppData\Local\Temp\ccIU8zba.s 			page 47


 871 0034 1A60     		str	r2, [r3]
 775:.\Generated_Source\PSoC4/CyLFClk.c **** 
 872              		.loc 1 775 0
 873              		@ sp needed
 874 0036 10BD     		pop	{r4, pc}
 875              	.L73:
 876              		.align	2
 877              	.L72:
 878 0038 00F02E40 		.word	1076817920
 879 003c 00FF2E40 		.word	1076821760
 880              		.cfi_endproc
 881              	.LFE13:
 882              		.size	CySysClkWcoStart, .-CySysClkWcoStart
 883              		.section	.text.CySysClkWcoEnabled,"ax",%progbits
 884              		.align	2
 885              		.global	CySysClkWcoEnabled
 886              		.code	16
 887              		.thumb_func
 888              		.type	CySysClkWcoEnabled, %function
 889              	CySysClkWcoEnabled:
 890              	.LFB15:
 825:.\Generated_Source\PSoC4/CyLFClk.c ****         return ((0u != (CY_SYS_CLK_WCO_CONFIG_REG & (uint32)(CY_SYS_CLK_WCO_CONFIG_LPM_ENABLE))) ?
 891              		.loc 1 825 0
 892              		.cfi_startproc
 826:.\Generated_Source\PSoC4/CyLFClk.c ****                 (uint32) 1u :
 893              		.loc 1 826 0
 894 0000 034B     		ldr	r3, .L77
 895 0002 1B68     		ldr	r3, [r3]
 827:.\Generated_Source\PSoC4/CyLFClk.c ****                 (uint32) 0u);
 896              		.loc 1 827 0
 897 0004 002B     		cmp	r3, #0
 898 0006 01DA     		bge	.L76
 899 0008 0120     		mov	r0, #1
 900 000a 00E0     		b	.L75
 901              	.L76:
 902 000c 0020     		mov	r0, #0
 903              	.L75:
 829:.\Generated_Source\PSoC4/CyLFClk.c **** 
 904              		.loc 1 829 0
 905              		@ sp needed
 906 000e 7047     		bx	lr
 907              	.L78:
 908              		.align	2
 909              	.L77:
 910 0010 00F02E40 		.word	1076817920
 911              		.cfi_endproc
 912              	.LFE15:
 913              		.size	CySysClkWcoEnabled, .-CySysClkWcoEnabled
 914              		.section	.text.CySysClkWcoSetPowerMode,"ax",%progbits
 915              		.align	2
 916              		.global	CySysClkWcoSetPowerMode
 917              		.code	16
 918              		.thumb_func
 919              		.type	CySysClkWcoSetPowerMode, %function
 920              	CySysClkWcoSetPowerMode:
 921              	.LFB16:
 852:.\Generated_Source\PSoC4/CyLFClk.c ****         uint32 powerModeStatus;
ARM GAS  C:\Users\310295~1\AppData\Local\Temp\ccIU8zba.s 			page 48


 922              		.loc 1 852 0
 923              		.cfi_startproc
 924              	.LVL88:
 925 0000 38B5     		push	{r3, r4, r5, lr}
 926              		.cfi_def_cfa_offset 16
 927              		.cfi_offset 3, -16
 928              		.cfi_offset 4, -12
 929              		.cfi_offset 5, -8
 930              		.cfi_offset 14, -4
 855:.\Generated_Source\PSoC4/CyLFClk.c **** 
 931              		.loc 1 855 0
 932 0002 1D4B     		ldr	r3, .L85
 933 0004 1B68     		ldr	r3, [r3]
 934 0006 0124     		mov	r4, #1
 935 0008 1C40     		and	r4, r3
 936              	.LVL89:
 857:.\Generated_Source\PSoC4/CyLFClk.c ****         {
 937              		.loc 1 857 0
 938 000a 0028     		cmp	r0, #0
 939 000c 02D0     		beq	.L81
 940 000e 0128     		cmp	r0, #1
 941 0010 16D0     		beq	.L82
 942 0012 2BE0     		b	.L84
 943              	.L81:
 944              	.LBB10:
 945              	.LBB11:
 659:.\Generated_Source\PSoC4/CyLFClk.h **** 
 946              		.loc 2 659 0
 947 0014 184B     		ldr	r3, .L85
 948 0016 1968     		ldr	r1, [r3]
 949 0018 0122     		mov	r2, #1
 950 001a 9143     		bic	r1, r2
 951 001c 1960     		str	r1, [r3]
 662:.\Generated_Source\PSoC4/CyLFClk.h **** 
 952              		.loc 2 662 0
 953 001e 1968     		ldr	r1, [r3]
 954 0020 0220     		mov	r0, #2
 955              	.LVL90:
 956 0022 8143     		bic	r1, r0
 957 0024 1960     		str	r1, [r3]
 665:.\Generated_Source\PSoC4/CyLFClk.h ****                     | (uint32)(CY_SYS_CLK_WCO_TRIM_GM_HPM << CY_SYS_CLK_WCO_TRIM_GM_SHIFT);
 958              		.loc 2 665 0
 959 0026 154B     		ldr	r3, .L85+4
 960 0028 1968     		ldr	r1, [r3]
 961 002a 2E30     		add	r0, r0, #46
 962 002c 8143     		bic	r1, r0
 666:.\Generated_Source\PSoC4/CyLFClk.h ****         CY_SYS_CLK_WCO_TRIM_REG = (CY_SYS_CLK_WCO_TRIM_REG & (uint32)(~CY_SYS_CLK_WCO_TRIM_XGM_MASK
 963              		.loc 2 666 0
 964 002e 2038     		sub	r0, r0, #32
 965 0030 0143     		orr	r1, r0
 665:.\Generated_Source\PSoC4/CyLFClk.h ****                     | (uint32)(CY_SYS_CLK_WCO_TRIM_GM_HPM << CY_SYS_CLK_WCO_TRIM_GM_SHIFT);
 966              		.loc 2 665 0
 967 0032 1960     		str	r1, [r3]
 667:.\Generated_Source\PSoC4/CyLFClk.h ****                     | (uint32)(CY_SYS_CLK_WCO_TRIM_XGM_2620NA << CY_SYS_CLK_WCO_TRIM_XGM_SHIFT);
 968              		.loc 2 667 0
 969 0034 1968     		ldr	r1, [r3]
 970 0036 0938     		sub	r0, r0, #9
ARM GAS  C:\Users\310295~1\AppData\Local\Temp\ccIU8zba.s 			page 49


 971 0038 8143     		bic	r1, r0
 972              		.loc 2 668 0
 973 003a 0A43     		orr	r2, r1
 667:.\Generated_Source\PSoC4/CyLFClk.h ****                     | (uint32)(CY_SYS_CLK_WCO_TRIM_XGM_2620NA << CY_SYS_CLK_WCO_TRIM_XGM_SHIFT);
 974              		.loc 2 667 0
 975 003c 1A60     		str	r2, [r3]
 976 003e 18E0     		b	.L83
 977              	.LVL91:
 978              	.L82:
 979              	.LBE11:
 980              	.LBE10:
 981              	.LBB12:
 982              	.LBB13:
 669:.\Generated_Source\PSoC4/CyLFClk.h ****     }
 670:.\Generated_Source\PSoC4/CyLFClk.h **** 
 671:.\Generated_Source\PSoC4/CyLFClk.h ****     #if(CY_PSOC4_4100BL || CY_PSOC4_4200BL)
 672:.\Generated_Source\PSoC4/CyLFClk.h ****         /*******************************************************************************
 673:.\Generated_Source\PSoC4/CyLFClk.h ****         * Function Name: CySysClkWcoSetLowPowerMode
 674:.\Generated_Source\PSoC4/CyLFClk.h ****         ********************************************************************************
 675:.\Generated_Source\PSoC4/CyLFClk.h ****         *
 676:.\Generated_Source\PSoC4/CyLFClk.h ****         * Summary:
 677:.\Generated_Source\PSoC4/CyLFClk.h ****         *  Sets the low power mode for the 32 KHz WCO.
 678:.\Generated_Source\PSoC4/CyLFClk.h ****         *
 679:.\Generated_Source\PSoC4/CyLFClk.h ****         *  Note LPM available only for PSoC 4100 BLE / PSoC4 4200 BLE
 680:.\Generated_Source\PSoC4/CyLFClk.h ****         *******************************************************************************/
 681:.\Generated_Source\PSoC4/CyLFClk.h ****         static CY_INLINE void CySysClkWcoSetLowPowerMode(void)
 682:.\Generated_Source\PSoC4/CyLFClk.h ****         {
 683:.\Generated_Source\PSoC4/CyLFClk.h ****             /* Switch off auto low power mode in WCO */
 684:.\Generated_Source\PSoC4/CyLFClk.h ****             CY_SYS_CLK_WCO_CONFIG_REG &= ((uint32)~CY_SYS_CLK_WCO_CONFIG_LPM_AUTO);
 983              		.loc 2 684 0
 984 0040 0D4B     		ldr	r3, .L85
 985 0042 1A68     		ldr	r2, [r3]
 986 0044 0221     		mov	r1, #2
 987 0046 8A43     		bic	r2, r1
 988 0048 1A60     		str	r2, [r3]
 685:.\Generated_Source\PSoC4/CyLFClk.h **** 
 686:.\Generated_Source\PSoC4/CyLFClk.h ****             /* Change WCO trim register settings to LPM */
 687:.\Generated_Source\PSoC4/CyLFClk.h ****             CY_SYS_CLK_WCO_TRIM_REG = (CY_SYS_CLK_WCO_TRIM_REG & (uint32)(~CY_SYS_CLK_WCO_TRIM_XGM_
 989              		.loc 2 687 0
 990 004a 0C4A     		ldr	r2, .L85+4
 991 004c 1068     		ldr	r0, [r2]
 992              	.LVL92:
 993 004e 0725     		mov	r5, #7
 994 0050 A843     		bic	r0, r5
 688:.\Generated_Source\PSoC4/CyLFClk.h ****                         | (uint32)(CY_SYS_CLK_WCO_TRIM_XGM_2250NA << CY_SYS_CLK_WCO_TRIM_XGM_SHIFT)
 995              		.loc 2 688 0
 996 0052 0143     		orr	r1, r0
 687:.\Generated_Source\PSoC4/CyLFClk.h ****                         | (uint32)(CY_SYS_CLK_WCO_TRIM_XGM_2250NA << CY_SYS_CLK_WCO_TRIM_XGM_SHIFT)
 997              		.loc 2 687 0
 998 0054 1160     		str	r1, [r2]
 689:.\Generated_Source\PSoC4/CyLFClk.h ****             CY_SYS_CLK_WCO_TRIM_REG = (CY_SYS_CLK_WCO_TRIM_REG & (uint32)(~CY_SYS_CLK_WCO_TRIM_GM_M
 999              		.loc 2 689 0
 1000 0056 1168     		ldr	r1, [r2]
 1001 0058 3020     		mov	r0, #48
 1002 005a 8143     		bic	r1, r0
 690:.\Generated_Source\PSoC4/CyLFClk.h ****                         | (uint32)(CY_SYS_CLK_WCO_TRIM_GM_LPM << CY_SYS_CLK_WCO_TRIM_GM_SHIFT);
 1003              		.loc 2 690 0
ARM GAS  C:\Users\310295~1\AppData\Local\Temp\ccIU8zba.s 			page 50


 1004 005c 1038     		sub	r0, r0, #16
 1005 005e 0143     		orr	r1, r0
 689:.\Generated_Source\PSoC4/CyLFClk.h ****             CY_SYS_CLK_WCO_TRIM_REG = (CY_SYS_CLK_WCO_TRIM_REG & (uint32)(~CY_SYS_CLK_WCO_TRIM_GM_M
 1006              		.loc 2 689 0
 1007 0060 1160     		str	r1, [r2]
 691:.\Generated_Source\PSoC4/CyLFClk.h **** 
 692:.\Generated_Source\PSoC4/CyLFClk.h ****             /* Switch on low power mode for WCO */
 693:.\Generated_Source\PSoC4/CyLFClk.h ****             CY_SYS_CLK_WCO_CONFIG_REG |= CY_SYS_CLK_WCO_CONFIG_LPM_EN;
 1008              		.loc 2 693 0
 1009 0062 1968     		ldr	r1, [r3]
 1010 0064 0122     		mov	r2, #1
 1011 0066 0A43     		orr	r2, r1
 1012 0068 1A60     		str	r2, [r3]
 1013 006a 02E0     		b	.L83
 1014              	.LVL93:
 1015              	.L84:
 1016              	.LBE13:
 1017              	.LBE12:
 870:.\Generated_Source\PSoC4/CyLFClk.c ****             break;
 1018              		.loc 1 870 0 discriminator 1
 1019 006c 0020     		mov	r0, #0
 1020              	.LVL94:
 1021 006e FFF7FEFF 		bl	CyHalt
 1022              	.LVL95:
 1023              	.L83:
 875:.\Generated_Source\PSoC4/CyLFClk.c **** 
 1024              		.loc 1 875 0
 1025 0072 201C     		mov	r0, r4
 1026              		@ sp needed
 1027              	.LVL96:
 1028 0074 38BD     		pop	{r3, r4, r5, pc}
 1029              	.L86:
 1030 0076 C046     		.align	2
 1031              	.L85:
 1032 0078 00F02E40 		.word	1076817920
 1033 007c 00FF2E40 		.word	1076821760
 1034              		.cfi_endproc
 1035              	.LFE16:
 1036              		.size	CySysClkWcoSetPowerMode, .-CySysClkWcoSetPowerMode
 1037              		.section	.text.CySysClkWcoClockOutSelect,"ax",%progbits
 1038              		.align	2
 1039              		.global	CySysClkWcoClockOutSelect
 1040              		.code	16
 1041              		.thumb_func
 1042              		.type	CySysClkWcoClockOutSelect, %function
 1043              	CySysClkWcoClockOutSelect:
 1044              	.LFB17:
 919:.\Generated_Source\PSoC4/CyLFClk.c ****         if (0u != CySysClkWcoEnabled())
 1045              		.loc 1 919 0
 1046              		.cfi_startproc
 1047              	.LVL97:
 1048 0000 10B5     		push	{r4, lr}
 1049              		.cfi_def_cfa_offset 8
 1050              		.cfi_offset 4, -8
 1051              		.cfi_offset 14, -4
 1052 0002 041C     		mov	r4, r0
 920:.\Generated_Source\PSoC4/CyLFClk.c ****         {
ARM GAS  C:\Users\310295~1\AppData\Local\Temp\ccIU8zba.s 			page 51


 1053              		.loc 1 920 0
 1054 0004 FFF7FEFF 		bl	CySysClkWcoEnabled
 1055              	.LVL98:
 1056 0008 0028     		cmp	r0, #0
 1057 000a 0CD0     		beq	.L87
 922:.\Generated_Source\PSoC4/CyLFClk.c ****             {
 1058              		.loc 1 922 0
 1059 000c 012C     		cmp	r4, #1
 1060 000e 07D8     		bhi	.L89
 924:.\Generated_Source\PSoC4/CyLFClk.c ****                                         (clockSel << CY_SYS_CLK_WCO_SELECT_PIN_OFFSET);
 1061              		.loc 1 924 0
 1062 0010 054A     		ldr	r2, .L90
 1063 0012 1368     		ldr	r3, [r2]
 1064 0014 0421     		mov	r1, #4
 1065 0016 8B43     		bic	r3, r1
 925:.\Generated_Source\PSoC4/CyLFClk.c ****             }
 1066              		.loc 1 925 0
 1067 0018 A400     		lsl	r4, r4, #2
 1068              	.LVL99:
 924:.\Generated_Source\PSoC4/CyLFClk.c ****                                         (clockSel << CY_SYS_CLK_WCO_SELECT_PIN_OFFSET);
 1069              		.loc 1 924 0
 1070 001a 1C43     		orr	r4, r3
 1071 001c 1460     		str	r4, [r2]
 1072 001e 02E0     		b	.L87
 1073              	.LVL100:
 1074              	.L89:
 929:.\Generated_Source\PSoC4/CyLFClk.c ****             }
 1075              		.loc 1 929 0 discriminator 1
 1076 0020 0020     		mov	r0, #0
 1077 0022 FFF7FEFF 		bl	CyHalt
 1078              	.LVL101:
 1079              	.L87:
 932:.\Generated_Source\PSoC4/CyLFClk.c **** #endif  /* (CY_IP_WCO) */
 1080              		.loc 1 932 0
 1081              		@ sp needed
 1082 0026 10BD     		pop	{r4, pc}
 1083              	.L91:
 1084              		.align	2
 1085              	.L90:
 1086 0028 00F02E40 		.word	1076817920
 1087              		.cfi_endproc
 1088              	.LFE17:
 1089              		.size	CySysClkWcoClockOutSelect, .-CySysClkWcoClockOutSelect
 1090              		.section	.text.CySysWdtLock,"ax",%progbits
 1091              		.align	2
 1092              		.global	CySysWdtLock
 1093              		.code	16
 1094              		.thumb_func
 1095              		.type	CySysWdtLock, %function
 1096              	CySysWdtLock:
 1097              	.LFB18:
 949:.\Generated_Source\PSoC4/CyLFClk.c ****         uint8 interruptState;
 1098              		.loc 1 949 0
 1099              		.cfi_startproc
 1100 0000 08B5     		push	{r3, lr}
 1101              		.cfi_def_cfa_offset 8
 1102              		.cfi_offset 3, -8
ARM GAS  C:\Users\310295~1\AppData\Local\Temp\ccIU8zba.s 			page 52


 1103              		.cfi_offset 14, -4
 951:.\Generated_Source\PSoC4/CyLFClk.c **** 
 1104              		.loc 1 951 0
 1105 0002 FFF7FEFF 		bl	CyEnterCriticalSection
 1106              	.LVL102:
 953:.\Generated_Source\PSoC4/CyLFClk.c ****                  CY_SYS_WDT_CLK_LOCK_BITS_MASK;
 1107              		.loc 1 953 0
 1108 0006 044A     		ldr	r2, .L93
 1109 0008 1368     		ldr	r3, [r2]
 1110 000a C021     		mov	r1, #192
 1111 000c 0902     		lsl	r1, r1, #8
 1112 000e 0B43     		orr	r3, r1
 1113 0010 1360     		str	r3, [r2]
 956:.\Generated_Source\PSoC4/CyLFClk.c ****     }
 1114              		.loc 1 956 0
 1115 0012 FFF7FEFF 		bl	CyExitCriticalSection
 1116              	.LVL103:
 957:.\Generated_Source\PSoC4/CyLFClk.c **** 
 1117              		.loc 1 957 0
 1118              		@ sp needed
 1119 0016 08BD     		pop	{r3, pc}
 1120              	.L94:
 1121              		.align	2
 1122              	.L93:
 1123 0018 00010B40 		.word	1074462976
 1124              		.cfi_endproc
 1125              	.LFE18:
 1126              		.size	CySysWdtLock, .-CySysWdtLock
 1127              		.section	.text.CySysWdtUnlock,"ax",%progbits
 1128              		.align	2
 1129              		.global	CySysWdtUnlock
 1130              		.code	16
 1131              		.thumb_func
 1132              		.type	CySysWdtUnlock, %function
 1133              	CySysWdtUnlock:
 1134              	.LFB20:
 974:.\Generated_Source\PSoC4/CyLFClk.c **** 
 975:.\Generated_Source\PSoC4/CyLFClk.c **** 
 976:.\Generated_Source\PSoC4/CyLFClk.c ****     /*******************************************************************************
 977:.\Generated_Source\PSoC4/CyLFClk.c ****     * Function Name: CySysWdtUnlock
 978:.\Generated_Source\PSoC4/CyLFClk.c ****     ****************************************************************************//**
 979:.\Generated_Source\PSoC4/CyLFClk.c ****     * \brief
 980:.\Generated_Source\PSoC4/CyLFClk.c ****     *  Unlocks the Watchdog Timer configuration register.
 981:.\Generated_Source\PSoC4/CyLFClk.c ****     *
 982:.\Generated_Source\PSoC4/CyLFClk.c ****     *******************************************************************************/
 983:.\Generated_Source\PSoC4/CyLFClk.c ****     void CySysWdtUnlock(void)
 984:.\Generated_Source\PSoC4/CyLFClk.c ****     {
 1135              		.loc 1 984 0
 1136              		.cfi_startproc
 1137 0000 10B5     		push	{r4, lr}
 1138              		.cfi_def_cfa_offset 8
 1139              		.cfi_offset 4, -8
 1140              		.cfi_offset 14, -4
 985:.\Generated_Source\PSoC4/CyLFClk.c ****         uint8 interruptState;
 986:.\Generated_Source\PSoC4/CyLFClk.c ****         interruptState = CyEnterCriticalSection();
 1141              		.loc 1 986 0
 1142 0002 FFF7FEFF 		bl	CyEnterCriticalSection
ARM GAS  C:\Users\310295~1\AppData\Local\Temp\ccIU8zba.s 			page 53


 1143              	.LVL104:
 987:.\Generated_Source\PSoC4/CyLFClk.c **** 
 988:.\Generated_Source\PSoC4/CyLFClk.c ****         /* Removing WDT lock requires two writes */
 989:.\Generated_Source\PSoC4/CyLFClk.c ****         CY_SYS_CLK_SELECT_REG = ((CY_SYS_CLK_SELECT_REG & (uint32)(~CY_SYS_WDT_CLK_LOCK_BITS_MASK))
 1144              		.loc 1 989 0
 1145 0006 0849     		ldr	r1, .L96
 1146 0008 0A68     		ldr	r2, [r1]
 1147 000a 084B     		ldr	r3, .L96+4
 1148 000c 1A40     		and	r2, r3
 1149 000e 8024     		mov	r4, #128
 1150 0010 E401     		lsl	r4, r4, #7
 1151 0012 2243     		orr	r2, r4
 1152 0014 0A60     		str	r2, [r1]
 990:.\Generated_Source\PSoC4/CyLFClk.c ****                 CY_SYS_WDT_CLK_LOCK_BIT0);
 991:.\Generated_Source\PSoC4/CyLFClk.c **** 
 992:.\Generated_Source\PSoC4/CyLFClk.c ****         CY_SYS_CLK_SELECT_REG = ((CY_SYS_CLK_SELECT_REG & (uint32)(~CY_SYS_WDT_CLK_LOCK_BITS_MASK))
 1153              		.loc 1 992 0
 1154 0016 0A68     		ldr	r2, [r1]
 1155 0018 1340     		and	r3, r2
 1156 001a 8022     		mov	r2, #128
 1157 001c 1202     		lsl	r2, r2, #8
 1158 001e 1343     		orr	r3, r2
 1159 0020 0B60     		str	r3, [r1]
 993:.\Generated_Source\PSoC4/CyLFClk.c ****                 CY_SYS_WDT_CLK_LOCK_BIT1);
 994:.\Generated_Source\PSoC4/CyLFClk.c **** 
 995:.\Generated_Source\PSoC4/CyLFClk.c ****         CyExitCriticalSection(interruptState);
 1160              		.loc 1 995 0
 1161 0022 FFF7FEFF 		bl	CyExitCriticalSection
 1162              	.LVL105:
 996:.\Generated_Source\PSoC4/CyLFClk.c ****     }
 1163              		.loc 1 996 0
 1164              		@ sp needed
 1165 0026 10BD     		pop	{r4, pc}
 1166              	.L97:
 1167              		.align	2
 1168              	.L96:
 1169 0028 00010B40 		.word	1074462976
 1170 002c FF3FFFFF 		.word	-49153
 1171              		.cfi_endproc
 1172              	.LFE20:
 1173              		.size	CySysWdtUnlock, .-CySysWdtUnlock
 1174              		.section	.text.CySysWdtGetEnabledStatus,"ax",%progbits
 1175              		.align	2
 1176              		.global	CySysWdtGetEnabledStatus
 1177              		.code	16
 1178              		.thumb_func
 1179              		.type	CySysWdtGetEnabledStatus, %function
 1180              	CySysWdtGetEnabledStatus:
 1181              	.LFB21:
 997:.\Generated_Source\PSoC4/CyLFClk.c **** 
 998:.\Generated_Source\PSoC4/CyLFClk.c **** 
 999:.\Generated_Source\PSoC4/CyLFClk.c ****     /*******************************************************************************
1000:.\Generated_Source\PSoC4/CyLFClk.c ****     * Function Name: CySysWdtGetEnabledStatus
1001:.\Generated_Source\PSoC4/CyLFClk.c ****     ****************************************************************************//**
1002:.\Generated_Source\PSoC4/CyLFClk.c ****     * \brief
1003:.\Generated_Source\PSoC4/CyLFClk.c ****     *  Reads the enabled status of one of the three WDT counters.
1004:.\Generated_Source\PSoC4/CyLFClk.c ****     *
ARM GAS  C:\Users\310295~1\AppData\Local\Temp\ccIU8zba.s 			page 54


1005:.\Generated_Source\PSoC4/CyLFClk.c ****     * \param counterNum: Valid range [0-2].  The number of the WDT counter.
1006:.\Generated_Source\PSoC4/CyLFClk.c ****     *
1007:.\Generated_Source\PSoC4/CyLFClk.c ****     * \return The status of the WDT counter:
1008:.\Generated_Source\PSoC4/CyLFClk.c ****     * \return 0 - If the counter is disabled.
1009:.\Generated_Source\PSoC4/CyLFClk.c ****     * \return 1 - If the counter is enabled.
1010:.\Generated_Source\PSoC4/CyLFClk.c ****     *
1011:.\Generated_Source\PSoC4/CyLFClk.c ****     * \details
1012:.\Generated_Source\PSoC4/CyLFClk.c ****     * This function returns an actual WDT counter status from the status register. It may
1013:.\Generated_Source\PSoC4/CyLFClk.c ****     * take up to 3 LFCLK cycles for the WDT status register to contain actual data
1014:.\Generated_Source\PSoC4/CyLFClk.c ****     * after the WDT counter is enabled.
1015:.\Generated_Source\PSoC4/CyLFClk.c ****     *
1016:.\Generated_Source\PSoC4/CyLFClk.c ****     *******************************************************************************/
1017:.\Generated_Source\PSoC4/CyLFClk.c ****     uint32 CySysWdtGetEnabledStatus(uint32 counterNum)
1018:.\Generated_Source\PSoC4/CyLFClk.c ****     {
 1182              		.loc 1 1018 0
 1183              		.cfi_startproc
 1184              	.LVL106:
 1185 0000 10B5     		push	{r4, lr}
 1186              		.cfi_def_cfa_offset 8
 1187              		.cfi_offset 4, -8
 1188              		.cfi_offset 14, -4
 1189 0002 041E     		sub	r4, r0, #0
1019:.\Generated_Source\PSoC4/CyLFClk.c ****         CYASSERT(counterNum < CY_SYS_WDT_COUNTERS_MAX);
 1190              		.loc 1 1019 0
 1191 0004 022C     		cmp	r4, #2
 1192 0006 02D9     		bls	.L99
 1193              		.loc 1 1019 0 is_stmt 0 discriminator 1
 1194 0008 0020     		mov	r0, #0
 1195              	.LVL107:
 1196 000a FFF7FEFF 		bl	CyHalt
 1197              	.LVL108:
 1198              	.L99:
1020:.\Generated_Source\PSoC4/CyLFClk.c ****         return ((CY_SYS_WDT_CONTROL_REG >> ((CY_SYS_WDT_CNT_SHIFT * counterNum) + CY_SYS_WDT_CNT_ST
 1199              		.loc 1 1020 0 is_stmt 1
 1200 000e 044B     		ldr	r3, .L100
 1201 0010 1868     		ldr	r0, [r3]
 1202 0012 E400     		lsl	r4, r4, #3
 1203              	.LVL109:
 1204 0014 0134     		add	r4, r4, #1
 1205 0016 E040     		lsr	r0, r0, r4
 1206 0018 041C     		mov	r4, r0
 1207 001a 0120     		mov	r0, #1
 1208 001c 2040     		and	r0, r4
1021:.\Generated_Source\PSoC4/CyLFClk.c ****     }
 1209              		.loc 1 1021 0
 1210              		@ sp needed
 1211 001e 10BD     		pop	{r4, pc}
 1212              	.L101:
 1213              		.align	2
 1214              	.L100:
 1215 0020 10020B40 		.word	1074463248
 1216              		.cfi_endproc
 1217              	.LFE21:
 1218              		.size	CySysWdtGetEnabledStatus, .-CySysWdtGetEnabledStatus
 1219              		.section	.text.CySysWdtSetMode,"ax",%progbits
 1220              		.align	2
 1221              		.global	CySysWdtSetMode
ARM GAS  C:\Users\310295~1\AppData\Local\Temp\ccIU8zba.s 			page 55


 1222              		.code	16
 1223              		.thumb_func
 1224              		.type	CySysWdtSetMode, %function
 1225              	CySysWdtSetMode:
 1226              	.LFB22:
1022:.\Generated_Source\PSoC4/CyLFClk.c **** 
1023:.\Generated_Source\PSoC4/CyLFClk.c **** 
1024:.\Generated_Source\PSoC4/CyLFClk.c ****     /*******************************************************************************
1025:.\Generated_Source\PSoC4/CyLFClk.c ****     * Function Name: CySysWdtSetMode
1026:.\Generated_Source\PSoC4/CyLFClk.c ****     ****************************************************************************//**
1027:.\Generated_Source\PSoC4/CyLFClk.c ****     * \brief
1028:.\Generated_Source\PSoC4/CyLFClk.c ****     * Writes the mode of one of the three WDT counters.
1029:.\Generated_Source\PSoC4/CyLFClk.c ****     *
1030:.\Generated_Source\PSoC4/CyLFClk.c ****     * \param counterNum: Valid range [0-2].  The number of the WDT counter.
1031:.\Generated_Source\PSoC4/CyLFClk.c ****     *
1032:.\Generated_Source\PSoC4/CyLFClk.c ****     * \param mode
1033:.\Generated_Source\PSoC4/CyLFClk.c ****     *  CY_SYS_WDT_MODE_NONE - Free running.<br>
1034:.\Generated_Source\PSoC4/CyLFClk.c ****     * CY_SYS_WDT_MODE_INT - The interrupt generated on match for counter 0
1035:.\Generated_Source\PSoC4/CyLFClk.c ****     * and 1, and on bit toggle for counter 2.<br>
1036:.\Generated_Source\PSoC4/CyLFClk.c ****     * CY_SYS_WDT_MODE_RESET - Reset on match (valid for counter 0 and 1 only).<br>
1037:.\Generated_Source\PSoC4/CyLFClk.c ****     * CY_SYS_WDT_MODE_INT_RESET - Generate an interrupt.  Generate a reset on
1038:.\Generated_Source\PSoC4/CyLFClk.c ****     * the 3rd non-handled interrupt (valid for counter 0 and counter 1 only).
1039:.\Generated_Source\PSoC4/CyLFClk.c ****     *
1040:.\Generated_Source\PSoC4/CyLFClk.c ****     * \details
1041:.\Generated_Source\PSoC4/CyLFClk.c ****     * WDT counter counterNum should be disabled to set a mode. Otherwise, this
1042:.\Generated_Source\PSoC4/CyLFClk.c ****     * function call has no effect. If the specified counter is enabled,
1043:.\Generated_Source\PSoC4/CyLFClk.c ****     * call the CySysWdtDisable() function with the corresponding parameter to
1044:.\Generated_Source\PSoC4/CyLFClk.c ****     * disable the specified counter and wait for it to stop.
1045:.\Generated_Source\PSoC4/CyLFClk.c ****     *
1046:.\Generated_Source\PSoC4/CyLFClk.c ****     *******************************************************************************/
1047:.\Generated_Source\PSoC4/CyLFClk.c ****     void CySysWdtSetMode(uint32 counterNum, uint32 mode)
1048:.\Generated_Source\PSoC4/CyLFClk.c ****     {
 1227              		.loc 1 1048 0
 1228              		.cfi_startproc
 1229              	.LVL110:
 1230 0000 38B5     		push	{r3, r4, r5, lr}
 1231              		.cfi_def_cfa_offset 16
 1232              		.cfi_offset 3, -16
 1233              		.cfi_offset 4, -12
 1234              		.cfi_offset 5, -8
 1235              		.cfi_offset 14, -4
 1236 0002 041C     		mov	r4, r0
 1237 0004 0D1C     		mov	r5, r1
1049:.\Generated_Source\PSoC4/CyLFClk.c ****         uint32 configRegValue;
1050:.\Generated_Source\PSoC4/CyLFClk.c **** 
1051:.\Generated_Source\PSoC4/CyLFClk.c ****         CYASSERT(counterNum < CY_SYS_WDT_COUNTERS_MAX);
 1238              		.loc 1 1051 0
 1239 0006 0228     		cmp	r0, #2
 1240 0008 02D9     		bls	.L103
 1241              		.loc 1 1051 0 is_stmt 0 discriminator 1
 1242 000a 0020     		mov	r0, #0
 1243              	.LVL111:
 1244 000c FFF7FEFF 		bl	CyHalt
 1245              	.LVL112:
 1246              	.L103:
1052:.\Generated_Source\PSoC4/CyLFClk.c **** 
1053:.\Generated_Source\PSoC4/CyLFClk.c ****         if(0u == CySysWdtGetEnabledStatus(counterNum))
ARM GAS  C:\Users\310295~1\AppData\Local\Temp\ccIU8zba.s 			page 56


 1247              		.loc 1 1053 0 is_stmt 1
 1248 0010 201C     		mov	r0, r4
 1249 0012 FFF7FEFF 		bl	CySysWdtGetEnabledStatus
 1250              	.LVL113:
 1251 0016 0028     		cmp	r0, #0
 1252 0018 0BD1     		bne	.L102
1054:.\Generated_Source\PSoC4/CyLFClk.c ****         {
1055:.\Generated_Source\PSoC4/CyLFClk.c ****             configRegValue = CY_SYS_WDT_CONFIG_REG &
 1253              		.loc 1 1055 0
 1254 001a 064A     		ldr	r2, .L105
 1255 001c 1368     		ldr	r3, [r2]
1056:.\Generated_Source\PSoC4/CyLFClk.c ****                                 (uint32)~((uint32)(CY_SYS_WDT_MODE_MASK << (counterNum * CY_SYS_WDT
 1256              		.loc 1 1056 0
 1257 001e E400     		lsl	r4, r4, #3
 1258              	.LVL114:
 1259 0020 0321     		mov	r1, #3
 1260 0022 081C     		mov	r0, r1
 1261 0024 A040     		lsl	r0, r0, r4
1055:.\Generated_Source\PSoC4/CyLFClk.c ****                                 (uint32)~((uint32)(CY_SYS_WDT_MODE_MASK << (counterNum * CY_SYS_WDT
 1262              		.loc 1 1055 0
 1263 0026 8343     		bic	r3, r0
 1264              	.LVL115:
1057:.\Generated_Source\PSoC4/CyLFClk.c ****             configRegValue |= (uint32)((mode & CY_SYS_WDT_MODE_MASK) << (counterNum * CY_SYS_WDT_CN
 1265              		.loc 1 1057 0
 1266 0028 0D40     		and	r5, r1
 1267              	.LVL116:
 1268 002a A540     		lsl	r5, r5, r4
 1269 002c 2C1C     		mov	r4, r5
 1270 002e 1C43     		orr	r4, r3
 1271              	.LVL117:
1058:.\Generated_Source\PSoC4/CyLFClk.c ****             CY_SYS_WDT_CONFIG_REG = configRegValue;
 1272              		.loc 1 1058 0
 1273 0030 1460     		str	r4, [r2]
 1274              	.LVL118:
 1275              	.L102:
1059:.\Generated_Source\PSoC4/CyLFClk.c ****         }
1060:.\Generated_Source\PSoC4/CyLFClk.c ****     }
 1276              		.loc 1 1060 0
 1277              		@ sp needed
 1278 0032 38BD     		pop	{r3, r4, r5, pc}
 1279              	.L106:
 1280              		.align	2
 1281              	.L105:
 1282 0034 0C020B40 		.word	1074463244
 1283              		.cfi_endproc
 1284              	.LFE22:
 1285              		.size	CySysWdtSetMode, .-CySysWdtSetMode
 1286              		.section	.text.CySysClkLfclkPosedgeRestore,"ax",%progbits
 1287              		.align	2
 1288              		.code	16
 1289              		.thumb_func
 1290              		.type	CySysClkLfclkPosedgeRestore, %function
 1291              	CySysClkLfclkPosedgeRestore:
 1292              	.LFB45:
1061:.\Generated_Source\PSoC4/CyLFClk.c **** 
1062:.\Generated_Source\PSoC4/CyLFClk.c **** 
1063:.\Generated_Source\PSoC4/CyLFClk.c ****     /*******************************************************************************
ARM GAS  C:\Users\310295~1\AppData\Local\Temp\ccIU8zba.s 			page 57


1064:.\Generated_Source\PSoC4/CyLFClk.c ****     * Function Name: CySysWdtGetMode
1065:.\Generated_Source\PSoC4/CyLFClk.c ****     ****************************************************************************//**
1066:.\Generated_Source\PSoC4/CyLFClk.c ****     * 
1067:.\Generated_Source\PSoC4/CyLFClk.c ****     * \brief Reads the mode of one of the three WDT counters.
1068:.\Generated_Source\PSoC4/CyLFClk.c ****     *
1069:.\Generated_Source\PSoC4/CyLFClk.c ****     * \param counterNum Valid range [0-2]. The number of the WDT counter.
1070:.\Generated_Source\PSoC4/CyLFClk.c ****     *
1071:.\Generated_Source\PSoC4/CyLFClk.c ****     * \return The mode of the counter. The same enumerated values as the mode 
1072:.\Generated_Source\PSoC4/CyLFClk.c ****     * parameter used in CySysWdtSetMode().
1073:.\Generated_Source\PSoC4/CyLFClk.c ****     *
1074:.\Generated_Source\PSoC4/CyLFClk.c ****     *******************************************************************************/
1075:.\Generated_Source\PSoC4/CyLFClk.c ****     uint32 CySysWdtGetMode(uint32 counterNum)
1076:.\Generated_Source\PSoC4/CyLFClk.c ****     {
1077:.\Generated_Source\PSoC4/CyLFClk.c ****         return ((CY_SYS_WDT_CONFIG_REG >> (counterNum * CY_SYS_WDT_CNT_SHIFT)) & CY_SYS_WDT_MODE_MA
1078:.\Generated_Source\PSoC4/CyLFClk.c ****     }
1079:.\Generated_Source\PSoC4/CyLFClk.c **** 
1080:.\Generated_Source\PSoC4/CyLFClk.c **** 
1081:.\Generated_Source\PSoC4/CyLFClk.c ****     /*******************************************************************************
1082:.\Generated_Source\PSoC4/CyLFClk.c ****     * Function Name: CySysWdtSetClearOnMatch
1083:.\Generated_Source\PSoC4/CyLFClk.c ****     ****************************************************************************//**
1084:.\Generated_Source\PSoC4/CyLFClk.c ****     * 
1085:.\Generated_Source\PSoC4/CyLFClk.c ****     * \brief Configures the WDT counter "clear on match" setting.
1086:.\Generated_Source\PSoC4/CyLFClk.c ****     *
1087:.\Generated_Source\PSoC4/CyLFClk.c ****     * If configured to "clear on match", the counter counts from 0 to MatchValue
1088:.\Generated_Source\PSoC4/CyLFClk.c ****     * giving it a period of (MatchValue + 1).
1089:.\Generated_Source\PSoC4/CyLFClk.c ****     *
1090:.\Generated_Source\PSoC4/CyLFClk.c ****     * \param counterNum
1091:.\Generated_Source\PSoC4/CyLFClk.c ****     * Valid range [0-1]. The number of the WDT counter. The match values are not
1092:.\Generated_Source\PSoC4/CyLFClk.c ****     * supported by counter 2.
1093:.\Generated_Source\PSoC4/CyLFClk.c ****     *
1094:.\Generated_Source\PSoC4/CyLFClk.c ****     * \param enable 0 to disable appropriate counter <br>
1095:.\Generated_Source\PSoC4/CyLFClk.c ****     *  1 to enable appropriate counter
1096:.\Generated_Source\PSoC4/CyLFClk.c ****     *
1097:.\Generated_Source\PSoC4/CyLFClk.c ****     * \details
1098:.\Generated_Source\PSoC4/CyLFClk.c ****     * WDT counter counterNum should be disabled. Otherwise this function call
1099:.\Generated_Source\PSoC4/CyLFClk.c ****     * has no effect. If the specified counter is enabled, call the CySysWdtDisable()
1100:.\Generated_Source\PSoC4/CyLFClk.c ****     * function with the corresponding parameter to disable the specified counter and
1101:.\Generated_Source\PSoC4/CyLFClk.c ****     * wait for it to stop. This may take up to three LFCLK cycles.
1102:.\Generated_Source\PSoC4/CyLFClk.c ****     *
1103:.\Generated_Source\PSoC4/CyLFClk.c ****     *******************************************************************************/
1104:.\Generated_Source\PSoC4/CyLFClk.c ****     void CySysWdtSetClearOnMatch(uint32 counterNum, uint32 enable)
1105:.\Generated_Source\PSoC4/CyLFClk.c ****     {
1106:.\Generated_Source\PSoC4/CyLFClk.c ****         uint32 configRegValue;
1107:.\Generated_Source\PSoC4/CyLFClk.c **** 
1108:.\Generated_Source\PSoC4/CyLFClk.c ****         CYASSERT((counterNum == CY_SYS_WDT_COUNTER0) ||
1109:.\Generated_Source\PSoC4/CyLFClk.c ****                  (counterNum == CY_SYS_WDT_COUNTER1));
1110:.\Generated_Source\PSoC4/CyLFClk.c **** 
1111:.\Generated_Source\PSoC4/CyLFClk.c ****         if(0u == CySysWdtGetEnabledStatus(counterNum))
1112:.\Generated_Source\PSoC4/CyLFClk.c ****         {
1113:.\Generated_Source\PSoC4/CyLFClk.c ****             configRegValue = CY_SYS_WDT_CONFIG_REG & (uint32)~((uint32)((uint32)1u << 
1114:.\Generated_Source\PSoC4/CyLFClk.c ****                                      ((counterNum * CY_SYS_WDT_CNT_SHIFT) + CY_SYS_WDT_CNT_MATCH_CL
1115:.\Generated_Source\PSoC4/CyLFClk.c **** 
1116:.\Generated_Source\PSoC4/CyLFClk.c ****             configRegValue
1117:.\Generated_Source\PSoC4/CyLFClk.c ****                 |= (uint32)(enable << ((counterNum * CY_SYS_WDT_CNT_SHIFT) + CY_SYS_WDT_CNT_MATCH_C
1118:.\Generated_Source\PSoC4/CyLFClk.c **** 
1119:.\Generated_Source\PSoC4/CyLFClk.c ****             CY_SYS_WDT_CONFIG_REG = configRegValue;
1120:.\Generated_Source\PSoC4/CyLFClk.c ****         }
ARM GAS  C:\Users\310295~1\AppData\Local\Temp\ccIU8zba.s 			page 58


1121:.\Generated_Source\PSoC4/CyLFClk.c ****     }
1122:.\Generated_Source\PSoC4/CyLFClk.c **** 
1123:.\Generated_Source\PSoC4/CyLFClk.c **** 
1124:.\Generated_Source\PSoC4/CyLFClk.c ****     /*******************************************************************************
1125:.\Generated_Source\PSoC4/CyLFClk.c ****     * Function Name: CySysWdtGetClearOnMatch
1126:.\Generated_Source\PSoC4/CyLFClk.c ****     ****************************************************************************//**
1127:.\Generated_Source\PSoC4/CyLFClk.c ****     * \brief
1128:.\Generated_Source\PSoC4/CyLFClk.c ****     * Reads the "clear on match" setting for the specified counter.
1129:.\Generated_Source\PSoC4/CyLFClk.c ****     *
1130:.\Generated_Source\PSoC4/CyLFClk.c ****     * \param
1131:.\Generated_Source\PSoC4/CyLFClk.c ****     * counterNum Valid range [0-1]. The number of the WDT counter. The match values
1132:.\Generated_Source\PSoC4/CyLFClk.c ****     * are not supported by counter 2.
1133:.\Generated_Source\PSoC4/CyLFClk.c ****     *
1134:.\Generated_Source\PSoC4/CyLFClk.c ****     * \return The "clear on match" status: <br>1 if enabled <br>0 if disabled
1135:.\Generated_Source\PSoC4/CyLFClk.c ****     *
1136:.\Generated_Source\PSoC4/CyLFClk.c ****     *******************************************************************************/
1137:.\Generated_Source\PSoC4/CyLFClk.c ****     uint32 CySysWdtGetClearOnMatch(uint32 counterNum)
1138:.\Generated_Source\PSoC4/CyLFClk.c ****     {
1139:.\Generated_Source\PSoC4/CyLFClk.c ****         CYASSERT((counterNum == CY_SYS_WDT_COUNTER0) ||
1140:.\Generated_Source\PSoC4/CyLFClk.c ****                  (counterNum == CY_SYS_WDT_COUNTER1));
1141:.\Generated_Source\PSoC4/CyLFClk.c **** 
1142:.\Generated_Source\PSoC4/CyLFClk.c ****         return (uint32)((CY_SYS_WDT_CONFIG_REG >>
1143:.\Generated_Source\PSoC4/CyLFClk.c ****                         ((counterNum * CY_SYS_WDT_CNT_SHIFT) + CY_SYS_WDT_CNT_MATCH_CLR_SHIFT)) & 0
1144:.\Generated_Source\PSoC4/CyLFClk.c ****     }
1145:.\Generated_Source\PSoC4/CyLFClk.c **** 
1146:.\Generated_Source\PSoC4/CyLFClk.c **** 
1147:.\Generated_Source\PSoC4/CyLFClk.c ****     /*******************************************************************************
1148:.\Generated_Source\PSoC4/CyLFClk.c ****     * Function Name: CySysWdtEnable
1149:.\Generated_Source\PSoC4/CyLFClk.c ****     ****************************************************************************//**
1150:.\Generated_Source\PSoC4/CyLFClk.c ****     *
1151:.\Generated_Source\PSoC4/CyLFClk.c ****     * \brief Enables the specified WDT counters.
1152:.\Generated_Source\PSoC4/CyLFClk.c ****     *
1153:.\Generated_Source\PSoC4/CyLFClk.c ****     * All the counters specified in the mask are enabled.
1154:.\Generated_Source\PSoC4/CyLFClk.c ****     *
1155:.\Generated_Source\PSoC4/CyLFClk.c ****     * \param counterMask
1156:.\Generated_Source\PSoC4/CyLFClk.c ****     *  CY_SYS_WDT_COUNTER0_MASK - The mask for counter 0 to enable.<br>
1157:.\Generated_Source\PSoC4/CyLFClk.c ****     * CY_SYS_WDT_COUNTER1_MASK - The mask for counter 1 to enable.<br>
1158:.\Generated_Source\PSoC4/CyLFClk.c ****     * CY_SYS_WDT_COUNTER2_MASK - The mask for counter 2 to enable.
1159:.\Generated_Source\PSoC4/CyLFClk.c ****     *
1160:.\Generated_Source\PSoC4/CyLFClk.c ****     * \details
1161:.\Generated_Source\PSoC4/CyLFClk.c ****     * Enabling or disabling WDT requires 3 LFCLK cycles to come into effect.
1162:.\Generated_Source\PSoC4/CyLFClk.c ****     * Therefore, the WDT enable state must not be changed more than once in
1163:.\Generated_Source\PSoC4/CyLFClk.c ****     * that period.
1164:.\Generated_Source\PSoC4/CyLFClk.c ****     *
1165:.\Generated_Source\PSoC4/CyLFClk.c ****     * After WDT is enabled, it is illegal to write WDT configuration (WDT_CONFIG)
1166:.\Generated_Source\PSoC4/CyLFClk.c ****     * and control (WDT_CONTROL) registers. This means that all WDT functions that
1167:.\Generated_Source\PSoC4/CyLFClk.c ****     * contain 'write' in the name (with the exception of CySysWdtSetMatch()
1168:.\Generated_Source\PSoC4/CyLFClk.c ****     * function) are illegal to call if WDT is enabled.
1169:.\Generated_Source\PSoC4/CyLFClk.c ****     *
1170:.\Generated_Source\PSoC4/CyLFClk.c ****     * PSoC 4100 / PSoC 4200: This function enables ILO.
1171:.\Generated_Source\PSoC4/CyLFClk.c ****     *
1172:.\Generated_Source\PSoC4/CyLFClk.c ****     * PSoC 4100 BLE / PSoC 4200 BLE / PSoC4200L / PSoC 4100M 
1173:.\Generated_Source\PSoC4/CyLFClk.c ****     * / PSoC 4200M:
1174:.\Generated_Source\PSoC4/CyLFClk.c ****     * LFLCK should be configured before calling this function. The desired
1175:.\Generated_Source\PSoC4/CyLFClk.c ****     * source should be enabled and configured to be the source for LFCLK.
1176:.\Generated_Source\PSoC4/CyLFClk.c ****     *
1177:.\Generated_Source\PSoC4/CyLFClk.c ****     *******************************************************************************/
ARM GAS  C:\Users\310295~1\AppData\Local\Temp\ccIU8zba.s 			page 59


1178:.\Generated_Source\PSoC4/CyLFClk.c ****     void CySysWdtEnable(uint32 counterMask)
1179:.\Generated_Source\PSoC4/CyLFClk.c ****     {
1180:.\Generated_Source\PSoC4/CyLFClk.c ****         #if (!CY_IP_WCO)
1181:.\Generated_Source\PSoC4/CyLFClk.c ****             CySysClkIloStart();
1182:.\Generated_Source\PSoC4/CyLFClk.c ****         #endif /* (!CY_IP_WCO) */
1183:.\Generated_Source\PSoC4/CyLFClk.c **** 
1184:.\Generated_Source\PSoC4/CyLFClk.c ****         CY_SYS_WDT_CONTROL_REG |= counterMask;
1185:.\Generated_Source\PSoC4/CyLFClk.c **** 
1186:.\Generated_Source\PSoC4/CyLFClk.c ****         if(0u != (counterMask & CY_SYS_WDT_COUNTER0_MASK))
1187:.\Generated_Source\PSoC4/CyLFClk.c ****         {
1188:.\Generated_Source\PSoC4/CyLFClk.c ****             while (0u == CySysWdtGetEnabledStatus(CY_SYS_WDT_COUNTER0))
1189:.\Generated_Source\PSoC4/CyLFClk.c ****             {
1190:.\Generated_Source\PSoC4/CyLFClk.c ****                 /* Wait for changes to come into effect */
1191:.\Generated_Source\PSoC4/CyLFClk.c ****             }
1192:.\Generated_Source\PSoC4/CyLFClk.c ****         }
1193:.\Generated_Source\PSoC4/CyLFClk.c **** 
1194:.\Generated_Source\PSoC4/CyLFClk.c ****         if(0u != (counterMask & CY_SYS_WDT_COUNTER1_MASK))
1195:.\Generated_Source\PSoC4/CyLFClk.c ****         {
1196:.\Generated_Source\PSoC4/CyLFClk.c ****             while (0u == CySysWdtGetEnabledStatus(CY_SYS_WDT_COUNTER1))
1197:.\Generated_Source\PSoC4/CyLFClk.c ****             {
1198:.\Generated_Source\PSoC4/CyLFClk.c ****                 /* Wait for changes to come into effect */
1199:.\Generated_Source\PSoC4/CyLFClk.c ****             }
1200:.\Generated_Source\PSoC4/CyLFClk.c ****         }
1201:.\Generated_Source\PSoC4/CyLFClk.c **** 
1202:.\Generated_Source\PSoC4/CyLFClk.c ****         if(0u != (counterMask & CY_SYS_WDT_COUNTER2_MASK))
1203:.\Generated_Source\PSoC4/CyLFClk.c ****         {
1204:.\Generated_Source\PSoC4/CyLFClk.c ****             while (0u == CySysWdtGetEnabledStatus(CY_SYS_WDT_COUNTER2))
1205:.\Generated_Source\PSoC4/CyLFClk.c ****             {
1206:.\Generated_Source\PSoC4/CyLFClk.c ****                 /* Wait for changes to come into effect */
1207:.\Generated_Source\PSoC4/CyLFClk.c ****             }
1208:.\Generated_Source\PSoC4/CyLFClk.c ****         }
1209:.\Generated_Source\PSoC4/CyLFClk.c ****     }
1210:.\Generated_Source\PSoC4/CyLFClk.c **** 
1211:.\Generated_Source\PSoC4/CyLFClk.c **** 
1212:.\Generated_Source\PSoC4/CyLFClk.c ****     /*******************************************************************************
1213:.\Generated_Source\PSoC4/CyLFClk.c ****     * Function Name: CySysWdtDisable
1214:.\Generated_Source\PSoC4/CyLFClk.c ****     ****************************************************************************//**
1215:.\Generated_Source\PSoC4/CyLFClk.c ****     *
1216:.\Generated_Source\PSoC4/CyLFClk.c ****     * \brief Disables the specified WDT counters.
1217:.\Generated_Source\PSoC4/CyLFClk.c ****     * All the counters specified in the mask are disabled. The function waits for 
1218:.\Generated_Source\PSoC4/CyLFClk.c ****     * the changes to come into effect.
1219:.\Generated_Source\PSoC4/CyLFClk.c ****     *
1220:.\Generated_Source\PSoC4/CyLFClk.c ****     * \param counterMask
1221:.\Generated_Source\PSoC4/CyLFClk.c ****     * CY_SYS_WDT_COUNTER0_MASK - The mask for counter 0 to disable. <br>
1222:.\Generated_Source\PSoC4/CyLFClk.c ****     * CY_SYS_WDT_COUNTER1_MASK - The mask for counter 1 to disable. <br>
1223:.\Generated_Source\PSoC4/CyLFClk.c ****     * CY_SYS_WDT_COUNTER2_MASK - The mask for counter 2 to disable.
1224:.\Generated_Source\PSoC4/CyLFClk.c ****     *
1225:.\Generated_Source\PSoC4/CyLFClk.c ****     *******************************************************************************/
1226:.\Generated_Source\PSoC4/CyLFClk.c ****     void CySysWdtDisable(uint32 counterMask)
1227:.\Generated_Source\PSoC4/CyLFClk.c ****     {
1228:.\Generated_Source\PSoC4/CyLFClk.c ****         if (0uL == CySysWdtLocked())
1229:.\Generated_Source\PSoC4/CyLFClk.c ****         {
1230:.\Generated_Source\PSoC4/CyLFClk.c ****             CY_SYS_WDT_CONTROL_REG &= ~counterMask;
1231:.\Generated_Source\PSoC4/CyLFClk.c **** 
1232:.\Generated_Source\PSoC4/CyLFClk.c ****             if(0u != (counterMask & CY_SYS_WDT_COUNTER0_MASK))
1233:.\Generated_Source\PSoC4/CyLFClk.c ****             {
1234:.\Generated_Source\PSoC4/CyLFClk.c ****                 while (0u != CySysWdtGetEnabledStatus(CY_SYS_WDT_COUNTER0))
ARM GAS  C:\Users\310295~1\AppData\Local\Temp\ccIU8zba.s 			page 60


1235:.\Generated_Source\PSoC4/CyLFClk.c ****                 {
1236:.\Generated_Source\PSoC4/CyLFClk.c ****                     /* Wait for changes to come into effect */
1237:.\Generated_Source\PSoC4/CyLFClk.c ****                 }
1238:.\Generated_Source\PSoC4/CyLFClk.c ****             }
1239:.\Generated_Source\PSoC4/CyLFClk.c **** 
1240:.\Generated_Source\PSoC4/CyLFClk.c ****             if(0u != (counterMask & CY_SYS_WDT_COUNTER1_MASK))
1241:.\Generated_Source\PSoC4/CyLFClk.c ****             {
1242:.\Generated_Source\PSoC4/CyLFClk.c ****                 while (0u != CySysWdtGetEnabledStatus(CY_SYS_WDT_COUNTER1))
1243:.\Generated_Source\PSoC4/CyLFClk.c ****                 {
1244:.\Generated_Source\PSoC4/CyLFClk.c ****                     /* Wait for changes to come into effect */
1245:.\Generated_Source\PSoC4/CyLFClk.c ****                 }
1246:.\Generated_Source\PSoC4/CyLFClk.c ****             }
1247:.\Generated_Source\PSoC4/CyLFClk.c **** 
1248:.\Generated_Source\PSoC4/CyLFClk.c ****             if(0u != (counterMask & CY_SYS_WDT_COUNTER2_MASK))
1249:.\Generated_Source\PSoC4/CyLFClk.c ****             {
1250:.\Generated_Source\PSoC4/CyLFClk.c ****                 while (0u != CySysWdtGetEnabledStatus(CY_SYS_WDT_COUNTER2))
1251:.\Generated_Source\PSoC4/CyLFClk.c ****                 {
1252:.\Generated_Source\PSoC4/CyLFClk.c ****                     /* Wait for changes to come into effect */
1253:.\Generated_Source\PSoC4/CyLFClk.c ****                 }
1254:.\Generated_Source\PSoC4/CyLFClk.c ****             }
1255:.\Generated_Source\PSoC4/CyLFClk.c ****         }
1256:.\Generated_Source\PSoC4/CyLFClk.c ****     }
1257:.\Generated_Source\PSoC4/CyLFClk.c **** 
1258:.\Generated_Source\PSoC4/CyLFClk.c **** 
1259:.\Generated_Source\PSoC4/CyLFClk.c ****     /*******************************************************************************
1260:.\Generated_Source\PSoC4/CyLFClk.c ****     * Function Name: CySysWdtSetCascade
1261:.\Generated_Source\PSoC4/CyLFClk.c ****     ****************************************************************************//**
1262:.\Generated_Source\PSoC4/CyLFClk.c ****     * \brief
1263:.\Generated_Source\PSoC4/CyLFClk.c ****     * Writes the two WDT cascade values based on the combination of mask values
1264:.\Generated_Source\PSoC4/CyLFClk.c ****     * specified.
1265:.\Generated_Source\PSoC4/CyLFClk.c ****     *
1266:.\Generated_Source\PSoC4/CyLFClk.c ****     * \param cascadeMask The mask value used to set or clear the cascade values:
1267:.\Generated_Source\PSoC4/CyLFClk.c ****     * CY_SYS_WDT_CASCADE_NONE - Neither <br>
1268:.\Generated_Source\PSoC4/CyLFClk.c ****     * CY_SYS_WDT_CASCADE_01 - Cascade 01 <br>
1269:.\Generated_Source\PSoC4/CyLFClk.c ****     * CY_SYS_WDT_CASCADE_12 - Cascade 12
1270:.\Generated_Source\PSoC4/CyLFClk.c ****     *
1271:.\Generated_Source\PSoC4/CyLFClk.c ****     * If only one cascade mask is specified, the second cascade is disabled.
1272:.\Generated_Source\PSoC4/CyLFClk.c ****     * To set both cascade modes, two defines should be ORed:
1273:.\Generated_Source\PSoC4/CyLFClk.c ****     * (CY_SYS_TIMER_CASCADE_01 | CY_SYS_TIMER_CASCADE_12).
1274:.\Generated_Source\PSoC4/CyLFClk.c ****     * \note If CySysWdtSetCascade() was called with ORed defines it is necessary 
1275:.\Generated_Source\PSoC4/CyLFClk.c ****     * to call CySysWdtSetClearOnMatch(1,1). It is needed to make sure that 
1276:.\Generated_Source\PSoC4/CyLFClk.c ****     * Counter 2 will be updated in the expected way.
1277:.\Generated_Source\PSoC4/CyLFClk.c ****     *
1278:.\Generated_Source\PSoC4/CyLFClk.c ****     * WDT counters that are part of the specified cascade should be disabled.
1279:.\Generated_Source\PSoC4/CyLFClk.c ****     * Otherwise this function call has no effect. If the specified
1280:.\Generated_Source\PSoC4/CyLFClk.c ****     * counter is enabled, call CySysWdtDisable() function with the corresponding
1281:.\Generated_Source\PSoC4/CyLFClk.c ****     * parameter to disable the specified counter and wait for it to stop. This may
1282:.\Generated_Source\PSoC4/CyLFClk.c ****     * take up to 3 LFCLK cycles.
1283:.\Generated_Source\PSoC4/CyLFClk.c ****     *
1284:.\Generated_Source\PSoC4/CyLFClk.c ****     *******************************************************************************/
1285:.\Generated_Source\PSoC4/CyLFClk.c ****     void CySysWdtSetCascade(uint32 cascadeMask)
1286:.\Generated_Source\PSoC4/CyLFClk.c ****     {
1287:.\Generated_Source\PSoC4/CyLFClk.c ****         uint32 configRegValue;
1288:.\Generated_Source\PSoC4/CyLFClk.c ****         uint32 countersEnableStatus;
1289:.\Generated_Source\PSoC4/CyLFClk.c **** 
1290:.\Generated_Source\PSoC4/CyLFClk.c ****         countersEnableStatus = CySysWdtGetEnabledStatus(CY_SYS_WDT_COUNTER0) |
1291:.\Generated_Source\PSoC4/CyLFClk.c ****                             CySysWdtGetEnabledStatus(CY_SYS_WDT_COUNTER1) |
ARM GAS  C:\Users\310295~1\AppData\Local\Temp\ccIU8zba.s 			page 61


1292:.\Generated_Source\PSoC4/CyLFClk.c ****                             CySysWdtGetEnabledStatus(CY_SYS_WDT_COUNTER2);
1293:.\Generated_Source\PSoC4/CyLFClk.c **** 
1294:.\Generated_Source\PSoC4/CyLFClk.c ****         if (0u == countersEnableStatus)
1295:.\Generated_Source\PSoC4/CyLFClk.c ****         {
1296:.\Generated_Source\PSoC4/CyLFClk.c ****             configRegValue = CY_SYS_WDT_CONFIG_REG;
1297:.\Generated_Source\PSoC4/CyLFClk.c ****             configRegValue &= ((uint32)(~(CY_SYS_WDT_CASCADE_01|CY_SYS_WDT_CASCADE_12)));
1298:.\Generated_Source\PSoC4/CyLFClk.c ****             configRegValue |= cascadeMask;
1299:.\Generated_Source\PSoC4/CyLFClk.c ****             CY_SYS_WDT_CONFIG_REG = configRegValue;
1300:.\Generated_Source\PSoC4/CyLFClk.c ****         }
1301:.\Generated_Source\PSoC4/CyLFClk.c ****     }
1302:.\Generated_Source\PSoC4/CyLFClk.c **** 
1303:.\Generated_Source\PSoC4/CyLFClk.c **** 
1304:.\Generated_Source\PSoC4/CyLFClk.c ****     /*******************************************************************************
1305:.\Generated_Source\PSoC4/CyLFClk.c ****     * Function Name: CySysWdtGetCascade
1306:.\Generated_Source\PSoC4/CyLFClk.c ****     ****************************************************************************//**
1307:.\Generated_Source\PSoC4/CyLFClk.c ****     *
1308:.\Generated_Source\PSoC4/CyLFClk.c ****     * \brief Reads the two WDT cascade values returning a mask of the bits set.
1309:.\Generated_Source\PSoC4/CyLFClk.c ****     *
1310:.\Generated_Source\PSoC4/CyLFClk.c ****     * \return The mask of the cascade values set.
1311:.\Generated_Source\PSoC4/CyLFClk.c ****     * \return CY_SYS_WDT_CASCADE_NONE - Neither
1312:.\Generated_Source\PSoC4/CyLFClk.c ****     * \return CY_SYS_WDT_CASCADE_01 - Cascade 01
1313:.\Generated_Source\PSoC4/CyLFClk.c ****     * \return CY_SYS_WDT_CASCADE_12 - Cascade 12
1314:.\Generated_Source\PSoC4/CyLFClk.c ****     *
1315:.\Generated_Source\PSoC4/CyLFClk.c ****     *******************************************************************************/
1316:.\Generated_Source\PSoC4/CyLFClk.c ****     uint32 CySysWdtGetCascade(void)
1317:.\Generated_Source\PSoC4/CyLFClk.c ****     {
1318:.\Generated_Source\PSoC4/CyLFClk.c ****         return (CY_SYS_WDT_CONFIG_REG & (CY_SYS_WDT_CASCADE_01 | CY_SYS_WDT_CASCADE_12));
1319:.\Generated_Source\PSoC4/CyLFClk.c ****     }
1320:.\Generated_Source\PSoC4/CyLFClk.c **** 
1321:.\Generated_Source\PSoC4/CyLFClk.c **** 
1322:.\Generated_Source\PSoC4/CyLFClk.c ****     /*******************************************************************************
1323:.\Generated_Source\PSoC4/CyLFClk.c ****     * Function Name: CySysWdtSetMatch
1324:.\Generated_Source\PSoC4/CyLFClk.c ****     ****************************************************************************//**
1325:.\Generated_Source\PSoC4/CyLFClk.c ****     *
1326:.\Generated_Source\PSoC4/CyLFClk.c ****     * \brief Configures the WDT counter match comparison value.
1327:.\Generated_Source\PSoC4/CyLFClk.c ****     *
1328:.\Generated_Source\PSoC4/CyLFClk.c ****     * \param counterNum
1329:.\Generated_Source\PSoC4/CyLFClk.c ****     * Valid range [0-1]. The number of the WDT counter. The match values are not
1330:.\Generated_Source\PSoC4/CyLFClk.c ****     * supported by counter 2.
1331:.\Generated_Source\PSoC4/CyLFClk.c ****     *
1332:.\Generated_Source\PSoC4/CyLFClk.c ****     * \param match
1333:.\Generated_Source\PSoC4/CyLFClk.c ****     * Valid range [0-65535]. The value to be used to match against the counter.
1334:.\Generated_Source\PSoC4/CyLFClk.c ****     *
1335:.\Generated_Source\PSoC4/CyLFClk.c ****     *******************************************************************************/
1336:.\Generated_Source\PSoC4/CyLFClk.c ****     void CySysWdtSetMatch(uint32 counterNum, uint32 match)
1337:.\Generated_Source\PSoC4/CyLFClk.c ****     {
1338:.\Generated_Source\PSoC4/CyLFClk.c ****         uint32 regValue;
1339:.\Generated_Source\PSoC4/CyLFClk.c **** 
1340:.\Generated_Source\PSoC4/CyLFClk.c ****         CYASSERT((counterNum == CY_SYS_WDT_COUNTER0) ||
1341:.\Generated_Source\PSoC4/CyLFClk.c ****                  (counterNum == CY_SYS_WDT_COUNTER1));
1342:.\Generated_Source\PSoC4/CyLFClk.c **** 
1343:.\Generated_Source\PSoC4/CyLFClk.c ****         /* Wait for previous changes to come into effect */
1344:.\Generated_Source\PSoC4/CyLFClk.c ****         CyDelayUs(CY_SYS_WDT_3LFCLK_DELAY_US);
1345:.\Generated_Source\PSoC4/CyLFClk.c **** 
1346:.\Generated_Source\PSoC4/CyLFClk.c ****         regValue = CY_SYS_WDT_MATCH_REG;
1347:.\Generated_Source\PSoC4/CyLFClk.c ****         regValue &= (uint32)~((uint32)(CY_SYS_WDT_LOWER_16BITS_MASK << (counterNum * CY_SYS_WDT_CNT
1348:.\Generated_Source\PSoC4/CyLFClk.c ****         CY_SYS_WDT_MATCH_REG = (regValue | (match << (counterNum * CY_SYS_WDT_CNT_MATCH_SHIFT)));
ARM GAS  C:\Users\310295~1\AppData\Local\Temp\ccIU8zba.s 			page 62


1349:.\Generated_Source\PSoC4/CyLFClk.c **** 
1350:.\Generated_Source\PSoC4/CyLFClk.c ****         /* Make sure match synchronization has started */
1351:.\Generated_Source\PSoC4/CyLFClk.c ****         CyDelayUs(CY_SYS_WDT_1LFCLK_DELAY_US);
1352:.\Generated_Source\PSoC4/CyLFClk.c ****     }
1353:.\Generated_Source\PSoC4/CyLFClk.c **** 
1354:.\Generated_Source\PSoC4/CyLFClk.c **** 
1355:.\Generated_Source\PSoC4/CyLFClk.c ****     /*******************************************************************************
1356:.\Generated_Source\PSoC4/CyLFClk.c ****     * Function Name: CySysWdtSetToggleBit
1357:.\Generated_Source\PSoC4/CyLFClk.c ****     ****************************************************************************//**
1358:.\Generated_Source\PSoC4/CyLFClk.c ****     * \brief
1359:.\Generated_Source\PSoC4/CyLFClk.c ****     * Configures which bit in WDT counter 2 to monitor for a toggle.
1360:.\Generated_Source\PSoC4/CyLFClk.c ****     *
1361:.\Generated_Source\PSoC4/CyLFClk.c ****     * When that bit toggles, an interrupt is generated if the mode for counter 2 has
1362:.\Generated_Source\PSoC4/CyLFClk.c ****     * enabled interrupts.
1363:.\Generated_Source\PSoC4/CyLFClk.c ****     *
1364:.\Generated_Source\PSoC4/CyLFClk.c ****     * \param bits Valid range [0-31].  Counter 2 bit to monitor for a toggle.
1365:.\Generated_Source\PSoC4/CyLFClk.c ****     *
1366:.\Generated_Source\PSoC4/CyLFClk.c ****     * \details
1367:.\Generated_Source\PSoC4/CyLFClk.c ****     * WDT Counter 2 should be disabled. Otherwise this function call has no
1368:.\Generated_Source\PSoC4/CyLFClk.c ****     * effect.
1369:.\Generated_Source\PSoC4/CyLFClk.c ****     *
1370:.\Generated_Source\PSoC4/CyLFClk.c ****     * If the specified counter is enabled, call the CySysWdtDisable() function with
1371:.\Generated_Source\PSoC4/CyLFClk.c ****     * the corresponding parameter to disable the specified counter and wait for it to
1372:.\Generated_Source\PSoC4/CyLFClk.c ****     * stop. This may take up to 3 LFCLK cycles.
1373:.\Generated_Source\PSoC4/CyLFClk.c ****     *
1374:.\Generated_Source\PSoC4/CyLFClk.c ****     *******************************************************************************/
1375:.\Generated_Source\PSoC4/CyLFClk.c ****     void CySysWdtSetToggleBit(uint32 bits)
1376:.\Generated_Source\PSoC4/CyLFClk.c ****     {
1377:.\Generated_Source\PSoC4/CyLFClk.c ****         uint32 configRegValue;
1378:.\Generated_Source\PSoC4/CyLFClk.c **** 
1379:.\Generated_Source\PSoC4/CyLFClk.c ****         if (0u == CySysWdtGetEnabledStatus(CY_SYS_WDT_COUNTER2))
1380:.\Generated_Source\PSoC4/CyLFClk.c ****         {
1381:.\Generated_Source\PSoC4/CyLFClk.c ****             configRegValue = CY_SYS_WDT_CONFIG_REG;
1382:.\Generated_Source\PSoC4/CyLFClk.c ****             configRegValue &= (uint32)(~((uint32)(CY_SYS_WDT_CONFIG_BITS2_MASK << CY_SYS_WDT_CONFIG
1383:.\Generated_Source\PSoC4/CyLFClk.c ****             configRegValue |= ((bits & CY_SYS_WDT_CONFIG_BITS2_MASK) << CY_SYS_WDT_CONFIG_BITS2_POS
1384:.\Generated_Source\PSoC4/CyLFClk.c ****             CY_SYS_WDT_CONFIG_REG = configRegValue;
1385:.\Generated_Source\PSoC4/CyLFClk.c ****         }
1386:.\Generated_Source\PSoC4/CyLFClk.c ****     }
1387:.\Generated_Source\PSoC4/CyLFClk.c **** 
1388:.\Generated_Source\PSoC4/CyLFClk.c **** 
1389:.\Generated_Source\PSoC4/CyLFClk.c ****     /*******************************************************************************
1390:.\Generated_Source\PSoC4/CyLFClk.c ****     * Function Name: CySysWdtGetToggleBit
1391:.\Generated_Source\PSoC4/CyLFClk.c ****     ****************************************************************************//**
1392:.\Generated_Source\PSoC4/CyLFClk.c ****     * \brief
1393:.\Generated_Source\PSoC4/CyLFClk.c ****     * Reads which bit in WDT counter 2 is monitored for a toggle.
1394:.\Generated_Source\PSoC4/CyLFClk.c ****     *
1395:.\Generated_Source\PSoC4/CyLFClk.c ****     * \return The bit that is monitored (range of 0 to 31)
1396:.\Generated_Source\PSoC4/CyLFClk.c ****     *
1397:.\Generated_Source\PSoC4/CyLFClk.c ****     *******************************************************************************/
1398:.\Generated_Source\PSoC4/CyLFClk.c ****     uint32 CySysWdtGetToggleBit(void)
1399:.\Generated_Source\PSoC4/CyLFClk.c ****     {
1400:.\Generated_Source\PSoC4/CyLFClk.c ****         return ((CY_SYS_WDT_CONFIG_REG >> CY_SYS_WDT_CONFIG_BITS2_POS) & CY_SYS_WDT_CONFIG_BITS2_MA
1401:.\Generated_Source\PSoC4/CyLFClk.c ****     }
1402:.\Generated_Source\PSoC4/CyLFClk.c **** 
1403:.\Generated_Source\PSoC4/CyLFClk.c **** 
1404:.\Generated_Source\PSoC4/CyLFClk.c ****     /*******************************************************************************
1405:.\Generated_Source\PSoC4/CyLFClk.c ****     * Function Name: CySysWdtGetMatch
ARM GAS  C:\Users\310295~1\AppData\Local\Temp\ccIU8zba.s 			page 63


1406:.\Generated_Source\PSoC4/CyLFClk.c ****     ****************************************************************************//**
1407:.\Generated_Source\PSoC4/CyLFClk.c ****     *
1408:.\Generated_Source\PSoC4/CyLFClk.c ****     * \brief Reads the WDT counter match comparison value.
1409:.\Generated_Source\PSoC4/CyLFClk.c ****     *
1410:.\Generated_Source\PSoC4/CyLFClk.c ****     * \param counterNum Valid range [0-1].  The number of the WDT counter. The match
1411:.\Generated_Source\PSoC4/CyLFClk.c ****     * values are not supported by counter 2.
1412:.\Generated_Source\PSoC4/CyLFClk.c ****     *
1413:.\Generated_Source\PSoC4/CyLFClk.c ****     * \return A 16-bit match value.
1414:.\Generated_Source\PSoC4/CyLFClk.c ****     *
1415:.\Generated_Source\PSoC4/CyLFClk.c ****     *******************************************************************************/
1416:.\Generated_Source\PSoC4/CyLFClk.c ****     uint32 CySysWdtGetMatch(uint32 counterNum)
1417:.\Generated_Source\PSoC4/CyLFClk.c ****     {
1418:.\Generated_Source\PSoC4/CyLFClk.c ****         CYASSERT((counterNum == CY_SYS_WDT_COUNTER0) ||
1419:.\Generated_Source\PSoC4/CyLFClk.c ****                  (counterNum == CY_SYS_WDT_COUNTER1));
1420:.\Generated_Source\PSoC4/CyLFClk.c **** 
1421:.\Generated_Source\PSoC4/CyLFClk.c ****         return ((uint32)(CY_SYS_WDT_MATCH_REG >> 
1422:.\Generated_Source\PSoC4/CyLFClk.c ****                                             (counterNum * CY_SYS_WDT_CNT_MATCH_SHIFT)) & CY_SYS_WDT
1423:.\Generated_Source\PSoC4/CyLFClk.c ****     }
1424:.\Generated_Source\PSoC4/CyLFClk.c **** 
1425:.\Generated_Source\PSoC4/CyLFClk.c **** 
1426:.\Generated_Source\PSoC4/CyLFClk.c ****     /*******************************************************************************
1427:.\Generated_Source\PSoC4/CyLFClk.c ****     * Function Name: CySysWdtGetCount
1428:.\Generated_Source\PSoC4/CyLFClk.c ****     ****************************************************************************//**
1429:.\Generated_Source\PSoC4/CyLFClk.c ****     *
1430:.\Generated_Source\PSoC4/CyLFClk.c ****     * \brief Reads the current WDT counter value.
1431:.\Generated_Source\PSoC4/CyLFClk.c ****     *
1432:.\Generated_Source\PSoC4/CyLFClk.c ****     * \param counterNum: Valid range [0-2]. The number of the WDT counter.
1433:.\Generated_Source\PSoC4/CyLFClk.c ****     *
1434:.\Generated_Source\PSoC4/CyLFClk.c ****     * \return A live counter value.  Counter 0 and Counter 1 are 16 bit counters 
1435:.\Generated_Source\PSoC4/CyLFClk.c ****     * and counter 2 is a 32 bit counter.
1436:.\Generated_Source\PSoC4/CyLFClk.c ****     *
1437:.\Generated_Source\PSoC4/CyLFClk.c ****     *******************************************************************************/
1438:.\Generated_Source\PSoC4/CyLFClk.c ****     uint32 CySysWdtGetCount(uint32 counterNum)
1439:.\Generated_Source\PSoC4/CyLFClk.c ****     {
1440:.\Generated_Source\PSoC4/CyLFClk.c ****         uint32 regValue = 0u;
1441:.\Generated_Source\PSoC4/CyLFClk.c **** 
1442:.\Generated_Source\PSoC4/CyLFClk.c ****         switch(counterNum)
1443:.\Generated_Source\PSoC4/CyLFClk.c ****         {
1444:.\Generated_Source\PSoC4/CyLFClk.c ****             /* WDT Counter 0 */
1445:.\Generated_Source\PSoC4/CyLFClk.c ****             case 0u:
1446:.\Generated_Source\PSoC4/CyLFClk.c ****                 regValue = CY_SYS_WDT_CTRLOW_REG & CY_SYS_WDT_LOWER_16BITS_MASK;
1447:.\Generated_Source\PSoC4/CyLFClk.c ****             break;
1448:.\Generated_Source\PSoC4/CyLFClk.c **** 
1449:.\Generated_Source\PSoC4/CyLFClk.c ****             /* WDT Counter 1 */
1450:.\Generated_Source\PSoC4/CyLFClk.c ****             case 1u:
1451:.\Generated_Source\PSoC4/CyLFClk.c ****                 regValue = (CY_SYS_WDT_CTRLOW_REG >> CY_SYS_WDT_CNT_MATCH_SHIFT) & CY_SYS_WDT_LOWER
1452:.\Generated_Source\PSoC4/CyLFClk.c ****             break;
1453:.\Generated_Source\PSoC4/CyLFClk.c **** 
1454:.\Generated_Source\PSoC4/CyLFClk.c ****             /* WDT Counter 2 */
1455:.\Generated_Source\PSoC4/CyLFClk.c ****             case 2u:
1456:.\Generated_Source\PSoC4/CyLFClk.c ****                 regValue = CY_SYS_WDT_CTRHIGH_REG;
1457:.\Generated_Source\PSoC4/CyLFClk.c ****             break;
1458:.\Generated_Source\PSoC4/CyLFClk.c **** 
1459:.\Generated_Source\PSoC4/CyLFClk.c ****             default:
1460:.\Generated_Source\PSoC4/CyLFClk.c ****                 CYASSERT(0u != 0u);
1461:.\Generated_Source\PSoC4/CyLFClk.c ****             break;
1462:.\Generated_Source\PSoC4/CyLFClk.c ****         }
ARM GAS  C:\Users\310295~1\AppData\Local\Temp\ccIU8zba.s 			page 64


1463:.\Generated_Source\PSoC4/CyLFClk.c **** 
1464:.\Generated_Source\PSoC4/CyLFClk.c ****         return (regValue);
1465:.\Generated_Source\PSoC4/CyLFClk.c ****     }
