ARM GAS  C:\Users\310295~1\AppData\Local\Temp\ccsQJw5L.s 			page 1


   1              		.cpu cortex-m0
   2              		.fpu softvfp
   3              		.eabi_attribute 20, 1
   4              		.eabi_attribute 21, 1
   5              		.eabi_attribute 23, 3
   6              		.eabi_attribute 24, 1
   7              		.eabi_attribute 25, 1
   8              		.eabi_attribute 26, 1
   9              		.eabi_attribute 30, 1
  10              		.eabi_attribute 34, 0
  11              		.eabi_attribute 18, 4
  12              		.code	16
  13              		.file	"debug.c"
  14              		.text
  15              	.Ltext0:
  16              		.cfi_sections	.debug_frame
  17              		.section	.text.DebugCode,"ax",%progbits
  18              		.align	2
  19              		.global	DebugCode
  20              		.code	16
  21              		.thumb_func
  22              		.type	DebugCode, %function
  23              	DebugCode:
  24              	.LFB0:
  25              		.file 1 ".\\debug.c"
   1:.\debug.c     **** /* ========================================
   2:.\debug.c     ****  *
   3:.\debug.c     ****  * Copyright YOUR COMPANY, THE YEAR
   4:.\debug.c     ****  * All Rights Reserved
   5:.\debug.c     ****  * UNPUBLISHED, LICENSED SOFTWARE.
   6:.\debug.c     ****  *
   7:.\debug.c     ****  * CONFIDENTIAL AND PROPRIETARY INFORMATION
   8:.\debug.c     ****  * WHICH IS THE PROPERTY OF your company.
   9:.\debug.c     ****  *
  10:.\debug.c     ****  * ========================================
  11:.\debug.c     **** */
  12:.\debug.c     **** #include "debug.h"
  13:.\debug.c     **** 
  14:.\debug.c     **** 
  15:.\debug.c     **** char* convert(unsigned int, int);       //Convert integer number into octal, hex, etc.
  16:.\debug.c     **** 
  17:.\debug.c     **** void DebugCode(const char* txt)
  18:.\debug.c     **** {
  26              		.loc 1 18 0
  27              		.cfi_startproc
  28              	.LVL0:
  29 0000 10B5     		push	{r4, lr}
  30              		.cfi_def_cfa_offset 8
  31              		.cfi_offset 4, -8
  32              		.cfi_offset 14, -4
  33 0002 82B0     		sub	sp, sp, #8
  34              		.cfi_def_cfa_offset 16
  35 0004 041C     		mov	r4, r0
  19:.\debug.c     ****         uint8_t endline[2] = { '\r', '\n' };
  36              		.loc 1 19 0
  37 0006 01A8     		add	r0, sp, #4
  38              	.LVL1:
ARM GAS  C:\Users\310295~1\AppData\Local\Temp\ccsQJw5L.s 			page 2


  39 0008 0A49     		ldr	r1, .L2
  40 000a 0222     		mov	r2, #2
  41 000c FFF7FEFF 		bl	memcpy
  42              	.LVL2:
  20:.\debug.c     ****         UART_Dbg_PutArray(endline, 2);
  43              		.loc 1 20 0
  44 0010 01A8     		add	r0, sp, #4
  45 0012 0221     		mov	r1, #2
  46 0014 FFF7FEFF 		bl	UART_Dbg_PutArray
  47              	.LVL3:
  21:.\debug.c     ****         UART_Dbg_PutArray((uint8_t*)txt, strlen(txt));
  48              		.loc 1 21 0
  49 0018 201C     		mov	r0, r4
  50 001a FFF7FEFF 		bl	strlen
  51              	.LVL4:
  52 001e 011C     		mov	r1, r0
  53 0020 201C     		mov	r0, r4
  54 0022 FFF7FEFF 		bl	UART_Dbg_PutArray
  55              	.LVL5:
  22:.\debug.c     ****         UART_Dbg_PutArray(endline, 2);
  56              		.loc 1 22 0
  57 0026 01A8     		add	r0, sp, #4
  58 0028 0221     		mov	r1, #2
  59 002a FFF7FEFF 		bl	UART_Dbg_PutArray
  60              	.LVL6:
  23:.\debug.c     **** }
  61              		.loc 1 23 0
  62 002e 02B0     		add	sp, sp, #8
  63              		@ sp needed
  64              	.LVL7:
  65 0030 10BD     		pop	{r4, pc}
  66              	.L3:
  67 0032 C046     		.align	2
  68              	.L2:
  69 0034 58000000 		.word	.LANCHOR0
  70              		.cfi_endproc
  71              	.LFE0:
  72              		.size	DebugCode, .-DebugCode
  73              		.global	__aeabi_uidivmod
  74              		.global	__aeabi_uidiv
  75              		.section	.text.convert,"ax",%progbits
  76              		.align	2
  77              		.global	convert
  78              		.code	16
  79              		.thumb_func
  80              		.type	convert, %function
  81              	convert:
  82              	.LFB2:
  24:.\debug.c     **** 
  25:.\debug.c     **** void sk_printf(char * format,...)
  26:.\debug.c     **** {
  27:.\debug.c     ****     char *traverse; 
  28:.\debug.c     ****     int i; 
  29:.\debug.c     ****     char *s; 
  30:.\debug.c     **** 
  31:.\debug.c     ****     //Module 1: Initializing Myprintf's arguments 
  32:.\debug.c     ****     va_list arg; 
ARM GAS  C:\Users\310295~1\AppData\Local\Temp\ccsQJw5L.s 			page 3


  33:.\debug.c     ****     va_start(arg, format); 
  34:.\debug.c     **** 
  35:.\debug.c     ****     for(traverse = format; *traverse != '\0'; traverse++) 
  36:.\debug.c     ****     { 
  37:.\debug.c     ****         while( *traverse != '%' ) 
  38:.\debug.c     ****         { 
  39:.\debug.c     ****             UART_Dbg_PutChar(*traverse);
  40:.\debug.c     ****             traverse++; 
  41:.\debug.c     ****         } 
  42:.\debug.c     **** 
  43:.\debug.c     ****         traverse++; 
  44:.\debug.c     **** 
  45:.\debug.c     ****         //Module 2: Fetching and executing arguments
  46:.\debug.c     ****         switch(*traverse) 
  47:.\debug.c     ****         { 
  48:.\debug.c     ****             case 'c' : i = va_arg(arg,int);     //Fetch char argument
  49:.\debug.c     ****                         UART_Dbg_PutChar(i);
  50:.\debug.c     ****                         break; 
  51:.\debug.c     **** 
  52:.\debug.c     ****             case 'd' : i = va_arg(arg,int);         //Fetch Decimal/Integer argument
  53:.\debug.c     ****                         if(i<0) 
  54:.\debug.c     ****                         { 
  55:.\debug.c     ****                             i = -i;
  56:.\debug.c     ****                             UART_Dbg_PutChar('-'); 
  57:.\debug.c     ****                         } 
  58:.\debug.c     ****                         UART_Dbg_PutString(convert(i,10));
  59:.\debug.c     ****                         break; 
  60:.\debug.c     **** 
  61:.\debug.c     ****             case 'o': i = va_arg(arg,unsigned int); //Fetch Octal representation
  62:.\debug.c     ****                         UART_Dbg_PutString(convert(i,8));
  63:.\debug.c     ****                         break; 
  64:.\debug.c     **** 
  65:.\debug.c     ****             case 's': s = va_arg(arg,char *);       //Fetch string
  66:.\debug.c     ****                         UART_Dbg_PutString(s); 
  67:.\debug.c     ****                         break; 
  68:.\debug.c     **** 
  69:.\debug.c     ****             case 'x': i = va_arg(arg,unsigned int); //Fetch Hexadecimal representation
  70:.\debug.c     ****                         UART_Dbg_PutString(convert(i,16));
  71:.\debug.c     ****                         break; 
  72:.\debug.c     ****         }   
  73:.\debug.c     ****     } 
  74:.\debug.c     ****     //Module 3: Closing argument list to necessary clean-up
  75:.\debug.c     ****     va_end(arg); 
  76:.\debug.c     **** } 
  77:.\debug.c     **** 
  78:.\debug.c     **** char *convert(unsigned int num, int base) 
  79:.\debug.c     **** { 
  83              		.loc 1 79 0
  84              		.cfi_startproc
  85              	.LVL8:
  86 0000 70B5     		push	{r4, r5, r6, lr}
  87              		.cfi_def_cfa_offset 16
  88              		.cfi_offset 4, -16
  89              		.cfi_offset 5, -12
  90              		.cfi_offset 6, -8
  91              		.cfi_offset 14, -4
  92 0002 041C     		mov	r4, r0
ARM GAS  C:\Users\310295~1\AppData\Local\Temp\ccsQJw5L.s 			page 4


  93 0004 0D1C     		mov	r5, r1
  94              	.LVL9:
  80:.\debug.c     ****     static char Representation[]= "0123456789ABCDEF";
  81:.\debug.c     ****     static char buffer[50]; 
  82:.\debug.c     ****     char *ptr; 
  83:.\debug.c     **** 
  84:.\debug.c     ****     ptr = &buffer[49]; 
  85:.\debug.c     ****     *ptr = '\0'; 
  95              		.loc 1 85 0
  96 0006 0B4E     		ldr	r6, .L6
  97 0008 0022     		mov	r2, #0
  98 000a 3123     		mov	r3, #49
  99 000c F254     		strb	r2, [r6, r3]
  84:.\debug.c     ****     *ptr = '\0'; 
 100              		.loc 1 84 0
 101 000e 3136     		add	r6, r6, #49
 102              	.LVL10:
 103              	.L5:
  86:.\debug.c     **** 
  87:.\debug.c     ****     do 
  88:.\debug.c     ****     { 
  89:.\debug.c     ****         *--ptr = Representation[num%base]; 
 104              		.loc 1 89 0 discriminator 1
 105 0010 013E     		sub	r6, r6, #1
 106              	.LVL11:
 107 0012 201C     		mov	r0, r4
 108 0014 291C     		mov	r1, r5
 109 0016 FFF7FEFF 		bl	__aeabi_uidivmod
 110              	.LVL12:
 111 001a 074B     		ldr	r3, .L6+4
 112 001c 5918     		add	r1, r3, r1
 113 001e 0B79     		ldrb	r3, [r1, #4]
 114 0020 3370     		strb	r3, [r6]
  90:.\debug.c     ****         num /= base; 
 115              		.loc 1 90 0 discriminator 1
 116 0022 201C     		mov	r0, r4
 117 0024 291C     		mov	r1, r5
 118 0026 FFF7FEFF 		bl	__aeabi_uidiv
 119              	.LVL13:
 120 002a 041E     		sub	r4, r0, #0
 121              	.LVL14:
  91:.\debug.c     ****     }while(num != 0); 
 122              		.loc 1 91 0 discriminator 1
 123 002c F0D1     		bne	.L5
  92:.\debug.c     **** 
  93:.\debug.c     ****     return(ptr); 
  94:.\debug.c     **** }
 124              		.loc 1 94 0
 125 002e 301C     		mov	r0, r6
 126              	.LVL15:
 127              		@ sp needed
 128              	.LVL16:
 129              	.LVL17:
 130              	.LVL18:
 131 0030 70BD     		pop	{r4, r5, r6, pc}
 132              	.L7:
 133 0032 C046     		.align	2
ARM GAS  C:\Users\310295~1\AppData\Local\Temp\ccsQJw5L.s 			page 5


 134              	.L6:
 135 0034 00000000 		.word	.LANCHOR1
 136 0038 58000000 		.word	.LANCHOR0
 137              		.cfi_endproc
 138              	.LFE2:
 139              		.size	convert, .-convert
 140              		.section	.text.sk_printf,"ax",%progbits
 141              		.align	2
 142              		.global	sk_printf
 143              		.code	16
 144              		.thumb_func
 145              		.type	sk_printf, %function
 146              	sk_printf:
 147              	.LFB1:
  26:.\debug.c     ****     char *traverse; 
 148              		.loc 1 26 0
 149              		.cfi_startproc
 150              	.LVL19:
 151 0000 0FB4     		push	{r0, r1, r2, r3}
 152              		.cfi_def_cfa_offset 16
 153 0002 30B5     		push	{r4, r5, lr}
 154              		.cfi_def_cfa_offset 28
 155              		.cfi_offset 4, -28
 156              		.cfi_offset 5, -24
 157              		.cfi_offset 14, -20
 158 0004 83B0     		sub	sp, sp, #12
 159              		.cfi_def_cfa_offset 40
 160 0006 06AB     		add	r3, sp, #24
 161 0008 10CB     		ldmia	r3!, {r4}
  33:.\debug.c     **** 
 162              		.loc 1 33 0
 163 000a 0193     		str	r3, [sp, #4]
 164              	.LVL20:
  35:.\debug.c     ****     { 
 165              		.loc 1 35 0
 166 000c 41E0     		b	.L9
 167              	.L10:
  39:.\debug.c     ****             traverse++; 
 168              		.loc 1 39 0
 169 000e FFF7FEFF 		bl	UART_Dbg_PutChar
 170              	.LVL21:
  40:.\debug.c     ****         } 
 171              		.loc 1 40 0
 172 0012 0134     		add	r4, r4, #1
 173              	.LVL22:
 174              	.L19:
  37:.\debug.c     ****         { 
 175              		.loc 1 37 0
 176 0014 2078     		ldrb	r0, [r4]
 177 0016 2528     		cmp	r0, #37
 178 0018 F9D1     		bne	.L10
 179              	.LVL23:
  46:.\debug.c     ****         { 
 180              		.loc 1 46 0
 181 001a 6378     		ldrb	r3, [r4, #1]
 182 001c 633B     		sub	r3, r3, #99
 183 001e DAB2     		uxtb	r2, r3
ARM GAS  C:\Users\310295~1\AppData\Local\Temp\ccsQJw5L.s 			page 6


 184 0020 152A     		cmp	r2, #21
 185 0022 35D8     		bhi	.L11
 186 0024 9300     		lsl	r3, r2, #2
 187 0026 1F4A     		ldr	r2, .L20
 188 0028 D358     		ldr	r3, [r2, r3]
 189 002a 9F46     		mov	pc, r3
 190              		.section	.rodata
 191              		.align	2
 192              	.L13:
 193 0000 2C000000 		.word	.L12
 194 0004 3A000000 		.word	.L14
 195 0008 90000000 		.word	.L11
 196 000c 90000000 		.word	.L11
 197 0010 90000000 		.word	.L11
 198 0014 90000000 		.word	.L11
 199 0018 90000000 		.word	.L11
 200 001c 90000000 		.word	.L11
 201 0020 90000000 		.word	.L11
 202 0024 90000000 		.word	.L11
 203 0028 90000000 		.word	.L11
 204 002c 90000000 		.word	.L11
 205 0030 5C000000 		.word	.L15
 206 0034 90000000 		.word	.L11
 207 0038 90000000 		.word	.L11
 208 003c 90000000 		.word	.L11
 209 0040 70000000 		.word	.L16
 210 0044 90000000 		.word	.L11
 211 0048 90000000 		.word	.L11
 212 004c 90000000 		.word	.L11
 213 0050 90000000 		.word	.L11
 214 0054 7E000000 		.word	.L17
 215              		.section	.text.sk_printf
 216              	.L12:
  48:.\debug.c     ****                         UART_Dbg_PutChar(i);
 217              		.loc 1 48 0
 218 002c 019B     		ldr	r3, [sp, #4]
 219 002e 1A1D     		add	r2, r3, #4
 220 0030 0192     		str	r2, [sp, #4]
 221              	.LVL24:
  49:.\debug.c     ****                         break; 
 222              		.loc 1 49 0
 223 0032 1878     		ldrb	r0, [r3]
 224 0034 FFF7FEFF 		bl	UART_Dbg_PutChar
 225              	.LVL25:
  50:.\debug.c     **** 
 226              		.loc 1 50 0
 227 0038 2AE0     		b	.L11
 228              	.L14:
  52:.\debug.c     ****                         if(i<0) 
 229              		.loc 1 52 0
 230 003a 019B     		ldr	r3, [sp, #4]
 231 003c 1A1D     		add	r2, r3, #4
 232 003e 0192     		str	r2, [sp, #4]
 233 0040 1D68     		ldr	r5, [r3]
 234              	.LVL26:
  53:.\debug.c     ****                         { 
 235              		.loc 1 53 0
ARM GAS  C:\Users\310295~1\AppData\Local\Temp\ccsQJw5L.s 			page 7


 236 0042 002D     		cmp	r5, #0
 237 0044 03DA     		bge	.L18
  55:.\debug.c     ****                             UART_Dbg_PutChar('-'); 
 238              		.loc 1 55 0
 239 0046 6D42     		neg	r5, r5
 240              	.LVL27:
  56:.\debug.c     ****                         } 
 241              		.loc 1 56 0
 242 0048 2D20     		mov	r0, #45
 243 004a FFF7FEFF 		bl	UART_Dbg_PutChar
 244              	.LVL28:
 245              	.L18:
  58:.\debug.c     ****                         break; 
 246              		.loc 1 58 0
 247 004e 281C     		mov	r0, r5
 248 0050 0A21     		mov	r1, #10
 249 0052 FFF7FEFF 		bl	convert
 250              	.LVL29:
 251 0056 FFF7FEFF 		bl	UART_Dbg_PutString
 252              	.LVL30:
  59:.\debug.c     **** 
 253              		.loc 1 59 0
 254 005a 19E0     		b	.L11
 255              	.LVL31:
 256              	.L15:
  61:.\debug.c     ****                         UART_Dbg_PutString(convert(i,8));
 257              		.loc 1 61 0
 258 005c 019B     		ldr	r3, [sp, #4]
 259 005e 1A1D     		add	r2, r3, #4
 260 0060 0192     		str	r2, [sp, #4]
 261 0062 1868     		ldr	r0, [r3]
 262              	.LVL32:
  62:.\debug.c     ****                         break; 
 263              		.loc 1 62 0
 264 0064 0821     		mov	r1, #8
 265 0066 FFF7FEFF 		bl	convert
 266              	.LVL33:
 267 006a FFF7FEFF 		bl	UART_Dbg_PutString
 268              	.LVL34:
  63:.\debug.c     **** 
 269              		.loc 1 63 0
 270 006e 0FE0     		b	.L11
 271              	.L16:
  65:.\debug.c     ****                         UART_Dbg_PutString(s); 
 272              		.loc 1 65 0
 273 0070 019B     		ldr	r3, [sp, #4]
 274 0072 1A1D     		add	r2, r3, #4
 275 0074 0192     		str	r2, [sp, #4]
 276 0076 1868     		ldr	r0, [r3]
 277              	.LVL35:
  66:.\debug.c     ****                         break; 
 278              		.loc 1 66 0
 279 0078 FFF7FEFF 		bl	UART_Dbg_PutString
 280              	.LVL36:
  67:.\debug.c     **** 
 281              		.loc 1 67 0
 282 007c 08E0     		b	.L11
ARM GAS  C:\Users\310295~1\AppData\Local\Temp\ccsQJw5L.s 			page 8


 283              	.L17:
  69:.\debug.c     ****                         UART_Dbg_PutString(convert(i,16));
 284              		.loc 1 69 0
 285 007e 019B     		ldr	r3, [sp, #4]
 286 0080 1A1D     		add	r2, r3, #4
 287 0082 0192     		str	r2, [sp, #4]
 288 0084 1868     		ldr	r0, [r3]
 289              	.LVL37:
  70:.\debug.c     ****                         break; 
 290              		.loc 1 70 0
 291 0086 1021     		mov	r1, #16
 292 0088 FFF7FEFF 		bl	convert
 293              	.LVL38:
 294 008c FFF7FEFF 		bl	UART_Dbg_PutString
 295              	.LVL39:
 296              	.L11:
  35:.\debug.c     ****     { 
 297              		.loc 1 35 0 discriminator 2
 298 0090 0234     		add	r4, r4, #2
 299              	.LVL40:
 300              	.L9:
  35:.\debug.c     ****     { 
 301              		.loc 1 35 0 is_stmt 0 discriminator 1
 302 0092 2378     		ldrb	r3, [r4]
 303 0094 002B     		cmp	r3, #0
 304 0096 BDD1     		bne	.L19
  76:.\debug.c     **** 
 305              		.loc 1 76 0 is_stmt 1
 306 0098 03B0     		add	sp, sp, #12
 307              		@ sp needed
 308              	.LVL41:
 309 009a 30BC     		pop	{r4, r5}
 310 009c 08BC     		pop	{r3}
 311 009e 04B0     		add	sp, sp, #16
 312 00a0 1847     		bx	r3
 313              	.L21:
 314 00a2 C046     		.align	2
 315              	.L20:
 316 00a4 00000000 		.word	.L13
 317              		.cfi_endproc
 318              	.LFE1:
 319              		.size	sk_printf, .-sk_printf
 320              		.section	.rodata
 321              		.align	2
 322              		.set	.LANCHOR0,. + 0
 323              	.LC0:
 324 0058 0D       		.byte	13
 325 0059 0A       		.byte	10
 326 005a 0000     		.space	2
 327              		.type	Representation.5292, %object
 328              		.size	Representation.5292, 17
 329              	Representation.5292:
 330 005c 30313233 		.ascii	"0123456789ABCDEF\000"
 330      34353637 
 330      38394142 
 330      43444546 
 330      00
ARM GAS  C:\Users\310295~1\AppData\Local\Temp\ccsQJw5L.s 			page 9


 331 006d 000000   		.bss
 332              		.align	2
 333              		.set	.LANCHOR1,. + 0
 334              		.type	buffer.5293, %object
 335              		.size	buffer.5293, 50
 336              	buffer.5293:
 337 0000 00000000 		.space	50
 337      00000000 
 337      00000000 
 337      00000000 
 337      00000000 
 338 0032 0000     		.text
 339              	.Letext0:
 340              		.file 2 "c:\\program files (x86)\\cypress\\psoc creator\\3.3\\psoc creator\\import\\gnu\\arm\\4.9.
 341              		.file 3 "c:\\program files (x86)\\cypress\\psoc creator\\3.3\\psoc creator\\import\\gnu\\arm\\4.9.
 342              		.file 4 "c:\\program files (x86)\\cypress\\psoc creator\\3.3\\psoc creator\\import\\gnu\\arm\\4.9.
 343              		.file 5 "c:\\program files (x86)\\cypress\\psoc creator\\3.3\\psoc creator\\import\\gnu\\arm\\4.9.
 344              		.file 6 "Generated_Source\\PSoC4/cytypes.h"
 345              		.file 7 "Generated_Source\\PSoC4/UART_Dbg.h"
 346              		.file 8 "<built-in>"
 347              		.file 9 "c:\\program files (x86)\\cypress\\psoc creator\\3.3\\psoc creator\\import\\gnu\\arm\\4.9.