ARM GAS  C:\Users\310295~1\AppData\Local\Temp\ccUjehwv.s 			page 1


   1              		.cpu cortex-m0
   2              		.fpu softvfp
   3              		.eabi_attribute 20, 1
   4              		.eabi_attribute 21, 1
   5              		.eabi_attribute 23, 3
   6              		.eabi_attribute 24, 1
   7              		.eabi_attribute 25, 1
   8              		.eabi_attribute 26, 1
   9              		.eabi_attribute 30, 1
  10              		.eabi_attribute 34, 0
  11              		.eabi_attribute 18, 4
  12              		.code	16
  13              		.file	"main.c"
  14              		.text
  15              	.Ltext0:
  16              		.cfi_sections	.debug_frame
  17              		.section	.text.WakeupIsrHandler,"ax",%progbits
  18              		.align	2
  19              		.global	WakeupIsrHandler
  20              		.code	16
  21              		.thumb_func
  22              		.type	WakeupIsrHandler, %function
  23              	WakeupIsrHandler:
  24              	.LFB39:
  25              		.file 1 ".\\main.c"
   1:.\main.c      **** /* ========================================
   2:.\main.c      ****  *
   3:.\main.c      ****  * Copyright YOUR COMPANY, THE YEAR
   4:.\main.c      ****  * All Rights Reserved
   5:.\main.c      ****  * UNPUBLISHED, LICENSED SOFTWARE.
   6:.\main.c      ****  *
   7:.\main.c      ****  * CONFIDENTIAL AND PROPRIETARY INFORMATION
   8:.\main.c      ****  * WHICH IS THE PROPERTY OF your company.
   9:.\main.c      ****  *
  10:.\main.c      ****  * ========================================
  11:.\main.c      **** */
  12:.\main.c      **** #include <project.h>
  13:.\main.c      **** #include "main.h"
  14:.\main.c      **** 
  15:.\main.c      **** 
  16:.\main.c      **** static void EnableStop(void)
  17:.\main.c      **** {
  18:.\main.c      ****     DebugCode("SHREY: Turning Off the Chip");
  19:.\main.c      ****     UART_Dbg_Stop(); 
  20:.\main.c      ****     CySysPmStop();
  21:.\main.c      **** }
  22:.\main.c      **** /*******************************************************************************
  23:.\main.c      **** * Function Name: StackEventHandler
  24:.\main.c      **** ********************************************************************************
  25:.\main.c      **** *
  26:.\main.c      **** * Summary:
  27:.\main.c      **** *  This is an event callback function to receive events from the BLE Component.
  28:.\main.c      **** *
  29:.\main.c      **** * Parameters:
  30:.\main.c      **** *  uint8 event:       Event from the CYBLE component
  31:.\main.c      **** *  void* eventParams: A structure instance for corresponding event type. The
  32:.\main.c      **** *                     list of event structure is described in the component
ARM GAS  C:\Users\310295~1\AppData\Local\Temp\ccUjehwv.s 			page 2


  33:.\main.c      **** *                     datasheet.
  34:.\main.c      **** *
  35:.\main.c      **** * Return:
  36:.\main.c      **** *  None
  37:.\main.c      **** *
  38:.\main.c      **** *******************************************************************************/
  39:.\main.c      **** void StackEventHandler(uint32 event, void *eventParam)
  40:.\main.c      **** {
  41:.\main.c      ****     switch(event)
  42:.\main.c      ****     {
  43:.\main.c      ****         /* Mandatory events to be handled by Find Me Target design */
  44:.\main.c      ****         case CYBLE_EVT_STACK_ON:
  45:.\main.c      ****         case CYBLE_EVT_GAP_DEVICE_DISCONNECTED:
  46:.\main.c      ****             /* Start BLE advertisement for 30 seconds and update link
  47:.\main.c      ****              * status on LEDs */
  48:.\main.c      ****             CyBle_GappStartAdvertisement(CYBLE_ADVERTISING_FAST);
  49:.\main.c      ****             break;
  50:.\main.c      **** 
  51:.\main.c      ****         case CYBLE_EVT_GAP_DEVICE_CONNECTED:
  52:.\main.c      ****             /* BLE link is established */
  53:.\main.c      ****             break;
  54:.\main.c      **** 
  55:.\main.c      ****         case CYBLE_EVT_GAPP_ADVERTISEMENT_START_STOP:
  56:.\main.c      ****             if(CyBle_GetState() == CYBLE_STATE_DISCONNECTED)
  57:.\main.c      ****             {
  58:.\main.c      ****                 /* Advertisement event timed out, go to low power
  59:.\main.c      ****                  * mode (Stop mode) and wait for device reset
  60:.\main.c      ****                  * event to wake up the device again */
  61:.\main.c      ****                 CySysPmSetWakeupPolarity(CY_PM_STOP_WAKEUP_ACTIVE_HIGH);
  62:.\main.c      ****                 CySysPmStop();
  63:.\main.c      ****                
  64:.\main.c      ****                 /* Code execution will not reach here */
  65:.\main.c      ****             }
  66:.\main.c      ****             break;
  67:.\main.c      **** 
  68:.\main.c      ****         /* Other events that are generated by the BLE Component that
  69:.\main.c      ****          * are not required for functioning of this design */
  70:.\main.c      ****         /**********************************************************
  71:.\main.c      ****         *                       General Events
  72:.\main.c      ****         ***********************************************************/
  73:.\main.c      ****         case CYBLE_EVT_HARDWARE_ERROR:    /* This event indicates that some internal HW error has o
  74:.\main.c      ****             break;
  75:.\main.c      **** 
  76:.\main.c      ****         case CYBLE_EVT_HCI_STATUS:
  77:.\main.c      ****             break;
  78:.\main.c      **** 
  79:.\main.c      ****         /**********************************************************
  80:.\main.c      ****         *                       GAP Events
  81:.\main.c      ****         ***********************************************************/
  82:.\main.c      ****         case CYBLE_EVT_GAP_AUTH_REQ:
  83:.\main.c      ****             break;
  84:.\main.c      **** 
  85:.\main.c      ****         case CYBLE_EVT_GAP_PASSKEY_ENTRY_REQUEST:
  86:.\main.c      ****             break;
  87:.\main.c      **** 
  88:.\main.c      ****         case CYBLE_EVT_GAP_PASSKEY_DISPLAY_REQUEST:
  89:.\main.c      ****             break;
ARM GAS  C:\Users\310295~1\AppData\Local\Temp\ccUjehwv.s 			page 3


  90:.\main.c      **** 
  91:.\main.c      ****         case CYBLE_EVT_GAP_AUTH_COMPLETE:
  92:.\main.c      **** 
  93:.\main.c      ****             break;
  94:.\main.c      ****         case CYBLE_EVT_GAP_AUTH_FAILED:
  95:.\main.c      **** 
  96:.\main.c      ****             break;
  97:.\main.c      **** 
  98:.\main.c      ****         case CYBLE_EVT_GAP_ENCRYPT_CHANGE:
  99:.\main.c      ****             break;
 100:.\main.c      **** 
 101:.\main.c      ****         case CYBLE_EVT_GAPC_CONNECTION_UPDATE_COMPLETE:
 102:.\main.c      ****             break;
 103:.\main.c      **** 
 104:.\main.c      ****         /**********************************************************
 105:.\main.c      ****         *                       GATT Events
 106:.\main.c      ****         ***********************************************************/
 107:.\main.c      ****         case CYBLE_EVT_GATT_CONNECT_IND:
 108:.\main.c      ****             break;
 109:.\main.c      **** 
 110:.\main.c      ****         case CYBLE_EVT_GATT_DISCONNECT_IND:
 111:.\main.c      ****             break;
 112:.\main.c      **** 
 113:.\main.c      ****         case CYBLE_EVT_GATTS_XCNHG_MTU_REQ:
 114:.\main.c      ****             break;
 115:.\main.c      **** 
 116:.\main.c      ****         case CYBLE_EVT_GATTS_READ_CHAR_VAL_ACCESS_REQ:
 117:.\main.c      ****             break;
 118:.\main.c      **** 
 119:.\main.c      ****         /**********************************************************
 120:.\main.c      ****         *                       Other Events
 121:.\main.c      ****         ***********************************************************/
 122:.\main.c      ****         case CYBLE_EVT_PENDING_FLASH_WRITE:
 123:.\main.c      ****             break;
 124:.\main.c      **** 
 125:.\main.c      ****         default:
 126:.\main.c      ****             break;
 127:.\main.c      ****     }
 128:.\main.c      **** }
 129:.\main.c      **** 
 130:.\main.c      **** CY_ISR(WakeupIsrHandler)
 131:.\main.c      **** {
  26              		.loc 1 131 0
  27              		.cfi_startproc
  28 0000 08B5     		push	{r3, lr}
  29              		.cfi_def_cfa_offset 8
  30              		.cfi_offset 3, -8
  31              		.cfi_offset 14, -4
 132:.\main.c      **** //    static u8 sw_reg=0;
 133:.\main.c      ****     /* Clear pending Interrupt */
 134:.\main.c      ****     isr_Button_ClearPending();
  32              		.loc 1 134 0
  33 0002 FFF7FEFF 		bl	isr_Button_ClearPending
  34              	.LVL0:
 135:.\main.c      **** 
 136:.\main.c      ****     /* Clear pin Interrupt */
 137:.\main.c      ****     Button_ClearInterrupt();
ARM GAS  C:\Users\310295~1\AppData\Local\Temp\ccUjehwv.s 			page 4


  35              		.loc 1 137 0
  36 0006 FFF7FEFF 		bl	Button_ClearInterrupt
  37              	.LVL1:
 138:.\main.c      ****     
 139:.\main.c      **** }
  38              		.loc 1 139 0
  39              		@ sp needed
  40 000a 08BD     		pop	{r3, pc}
  41              		.cfi_endproc
  42              	.LFE39:
  43              		.size	WakeupIsrHandler, .-WakeupIsrHandler
  44              		.section	.text.EnableStop,"ax",%progbits
  45              		.align	2
  46              		.code	16
  47              		.thumb_func
  48              		.type	EnableStop, %function
  49              	EnableStop:
  50              	.LFB37:
  17:.\main.c      ****     DebugCode("SHREY: Turning Off the Chip");
  51              		.loc 1 17 0
  52              		.cfi_startproc
  53 0000 08B5     		push	{r3, lr}
  54              		.cfi_def_cfa_offset 8
  55              		.cfi_offset 3, -8
  56              		.cfi_offset 14, -4
  18:.\main.c      ****     UART_Dbg_Stop(); 
  57              		.loc 1 18 0
  58 0002 0448     		ldr	r0, .L3
  59 0004 FFF7FEFF 		bl	DebugCode
  60              	.LVL2:
  19:.\main.c      ****     CySysPmStop();
  61              		.loc 1 19 0
  62 0008 FFF7FEFF 		bl	UART_Dbg_Stop
  63              	.LVL3:
  20:.\main.c      **** }
  64              		.loc 1 20 0
  65 000c FFF7FEFF 		bl	CySysPmStop
  66              	.LVL4:
  21:.\main.c      **** /*******************************************************************************
  67              		.loc 1 21 0
  68              		@ sp needed
  69 0010 08BD     		pop	{r3, pc}
  70              	.L4:
  71 0012 C046     		.align	2
  72              	.L3:
  73 0014 00000000 		.word	.LC0
  74              		.cfi_endproc
  75              	.LFE37:
  76              		.size	EnableStop, .-EnableStop
  77              		.section	.text.StackEventHandler,"ax",%progbits
  78              		.align	2
  79              		.global	StackEventHandler
  80              		.code	16
  81              		.thumb_func
  82              		.type	StackEventHandler, %function
  83              	StackEventHandler:
  84              	.LFB38:
ARM GAS  C:\Users\310295~1\AppData\Local\Temp\ccUjehwv.s 			page 5


  40:.\main.c      ****     switch(event)
  85              		.loc 1 40 0
  86              		.cfi_startproc
  87              	.LVL5:
  88 0000 08B5     		push	{r3, lr}
  89              		.cfi_def_cfa_offset 8
  90              		.cfi_offset 3, -8
  91              		.cfi_offset 14, -4
  41:.\main.c      ****     {
  92              		.loc 1 41 0
  93 0002 2628     		cmp	r0, #38
  94 0004 07D0     		beq	.L7
  95 0006 2828     		cmp	r0, #40
  96 0008 01D0     		beq	.L8
  97 000a 0128     		cmp	r0, #1
  98 000c 0CD1     		bne	.L5
  99              	.L8:
  48:.\main.c      ****             break;
 100              		.loc 1 48 0
 101 000e 0020     		mov	r0, #0
 102              	.LVL6:
 103 0010 FFF7FEFF 		bl	CyBle_GappStartAdvertisement
 104              	.LVL7:
  49:.\main.c      **** 
 105              		.loc 1 49 0
 106 0014 08E0     		b	.L5
 107              	.LVL8:
 108              	.L7:
  56:.\main.c      ****             {
 109              		.loc 1 56 0
 110 0016 054B     		ldr	r3, .L9
 111 0018 1B78     		ldrb	r3, [r3]
 112 001a 042B     		cmp	r3, #4
 113 001c 04D1     		bne	.L5
  61:.\main.c      ****                 CySysPmStop();
 114              		.loc 1 61 0
 115 001e 0120     		mov	r0, #1
 116              	.LVL9:
 117 0020 FFF7FEFF 		bl	CySysPmSetWakeupPolarity
 118              	.LVL10:
  62:.\main.c      ****                
 119              		.loc 1 62 0
 120 0024 FFF7FEFF 		bl	CySysPmStop
 121              	.LVL11:
 122              	.L5:
 128:.\main.c      **** 
 123              		.loc 1 128 0
 124              		@ sp needed
 125 0028 08BD     		pop	{r3, pc}
 126              	.L10:
 127 002a C046     		.align	2
 128              	.L9:
 129 002c 00000000 		.word	cyBle_state
 130              		.cfi_endproc
 131              	.LFE38:
 132              		.size	StackEventHandler, .-StackEventHandler
 133              		.section	.text.main,"ax",%progbits
ARM GAS  C:\Users\310295~1\AppData\Local\Temp\ccUjehwv.s 			page 6


 134              		.align	2
 135              		.global	main
 136              		.code	16
 137              		.thumb_func
 138              		.type	main, %function
 139              	main:
 140              	.LFB40:
 140:.\main.c      **** 
 141:.\main.c      **** 
 142:.\main.c      **** int main()
 143:.\main.c      **** {
 141              		.loc 1 143 0
 142              		.cfi_startproc
 143 0000 10B5     		push	{r4, lr}
 144              		.cfi_def_cfa_offset 8
 145              		.cfi_offset 4, -8
 146              		.cfi_offset 14, -4
 144:.\main.c      ****     /*Enable the UART Debuger to get hold of data*/
 145:.\main.c      ****     UART_Dbg_Start(); 
 147              		.loc 1 145 0
 148 0002 FFF7FEFF 		bl	UART_Dbg_Start
 149              	.LVL12:
 150              	.L12:
 146:.\main.c      ****     
 147:.\main.c      ****     /*Wait till the button is pressed */
 148:.\main.c      ****     while(Button_Read() == 0u);
 151              		.loc 1 148 0 discriminator 1
 152 0006 FFF7FEFF 		bl	Button_Read
 153              	.LVL13:
 154 000a 0028     		cmp	r0, #0
 155 000c FBD0     		beq	.L12
 149:.\main.c      ****     CyDelay(500); 
 156              		.loc 1 149 0
 157 000e FA20     		mov	r0, #250
 158 0010 4000     		lsl	r0, r0, #1
 159 0012 FFF7FEFF 		bl	CyDelay
 160              	.LVL14:
 161              	.L13:
 150:.\main.c      ****     while(Button_Read() == 0u); 
 162              		.loc 1 150 0 discriminator 1
 163 0016 FFF7FEFF 		bl	Button_Read
 164              	.LVL15:
 165 001a 0028     		cmp	r0, #0
 166 001c FBD0     		beq	.L13
 151:.\main.c      ****     
 152:.\main.c      ****     /*Process the button interrupts*/
 153:.\main.c      ****     isr_Button_StartEx(WakeupIsrHandler);
 167              		.loc 1 153 0
 168 001e 1048     		ldr	r0, .L14
 169 0020 FFF7FEFF 		bl	isr_Button_StartEx
 170              	.LVL16:
 154:.\main.c      ****     Button_ClearInterrupt();
 171              		.loc 1 154 0
 172 0024 FFF7FEFF 		bl	Button_ClearInterrupt
 173              	.LVL17:
 155:.\main.c      ****     isr_Button_ClearPending(); 
 174              		.loc 1 155 0
ARM GAS  C:\Users\310295~1\AppData\Local\Temp\ccUjehwv.s 			page 7


 175 0028 FFF7FEFF 		bl	isr_Button_ClearPending
 176              	.LVL18:
 156:.\main.c      ****     
 157:.\main.c      ****     /*Unfreeze the GPIOS*/
 158:.\main.c      ****     CySysPmUnfreezeIo(); 
 177              		.loc 1 158 0
 178 002c FFF7FEFF 		bl	CySysPmUnfreezeIo
 179              	.LVL19:
 159:.\main.c      ****     SET_DCDC_2_0V();
 180              		.loc 1 159 0
 181 0030 0020     		mov	r0, #0
 182 0032 FFF7FEFF 		bl	pwr_set_Write
 183              	.LVL20:
 160:.\main.c      ****     
 161:.\main.c      ****     CyGlobalIntEnable; /* Enable global interrupts. */
 184              		.loc 1 161 0
 185              	@ 161 ".\main.c" 1
 186 0036 62B6     		CPSIE   i
 187              	@ 0 "" 2
 162:.\main.c      ****     
 163:.\main.c      ****     DebugCode("SHREY Sleeve V1.0");
 188              		.loc 1 163 0
 189              		.code	16
 190 0038 0A48     		ldr	r0, .L14+4
 191 003a FFF7FEFF 		bl	DebugCode
 192              	.LVL21:
 164:.\main.c      ****     DebugCode("*****************************************");
 193              		.loc 1 164 0
 194 003e 0A4C     		ldr	r4, .L14+8
 195 0040 201C     		mov	r0, r4
 196 0042 FFF7FEFF 		bl	DebugCode
 197              	.LVL22:
 165:.\main.c      ****     DebugCode("Hello World");
 198              		.loc 1 165 0
 199 0046 0948     		ldr	r0, .L14+12
 200 0048 FFF7FEFF 		bl	DebugCode
 201              	.LVL23:
 166:.\main.c      ****     DebugCode("*****************************************");
 202              		.loc 1 166 0
 203 004c 201C     		mov	r0, r4
 204 004e FFF7FEFF 		bl	DebugCode
 205              	.LVL24:
 167:.\main.c      **** 
 168:.\main.c      **** #ifdef BLE_TEST
 169:.\main.c      ****     while(1)
 170:.\main.c      ****     {
 171:.\main.c      ****         
 172:.\main.c      ****     }
 173:.\main.c      **** #endif 
 174:.\main.c      ****     SET_DCDC_2_0V(); 
 206              		.loc 1 174 0
 207 0052 0020     		mov	r0, #0
 208 0054 FFF7FEFF 		bl	pwr_set_Write
 209              	.LVL25:
 175:.\main.c      ****     EnableStop(); 
 210              		.loc 1 175 0
 211 0058 FFF7FEFF 		bl	EnableStop
ARM GAS  C:\Users\310295~1\AppData\Local\Temp\ccUjehwv.s 			page 8


 212              	.LVL26:
 176:.\main.c      ****     return 0;
 177:.\main.c      **** }
 213              		.loc 1 177 0
 214 005c 0020     		mov	r0, #0
 215              		@ sp needed
 216 005e 10BD     		pop	{r4, pc}
 217              	.L15:
 218              		.align	2
 219              	.L14:
 220 0060 00000000 		.word	WakeupIsrHandler
 221 0064 1C000000 		.word	.LC4
 222 0068 30000000 		.word	.LC6
 223 006c 5C000000 		.word	.LC8
 224              		.cfi_endproc
 225              	.LFE40:
 226              		.size	main, .-main
 227              		.section	.rodata.str1.4,"aMS",%progbits,1
 228              		.align	2
 229              	.LC0:
 230 0000 53485245 		.ascii	"SHREY: Turning Off the Chip\000"
 230      593A2054 
 230      75726E69 
 230      6E67204F 
 230      66662074 
 231              	.LC4:
 232 001c 53485245 		.ascii	"SHREY Sleeve V1.0\000"
 232      5920536C 
 232      65657665 
 232      2056312E 
 232      3000
 233 002e 0000     		.space	2
 234              	.LC6:
 235 0030 2A2A2A2A 		.ascii	"*****************************************\000"
 235      2A2A2A2A 
 235      2A2A2A2A 
 235      2A2A2A2A 
 235      2A2A2A2A 
 236 005a 0000     		.space	2
 237              	.LC8:
 238 005c 48656C6C 		.ascii	"Hello World\000"
 238      6F20576F 
 238      726C6400 
 239              		.text
 240              	.Letext0:
 241              		.file 2 "Generated_Source\\PSoC4/cytypes.h"
 242              		.file 3 "Generated_Source\\PSoC4/BLE_System_Stack.h"
 243              		.file 4 "Generated_Source\\PSoC4/BLE_System_eventHandler.h"
 244              		.file 5 "Generated_Source\\PSoC4/isr_Button.h"
 245              		.file 6 "Generated_Source\\PSoC4/UART_Dbg.h"
 246              		.file 7 "Generated_Source\\PSoC4/cyPm.h"
 247              		.file 8 ".\\debug.h"
 248              		.file 9 "Generated_Source\\PSoC4/Button.h"
 249              		.file 10 "Generated_Source\\PSoC4/CyLib.h"
 250              		.file 11 "Generated_Source\\PSoC4/BLE_System.h"
 251              		.file 12 "Generated_Source\\PSoC4/pwr_set.h"