ARM GAS  C:\Users\310295~1\AppData\Local\Temp\ccRYvGzC.s 			page 1


   1              		.cpu cortex-m0
   2              		.fpu softvfp
   3              		.eabi_attribute 20, 1
   4              		.eabi_attribute 21, 1
   5              		.eabi_attribute 23, 3
   6              		.eabi_attribute 24, 1
   7              		.eabi_attribute 25, 1
   8              		.eabi_attribute 26, 1
   9              		.eabi_attribute 30, 1
  10              		.eabi_attribute 34, 0
  11              		.eabi_attribute 18, 4
  12              		.code	16
  13              		.file	"UART_Dbg.c"
  14              		.text
  15              	.Ltext0:
  16              		.cfi_sections	.debug_frame
  17              		.section	.text.UART_Dbg_Start,"ax",%progbits
  18              		.align	2
  19              		.global	UART_Dbg_Start
  20              		.code	16
  21              		.thumb_func
  22              		.type	UART_Dbg_Start, %function
  23              	UART_Dbg_Start:
  24              	.LFB0:
  25              		.file 1 ".\\Generated_Source\\PSoC4\\UART_Dbg.c"
   1:.\Generated_Source\PSoC4/UART_Dbg.c **** /*******************************************************************************
   2:.\Generated_Source\PSoC4/UART_Dbg.c **** * File Name: UART_Dbg.c
   3:.\Generated_Source\PSoC4/UART_Dbg.c **** * Version 1.50
   4:.\Generated_Source\PSoC4/UART_Dbg.c **** *
   5:.\Generated_Source\PSoC4/UART_Dbg.c **** * Description:
   6:.\Generated_Source\PSoC4/UART_Dbg.c **** *  This file provides the source code to the API for the Software Transmit UART.
   7:.\Generated_Source\PSoC4/UART_Dbg.c **** *
   8:.\Generated_Source\PSoC4/UART_Dbg.c **** ********************************************************************************
   9:.\Generated_Source\PSoC4/UART_Dbg.c **** * Copyright 2013-2015, Cypress Semiconductor Corporation.  All rights reserved.
  10:.\Generated_Source\PSoC4/UART_Dbg.c **** * You may use this file only in accordance with the license, terms, conditions,
  11:.\Generated_Source\PSoC4/UART_Dbg.c **** * disclaimers, and limitations in the end user license agreement accompanying
  12:.\Generated_Source\PSoC4/UART_Dbg.c **** * the software package with which this file was provided.
  13:.\Generated_Source\PSoC4/UART_Dbg.c **** *******************************************************************************/
  14:.\Generated_Source\PSoC4/UART_Dbg.c **** 
  15:.\Generated_Source\PSoC4/UART_Dbg.c **** #include "UART_Dbg_PVT.h"
  16:.\Generated_Source\PSoC4/UART_Dbg.c **** 
  17:.\Generated_Source\PSoC4/UART_Dbg.c **** #if(UART_Dbg_PIN_STATIC_MODE == 1u)
  18:.\Generated_Source\PSoC4/UART_Dbg.c ****     uint32 UART_Dbg_pinNumber = UART_Dbg_PIN_NUMBER;
  19:.\Generated_Source\PSoC4/UART_Dbg.c ****     uint32 UART_Dbg_pinPortNumber = UART_Dbg_PIN_PORT_NUMBER;
  20:.\Generated_Source\PSoC4/UART_Dbg.c ****     #if(CY_PSOC3)
  21:.\Generated_Source\PSoC4/UART_Dbg.c ****         uint32 pdata UART_Dbg_pinDrAdress = UART_Dbg_PIN_DR;
  22:.\Generated_Source\PSoC4/UART_Dbg.c ****     #else
  23:.\Generated_Source\PSoC4/UART_Dbg.c ****         uint32 UART_Dbg_pinDrAdress = UART_Dbg_PIN_DR;
  24:.\Generated_Source\PSoC4/UART_Dbg.c ****     #endif /* (CY_PSOC3) */
  25:.\Generated_Source\PSoC4/UART_Dbg.c **** #else
  26:.\Generated_Source\PSoC4/UART_Dbg.c ****     uint32 UART_Dbg_pinNumber;
  27:.\Generated_Source\PSoC4/UART_Dbg.c ****     uint32 UART_Dbg_pinPortNumber;
  28:.\Generated_Source\PSoC4/UART_Dbg.c ****     #if(CY_PSOC3)
  29:.\Generated_Source\PSoC4/UART_Dbg.c ****         uint32 pdata UART_Dbg_pinDrAdress;
  30:.\Generated_Source\PSoC4/UART_Dbg.c ****     #else
  31:.\Generated_Source\PSoC4/UART_Dbg.c ****         uint32 UART_Dbg_pinDrAdress;
  32:.\Generated_Source\PSoC4/UART_Dbg.c ****     #endif /* (CY_PSOC3) */
ARM GAS  C:\Users\310295~1\AppData\Local\Temp\ccRYvGzC.s 			page 2


  33:.\Generated_Source\PSoC4/UART_Dbg.c **** #endif /* (UART_Dbg_PIN_STATIC_MODE == 1u) */
  34:.\Generated_Source\PSoC4/UART_Dbg.c **** 
  35:.\Generated_Source\PSoC4/UART_Dbg.c **** 
  36:.\Generated_Source\PSoC4/UART_Dbg.c **** #if(UART_Dbg_PIN_STATIC_MODE == 1u)
  37:.\Generated_Source\PSoC4/UART_Dbg.c ****     /*******************************************************************************
  38:.\Generated_Source\PSoC4/UART_Dbg.c ****     * Function Name: UART_Dbg_Start
  39:.\Generated_Source\PSoC4/UART_Dbg.c ****     ********************************************************************************
  40:.\Generated_Source\PSoC4/UART_Dbg.c ****     *
  41:.\Generated_Source\PSoC4/UART_Dbg.c ****     * Summary:
  42:.\Generated_Source\PSoC4/UART_Dbg.c ****     *  Empty function. Included for consistency with other
  43:.\Generated_Source\PSoC4/UART_Dbg.c ****     *  components. This API is not available when PinAssignmentMethod
  44:.\Generated_Source\PSoC4/UART_Dbg.c ****     *  is set to Dynamic.
  45:.\Generated_Source\PSoC4/UART_Dbg.c ****     *
  46:.\Generated_Source\PSoC4/UART_Dbg.c ****     * Parameters:
  47:.\Generated_Source\PSoC4/UART_Dbg.c ****     *  None
  48:.\Generated_Source\PSoC4/UART_Dbg.c ****     *
  49:.\Generated_Source\PSoC4/UART_Dbg.c ****     * Return:
  50:.\Generated_Source\PSoC4/UART_Dbg.c ****     *  None
  51:.\Generated_Source\PSoC4/UART_Dbg.c ****     *
  52:.\Generated_Source\PSoC4/UART_Dbg.c ****     *******************************************************************************/
  53:.\Generated_Source\PSoC4/UART_Dbg.c ****     void UART_Dbg_Start(void) 
  54:.\Generated_Source\PSoC4/UART_Dbg.c ****     {
  26              		.loc 1 54 0
  27              		.cfi_startproc
  55:.\Generated_Source\PSoC4/UART_Dbg.c **** 
  56:.\Generated_Source\PSoC4/UART_Dbg.c ****     }
  28              		.loc 1 56 0
  29              		@ sp needed
  30 0000 7047     		bx	lr
  31              		.cfi_endproc
  32              	.LFE0:
  33              		.size	UART_Dbg_Start, .-UART_Dbg_Start
  34 0002 C046     		.section	.text.UART_Dbg_Stop,"ax",%progbits
  35              		.align	2
  36              		.global	UART_Dbg_Stop
  37              		.code	16
  38              		.thumb_func
  39              		.type	UART_Dbg_Stop, %function
  40              	UART_Dbg_Stop:
  41              	.LFB1:
  57:.\Generated_Source\PSoC4/UART_Dbg.c **** #else
  58:.\Generated_Source\PSoC4/UART_Dbg.c ****     /*******************************************************************************
  59:.\Generated_Source\PSoC4/UART_Dbg.c ****     * Function Name: UART_Dbg_StartEx
  60:.\Generated_Source\PSoC4/UART_Dbg.c ****     ********************************************************************************
  61:.\Generated_Source\PSoC4/UART_Dbg.c ****     *
  62:.\Generated_Source\PSoC4/UART_Dbg.c ****     * Summary:
  63:.\Generated_Source\PSoC4/UART_Dbg.c ****     *  Configures the SW Tx UART to use the pin specified
  64:.\Generated_Source\PSoC4/UART_Dbg.c ****     *  by the parameters. This API is only available when
  65:.\Generated_Source\PSoC4/UART_Dbg.c ****     *  PinAssignmentMethod is set to Dynamic.
  66:.\Generated_Source\PSoC4/UART_Dbg.c ****     *
  67:.\Generated_Source\PSoC4/UART_Dbg.c ****     * Parameters:
  68:.\Generated_Source\PSoC4/UART_Dbg.c ****     *  port:  Port number for dynamic pin assignment
  69:.\Generated_Source\PSoC4/UART_Dbg.c ****     *  pin:   Pin number for dynamic pin assignment
  70:.\Generated_Source\PSoC4/UART_Dbg.c ****     *
  71:.\Generated_Source\PSoC4/UART_Dbg.c ****     * Return:
  72:.\Generated_Source\PSoC4/UART_Dbg.c ****     *  None
  73:.\Generated_Source\PSoC4/UART_Dbg.c ****     *
ARM GAS  C:\Users\310295~1\AppData\Local\Temp\ccRYvGzC.s 			page 3


  74:.\Generated_Source\PSoC4/UART_Dbg.c ****     *******************************************************************************/
  75:.\Generated_Source\PSoC4/UART_Dbg.c ****     void UART_Dbg_StartEx(uint8 port, uint8 pin) 
  76:.\Generated_Source\PSoC4/UART_Dbg.c ****     {
  77:.\Generated_Source\PSoC4/UART_Dbg.c ****         uint32 portConfigAddr;
  78:.\Generated_Source\PSoC4/UART_Dbg.c **** 
  79:.\Generated_Source\PSoC4/UART_Dbg.c ****         #if (CY_PSOC4)
  80:.\Generated_Source\PSoC4/UART_Dbg.c ****             uint32 portDataRegAddr;
  81:.\Generated_Source\PSoC4/UART_Dbg.c ****         #endif /* (CY_PSOC4) */
  82:.\Generated_Source\PSoC4/UART_Dbg.c **** 
  83:.\Generated_Source\PSoC4/UART_Dbg.c ****         if ((pin <= UART_Dbg_MAX_PIN_NUMBER) && (port <= UART_Dbg_MAX_PORT_NUMBER))
  84:.\Generated_Source\PSoC4/UART_Dbg.c ****         {
  85:.\Generated_Source\PSoC4/UART_Dbg.c ****             #if (!CY_PSOC4)
  86:.\Generated_Source\PSoC4/UART_Dbg.c ****                 portConfigAddr = UART_Dbg_PORT_CNF_BASE;
  87:.\Generated_Source\PSoC4/UART_Dbg.c ****                 portConfigAddr += ((uint32)port * (UART_Dbg_MAX_PIN_NUMBER + 1u)) + pin;
  88:.\Generated_Source\PSoC4/UART_Dbg.c ****                 CyPins_SetPinDriveMode(portConfigAddr, CY_PINS_DM_STRONG);
  89:.\Generated_Source\PSoC4/UART_Dbg.c ****                 CyPins_SetPin(portConfigAddr);
  90:.\Generated_Source\PSoC4/UART_Dbg.c ****                 UART_Dbg_pinDrAdress = portConfigAddr;
  91:.\Generated_Source\PSoC4/UART_Dbg.c ****             #else
  92:.\Generated_Source\PSoC4/UART_Dbg.c ****                 portConfigAddr = UART_Dbg_PORT_CNF_BASE + (UART_Dbg_PORT_CNF_SIZE * port) +
  93:.\Generated_Source\PSoC4/UART_Dbg.c ****                                                                                 UART_Dbg_PORT_CNF_M
  94:.\Generated_Source\PSoC4/UART_Dbg.c ****                 CY_SYS_PINS_SET_DRIVE_MODE(portConfigAddr, pin, CY_SYS_PINS_DM_STRONG);
  95:.\Generated_Source\PSoC4/UART_Dbg.c ****                 portDataRegAddr = UART_Dbg_PORT_CNF_BASE + (UART_Dbg_PORT_CNF_SIZE * port) +
  96:.\Generated_Source\PSoC4/UART_Dbg.c ****                                                                                 UART_Dbg_PORT_CNF_D
  97:.\Generated_Source\PSoC4/UART_Dbg.c ****                 CY_SYS_PINS_SET_PIN(portDataRegAddr, pin);
  98:.\Generated_Source\PSoC4/UART_Dbg.c ****                 UART_Dbg_pinDrAdress = portDataRegAddr;
  99:.\Generated_Source\PSoC4/UART_Dbg.c ****             #endif /* (!CY_PSOC4) */
 100:.\Generated_Source\PSoC4/UART_Dbg.c ****             UART_Dbg_pinNumber = pin;
 101:.\Generated_Source\PSoC4/UART_Dbg.c ****             UART_Dbg_pinPortNumber = port;
 102:.\Generated_Source\PSoC4/UART_Dbg.c ****         }
 103:.\Generated_Source\PSoC4/UART_Dbg.c ****     }
 104:.\Generated_Source\PSoC4/UART_Dbg.c **** #endif /* (UART_Dbg_PIN_STATIC_MODE == 1u) */
 105:.\Generated_Source\PSoC4/UART_Dbg.c **** 
 106:.\Generated_Source\PSoC4/UART_Dbg.c **** 
 107:.\Generated_Source\PSoC4/UART_Dbg.c **** /*******************************************************************************
 108:.\Generated_Source\PSoC4/UART_Dbg.c **** * Function Name: UART_Dbg_Stop
 109:.\Generated_Source\PSoC4/UART_Dbg.c **** ********************************************************************************
 110:.\Generated_Source\PSoC4/UART_Dbg.c **** *
 111:.\Generated_Source\PSoC4/UART_Dbg.c **** * Summary:
 112:.\Generated_Source\PSoC4/UART_Dbg.c **** *  Empty function. Included for consistency with other components.
 113:.\Generated_Source\PSoC4/UART_Dbg.c **** *
 114:.\Generated_Source\PSoC4/UART_Dbg.c **** * Parameters:
 115:.\Generated_Source\PSoC4/UART_Dbg.c **** *  None
 116:.\Generated_Source\PSoC4/UART_Dbg.c **** *
 117:.\Generated_Source\PSoC4/UART_Dbg.c **** * Return:
 118:.\Generated_Source\PSoC4/UART_Dbg.c **** *  None
 119:.\Generated_Source\PSoC4/UART_Dbg.c **** *
 120:.\Generated_Source\PSoC4/UART_Dbg.c **** *******************************************************************************/
 121:.\Generated_Source\PSoC4/UART_Dbg.c **** void UART_Dbg_Stop(void) 
 122:.\Generated_Source\PSoC4/UART_Dbg.c **** {
  42              		.loc 1 122 0
  43              		.cfi_startproc
 123:.\Generated_Source\PSoC4/UART_Dbg.c **** 
 124:.\Generated_Source\PSoC4/UART_Dbg.c **** }
  44              		.loc 1 124 0
  45              		@ sp needed
  46 0000 7047     		bx	lr
  47              		.cfi_endproc
ARM GAS  C:\Users\310295~1\AppData\Local\Temp\ccRYvGzC.s 			page 4


  48              	.LFE1:
  49              		.size	UART_Dbg_Stop, .-UART_Dbg_Stop
  50 0002 C046     		.section	.text.UART_Dbg_PutString,"ax",%progbits
  51              		.align	2
  52              		.global	UART_Dbg_PutString
  53              		.code	16
  54              		.thumb_func
  55              		.type	UART_Dbg_PutString, %function
  56              	UART_Dbg_PutString:
  57              	.LFB2:
 125:.\Generated_Source\PSoC4/UART_Dbg.c **** 
 126:.\Generated_Source\PSoC4/UART_Dbg.c **** 
 127:.\Generated_Source\PSoC4/UART_Dbg.c **** /*******************************************************************************
 128:.\Generated_Source\PSoC4/UART_Dbg.c **** * Function Name: UART_Dbg_PutString
 129:.\Generated_Source\PSoC4/UART_Dbg.c **** ********************************************************************************
 130:.\Generated_Source\PSoC4/UART_Dbg.c **** *
 131:.\Generated_Source\PSoC4/UART_Dbg.c **** * Summary:
 132:.\Generated_Source\PSoC4/UART_Dbg.c **** *  Sends a NULL terminated string via the Tx pin.
 133:.\Generated_Source\PSoC4/UART_Dbg.c **** *
 134:.\Generated_Source\PSoC4/UART_Dbg.c **** * Parameters:
 135:.\Generated_Source\PSoC4/UART_Dbg.c **** *  string: Pointer to the null terminated string to send
 136:.\Generated_Source\PSoC4/UART_Dbg.c **** *
 137:.\Generated_Source\PSoC4/UART_Dbg.c **** * Return:
 138:.\Generated_Source\PSoC4/UART_Dbg.c **** *  None
 139:.\Generated_Source\PSoC4/UART_Dbg.c **** *
 140:.\Generated_Source\PSoC4/UART_Dbg.c **** *******************************************************************************/
 141:.\Generated_Source\PSoC4/UART_Dbg.c **** void UART_Dbg_PutString(const char8 string[]) 
 142:.\Generated_Source\PSoC4/UART_Dbg.c **** {
  58              		.loc 1 142 0
  59              		.cfi_startproc
  60              	.LVL0:
  61 0000 38B5     		push	{r3, r4, r5, lr}
  62              		.cfi_def_cfa_offset 16
  63              		.cfi_offset 3, -16
  64              		.cfi_offset 4, -12
  65              		.cfi_offset 5, -8
  66              		.cfi_offset 14, -4
  67 0002 051C     		mov	r5, r0
  68              	.LVL1:
 143:.\Generated_Source\PSoC4/UART_Dbg.c ****     uint8 stringIndex = 1u;
 144:.\Generated_Source\PSoC4/UART_Dbg.c ****     char8 current = *string;
  69              		.loc 1 144 0
  70 0004 0078     		ldrb	r0, [r0]
  71              	.LVL2:
 143:.\Generated_Source\PSoC4/UART_Dbg.c ****     uint8 stringIndex = 1u;
  72              		.loc 1 143 0
  73 0006 0124     		mov	r4, #1
 145:.\Generated_Source\PSoC4/UART_Dbg.c **** 
 146:.\Generated_Source\PSoC4/UART_Dbg.c ****     /* Until null is reached, print next character */
 147:.\Generated_Source\PSoC4/UART_Dbg.c ****     while((char8) '\0' != current)
  74              		.loc 1 147 0
  75 0008 04E0     		b	.L4
  76              	.LVL3:
  77              	.L5:
 148:.\Generated_Source\PSoC4/UART_Dbg.c ****     {
 149:.\Generated_Source\PSoC4/UART_Dbg.c ****         UART_Dbg_PutChar((uint8)current);
  78              		.loc 1 149 0
ARM GAS  C:\Users\310295~1\AppData\Local\Temp\ccRYvGzC.s 			page 5


  79 000a FFF7FEFF 		bl	UART_Dbg_PutChar
  80              	.LVL4:
 150:.\Generated_Source\PSoC4/UART_Dbg.c ****         current = string[stringIndex];
  81              		.loc 1 150 0
  82 000e 285D     		ldrb	r0, [r5, r4]
  83              	.LVL5:
 151:.\Generated_Source\PSoC4/UART_Dbg.c ****         stringIndex++;
  84              		.loc 1 151 0
  85 0010 0134     		add	r4, r4, #1
  86              	.LVL6:
  87 0012 E4B2     		uxtb	r4, r4
  88              	.LVL7:
  89              	.L4:
 147:.\Generated_Source\PSoC4/UART_Dbg.c ****     {
  90              		.loc 1 147 0
  91 0014 0028     		cmp	r0, #0
  92 0016 F8D1     		bne	.L5
 152:.\Generated_Source\PSoC4/UART_Dbg.c ****     }
 153:.\Generated_Source\PSoC4/UART_Dbg.c **** }
  93              		.loc 1 153 0
  94              		@ sp needed
  95              	.LVL8:
  96              	.LVL9:
  97 0018 38BD     		pop	{r3, r4, r5, pc}
  98              		.cfi_endproc
  99              	.LFE2:
 100              		.size	UART_Dbg_PutString, .-UART_Dbg_PutString
 101 001a C046     		.section	.text.UART_Dbg_PutArray,"ax",%progbits
 102              		.align	2
 103              		.global	UART_Dbg_PutArray
 104              		.code	16
 105              		.thumb_func
 106              		.type	UART_Dbg_PutArray, %function
 107              	UART_Dbg_PutArray:
 108              	.LFB3:
 154:.\Generated_Source\PSoC4/UART_Dbg.c **** 
 155:.\Generated_Source\PSoC4/UART_Dbg.c **** 
 156:.\Generated_Source\PSoC4/UART_Dbg.c **** /*******************************************************************************
 157:.\Generated_Source\PSoC4/UART_Dbg.c **** * Function Name: UART_Dbg_PutArray
 158:.\Generated_Source\PSoC4/UART_Dbg.c **** ********************************************************************************
 159:.\Generated_Source\PSoC4/UART_Dbg.c **** *
 160:.\Generated_Source\PSoC4/UART_Dbg.c **** * Summary:
 161:.\Generated_Source\PSoC4/UART_Dbg.c **** *  Sends byteCount bytes from a memory array via the Tx pin.
 162:.\Generated_Source\PSoC4/UART_Dbg.c **** *
 163:.\Generated_Source\PSoC4/UART_Dbg.c **** * Parameters:
 164:.\Generated_Source\PSoC4/UART_Dbg.c **** *  data: Pointer to the memory array
 165:.\Generated_Source\PSoC4/UART_Dbg.c **** *  byteCount: Number of bytes to be transmitted
 166:.\Generated_Source\PSoC4/UART_Dbg.c **** *
 167:.\Generated_Source\PSoC4/UART_Dbg.c **** * Return:
 168:.\Generated_Source\PSoC4/UART_Dbg.c **** *  None
 169:.\Generated_Source\PSoC4/UART_Dbg.c **** *
 170:.\Generated_Source\PSoC4/UART_Dbg.c **** *******************************************************************************/
 171:.\Generated_Source\PSoC4/UART_Dbg.c **** void UART_Dbg_PutArray(const uint8 array[], uint32 byteCount) 
 172:.\Generated_Source\PSoC4/UART_Dbg.c **** {
 109              		.loc 1 172 0
 110              		.cfi_startproc
 111              	.LVL10:
ARM GAS  C:\Users\310295~1\AppData\Local\Temp\ccRYvGzC.s 			page 6


 112 0000 70B5     		push	{r4, r5, r6, lr}
 113              		.cfi_def_cfa_offset 16
 114              		.cfi_offset 4, -16
 115              		.cfi_offset 5, -12
 116              		.cfi_offset 6, -8
 117              		.cfi_offset 14, -4
 118 0002 061C     		mov	r6, r0
 119 0004 0D1C     		mov	r5, r1
 120              	.LVL11:
 173:.\Generated_Source\PSoC4/UART_Dbg.c ****     uint32 arrayIndex;
 174:.\Generated_Source\PSoC4/UART_Dbg.c **** 
 175:.\Generated_Source\PSoC4/UART_Dbg.c ****     for (arrayIndex = 0u; arrayIndex < byteCount; arrayIndex++)
 121              		.loc 1 175 0
 122 0006 0024     		mov	r4, #0
 123 0008 03E0     		b	.L7
 124              	.LVL12:
 125              	.L8:
 176:.\Generated_Source\PSoC4/UART_Dbg.c ****     {
 177:.\Generated_Source\PSoC4/UART_Dbg.c ****         UART_Dbg_PutChar(array[arrayIndex]);
 126              		.loc 1 177 0 discriminator 3
 127 000a 305D     		ldrb	r0, [r6, r4]
 128 000c FFF7FEFF 		bl	UART_Dbg_PutChar
 129              	.LVL13:
 175:.\Generated_Source\PSoC4/UART_Dbg.c ****     {
 130              		.loc 1 175 0 discriminator 3
 131 0010 0134     		add	r4, r4, #1
 132              	.LVL14:
 133              	.L7:
 175:.\Generated_Source\PSoC4/UART_Dbg.c ****     {
 134              		.loc 1 175 0 is_stmt 0 discriminator 1
 135 0012 AC42     		cmp	r4, r5
 136 0014 F9D3     		bcc	.L8
 178:.\Generated_Source\PSoC4/UART_Dbg.c ****     }
 179:.\Generated_Source\PSoC4/UART_Dbg.c **** }
 137              		.loc 1 179 0 is_stmt 1
 138              		@ sp needed
 139              	.LVL15:
 140              	.LVL16:
 141              	.LVL17:
 142 0016 70BD     		pop	{r4, r5, r6, pc}
 143              		.cfi_endproc
 144              	.LFE3:
 145              		.size	UART_Dbg_PutArray, .-UART_Dbg_PutArray
 146              		.section	.text.UART_Dbg_PutHexByte,"ax",%progbits
 147              		.align	2
 148              		.global	UART_Dbg_PutHexByte
 149              		.code	16
 150              		.thumb_func
 151              		.type	UART_Dbg_PutHexByte, %function
 152              	UART_Dbg_PutHexByte:
 153              	.LFB4:
 180:.\Generated_Source\PSoC4/UART_Dbg.c **** 
 181:.\Generated_Source\PSoC4/UART_Dbg.c **** 
 182:.\Generated_Source\PSoC4/UART_Dbg.c **** /*******************************************************************************
 183:.\Generated_Source\PSoC4/UART_Dbg.c **** * Function Name: UART_Dbg_PutHexByte
 184:.\Generated_Source\PSoC4/UART_Dbg.c **** ********************************************************************************
 185:.\Generated_Source\PSoC4/UART_Dbg.c **** *
ARM GAS  C:\Users\310295~1\AppData\Local\Temp\ccRYvGzC.s 			page 7


 186:.\Generated_Source\PSoC4/UART_Dbg.c **** * Summary:
 187:.\Generated_Source\PSoC4/UART_Dbg.c **** *  Sends a byte in Hex representation (two characters, uppercase for A-F) via
 188:.\Generated_Source\PSoC4/UART_Dbg.c **** *  the Tx pin.
 189:.\Generated_Source\PSoC4/UART_Dbg.c **** *
 190:.\Generated_Source\PSoC4/UART_Dbg.c **** * Parameters:
 191:.\Generated_Source\PSoC4/UART_Dbg.c **** *  TxHexByte: The byte to be converted to ASCII characters and
 192:.\Generated_Source\PSoC4/UART_Dbg.c **** *             sent via the Tx pin.
 193:.\Generated_Source\PSoC4/UART_Dbg.c **** *
 194:.\Generated_Source\PSoC4/UART_Dbg.c **** * Return:
 195:.\Generated_Source\PSoC4/UART_Dbg.c **** *  None
 196:.\Generated_Source\PSoC4/UART_Dbg.c **** *
 197:.\Generated_Source\PSoC4/UART_Dbg.c **** *******************************************************************************/
 198:.\Generated_Source\PSoC4/UART_Dbg.c **** void UART_Dbg_PutHexByte(uint8 txHexByte) 
 199:.\Generated_Source\PSoC4/UART_Dbg.c **** {
 154              		.loc 1 199 0
 155              		.cfi_startproc
 156              	.LVL18:
 157 0000 38B5     		push	{r3, r4, r5, lr}
 158              		.cfi_def_cfa_offset 16
 159              		.cfi_offset 3, -16
 160              		.cfi_offset 4, -12
 161              		.cfi_offset 5, -8
 162              		.cfi_offset 14, -4
 163 0002 041C     		mov	r4, r0
 200:.\Generated_Source\PSoC4/UART_Dbg.c ****     static char8 const CYCODE UART_Dbg_hex[] = "0123456789ABCDEF";
 201:.\Generated_Source\PSoC4/UART_Dbg.c **** 
 202:.\Generated_Source\PSoC4/UART_Dbg.c ****     UART_Dbg_PutChar((uint8) UART_Dbg_hex[txHexByte >> UART_Dbg_BYTE_UPPER_NIBBLE_SHIFT]);
 164              		.loc 1 202 0
 165 0004 0309     		lsr	r3, r0, #4
 166 0006 054D     		ldr	r5, .L10
 167 0008 E85C     		ldrb	r0, [r5, r3]
 168              	.LVL19:
 169 000a FFF7FEFF 		bl	UART_Dbg_PutChar
 170              	.LVL20:
 203:.\Generated_Source\PSoC4/UART_Dbg.c ****     UART_Dbg_PutChar((uint8) UART_Dbg_hex[txHexByte & UART_Dbg_BYTE_LOWER_NIBBLE_MASK]);
 171              		.loc 1 203 0
 172 000e 0F23     		mov	r3, #15
 173 0010 1C40     		and	r4, r3
 174 0012 285D     		ldrb	r0, [r5, r4]
 175 0014 FFF7FEFF 		bl	UART_Dbg_PutChar
 176              	.LVL21:
 204:.\Generated_Source\PSoC4/UART_Dbg.c **** }
 177              		.loc 1 204 0
 178              		@ sp needed
 179 0018 38BD     		pop	{r3, r4, r5, pc}
 180              	.L11:
 181 001a C046     		.align	2
 182              	.L10:
 183 001c 00000000 		.word	.LANCHOR0
 184              		.cfi_endproc
 185              	.LFE4:
 186              		.size	UART_Dbg_PutHexByte, .-UART_Dbg_PutHexByte
 187              		.section	.text.UART_Dbg_PutHexInt,"ax",%progbits
 188              		.align	2
 189              		.global	UART_Dbg_PutHexInt
 190              		.code	16
 191              		.thumb_func
ARM GAS  C:\Users\310295~1\AppData\Local\Temp\ccRYvGzC.s 			page 8


 192              		.type	UART_Dbg_PutHexInt, %function
 193              	UART_Dbg_PutHexInt:
 194              	.LFB5:
 205:.\Generated_Source\PSoC4/UART_Dbg.c **** 
 206:.\Generated_Source\PSoC4/UART_Dbg.c **** 
 207:.\Generated_Source\PSoC4/UART_Dbg.c **** /*******************************************************************************
 208:.\Generated_Source\PSoC4/UART_Dbg.c **** * Function Name: UART_Dbg_PutHexInt
 209:.\Generated_Source\PSoC4/UART_Dbg.c **** ********************************************************************************
 210:.\Generated_Source\PSoC4/UART_Dbg.c **** *
 211:.\Generated_Source\PSoC4/UART_Dbg.c **** * Summary:
 212:.\Generated_Source\PSoC4/UART_Dbg.c **** *  Sends a 16-bit unsigned integer in Hex representation (four characters,
 213:.\Generated_Source\PSoC4/UART_Dbg.c **** *  uppercase for A-F) via the Tx pin.
 214:.\Generated_Source\PSoC4/UART_Dbg.c **** *
 215:.\Generated_Source\PSoC4/UART_Dbg.c **** * Parameters:
 216:.\Generated_Source\PSoC4/UART_Dbg.c **** *  TxHexInt: The uint16 to be converted to ASCII characters and sent via
 217:.\Generated_Source\PSoC4/UART_Dbg.c **** *            the Tx pin.
 218:.\Generated_Source\PSoC4/UART_Dbg.c **** *
 219:.\Generated_Source\PSoC4/UART_Dbg.c **** * Return:
 220:.\Generated_Source\PSoC4/UART_Dbg.c **** *  None
 221:.\Generated_Source\PSoC4/UART_Dbg.c **** *
 222:.\Generated_Source\PSoC4/UART_Dbg.c **** *******************************************************************************/
 223:.\Generated_Source\PSoC4/UART_Dbg.c **** void UART_Dbg_PutHexInt(uint16 txHexInt) 
 224:.\Generated_Source\PSoC4/UART_Dbg.c **** {
 195              		.loc 1 224 0
 196              		.cfi_startproc
 197              	.LVL22:
 198 0000 10B5     		push	{r4, lr}
 199              		.cfi_def_cfa_offset 8
 200              		.cfi_offset 4, -8
 201              		.cfi_offset 14, -4
 202 0002 041C     		mov	r4, r0
 225:.\Generated_Source\PSoC4/UART_Dbg.c ****     UART_Dbg_PutHexByte((uint8)(txHexInt >> UART_Dbg_U16_UPPER_BYTE_SHIFT));
 203              		.loc 1 225 0
 204 0004 000A     		lsr	r0, r0, #8
 205              	.LVL23:
 206 0006 FFF7FEFF 		bl	UART_Dbg_PutHexByte
 207              	.LVL24:
 226:.\Generated_Source\PSoC4/UART_Dbg.c ****     UART_Dbg_PutHexByte((uint8)(txHexInt & UART_Dbg_U16_LOWER_BYTE_MASK));
 208              		.loc 1 226 0
 209 000a E0B2     		uxtb	r0, r4
 210 000c FFF7FEFF 		bl	UART_Dbg_PutHexByte
 211              	.LVL25:
 227:.\Generated_Source\PSoC4/UART_Dbg.c **** }
 212              		.loc 1 227 0
 213              		@ sp needed
 214 0010 10BD     		pop	{r4, pc}
 215              		.cfi_endproc
 216              	.LFE5:
 217              		.size	UART_Dbg_PutHexInt, .-UART_Dbg_PutHexInt
 218 0012 C046     		.section	.text.UART_Dbg_PutCRLF,"ax",%progbits
 219              		.align	2
 220              		.global	UART_Dbg_PutCRLF
 221              		.code	16
 222              		.thumb_func
 223              		.type	UART_Dbg_PutCRLF, %function
 224              	UART_Dbg_PutCRLF:
 225              	.LFB6:
ARM GAS  C:\Users\310295~1\AppData\Local\Temp\ccRYvGzC.s 			page 9


 228:.\Generated_Source\PSoC4/UART_Dbg.c **** 
 229:.\Generated_Source\PSoC4/UART_Dbg.c **** 
 230:.\Generated_Source\PSoC4/UART_Dbg.c **** /*******************************************************************************
 231:.\Generated_Source\PSoC4/UART_Dbg.c **** * Function Name: UART_Dbg_PutCRLF
 232:.\Generated_Source\PSoC4/UART_Dbg.c **** ********************************************************************************
 233:.\Generated_Source\PSoC4/UART_Dbg.c **** *
 234:.\Generated_Source\PSoC4/UART_Dbg.c **** * Summary:
 235:.\Generated_Source\PSoC4/UART_Dbg.c **** *  Sends a carriage return (0x0D) and a line feed (0x0A) via the Tx pin.
 236:.\Generated_Source\PSoC4/UART_Dbg.c **** *
 237:.\Generated_Source\PSoC4/UART_Dbg.c **** * Parameters:
 238:.\Generated_Source\PSoC4/UART_Dbg.c **** *  None
 239:.\Generated_Source\PSoC4/UART_Dbg.c **** *
 240:.\Generated_Source\PSoC4/UART_Dbg.c **** * Return:
 241:.\Generated_Source\PSoC4/UART_Dbg.c **** *  None
 242:.\Generated_Source\PSoC4/UART_Dbg.c **** *
 243:.\Generated_Source\PSoC4/UART_Dbg.c **** *******************************************************************************/
 244:.\Generated_Source\PSoC4/UART_Dbg.c **** void UART_Dbg_PutCRLF(void) 
 245:.\Generated_Source\PSoC4/UART_Dbg.c **** {
 226              		.loc 1 245 0
 227              		.cfi_startproc
 228 0000 08B5     		push	{r3, lr}
 229              		.cfi_def_cfa_offset 8
 230              		.cfi_offset 3, -8
 231              		.cfi_offset 14, -4
 246:.\Generated_Source\PSoC4/UART_Dbg.c ****     UART_Dbg_PutChar(0x0Du);
 232              		.loc 1 246 0
 233 0002 0D20     		mov	r0, #13
 234 0004 FFF7FEFF 		bl	UART_Dbg_PutChar
 235              	.LVL26:
 247:.\Generated_Source\PSoC4/UART_Dbg.c ****     UART_Dbg_PutChar(0x0Au);
 236              		.loc 1 247 0
 237 0008 0A20     		mov	r0, #10
 238 000a FFF7FEFF 		bl	UART_Dbg_PutChar
 239              	.LVL27:
 248:.\Generated_Source\PSoC4/UART_Dbg.c **** }
 240              		.loc 1 248 0
 241              		@ sp needed
 242 000e 08BD     		pop	{r3, pc}
 243              		.cfi_endproc
 244              	.LFE6:
 245              		.size	UART_Dbg_PutCRLF, .-UART_Dbg_PutCRLF
 246              		.global	UART_Dbg_pinDrAdress
 247              		.global	UART_Dbg_pinPortNumber
 248              		.global	UART_Dbg_pinNumber
 249              		.section	.rodata
 250              		.align	2
 251              		.set	.LANCHOR0,. + 0
 252              		.type	UART_Dbg_hex.4188, %object
 253              		.size	UART_Dbg_hex.4188, 17
 254              	UART_Dbg_hex.4188:
 255 0000 30313233 		.ascii	"0123456789ABCDEF\000"
 255      34353637 
 255      38394142 
 255      43444546 
 255      00
 256 0011 000000   		.data
 257              		.align	2
ARM GAS  C:\Users\310295~1\AppData\Local\Temp\ccRYvGzC.s 			page 10


 258              		.type	UART_Dbg_pinDrAdress, %object
 259              		.size	UART_Dbg_pinDrAdress, 4
 260              	UART_Dbg_pinDrAdress:
 261 0000 00000440 		.word	1074003968
 262              		.type	UART_Dbg_pinNumber, %object
 263              		.size	UART_Dbg_pinNumber, 4
 264              	UART_Dbg_pinNumber:
 265 0004 05000000 		.word	5
 266              		.bss
 267              		.align	2
 268              		.type	UART_Dbg_pinPortNumber, %object
 269              		.size	UART_Dbg_pinPortNumber, 4
 270              	UART_Dbg_pinPortNumber:
 271 0000 00000000 		.space	4
 272              		.text
 273              	.Letext0:
 274              		.file 2 ".\\Generated_Source\\PSoC4\\cytypes.h"
 275              		.file 3 ".\\Generated_Source\\PSoC4\\UART_Dbg.h"